
Fuzzy_Balancing_Robot.elf:     file format elf32-littlearm

Sections:
Idx Name          Size      VMA       LMA       File off  Algn
  0 .isr_vector   0000010c  08000000  08000000  00001000  2**0
                  CONTENTS, ALLOC, LOAD, READONLY, DATA
  1 .text         0000634c  08000110  08000110  00001110  2**3
                  CONTENTS, ALLOC, LOAD, READONLY, CODE
  2 .rodata       000000a0  08006460  08006460  00007460  2**3
                  CONTENTS, ALLOC, LOAD, READONLY, DATA
  3 .ARM.extab    00000000  08006500  08006500  00008100  2**0
                  CONTENTS
  4 .ARM          00000000  08006500  08006500  00008100  2**0
                  CONTENTS
  5 .preinit_array 00000000  08006500  08006500  00008100  2**0
                  CONTENTS, ALLOC, LOAD, DATA
  6 .init_array   00000004  08006500  08006500  00007500  2**2
                  CONTENTS, ALLOC, LOAD, READONLY, DATA
  7 .fini_array   00000004  08006504  08006504  00007504  2**2
                  CONTENTS, ALLOC, LOAD, READONLY, DATA
  8 .data         00000100  20000000  08006508  00008000  2**3
                  CONTENTS, ALLOC, LOAD, DATA
  9 .bss          00000368  20000100  08006608  00008100  2**3
                  ALLOC
 10 ._user_heap_stack 00000600  20000468  08006608  00008468  2**0
                  ALLOC
 11 .ARM.attributes 00000029  00000000  00000000  00008100  2**0
                  CONTENTS, READONLY
 12 .debug_info   0000efa1  00000000  00000000  00008129  2**0
                  CONTENTS, READONLY, DEBUGGING, OCTETS
 13 .debug_abbrev 00001fcc  00000000  00000000  000170ca  2**0
                  CONTENTS, READONLY, DEBUGGING, OCTETS
 14 .debug_aranges 00000ef8  00000000  00000000  00019098  2**3
                  CONTENTS, READONLY, DEBUGGING, OCTETS
 15 .debug_rnglists 00000be7  00000000  00000000  00019f90  2**0
                  CONTENTS, READONLY, DEBUGGING, OCTETS
 16 .debug_macro  00017d65  00000000  00000000  0001ab77  2**0
                  CONTENTS, READONLY, DEBUGGING, OCTETS
 17 .debug_line   0001143b  00000000  00000000  000328dc  2**0
                  CONTENTS, READONLY, DEBUGGING, OCTETS
 18 .debug_str    0008cade  00000000  00000000  00043d17  2**0
                  CONTENTS, READONLY, DEBUGGING, OCTETS
 19 .comment      00000043  00000000  00000000  000d07f5  2**0
                  CONTENTS, READONLY
 20 .debug_frame  00004614  00000000  00000000  000d0838  2**2
                  CONTENTS, READONLY, DEBUGGING, OCTETS
 21 .debug_line_str 00000056  00000000  00000000  000d4e4c  2**0
                  CONTENTS, READONLY, DEBUGGING, OCTETS

Disassembly of section .text:

08000110 <__do_global_dtors_aux>:
 8000110:	b510      	push	{r4, lr}
 8000112:	4c05      	ldr	r4, [pc, #20]	@ (8000128 <__do_global_dtors_aux+0x18>)
 8000114:	7823      	ldrb	r3, [r4, #0]
 8000116:	b933      	cbnz	r3, 8000126 <__do_global_dtors_aux+0x16>
 8000118:	4b04      	ldr	r3, [pc, #16]	@ (800012c <__do_global_dtors_aux+0x1c>)
 800011a:	b113      	cbz	r3, 8000122 <__do_global_dtors_aux+0x12>
 800011c:	4804      	ldr	r0, [pc, #16]	@ (8000130 <__do_global_dtors_aux+0x20>)
 800011e:	f3af 8000 	nop.w
 8000122:	2301      	movs	r3, #1
 8000124:	7023      	strb	r3, [r4, #0]
 8000126:	bd10      	pop	{r4, pc}
 8000128:	20000100 	.word	0x20000100
 800012c:	00000000 	.word	0x00000000
 8000130:	08006444 	.word	0x08006444

08000134 <frame_dummy>:
 8000134:	b508      	push	{r3, lr}
 8000136:	4b03      	ldr	r3, [pc, #12]	@ (8000144 <frame_dummy+0x10>)
 8000138:	b11b      	cbz	r3, 8000142 <frame_dummy+0xe>
 800013a:	4903      	ldr	r1, [pc, #12]	@ (8000148 <frame_dummy+0x14>)
 800013c:	4803      	ldr	r0, [pc, #12]	@ (800014c <frame_dummy+0x18>)
 800013e:	f3af 8000 	nop.w
 8000142:	bd08      	pop	{r3, pc}
 8000144:	00000000 	.word	0x00000000
 8000148:	20000104 	.word	0x20000104
 800014c:	08006444 	.word	0x08006444

08000150 <__aeabi_drsub>:
 8000150:	f081 4100 	eor.w	r1, r1, #2147483648	@ 0x80000000
 8000154:	e002      	b.n	800015c <__adddf3>
 8000156:	bf00      	nop

08000158 <__aeabi_dsub>:
 8000158:	f083 4300 	eor.w	r3, r3, #2147483648	@ 0x80000000

0800015c <__adddf3>:
 800015c:	b530      	push	{r4, r5, lr}
 800015e:	ea4f 0441 	mov.w	r4, r1, lsl #1
 8000162:	ea4f 0543 	mov.w	r5, r3, lsl #1
 8000166:	ea94 0f05 	teq	r4, r5
 800016a:	bf08      	it	eq
 800016c:	ea90 0f02 	teqeq	r0, r2
 8000170:	bf1f      	itttt	ne
 8000172:	ea54 0c00 	orrsne.w	ip, r4, r0
 8000176:	ea55 0c02 	orrsne.w	ip, r5, r2
 800017a:	ea7f 5c64 	mvnsne.w	ip, r4, asr #21
 800017e:	ea7f 5c65 	mvnsne.w	ip, r5, asr #21
 8000182:	f000 80e2 	beq.w	800034a <__adddf3+0x1ee>
 8000186:	ea4f 5454 	mov.w	r4, r4, lsr #21
 800018a:	ebd4 5555 	rsbs	r5, r4, r5, lsr #21
 800018e:	bfb8      	it	lt
 8000190:	426d      	neglt	r5, r5
 8000192:	dd0c      	ble.n	80001ae <__adddf3+0x52>
 8000194:	442c      	add	r4, r5
 8000196:	ea80 0202 	eor.w	r2, r0, r2
 800019a:	ea81 0303 	eor.w	r3, r1, r3
 800019e:	ea82 0000 	eor.w	r0, r2, r0
 80001a2:	ea83 0101 	eor.w	r1, r3, r1
 80001a6:	ea80 0202 	eor.w	r2, r0, r2
 80001aa:	ea81 0303 	eor.w	r3, r1, r3
 80001ae:	2d36      	cmp	r5, #54	@ 0x36
 80001b0:	bf88      	it	hi
 80001b2:	bd30      	pophi	{r4, r5, pc}
 80001b4:	f011 4f00 	tst.w	r1, #2147483648	@ 0x80000000
 80001b8:	ea4f 3101 	mov.w	r1, r1, lsl #12
 80001bc:	f44f 1c80 	mov.w	ip, #1048576	@ 0x100000
 80001c0:	ea4c 3111 	orr.w	r1, ip, r1, lsr #12
 80001c4:	d002      	beq.n	80001cc <__adddf3+0x70>
 80001c6:	4240      	negs	r0, r0
 80001c8:	eb61 0141 	sbc.w	r1, r1, r1, lsl #1
 80001cc:	f013 4f00 	tst.w	r3, #2147483648	@ 0x80000000
 80001d0:	ea4f 3303 	mov.w	r3, r3, lsl #12
 80001d4:	ea4c 3313 	orr.w	r3, ip, r3, lsr #12
 80001d8:	d002      	beq.n	80001e0 <__adddf3+0x84>
 80001da:	4252      	negs	r2, r2
 80001dc:	eb63 0343 	sbc.w	r3, r3, r3, lsl #1
 80001e0:	ea94 0f05 	teq	r4, r5
 80001e4:	f000 80a7 	beq.w	8000336 <__adddf3+0x1da>
 80001e8:	f1a4 0401 	sub.w	r4, r4, #1
 80001ec:	f1d5 0e20 	rsbs	lr, r5, #32
 80001f0:	db0d      	blt.n	800020e <__adddf3+0xb2>
 80001f2:	fa02 fc0e 	lsl.w	ip, r2, lr
 80001f6:	fa22 f205 	lsr.w	r2, r2, r5
 80001fa:	1880      	adds	r0, r0, r2
 80001fc:	f141 0100 	adc.w	r1, r1, #0
 8000200:	fa03 f20e 	lsl.w	r2, r3, lr
 8000204:	1880      	adds	r0, r0, r2
 8000206:	fa43 f305 	asr.w	r3, r3, r5
 800020a:	4159      	adcs	r1, r3
 800020c:	e00e      	b.n	800022c <__adddf3+0xd0>
 800020e:	f1a5 0520 	sub.w	r5, r5, #32
 8000212:	f10e 0e20 	add.w	lr, lr, #32
 8000216:	2a01      	cmp	r2, #1
 8000218:	fa03 fc0e 	lsl.w	ip, r3, lr
 800021c:	bf28      	it	cs
 800021e:	f04c 0c02 	orrcs.w	ip, ip, #2
 8000222:	fa43 f305 	asr.w	r3, r3, r5
 8000226:	18c0      	adds	r0, r0, r3
 8000228:	eb51 71e3 	adcs.w	r1, r1, r3, asr #31
 800022c:	f001 4500 	and.w	r5, r1, #2147483648	@ 0x80000000
 8000230:	d507      	bpl.n	8000242 <__adddf3+0xe6>
 8000232:	f04f 0e00 	mov.w	lr, #0
 8000236:	f1dc 0c00 	rsbs	ip, ip, #0
 800023a:	eb7e 0000 	sbcs.w	r0, lr, r0
 800023e:	eb6e 0101 	sbc.w	r1, lr, r1
 8000242:	f5b1 1f80 	cmp.w	r1, #1048576	@ 0x100000
 8000246:	d31b      	bcc.n	8000280 <__adddf3+0x124>
 8000248:	f5b1 1f00 	cmp.w	r1, #2097152	@ 0x200000
 800024c:	d30c      	bcc.n	8000268 <__adddf3+0x10c>
 800024e:	0849      	lsrs	r1, r1, #1
 8000250:	ea5f 0030 	movs.w	r0, r0, rrx
 8000254:	ea4f 0c3c 	mov.w	ip, ip, rrx
 8000258:	f104 0401 	add.w	r4, r4, #1
 800025c:	ea4f 5244 	mov.w	r2, r4, lsl #21
 8000260:	f512 0f80 	cmn.w	r2, #4194304	@ 0x400000
 8000264:	f080 809a 	bcs.w	800039c <__adddf3+0x240>
 8000268:	f1bc 4f00 	cmp.w	ip, #2147483648	@ 0x80000000
 800026c:	bf08      	it	eq
 800026e:	ea5f 0c50 	movseq.w	ip, r0, lsr #1
 8000272:	f150 0000 	adcs.w	r0, r0, #0
 8000276:	eb41 5104 	adc.w	r1, r1, r4, lsl #20
 800027a:	ea41 0105 	orr.w	r1, r1, r5
 800027e:	bd30      	pop	{r4, r5, pc}
 8000280:	ea5f 0c4c 	movs.w	ip, ip, lsl #1
 8000284:	4140      	adcs	r0, r0
 8000286:	eb41 0101 	adc.w	r1, r1, r1
 800028a:	3c01      	subs	r4, #1
 800028c:	bf28      	it	cs
 800028e:	f5b1 1f80 	cmpcs.w	r1, #1048576	@ 0x100000
 8000292:	d2e9      	bcs.n	8000268 <__adddf3+0x10c>
 8000294:	f091 0f00 	teq	r1, #0
 8000298:	bf04      	itt	eq
 800029a:	4601      	moveq	r1, r0
 800029c:	2000      	moveq	r0, #0
 800029e:	fab1 f381 	clz	r3, r1
 80002a2:	bf08      	it	eq
 80002a4:	3320      	addeq	r3, #32
 80002a6:	f1a3 030b 	sub.w	r3, r3, #11
 80002aa:	f1b3 0220 	subs.w	r2, r3, #32
 80002ae:	da0c      	bge.n	80002ca <__adddf3+0x16e>
 80002b0:	320c      	adds	r2, #12
 80002b2:	dd08      	ble.n	80002c6 <__adddf3+0x16a>
 80002b4:	f102 0c14 	add.w	ip, r2, #20
 80002b8:	f1c2 020c 	rsb	r2, r2, #12
 80002bc:	fa01 f00c 	lsl.w	r0, r1, ip
 80002c0:	fa21 f102 	lsr.w	r1, r1, r2
 80002c4:	e00c      	b.n	80002e0 <__adddf3+0x184>
 80002c6:	f102 0214 	add.w	r2, r2, #20
 80002ca:	bfd8      	it	le
 80002cc:	f1c2 0c20 	rsble	ip, r2, #32
 80002d0:	fa01 f102 	lsl.w	r1, r1, r2
 80002d4:	fa20 fc0c 	lsr.w	ip, r0, ip
 80002d8:	bfdc      	itt	le
 80002da:	ea41 010c 	orrle.w	r1, r1, ip
 80002de:	4090      	lslle	r0, r2
 80002e0:	1ae4      	subs	r4, r4, r3
 80002e2:	bfa2      	ittt	ge
 80002e4:	eb01 5104 	addge.w	r1, r1, r4, lsl #20
 80002e8:	4329      	orrge	r1, r5
 80002ea:	bd30      	popge	{r4, r5, pc}
 80002ec:	ea6f 0404 	mvn.w	r4, r4
 80002f0:	3c1f      	subs	r4, #31
 80002f2:	da1c      	bge.n	800032e <__adddf3+0x1d2>
 80002f4:	340c      	adds	r4, #12
 80002f6:	dc0e      	bgt.n	8000316 <__adddf3+0x1ba>
 80002f8:	f104 0414 	add.w	r4, r4, #20
 80002fc:	f1c4 0220 	rsb	r2, r4, #32
 8000300:	fa20 f004 	lsr.w	r0, r0, r4
 8000304:	fa01 f302 	lsl.w	r3, r1, r2
 8000308:	ea40 0003 	orr.w	r0, r0, r3
 800030c:	fa21 f304 	lsr.w	r3, r1, r4
 8000310:	ea45 0103 	orr.w	r1, r5, r3
 8000314:	bd30      	pop	{r4, r5, pc}
 8000316:	f1c4 040c 	rsb	r4, r4, #12
 800031a:	f1c4 0220 	rsb	r2, r4, #32
 800031e:	fa20 f002 	lsr.w	r0, r0, r2
 8000322:	fa01 f304 	lsl.w	r3, r1, r4
 8000326:	ea40 0003 	orr.w	r0, r0, r3
 800032a:	4629      	mov	r1, r5
 800032c:	bd30      	pop	{r4, r5, pc}
 800032e:	fa21 f004 	lsr.w	r0, r1, r4
 8000332:	4629      	mov	r1, r5
 8000334:	bd30      	pop	{r4, r5, pc}
 8000336:	f094 0f00 	teq	r4, #0
 800033a:	f483 1380 	eor.w	r3, r3, #1048576	@ 0x100000
 800033e:	bf06      	itte	eq
 8000340:	f481 1180 	eoreq.w	r1, r1, #1048576	@ 0x100000
 8000344:	3401      	addeq	r4, #1
 8000346:	3d01      	subne	r5, #1
 8000348:	e74e      	b.n	80001e8 <__adddf3+0x8c>
 800034a:	ea7f 5c64 	mvns.w	ip, r4, asr #21
 800034e:	bf18      	it	ne
 8000350:	ea7f 5c65 	mvnsne.w	ip, r5, asr #21
 8000354:	d029      	beq.n	80003aa <__adddf3+0x24e>
 8000356:	ea94 0f05 	teq	r4, r5
 800035a:	bf08      	it	eq
 800035c:	ea90 0f02 	teqeq	r0, r2
 8000360:	d005      	beq.n	800036e <__adddf3+0x212>
 8000362:	ea54 0c00 	orrs.w	ip, r4, r0
 8000366:	bf04      	itt	eq
 8000368:	4619      	moveq	r1, r3
 800036a:	4610      	moveq	r0, r2
 800036c:	bd30      	pop	{r4, r5, pc}
 800036e:	ea91 0f03 	teq	r1, r3
 8000372:	bf1e      	ittt	ne
 8000374:	2100      	movne	r1, #0
 8000376:	2000      	movne	r0, #0
 8000378:	bd30      	popne	{r4, r5, pc}
 800037a:	ea5f 5c54 	movs.w	ip, r4, lsr #21
 800037e:	d105      	bne.n	800038c <__adddf3+0x230>
 8000380:	0040      	lsls	r0, r0, #1
 8000382:	4149      	adcs	r1, r1
 8000384:	bf28      	it	cs
 8000386:	f041 4100 	orrcs.w	r1, r1, #2147483648	@ 0x80000000
 800038a:	bd30      	pop	{r4, r5, pc}
 800038c:	f514 0480 	adds.w	r4, r4, #4194304	@ 0x400000
 8000390:	bf3c      	itt	cc
 8000392:	f501 1180 	addcc.w	r1, r1, #1048576	@ 0x100000
 8000396:	bd30      	popcc	{r4, r5, pc}
 8000398:	f001 4500 	and.w	r5, r1, #2147483648	@ 0x80000000
 800039c:	f045 41fe 	orr.w	r1, r5, #2130706432	@ 0x7f000000
 80003a0:	f441 0170 	orr.w	r1, r1, #15728640	@ 0xf00000
 80003a4:	f04f 0000 	mov.w	r0, #0
 80003a8:	bd30      	pop	{r4, r5, pc}
 80003aa:	ea7f 5c64 	mvns.w	ip, r4, asr #21
 80003ae:	bf1a      	itte	ne
 80003b0:	4619      	movne	r1, r3
 80003b2:	4610      	movne	r0, r2
 80003b4:	ea7f 5c65 	mvnseq.w	ip, r5, asr #21
 80003b8:	bf1c      	itt	ne
 80003ba:	460b      	movne	r3, r1
 80003bc:	4602      	movne	r2, r0
 80003be:	ea50 3401 	orrs.w	r4, r0, r1, lsl #12
 80003c2:	bf06      	itte	eq
 80003c4:	ea52 3503 	orrseq.w	r5, r2, r3, lsl #12
 80003c8:	ea91 0f03 	teqeq	r1, r3
 80003cc:	f441 2100 	orrne.w	r1, r1, #524288	@ 0x80000
 80003d0:	bd30      	pop	{r4, r5, pc}
 80003d2:	bf00      	nop

080003d4 <__aeabi_ui2d>:
 80003d4:	f090 0f00 	teq	r0, #0
 80003d8:	bf04      	itt	eq
 80003da:	2100      	moveq	r1, #0
 80003dc:	4770      	bxeq	lr
 80003de:	b530      	push	{r4, r5, lr}
 80003e0:	f44f 6480 	mov.w	r4, #1024	@ 0x400
 80003e4:	f104 0432 	add.w	r4, r4, #50	@ 0x32
 80003e8:	f04f 0500 	mov.w	r5, #0
 80003ec:	f04f 0100 	mov.w	r1, #0
 80003f0:	e750      	b.n	8000294 <__adddf3+0x138>
 80003f2:	bf00      	nop

080003f4 <__aeabi_i2d>:
 80003f4:	f090 0f00 	teq	r0, #0
 80003f8:	bf04      	itt	eq
 80003fa:	2100      	moveq	r1, #0
 80003fc:	4770      	bxeq	lr
 80003fe:	b530      	push	{r4, r5, lr}
 8000400:	f44f 6480 	mov.w	r4, #1024	@ 0x400
 8000404:	f104 0432 	add.w	r4, r4, #50	@ 0x32
 8000408:	f010 4500 	ands.w	r5, r0, #2147483648	@ 0x80000000
 800040c:	bf48      	it	mi
 800040e:	4240      	negmi	r0, r0
 8000410:	f04f 0100 	mov.w	r1, #0
 8000414:	e73e      	b.n	8000294 <__adddf3+0x138>
 8000416:	bf00      	nop

08000418 <__aeabi_f2d>:
 8000418:	0042      	lsls	r2, r0, #1
 800041a:	ea4f 01e2 	mov.w	r1, r2, asr #3
 800041e:	ea4f 0131 	mov.w	r1, r1, rrx
 8000422:	ea4f 7002 	mov.w	r0, r2, lsl #28
 8000426:	bf1f      	itttt	ne
 8000428:	f012 437f 	andsne.w	r3, r2, #4278190080	@ 0xff000000
 800042c:	f093 4f7f 	teqne	r3, #4278190080	@ 0xff000000
 8000430:	f081 5160 	eorne.w	r1, r1, #939524096	@ 0x38000000
 8000434:	4770      	bxne	lr
 8000436:	f032 427f 	bics.w	r2, r2, #4278190080	@ 0xff000000
 800043a:	bf08      	it	eq
 800043c:	4770      	bxeq	lr
 800043e:	f093 4f7f 	teq	r3, #4278190080	@ 0xff000000
 8000442:	bf04      	itt	eq
 8000444:	f441 2100 	orreq.w	r1, r1, #524288	@ 0x80000
 8000448:	4770      	bxeq	lr
 800044a:	b530      	push	{r4, r5, lr}
 800044c:	f44f 7460 	mov.w	r4, #896	@ 0x380
 8000450:	f001 4500 	and.w	r5, r1, #2147483648	@ 0x80000000
 8000454:	f021 4100 	bic.w	r1, r1, #2147483648	@ 0x80000000
 8000458:	e71c      	b.n	8000294 <__adddf3+0x138>
 800045a:	bf00      	nop

0800045c <__aeabi_ul2d>:
 800045c:	ea50 0201 	orrs.w	r2, r0, r1
 8000460:	bf08      	it	eq
 8000462:	4770      	bxeq	lr
 8000464:	b530      	push	{r4, r5, lr}
 8000466:	f04f 0500 	mov.w	r5, #0
 800046a:	e00a      	b.n	8000482 <__aeabi_l2d+0x16>

0800046c <__aeabi_l2d>:
 800046c:	ea50 0201 	orrs.w	r2, r0, r1
 8000470:	bf08      	it	eq
 8000472:	4770      	bxeq	lr
 8000474:	b530      	push	{r4, r5, lr}
 8000476:	f011 4500 	ands.w	r5, r1, #2147483648	@ 0x80000000
 800047a:	d502      	bpl.n	8000482 <__aeabi_l2d+0x16>
 800047c:	4240      	negs	r0, r0
 800047e:	eb61 0141 	sbc.w	r1, r1, r1, lsl #1
 8000482:	f44f 6480 	mov.w	r4, #1024	@ 0x400
 8000486:	f104 0432 	add.w	r4, r4, #50	@ 0x32
 800048a:	ea5f 5c91 	movs.w	ip, r1, lsr #22
 800048e:	f43f aed8 	beq.w	8000242 <__adddf3+0xe6>
 8000492:	f04f 0203 	mov.w	r2, #3
 8000496:	ea5f 0cdc 	movs.w	ip, ip, lsr #3
 800049a:	bf18      	it	ne
 800049c:	3203      	addne	r2, #3
 800049e:	ea5f 0cdc 	movs.w	ip, ip, lsr #3
 80004a2:	bf18      	it	ne
 80004a4:	3203      	addne	r2, #3
 80004a6:	eb02 02dc 	add.w	r2, r2, ip, lsr #3
 80004aa:	f1c2 0320 	rsb	r3, r2, #32
 80004ae:	fa00 fc03 	lsl.w	ip, r0, r3
 80004b2:	fa20 f002 	lsr.w	r0, r0, r2
 80004b6:	fa01 fe03 	lsl.w	lr, r1, r3
 80004ba:	ea40 000e 	orr.w	r0, r0, lr
 80004be:	fa21 f102 	lsr.w	r1, r1, r2
 80004c2:	4414      	add	r4, r2
 80004c4:	e6bd      	b.n	8000242 <__adddf3+0xe6>
 80004c6:	bf00      	nop

080004c8 <__aeabi_dmul>:
 80004c8:	b570      	push	{r4, r5, r6, lr}
 80004ca:	f04f 0cff 	mov.w	ip, #255	@ 0xff
 80004ce:	f44c 6ce0 	orr.w	ip, ip, #1792	@ 0x700
 80004d2:	ea1c 5411 	ands.w	r4, ip, r1, lsr #20
 80004d6:	bf1d      	ittte	ne
 80004d8:	ea1c 5513 	andsne.w	r5, ip, r3, lsr #20
 80004dc:	ea94 0f0c 	teqne	r4, ip
 80004e0:	ea95 0f0c 	teqne	r5, ip
 80004e4:	f000 f8de 	bleq	80006a4 <__aeabi_dmul+0x1dc>
 80004e8:	442c      	add	r4, r5
 80004ea:	ea81 0603 	eor.w	r6, r1, r3
 80004ee:	ea21 514c 	bic.w	r1, r1, ip, lsl #21
 80004f2:	ea23 534c 	bic.w	r3, r3, ip, lsl #21
 80004f6:	ea50 3501 	orrs.w	r5, r0, r1, lsl #12
 80004fa:	bf18      	it	ne
 80004fc:	ea52 3503 	orrsne.w	r5, r2, r3, lsl #12
 8000500:	f441 1180 	orr.w	r1, r1, #1048576	@ 0x100000
 8000504:	f443 1380 	orr.w	r3, r3, #1048576	@ 0x100000
 8000508:	d038      	beq.n	800057c <__aeabi_dmul+0xb4>
 800050a:	fba0 ce02 	umull	ip, lr, r0, r2
 800050e:	f04f 0500 	mov.w	r5, #0
 8000512:	fbe1 e502 	umlal	lr, r5, r1, r2
 8000516:	f006 4200 	and.w	r2, r6, #2147483648	@ 0x80000000
 800051a:	fbe0 e503 	umlal	lr, r5, r0, r3
 800051e:	f04f 0600 	mov.w	r6, #0
 8000522:	fbe1 5603 	umlal	r5, r6, r1, r3
 8000526:	f09c 0f00 	teq	ip, #0
 800052a:	bf18      	it	ne
 800052c:	f04e 0e01 	orrne.w	lr, lr, #1
 8000530:	f1a4 04ff 	sub.w	r4, r4, #255	@ 0xff
 8000534:	f5b6 7f00 	cmp.w	r6, #512	@ 0x200
 8000538:	f564 7440 	sbc.w	r4, r4, #768	@ 0x300
 800053c:	d204      	bcs.n	8000548 <__aeabi_dmul+0x80>
 800053e:	ea5f 0e4e 	movs.w	lr, lr, lsl #1
 8000542:	416d      	adcs	r5, r5
 8000544:	eb46 0606 	adc.w	r6, r6, r6
 8000548:	ea42 21c6 	orr.w	r1, r2, r6, lsl #11
 800054c:	ea41 5155 	orr.w	r1, r1, r5, lsr #21
 8000550:	ea4f 20c5 	mov.w	r0, r5, lsl #11
 8000554:	ea40 505e 	orr.w	r0, r0, lr, lsr #21
 8000558:	ea4f 2ece 	mov.w	lr, lr, lsl #11
 800055c:	f1b4 0cfd 	subs.w	ip, r4, #253	@ 0xfd
 8000560:	bf88      	it	hi
 8000562:	f5bc 6fe0 	cmphi.w	ip, #1792	@ 0x700
 8000566:	d81e      	bhi.n	80005a6 <__aeabi_dmul+0xde>
 8000568:	f1be 4f00 	cmp.w	lr, #2147483648	@ 0x80000000
 800056c:	bf08      	it	eq
 800056e:	ea5f 0e50 	movseq.w	lr, r0, lsr #1
 8000572:	f150 0000 	adcs.w	r0, r0, #0
 8000576:	eb41 5104 	adc.w	r1, r1, r4, lsl #20
 800057a:	bd70      	pop	{r4, r5, r6, pc}
 800057c:	f006 4600 	and.w	r6, r6, #2147483648	@ 0x80000000
 8000580:	ea46 0101 	orr.w	r1, r6, r1
 8000584:	ea40 0002 	orr.w	r0, r0, r2
 8000588:	ea81 0103 	eor.w	r1, r1, r3
 800058c:	ebb4 045c 	subs.w	r4, r4, ip, lsr #1
 8000590:	bfc2      	ittt	gt
 8000592:	ebd4 050c 	rsbsgt	r5, r4, ip
 8000596:	ea41 5104 	orrgt.w	r1, r1, r4, lsl #20
 800059a:	bd70      	popgt	{r4, r5, r6, pc}
 800059c:	f441 1180 	orr.w	r1, r1, #1048576	@ 0x100000
 80005a0:	f04f 0e00 	mov.w	lr, #0
 80005a4:	3c01      	subs	r4, #1
 80005a6:	f300 80ab 	bgt.w	8000700 <__aeabi_dmul+0x238>
 80005aa:	f114 0f36 	cmn.w	r4, #54	@ 0x36
 80005ae:	bfde      	ittt	le
 80005b0:	2000      	movle	r0, #0
 80005b2:	f001 4100 	andle.w	r1, r1, #2147483648	@ 0x80000000
 80005b6:	bd70      	pople	{r4, r5, r6, pc}
 80005b8:	f1c4 0400 	rsb	r4, r4, #0
 80005bc:	3c20      	subs	r4, #32
 80005be:	da35      	bge.n	800062c <__aeabi_dmul+0x164>
 80005c0:	340c      	adds	r4, #12
 80005c2:	dc1b      	bgt.n	80005fc <__aeabi_dmul+0x134>
 80005c4:	f104 0414 	add.w	r4, r4, #20
 80005c8:	f1c4 0520 	rsb	r5, r4, #32
 80005cc:	fa00 f305 	lsl.w	r3, r0, r5
 80005d0:	fa20 f004 	lsr.w	r0, r0, r4
 80005d4:	fa01 f205 	lsl.w	r2, r1, r5
 80005d8:	ea40 0002 	orr.w	r0, r0, r2
 80005dc:	f001 4200 	and.w	r2, r1, #2147483648	@ 0x80000000
 80005e0:	f021 4100 	bic.w	r1, r1, #2147483648	@ 0x80000000
 80005e4:	eb10 70d3 	adds.w	r0, r0, r3, lsr #31
 80005e8:	fa21 f604 	lsr.w	r6, r1, r4
 80005ec:	eb42 0106 	adc.w	r1, r2, r6
 80005f0:	ea5e 0e43 	orrs.w	lr, lr, r3, lsl #1
 80005f4:	bf08      	it	eq
 80005f6:	ea20 70d3 	biceq.w	r0, r0, r3, lsr #31
 80005fa:	bd70      	pop	{r4, r5, r6, pc}
 80005fc:	f1c4 040c 	rsb	r4, r4, #12
 8000600:	f1c4 0520 	rsb	r5, r4, #32
 8000604:	fa00 f304 	lsl.w	r3, r0, r4
 8000608:	fa20 f005 	lsr.w	r0, r0, r5
 800060c:	fa01 f204 	lsl.w	r2, r1, r4
 8000610:	ea40 0002 	orr.w	r0, r0, r2
 8000614:	f001 4100 	and.w	r1, r1, #2147483648	@ 0x80000000
 8000618:	eb10 70d3 	adds.w	r0, r0, r3, lsr #31
 800061c:	f141 0100 	adc.w	r1, r1, #0
 8000620:	ea5e 0e43 	orrs.w	lr, lr, r3, lsl #1
 8000624:	bf08      	it	eq
 8000626:	ea20 70d3 	biceq.w	r0, r0, r3, lsr #31
 800062a:	bd70      	pop	{r4, r5, r6, pc}
 800062c:	f1c4 0520 	rsb	r5, r4, #32
 8000630:	fa00 f205 	lsl.w	r2, r0, r5
 8000634:	ea4e 0e02 	orr.w	lr, lr, r2
 8000638:	fa20 f304 	lsr.w	r3, r0, r4
 800063c:	fa01 f205 	lsl.w	r2, r1, r5
 8000640:	ea43 0302 	orr.w	r3, r3, r2
 8000644:	fa21 f004 	lsr.w	r0, r1, r4
 8000648:	f001 4100 	and.w	r1, r1, #2147483648	@ 0x80000000
 800064c:	fa21 f204 	lsr.w	r2, r1, r4
 8000650:	ea20 0002 	bic.w	r0, r0, r2
 8000654:	eb00 70d3 	add.w	r0, r0, r3, lsr #31
 8000658:	ea5e 0e43 	orrs.w	lr, lr, r3, lsl #1
 800065c:	bf08      	it	eq
 800065e:	ea20 70d3 	biceq.w	r0, r0, r3, lsr #31
 8000662:	bd70      	pop	{r4, r5, r6, pc}
 8000664:	f094 0f00 	teq	r4, #0
 8000668:	d10f      	bne.n	800068a <__aeabi_dmul+0x1c2>
 800066a:	f001 4600 	and.w	r6, r1, #2147483648	@ 0x80000000
 800066e:	0040      	lsls	r0, r0, #1
 8000670:	eb41 0101 	adc.w	r1, r1, r1
 8000674:	f411 1f80 	tst.w	r1, #1048576	@ 0x100000
 8000678:	bf08      	it	eq
 800067a:	3c01      	subeq	r4, #1
 800067c:	d0f7      	beq.n	800066e <__aeabi_dmul+0x1a6>
 800067e:	ea41 0106 	orr.w	r1, r1, r6
 8000682:	f095 0f00 	teq	r5, #0
 8000686:	bf18      	it	ne
 8000688:	4770      	bxne	lr
 800068a:	f003 4600 	and.w	r6, r3, #2147483648	@ 0x80000000
 800068e:	0052      	lsls	r2, r2, #1
 8000690:	eb43 0303 	adc.w	r3, r3, r3
 8000694:	f413 1f80 	tst.w	r3, #1048576	@ 0x100000
 8000698:	bf08      	it	eq
 800069a:	3d01      	subeq	r5, #1
 800069c:	d0f7      	beq.n	800068e <__aeabi_dmul+0x1c6>
 800069e:	ea43 0306 	orr.w	r3, r3, r6
 80006a2:	4770      	bx	lr
 80006a4:	ea94 0f0c 	teq	r4, ip
 80006a8:	ea0c 5513 	and.w	r5, ip, r3, lsr #20
 80006ac:	bf18      	it	ne
 80006ae:	ea95 0f0c 	teqne	r5, ip
 80006b2:	d00c      	beq.n	80006ce <__aeabi_dmul+0x206>
 80006b4:	ea50 0641 	orrs.w	r6, r0, r1, lsl #1
 80006b8:	bf18      	it	ne
 80006ba:	ea52 0643 	orrsne.w	r6, r2, r3, lsl #1
 80006be:	d1d1      	bne.n	8000664 <__aeabi_dmul+0x19c>
 80006c0:	ea81 0103 	eor.w	r1, r1, r3
 80006c4:	f001 4100 	and.w	r1, r1, #2147483648	@ 0x80000000
 80006c8:	f04f 0000 	mov.w	r0, #0
 80006cc:	bd70      	pop	{r4, r5, r6, pc}
 80006ce:	ea50 0641 	orrs.w	r6, r0, r1, lsl #1
 80006d2:	bf06      	itte	eq
 80006d4:	4610      	moveq	r0, r2
 80006d6:	4619      	moveq	r1, r3
 80006d8:	ea52 0643 	orrsne.w	r6, r2, r3, lsl #1
 80006dc:	d019      	beq.n	8000712 <__aeabi_dmul+0x24a>
 80006de:	ea94 0f0c 	teq	r4, ip
 80006e2:	d102      	bne.n	80006ea <__aeabi_dmul+0x222>
 80006e4:	ea50 3601 	orrs.w	r6, r0, r1, lsl #12
 80006e8:	d113      	bne.n	8000712 <__aeabi_dmul+0x24a>
 80006ea:	ea95 0f0c 	teq	r5, ip
 80006ee:	d105      	bne.n	80006fc <__aeabi_dmul+0x234>
 80006f0:	ea52 3603 	orrs.w	r6, r2, r3, lsl #12
 80006f4:	bf1c      	itt	ne
 80006f6:	4610      	movne	r0, r2
 80006f8:	4619      	movne	r1, r3
 80006fa:	d10a      	bne.n	8000712 <__aeabi_dmul+0x24a>
 80006fc:	ea81 0103 	eor.w	r1, r1, r3
 8000700:	f001 4100 	and.w	r1, r1, #2147483648	@ 0x80000000
 8000704:	f041 41fe 	orr.w	r1, r1, #2130706432	@ 0x7f000000
 8000708:	f441 0170 	orr.w	r1, r1, #15728640	@ 0xf00000
 800070c:	f04f 0000 	mov.w	r0, #0
 8000710:	bd70      	pop	{r4, r5, r6, pc}
 8000712:	f041 41fe 	orr.w	r1, r1, #2130706432	@ 0x7f000000
 8000716:	f441 0178 	orr.w	r1, r1, #16252928	@ 0xf80000
 800071a:	bd70      	pop	{r4, r5, r6, pc}

0800071c <__aeabi_ddiv>:
 800071c:	b570      	push	{r4, r5, r6, lr}
 800071e:	f04f 0cff 	mov.w	ip, #255	@ 0xff
 8000722:	f44c 6ce0 	orr.w	ip, ip, #1792	@ 0x700
 8000726:	ea1c 5411 	ands.w	r4, ip, r1, lsr #20
 800072a:	bf1d      	ittte	ne
 800072c:	ea1c 5513 	andsne.w	r5, ip, r3, lsr #20
 8000730:	ea94 0f0c 	teqne	r4, ip
 8000734:	ea95 0f0c 	teqne	r5, ip
 8000738:	f000 f8a7 	bleq	800088a <__aeabi_ddiv+0x16e>
 800073c:	eba4 0405 	sub.w	r4, r4, r5
 8000740:	ea81 0e03 	eor.w	lr, r1, r3
 8000744:	ea52 3503 	orrs.w	r5, r2, r3, lsl #12
 8000748:	ea4f 3101 	mov.w	r1, r1, lsl #12
 800074c:	f000 8088 	beq.w	8000860 <__aeabi_ddiv+0x144>
 8000750:	ea4f 3303 	mov.w	r3, r3, lsl #12
 8000754:	f04f 5580 	mov.w	r5, #268435456	@ 0x10000000
 8000758:	ea45 1313 	orr.w	r3, r5, r3, lsr #4
 800075c:	ea43 6312 	orr.w	r3, r3, r2, lsr #24
 8000760:	ea4f 2202 	mov.w	r2, r2, lsl #8
 8000764:	ea45 1511 	orr.w	r5, r5, r1, lsr #4
 8000768:	ea45 6510 	orr.w	r5, r5, r0, lsr #24
 800076c:	ea4f 2600 	mov.w	r6, r0, lsl #8
 8000770:	f00e 4100 	and.w	r1, lr, #2147483648	@ 0x80000000
 8000774:	429d      	cmp	r5, r3
 8000776:	bf08      	it	eq
 8000778:	4296      	cmpeq	r6, r2
 800077a:	f144 04fd 	adc.w	r4, r4, #253	@ 0xfd
 800077e:	f504 7440 	add.w	r4, r4, #768	@ 0x300
 8000782:	d202      	bcs.n	800078a <__aeabi_ddiv+0x6e>
 8000784:	085b      	lsrs	r3, r3, #1
 8000786:	ea4f 0232 	mov.w	r2, r2, rrx
 800078a:	1ab6      	subs	r6, r6, r2
 800078c:	eb65 0503 	sbc.w	r5, r5, r3
 8000790:	085b      	lsrs	r3, r3, #1
 8000792:	ea4f 0232 	mov.w	r2, r2, rrx
 8000796:	f44f 1080 	mov.w	r0, #1048576	@ 0x100000
 800079a:	f44f 2c00 	mov.w	ip, #524288	@ 0x80000
 800079e:	ebb6 0e02 	subs.w	lr, r6, r2
 80007a2:	eb75 0e03 	sbcs.w	lr, r5, r3
 80007a6:	bf22      	ittt	cs
 80007a8:	1ab6      	subcs	r6, r6, r2
 80007aa:	4675      	movcs	r5, lr
 80007ac:	ea40 000c 	orrcs.w	r0, r0, ip
 80007b0:	085b      	lsrs	r3, r3, #1
 80007b2:	ea4f 0232 	mov.w	r2, r2, rrx
 80007b6:	ebb6 0e02 	subs.w	lr, r6, r2
 80007ba:	eb75 0e03 	sbcs.w	lr, r5, r3
 80007be:	bf22      	ittt	cs
 80007c0:	1ab6      	subcs	r6, r6, r2
 80007c2:	4675      	movcs	r5, lr
 80007c4:	ea40 005c 	orrcs.w	r0, r0, ip, lsr #1
 80007c8:	085b      	lsrs	r3, r3, #1
 80007ca:	ea4f 0232 	mov.w	r2, r2, rrx
 80007ce:	ebb6 0e02 	subs.w	lr, r6, r2
 80007d2:	eb75 0e03 	sbcs.w	lr, r5, r3
 80007d6:	bf22      	ittt	cs
 80007d8:	1ab6      	subcs	r6, r6, r2
 80007da:	4675      	movcs	r5, lr
 80007dc:	ea40 009c 	orrcs.w	r0, r0, ip, lsr #2
 80007e0:	085b      	lsrs	r3, r3, #1
 80007e2:	ea4f 0232 	mov.w	r2, r2, rrx
 80007e6:	ebb6 0e02 	subs.w	lr, r6, r2
 80007ea:	eb75 0e03 	sbcs.w	lr, r5, r3
 80007ee:	bf22      	ittt	cs
 80007f0:	1ab6      	subcs	r6, r6, r2
 80007f2:	4675      	movcs	r5, lr
 80007f4:	ea40 00dc 	orrcs.w	r0, r0, ip, lsr #3
 80007f8:	ea55 0e06 	orrs.w	lr, r5, r6
 80007fc:	d018      	beq.n	8000830 <__aeabi_ddiv+0x114>
 80007fe:	ea4f 1505 	mov.w	r5, r5, lsl #4
 8000802:	ea45 7516 	orr.w	r5, r5, r6, lsr #28
 8000806:	ea4f 1606 	mov.w	r6, r6, lsl #4
 800080a:	ea4f 03c3 	mov.w	r3, r3, lsl #3
 800080e:	ea43 7352 	orr.w	r3, r3, r2, lsr #29
 8000812:	ea4f 02c2 	mov.w	r2, r2, lsl #3
 8000816:	ea5f 1c1c 	movs.w	ip, ip, lsr #4
 800081a:	d1c0      	bne.n	800079e <__aeabi_ddiv+0x82>
 800081c:	f411 1f80 	tst.w	r1, #1048576	@ 0x100000
 8000820:	d10b      	bne.n	800083a <__aeabi_ddiv+0x11e>
 8000822:	ea41 0100 	orr.w	r1, r1, r0
 8000826:	f04f 0000 	mov.w	r0, #0
 800082a:	f04f 4c00 	mov.w	ip, #2147483648	@ 0x80000000
 800082e:	e7b6      	b.n	800079e <__aeabi_ddiv+0x82>
 8000830:	f411 1f80 	tst.w	r1, #1048576	@ 0x100000
 8000834:	bf04      	itt	eq
 8000836:	4301      	orreq	r1, r0
 8000838:	2000      	moveq	r0, #0
 800083a:	f1b4 0cfd 	subs.w	ip, r4, #253	@ 0xfd
 800083e:	bf88      	it	hi
 8000840:	f5bc 6fe0 	cmphi.w	ip, #1792	@ 0x700
 8000844:	f63f aeaf 	bhi.w	80005a6 <__aeabi_dmul+0xde>
 8000848:	ebb5 0c03 	subs.w	ip, r5, r3
 800084c:	bf04      	itt	eq
 800084e:	ebb6 0c02 	subseq.w	ip, r6, r2
 8000852:	ea5f 0c50 	movseq.w	ip, r0, lsr #1
 8000856:	f150 0000 	adcs.w	r0, r0, #0
 800085a:	eb41 5104 	adc.w	r1, r1, r4, lsl #20
 800085e:	bd70      	pop	{r4, r5, r6, pc}
 8000860:	f00e 4e00 	and.w	lr, lr, #2147483648	@ 0x80000000
 8000864:	ea4e 3111 	orr.w	r1, lr, r1, lsr #12
 8000868:	eb14 045c 	adds.w	r4, r4, ip, lsr #1
 800086c:	bfc2      	ittt	gt
 800086e:	ebd4 050c 	rsbsgt	r5, r4, ip
 8000872:	ea41 5104 	orrgt.w	r1, r1, r4, lsl #20
 8000876:	bd70      	popgt	{r4, r5, r6, pc}
 8000878:	f441 1180 	orr.w	r1, r1, #1048576	@ 0x100000
 800087c:	f04f 0e00 	mov.w	lr, #0
 8000880:	3c01      	subs	r4, #1
 8000882:	e690      	b.n	80005a6 <__aeabi_dmul+0xde>
 8000884:	ea45 0e06 	orr.w	lr, r5, r6
 8000888:	e68d      	b.n	80005a6 <__aeabi_dmul+0xde>
 800088a:	ea0c 5513 	and.w	r5, ip, r3, lsr #20
 800088e:	ea94 0f0c 	teq	r4, ip
 8000892:	bf08      	it	eq
 8000894:	ea95 0f0c 	teqeq	r5, ip
 8000898:	f43f af3b 	beq.w	8000712 <__aeabi_dmul+0x24a>
 800089c:	ea94 0f0c 	teq	r4, ip
 80008a0:	d10a      	bne.n	80008b8 <__aeabi_ddiv+0x19c>
 80008a2:	ea50 3401 	orrs.w	r4, r0, r1, lsl #12
 80008a6:	f47f af34 	bne.w	8000712 <__aeabi_dmul+0x24a>
 80008aa:	ea95 0f0c 	teq	r5, ip
 80008ae:	f47f af25 	bne.w	80006fc <__aeabi_dmul+0x234>
 80008b2:	4610      	mov	r0, r2
 80008b4:	4619      	mov	r1, r3
 80008b6:	e72c      	b.n	8000712 <__aeabi_dmul+0x24a>
 80008b8:	ea95 0f0c 	teq	r5, ip
 80008bc:	d106      	bne.n	80008cc <__aeabi_ddiv+0x1b0>
 80008be:	ea52 3503 	orrs.w	r5, r2, r3, lsl #12
 80008c2:	f43f aefd 	beq.w	80006c0 <__aeabi_dmul+0x1f8>
 80008c6:	4610      	mov	r0, r2
 80008c8:	4619      	mov	r1, r3
 80008ca:	e722      	b.n	8000712 <__aeabi_dmul+0x24a>
 80008cc:	ea50 0641 	orrs.w	r6, r0, r1, lsl #1
 80008d0:	bf18      	it	ne
 80008d2:	ea52 0643 	orrsne.w	r6, r2, r3, lsl #1
 80008d6:	f47f aec5 	bne.w	8000664 <__aeabi_dmul+0x19c>
 80008da:	ea50 0441 	orrs.w	r4, r0, r1, lsl #1
 80008de:	f47f af0d 	bne.w	80006fc <__aeabi_dmul+0x234>
 80008e2:	ea52 0543 	orrs.w	r5, r2, r3, lsl #1
 80008e6:	f47f aeeb 	bne.w	80006c0 <__aeabi_dmul+0x1f8>
 80008ea:	e712      	b.n	8000712 <__aeabi_dmul+0x24a>

080008ec <__gedf2>:
 80008ec:	f04f 3cff 	mov.w	ip, #4294967295
 80008f0:	e006      	b.n	8000900 <__cmpdf2+0x4>
 80008f2:	bf00      	nop

080008f4 <__ledf2>:
 80008f4:	f04f 0c01 	mov.w	ip, #1
 80008f8:	e002      	b.n	8000900 <__cmpdf2+0x4>
 80008fa:	bf00      	nop

080008fc <__cmpdf2>:
 80008fc:	f04f 0c01 	mov.w	ip, #1
 8000900:	f84d cd04 	str.w	ip, [sp, #-4]!
 8000904:	ea4f 0c41 	mov.w	ip, r1, lsl #1
 8000908:	ea7f 5c6c 	mvns.w	ip, ip, asr #21
 800090c:	ea4f 0c43 	mov.w	ip, r3, lsl #1
 8000910:	bf18      	it	ne
 8000912:	ea7f 5c6c 	mvnsne.w	ip, ip, asr #21
 8000916:	d01b      	beq.n	8000950 <__cmpdf2+0x54>
 8000918:	b001      	add	sp, #4
 800091a:	ea50 0c41 	orrs.w	ip, r0, r1, lsl #1
 800091e:	bf0c      	ite	eq
 8000920:	ea52 0c43 	orrseq.w	ip, r2, r3, lsl #1
 8000924:	ea91 0f03 	teqne	r1, r3
 8000928:	bf02      	ittt	eq
 800092a:	ea90 0f02 	teqeq	r0, r2
 800092e:	2000      	moveq	r0, #0
 8000930:	4770      	bxeq	lr
 8000932:	f110 0f00 	cmn.w	r0, #0
 8000936:	ea91 0f03 	teq	r1, r3
 800093a:	bf58      	it	pl
 800093c:	4299      	cmppl	r1, r3
 800093e:	bf08      	it	eq
 8000940:	4290      	cmpeq	r0, r2
 8000942:	bf2c      	ite	cs
 8000944:	17d8      	asrcs	r0, r3, #31
 8000946:	ea6f 70e3 	mvncc.w	r0, r3, asr #31
 800094a:	f040 0001 	orr.w	r0, r0, #1
 800094e:	4770      	bx	lr
 8000950:	ea4f 0c41 	mov.w	ip, r1, lsl #1
 8000954:	ea7f 5c6c 	mvns.w	ip, ip, asr #21
 8000958:	d102      	bne.n	8000960 <__cmpdf2+0x64>
 800095a:	ea50 3c01 	orrs.w	ip, r0, r1, lsl #12
 800095e:	d107      	bne.n	8000970 <__cmpdf2+0x74>
 8000960:	ea4f 0c43 	mov.w	ip, r3, lsl #1
 8000964:	ea7f 5c6c 	mvns.w	ip, ip, asr #21
 8000968:	d1d6      	bne.n	8000918 <__cmpdf2+0x1c>
 800096a:	ea52 3c03 	orrs.w	ip, r2, r3, lsl #12
 800096e:	d0d3      	beq.n	8000918 <__cmpdf2+0x1c>
 8000970:	f85d 0b04 	ldr.w	r0, [sp], #4
 8000974:	4770      	bx	lr
 8000976:	bf00      	nop

08000978 <__aeabi_cdrcmple>:
 8000978:	4684      	mov	ip, r0
 800097a:	4610      	mov	r0, r2
 800097c:	4662      	mov	r2, ip
 800097e:	468c      	mov	ip, r1
 8000980:	4619      	mov	r1, r3
 8000982:	4663      	mov	r3, ip
 8000984:	e000      	b.n	8000988 <__aeabi_cdcmpeq>
 8000986:	bf00      	nop

08000988 <__aeabi_cdcmpeq>:
 8000988:	b501      	push	{r0, lr}
 800098a:	f7ff ffb7 	bl	80008fc <__cmpdf2>
 800098e:	2800      	cmp	r0, #0
 8000990:	bf48      	it	mi
 8000992:	f110 0f00 	cmnmi.w	r0, #0
 8000996:	bd01      	pop	{r0, pc}

08000998 <__aeabi_dcmpeq>:
 8000998:	f84d ed08 	str.w	lr, [sp, #-8]!
 800099c:	f7ff fff4 	bl	8000988 <__aeabi_cdcmpeq>
 80009a0:	bf0c      	ite	eq
 80009a2:	2001      	moveq	r0, #1
 80009a4:	2000      	movne	r0, #0
 80009a6:	f85d fb08 	ldr.w	pc, [sp], #8
 80009aa:	bf00      	nop

080009ac <__aeabi_dcmplt>:
 80009ac:	f84d ed08 	str.w	lr, [sp, #-8]!
 80009b0:	f7ff ffea 	bl	8000988 <__aeabi_cdcmpeq>
 80009b4:	bf34      	ite	cc
 80009b6:	2001      	movcc	r0, #1
 80009b8:	2000      	movcs	r0, #0
 80009ba:	f85d fb08 	ldr.w	pc, [sp], #8
 80009be:	bf00      	nop

080009c0 <__aeabi_dcmple>:
 80009c0:	f84d ed08 	str.w	lr, [sp, #-8]!
 80009c4:	f7ff ffe0 	bl	8000988 <__aeabi_cdcmpeq>
 80009c8:	bf94      	ite	ls
 80009ca:	2001      	movls	r0, #1
 80009cc:	2000      	movhi	r0, #0
 80009ce:	f85d fb08 	ldr.w	pc, [sp], #8
 80009d2:	bf00      	nop

080009d4 <__aeabi_dcmpge>:
 80009d4:	f84d ed08 	str.w	lr, [sp, #-8]!
 80009d8:	f7ff ffce 	bl	8000978 <__aeabi_cdrcmple>
 80009dc:	bf94      	ite	ls
 80009de:	2001      	movls	r0, #1
 80009e0:	2000      	movhi	r0, #0
 80009e2:	f85d fb08 	ldr.w	pc, [sp], #8
 80009e6:	bf00      	nop

080009e8 <__aeabi_dcmpgt>:
 80009e8:	f84d ed08 	str.w	lr, [sp, #-8]!
 80009ec:	f7ff ffc4 	bl	8000978 <__aeabi_cdrcmple>
 80009f0:	bf34      	ite	cc
 80009f2:	2001      	movcc	r0, #1
 80009f4:	2000      	movcs	r0, #0
 80009f6:	f85d fb08 	ldr.w	pc, [sp], #8
 80009fa:	bf00      	nop

080009fc <__aeabi_dcmpun>:
 80009fc:	ea4f 0c41 	mov.w	ip, r1, lsl #1
 8000a00:	ea7f 5c6c 	mvns.w	ip, ip, asr #21
 8000a04:	d102      	bne.n	8000a0c <__aeabi_dcmpun+0x10>
 8000a06:	ea50 3c01 	orrs.w	ip, r0, r1, lsl #12
 8000a0a:	d10a      	bne.n	8000a22 <__aeabi_dcmpun+0x26>
 8000a0c:	ea4f 0c43 	mov.w	ip, r3, lsl #1
 8000a10:	ea7f 5c6c 	mvns.w	ip, ip, asr #21
 8000a14:	d102      	bne.n	8000a1c <__aeabi_dcmpun+0x20>
 8000a16:	ea52 3c03 	orrs.w	ip, r2, r3, lsl #12
 8000a1a:	d102      	bne.n	8000a22 <__aeabi_dcmpun+0x26>
 8000a1c:	f04f 0000 	mov.w	r0, #0
 8000a20:	4770      	bx	lr
 8000a22:	f04f 0001 	mov.w	r0, #1
 8000a26:	4770      	bx	lr

08000a28 <__aeabi_d2uiz>:
 8000a28:	004a      	lsls	r2, r1, #1
 8000a2a:	d211      	bcs.n	8000a50 <__aeabi_d2uiz+0x28>
 8000a2c:	f512 1200 	adds.w	r2, r2, #2097152	@ 0x200000
 8000a30:	d211      	bcs.n	8000a56 <__aeabi_d2uiz+0x2e>
 8000a32:	d50d      	bpl.n	8000a50 <__aeabi_d2uiz+0x28>
 8000a34:	f46f 7378 	mvn.w	r3, #992	@ 0x3e0
 8000a38:	ebb3 5262 	subs.w	r2, r3, r2, asr #21
 8000a3c:	d40e      	bmi.n	8000a5c <__aeabi_d2uiz+0x34>
 8000a3e:	ea4f 23c1 	mov.w	r3, r1, lsl #11
 8000a42:	f043 4300 	orr.w	r3, r3, #2147483648	@ 0x80000000
 8000a46:	ea43 5350 	orr.w	r3, r3, r0, lsr #21
 8000a4a:	fa23 f002 	lsr.w	r0, r3, r2
 8000a4e:	4770      	bx	lr
 8000a50:	f04f 0000 	mov.w	r0, #0
 8000a54:	4770      	bx	lr
 8000a56:	ea50 3001 	orrs.w	r0, r0, r1, lsl #12
 8000a5a:	d102      	bne.n	8000a62 <__aeabi_d2uiz+0x3a>
 8000a5c:	f04f 30ff 	mov.w	r0, #4294967295
 8000a60:	4770      	bx	lr
 8000a62:	f04f 0000 	mov.w	r0, #0
 8000a66:	4770      	bx	lr

08000a68 <__aeabi_d2f>:
 8000a68:	ea4f 0241 	mov.w	r2, r1, lsl #1
 8000a6c:	f1b2 43e0 	subs.w	r3, r2, #1879048192	@ 0x70000000
 8000a70:	bf24      	itt	cs
 8000a72:	f5b3 1c00 	subscs.w	ip, r3, #2097152	@ 0x200000
 8000a76:	f1dc 5cfe 	rsbscs	ip, ip, #532676608	@ 0x1fc00000
 8000a7a:	d90d      	bls.n	8000a98 <__aeabi_d2f+0x30>
 8000a7c:	f001 4c00 	and.w	ip, r1, #2147483648	@ 0x80000000
 8000a80:	ea4f 02c0 	mov.w	r2, r0, lsl #3
 8000a84:	ea4c 7050 	orr.w	r0, ip, r0, lsr #29
 8000a88:	f1b2 4f00 	cmp.w	r2, #2147483648	@ 0x80000000
 8000a8c:	eb40 0083 	adc.w	r0, r0, r3, lsl #2
 8000a90:	bf08      	it	eq
 8000a92:	f020 0001 	biceq.w	r0, r0, #1
 8000a96:	4770      	bx	lr
 8000a98:	f011 4f80 	tst.w	r1, #1073741824	@ 0x40000000
 8000a9c:	d121      	bne.n	8000ae2 <__aeabi_d2f+0x7a>
 8000a9e:	f113 7238 	adds.w	r2, r3, #48234496	@ 0x2e00000
 8000aa2:	bfbc      	itt	lt
 8000aa4:	f001 4000 	andlt.w	r0, r1, #2147483648	@ 0x80000000
 8000aa8:	4770      	bxlt	lr
 8000aaa:	f441 1180 	orr.w	r1, r1, #1048576	@ 0x100000
 8000aae:	ea4f 5252 	mov.w	r2, r2, lsr #21
 8000ab2:	f1c2 0218 	rsb	r2, r2, #24
 8000ab6:	f1c2 0c20 	rsb	ip, r2, #32
 8000aba:	fa10 f30c 	lsls.w	r3, r0, ip
 8000abe:	fa20 f002 	lsr.w	r0, r0, r2
 8000ac2:	bf18      	it	ne
 8000ac4:	f040 0001 	orrne.w	r0, r0, #1
 8000ac8:	ea4f 23c1 	mov.w	r3, r1, lsl #11
 8000acc:	ea4f 23d3 	mov.w	r3, r3, lsr #11
 8000ad0:	fa03 fc0c 	lsl.w	ip, r3, ip
 8000ad4:	ea40 000c 	orr.w	r0, r0, ip
 8000ad8:	fa23 f302 	lsr.w	r3, r3, r2
 8000adc:	ea4f 0343 	mov.w	r3, r3, lsl #1
 8000ae0:	e7cc      	b.n	8000a7c <__aeabi_d2f+0x14>
 8000ae2:	ea7f 5362 	mvns.w	r3, r2, asr #21
 8000ae6:	d107      	bne.n	8000af8 <__aeabi_d2f+0x90>
 8000ae8:	ea50 3301 	orrs.w	r3, r0, r1, lsl #12
 8000aec:	bf1e      	ittt	ne
 8000aee:	f04f 40fe 	movne.w	r0, #2130706432	@ 0x7f000000
 8000af2:	f440 0040 	orrne.w	r0, r0, #12582912	@ 0xc00000
 8000af6:	4770      	bxne	lr
 8000af8:	f001 4000 	and.w	r0, r1, #2147483648	@ 0x80000000
 8000afc:	f040 40fe 	orr.w	r0, r0, #2130706432	@ 0x7f000000
 8000b00:	f440 0000 	orr.w	r0, r0, #8388608	@ 0x800000
 8000b04:	4770      	bx	lr
 8000b06:	bf00      	nop

08000b08 <__aeabi_frsub>:
 8000b08:	f080 4000 	eor.w	r0, r0, #2147483648	@ 0x80000000
 8000b0c:	e002      	b.n	8000b14 <__addsf3>
 8000b0e:	bf00      	nop

08000b10 <__aeabi_fsub>:
 8000b10:	f081 4100 	eor.w	r1, r1, #2147483648	@ 0x80000000

08000b14 <__addsf3>:
 8000b14:	0042      	lsls	r2, r0, #1
 8000b16:	bf1f      	itttt	ne
 8000b18:	ea5f 0341 	movsne.w	r3, r1, lsl #1
 8000b1c:	ea92 0f03 	teqne	r2, r3
 8000b20:	ea7f 6c22 	mvnsne.w	ip, r2, asr #24
 8000b24:	ea7f 6c23 	mvnsne.w	ip, r3, asr #24
 8000b28:	d06a      	beq.n	8000c00 <__addsf3+0xec>
 8000b2a:	ea4f 6212 	mov.w	r2, r2, lsr #24
 8000b2e:	ebd2 6313 	rsbs	r3, r2, r3, lsr #24
 8000b32:	bfc1      	itttt	gt
 8000b34:	18d2      	addgt	r2, r2, r3
 8000b36:	4041      	eorgt	r1, r0
 8000b38:	4048      	eorgt	r0, r1
 8000b3a:	4041      	eorgt	r1, r0
 8000b3c:	bfb8      	it	lt
 8000b3e:	425b      	neglt	r3, r3
 8000b40:	2b19      	cmp	r3, #25
 8000b42:	bf88      	it	hi
 8000b44:	4770      	bxhi	lr
 8000b46:	f010 4f00 	tst.w	r0, #2147483648	@ 0x80000000
 8000b4a:	f440 0000 	orr.w	r0, r0, #8388608	@ 0x800000
 8000b4e:	f020 407f 	bic.w	r0, r0, #4278190080	@ 0xff000000
 8000b52:	bf18      	it	ne
 8000b54:	4240      	negne	r0, r0
 8000b56:	f011 4f00 	tst.w	r1, #2147483648	@ 0x80000000
 8000b5a:	f441 0100 	orr.w	r1, r1, #8388608	@ 0x800000
 8000b5e:	f021 417f 	bic.w	r1, r1, #4278190080	@ 0xff000000
 8000b62:	bf18      	it	ne
 8000b64:	4249      	negne	r1, r1
 8000b66:	ea92 0f03 	teq	r2, r3
 8000b6a:	d03f      	beq.n	8000bec <__addsf3+0xd8>
 8000b6c:	f1a2 0201 	sub.w	r2, r2, #1
 8000b70:	fa41 fc03 	asr.w	ip, r1, r3
 8000b74:	eb10 000c 	adds.w	r0, r0, ip
 8000b78:	f1c3 0320 	rsb	r3, r3, #32
 8000b7c:	fa01 f103 	lsl.w	r1, r1, r3
 8000b80:	f000 4300 	and.w	r3, r0, #2147483648	@ 0x80000000
 8000b84:	d502      	bpl.n	8000b8c <__addsf3+0x78>
 8000b86:	4249      	negs	r1, r1
 8000b88:	eb60 0040 	sbc.w	r0, r0, r0, lsl #1
 8000b8c:	f5b0 0f00 	cmp.w	r0, #8388608	@ 0x800000
 8000b90:	d313      	bcc.n	8000bba <__addsf3+0xa6>
 8000b92:	f1b0 7f80 	cmp.w	r0, #16777216	@ 0x1000000
 8000b96:	d306      	bcc.n	8000ba6 <__addsf3+0x92>
 8000b98:	0840      	lsrs	r0, r0, #1
 8000b9a:	ea4f 0131 	mov.w	r1, r1, rrx
 8000b9e:	f102 0201 	add.w	r2, r2, #1
 8000ba2:	2afe      	cmp	r2, #254	@ 0xfe
 8000ba4:	d251      	bcs.n	8000c4a <__addsf3+0x136>
 8000ba6:	f1b1 4f00 	cmp.w	r1, #2147483648	@ 0x80000000
 8000baa:	eb40 50c2 	adc.w	r0, r0, r2, lsl #23
 8000bae:	bf08      	it	eq
 8000bb0:	f020 0001 	biceq.w	r0, r0, #1
 8000bb4:	ea40 0003 	orr.w	r0, r0, r3
 8000bb8:	4770      	bx	lr
 8000bba:	0049      	lsls	r1, r1, #1
 8000bbc:	eb40 0000 	adc.w	r0, r0, r0
 8000bc0:	3a01      	subs	r2, #1
 8000bc2:	bf28      	it	cs
 8000bc4:	f5b0 0f00 	cmpcs.w	r0, #8388608	@ 0x800000
 8000bc8:	d2ed      	bcs.n	8000ba6 <__addsf3+0x92>
 8000bca:	fab0 fc80 	clz	ip, r0
 8000bce:	f1ac 0c08 	sub.w	ip, ip, #8
 8000bd2:	ebb2 020c 	subs.w	r2, r2, ip
 8000bd6:	fa00 f00c 	lsl.w	r0, r0, ip
 8000bda:	bfaa      	itet	ge
 8000bdc:	eb00 50c2 	addge.w	r0, r0, r2, lsl #23
 8000be0:	4252      	neglt	r2, r2
 8000be2:	4318      	orrge	r0, r3
 8000be4:	bfbc      	itt	lt
 8000be6:	40d0      	lsrlt	r0, r2
 8000be8:	4318      	orrlt	r0, r3
 8000bea:	4770      	bx	lr
 8000bec:	f092 0f00 	teq	r2, #0
 8000bf0:	f481 0100 	eor.w	r1, r1, #8388608	@ 0x800000
 8000bf4:	bf06      	itte	eq
 8000bf6:	f480 0000 	eoreq.w	r0, r0, #8388608	@ 0x800000
 8000bfa:	3201      	addeq	r2, #1
 8000bfc:	3b01      	subne	r3, #1
 8000bfe:	e7b5      	b.n	8000b6c <__addsf3+0x58>
 8000c00:	ea4f 0341 	mov.w	r3, r1, lsl #1
 8000c04:	ea7f 6c22 	mvns.w	ip, r2, asr #24
 8000c08:	bf18      	it	ne
 8000c0a:	ea7f 6c23 	mvnsne.w	ip, r3, asr #24
 8000c0e:	d021      	beq.n	8000c54 <__addsf3+0x140>
 8000c10:	ea92 0f03 	teq	r2, r3
 8000c14:	d004      	beq.n	8000c20 <__addsf3+0x10c>
 8000c16:	f092 0f00 	teq	r2, #0
 8000c1a:	bf08      	it	eq
 8000c1c:	4608      	moveq	r0, r1
 8000c1e:	4770      	bx	lr
 8000c20:	ea90 0f01 	teq	r0, r1
 8000c24:	bf1c      	itt	ne
 8000c26:	2000      	movne	r0, #0
 8000c28:	4770      	bxne	lr
 8000c2a:	f012 4f7f 	tst.w	r2, #4278190080	@ 0xff000000
 8000c2e:	d104      	bne.n	8000c3a <__addsf3+0x126>
 8000c30:	0040      	lsls	r0, r0, #1
 8000c32:	bf28      	it	cs
 8000c34:	f040 4000 	orrcs.w	r0, r0, #2147483648	@ 0x80000000
 8000c38:	4770      	bx	lr
 8000c3a:	f112 7200 	adds.w	r2, r2, #33554432	@ 0x2000000
 8000c3e:	bf3c      	itt	cc
 8000c40:	f500 0000 	addcc.w	r0, r0, #8388608	@ 0x800000
 8000c44:	4770      	bxcc	lr
 8000c46:	f000 4300 	and.w	r3, r0, #2147483648	@ 0x80000000
 8000c4a:	f043 40fe 	orr.w	r0, r3, #2130706432	@ 0x7f000000
 8000c4e:	f440 0000 	orr.w	r0, r0, #8388608	@ 0x800000
 8000c52:	4770      	bx	lr
 8000c54:	ea7f 6222 	mvns.w	r2, r2, asr #24
 8000c58:	bf16      	itet	ne
 8000c5a:	4608      	movne	r0, r1
 8000c5c:	ea7f 6323 	mvnseq.w	r3, r3, asr #24
 8000c60:	4601      	movne	r1, r0
 8000c62:	0242      	lsls	r2, r0, #9
 8000c64:	bf06      	itte	eq
 8000c66:	ea5f 2341 	movseq.w	r3, r1, lsl #9
 8000c6a:	ea90 0f01 	teqeq	r0, r1
 8000c6e:	f440 0080 	orrne.w	r0, r0, #4194304	@ 0x400000
 8000c72:	4770      	bx	lr

08000c74 <__aeabi_ui2f>:
 8000c74:	f04f 0300 	mov.w	r3, #0
 8000c78:	e004      	b.n	8000c84 <__aeabi_i2f+0x8>
 8000c7a:	bf00      	nop

08000c7c <__aeabi_i2f>:
 8000c7c:	f010 4300 	ands.w	r3, r0, #2147483648	@ 0x80000000
 8000c80:	bf48      	it	mi
 8000c82:	4240      	negmi	r0, r0
 8000c84:	ea5f 0c00 	movs.w	ip, r0
 8000c88:	bf08      	it	eq
 8000c8a:	4770      	bxeq	lr
 8000c8c:	f043 4396 	orr.w	r3, r3, #1258291200	@ 0x4b000000
 8000c90:	4601      	mov	r1, r0
 8000c92:	f04f 0000 	mov.w	r0, #0
 8000c96:	e01c      	b.n	8000cd2 <__aeabi_l2f+0x2a>

08000c98 <__aeabi_ul2f>:
 8000c98:	ea50 0201 	orrs.w	r2, r0, r1
 8000c9c:	bf08      	it	eq
 8000c9e:	4770      	bxeq	lr
 8000ca0:	f04f 0300 	mov.w	r3, #0
 8000ca4:	e00a      	b.n	8000cbc <__aeabi_l2f+0x14>
 8000ca6:	bf00      	nop

08000ca8 <__aeabi_l2f>:
 8000ca8:	ea50 0201 	orrs.w	r2, r0, r1
 8000cac:	bf08      	it	eq
 8000cae:	4770      	bxeq	lr
 8000cb0:	f011 4300 	ands.w	r3, r1, #2147483648	@ 0x80000000
 8000cb4:	d502      	bpl.n	8000cbc <__aeabi_l2f+0x14>
 8000cb6:	4240      	negs	r0, r0
 8000cb8:	eb61 0141 	sbc.w	r1, r1, r1, lsl #1
 8000cbc:	ea5f 0c01 	movs.w	ip, r1
 8000cc0:	bf02      	ittt	eq
 8000cc2:	4684      	moveq	ip, r0
 8000cc4:	4601      	moveq	r1, r0
 8000cc6:	2000      	moveq	r0, #0
 8000cc8:	f043 43b6 	orr.w	r3, r3, #1526726656	@ 0x5b000000
 8000ccc:	bf08      	it	eq
 8000cce:	f1a3 5380 	subeq.w	r3, r3, #268435456	@ 0x10000000
 8000cd2:	f5a3 0300 	sub.w	r3, r3, #8388608	@ 0x800000
 8000cd6:	fabc f28c 	clz	r2, ip
 8000cda:	3a08      	subs	r2, #8
 8000cdc:	eba3 53c2 	sub.w	r3, r3, r2, lsl #23
 8000ce0:	db10      	blt.n	8000d04 <__aeabi_l2f+0x5c>
 8000ce2:	fa01 fc02 	lsl.w	ip, r1, r2
 8000ce6:	4463      	add	r3, ip
 8000ce8:	fa00 fc02 	lsl.w	ip, r0, r2
 8000cec:	f1c2 0220 	rsb	r2, r2, #32
 8000cf0:	f1bc 4f00 	cmp.w	ip, #2147483648	@ 0x80000000
 8000cf4:	fa20 f202 	lsr.w	r2, r0, r2
 8000cf8:	eb43 0002 	adc.w	r0, r3, r2
 8000cfc:	bf08      	it	eq
 8000cfe:	f020 0001 	biceq.w	r0, r0, #1
 8000d02:	4770      	bx	lr
 8000d04:	f102 0220 	add.w	r2, r2, #32
 8000d08:	fa01 fc02 	lsl.w	ip, r1, r2
 8000d0c:	f1c2 0220 	rsb	r2, r2, #32
 8000d10:	ea50 004c 	orrs.w	r0, r0, ip, lsl #1
 8000d14:	fa21 f202 	lsr.w	r2, r1, r2
 8000d18:	eb43 0002 	adc.w	r0, r3, r2
 8000d1c:	bf08      	it	eq
 8000d1e:	ea20 70dc 	biceq.w	r0, r0, ip, lsr #31
 8000d22:	4770      	bx	lr

08000d24 <__aeabi_fmul>:
 8000d24:	f04f 0cff 	mov.w	ip, #255	@ 0xff
 8000d28:	ea1c 52d0 	ands.w	r2, ip, r0, lsr #23
 8000d2c:	bf1e      	ittt	ne
 8000d2e:	ea1c 53d1 	andsne.w	r3, ip, r1, lsr #23
 8000d32:	ea92 0f0c 	teqne	r2, ip
 8000d36:	ea93 0f0c 	teqne	r3, ip
 8000d3a:	d06f      	beq.n	8000e1c <__aeabi_fmul+0xf8>
 8000d3c:	441a      	add	r2, r3
 8000d3e:	ea80 0c01 	eor.w	ip, r0, r1
 8000d42:	0240      	lsls	r0, r0, #9
 8000d44:	bf18      	it	ne
 8000d46:	ea5f 2141 	movsne.w	r1, r1, lsl #9
 8000d4a:	d01e      	beq.n	8000d8a <__aeabi_fmul+0x66>
 8000d4c:	f04f 6300 	mov.w	r3, #134217728	@ 0x8000000
 8000d50:	ea43 1050 	orr.w	r0, r3, r0, lsr #5
 8000d54:	ea43 1151 	orr.w	r1, r3, r1, lsr #5
 8000d58:	fba0 3101 	umull	r3, r1, r0, r1
 8000d5c:	f00c 4000 	and.w	r0, ip, #2147483648	@ 0x80000000
 8000d60:	f5b1 0f00 	cmp.w	r1, #8388608	@ 0x800000
 8000d64:	bf3e      	ittt	cc
 8000d66:	0049      	lslcc	r1, r1, #1
 8000d68:	ea41 71d3 	orrcc.w	r1, r1, r3, lsr #31
 8000d6c:	005b      	lslcc	r3, r3, #1
 8000d6e:	ea40 0001 	orr.w	r0, r0, r1
 8000d72:	f162 027f 	sbc.w	r2, r2, #127	@ 0x7f
 8000d76:	2afd      	cmp	r2, #253	@ 0xfd
 8000d78:	d81d      	bhi.n	8000db6 <__aeabi_fmul+0x92>
 8000d7a:	f1b3 4f00 	cmp.w	r3, #2147483648	@ 0x80000000
 8000d7e:	eb40 50c2 	adc.w	r0, r0, r2, lsl #23
 8000d82:	bf08      	it	eq
 8000d84:	f020 0001 	biceq.w	r0, r0, #1
 8000d88:	4770      	bx	lr
 8000d8a:	f090 0f00 	teq	r0, #0
 8000d8e:	f00c 4c00 	and.w	ip, ip, #2147483648	@ 0x80000000
 8000d92:	bf08      	it	eq
 8000d94:	0249      	lsleq	r1, r1, #9
 8000d96:	ea4c 2050 	orr.w	r0, ip, r0, lsr #9
 8000d9a:	ea40 2051 	orr.w	r0, r0, r1, lsr #9
 8000d9e:	3a7f      	subs	r2, #127	@ 0x7f
 8000da0:	bfc2      	ittt	gt
 8000da2:	f1d2 03ff 	rsbsgt	r3, r2, #255	@ 0xff
 8000da6:	ea40 50c2 	orrgt.w	r0, r0, r2, lsl #23
 8000daa:	4770      	bxgt	lr
 8000dac:	f440 0000 	orr.w	r0, r0, #8388608	@ 0x800000
 8000db0:	f04f 0300 	mov.w	r3, #0
 8000db4:	3a01      	subs	r2, #1
 8000db6:	dc5d      	bgt.n	8000e74 <__aeabi_fmul+0x150>
 8000db8:	f112 0f19 	cmn.w	r2, #25
 8000dbc:	bfdc      	itt	le
 8000dbe:	f000 4000 	andle.w	r0, r0, #2147483648	@ 0x80000000
 8000dc2:	4770      	bxle	lr
 8000dc4:	f1c2 0200 	rsb	r2, r2, #0
 8000dc8:	0041      	lsls	r1, r0, #1
 8000dca:	fa21 f102 	lsr.w	r1, r1, r2
 8000dce:	f1c2 0220 	rsb	r2, r2, #32
 8000dd2:	fa00 fc02 	lsl.w	ip, r0, r2
 8000dd6:	ea5f 0031 	movs.w	r0, r1, rrx
 8000dda:	f140 0000 	adc.w	r0, r0, #0
 8000dde:	ea53 034c 	orrs.w	r3, r3, ip, lsl #1
 8000de2:	bf08      	it	eq
 8000de4:	ea20 70dc 	biceq.w	r0, r0, ip, lsr #31
 8000de8:	4770      	bx	lr
 8000dea:	f092 0f00 	teq	r2, #0
 8000dee:	f000 4c00 	and.w	ip, r0, #2147483648	@ 0x80000000
 8000df2:	bf02      	ittt	eq
 8000df4:	0040      	lsleq	r0, r0, #1
 8000df6:	f410 0f00 	tsteq.w	r0, #8388608	@ 0x800000
 8000dfa:	3a01      	subeq	r2, #1
 8000dfc:	d0f9      	beq.n	8000df2 <__aeabi_fmul+0xce>
 8000dfe:	ea40 000c 	orr.w	r0, r0, ip
 8000e02:	f093 0f00 	teq	r3, #0
 8000e06:	f001 4c00 	and.w	ip, r1, #2147483648	@ 0x80000000
 8000e0a:	bf02      	ittt	eq
 8000e0c:	0049      	lsleq	r1, r1, #1
 8000e0e:	f411 0f00 	tsteq.w	r1, #8388608	@ 0x800000
 8000e12:	3b01      	subeq	r3, #1
 8000e14:	d0f9      	beq.n	8000e0a <__aeabi_fmul+0xe6>
 8000e16:	ea41 010c 	orr.w	r1, r1, ip
 8000e1a:	e78f      	b.n	8000d3c <__aeabi_fmul+0x18>
 8000e1c:	ea0c 53d1 	and.w	r3, ip, r1, lsr #23
 8000e20:	ea92 0f0c 	teq	r2, ip
 8000e24:	bf18      	it	ne
 8000e26:	ea93 0f0c 	teqne	r3, ip
 8000e2a:	d00a      	beq.n	8000e42 <__aeabi_fmul+0x11e>
 8000e2c:	f030 4c00 	bics.w	ip, r0, #2147483648	@ 0x80000000
 8000e30:	bf18      	it	ne
 8000e32:	f031 4c00 	bicsne.w	ip, r1, #2147483648	@ 0x80000000
 8000e36:	d1d8      	bne.n	8000dea <__aeabi_fmul+0xc6>
 8000e38:	ea80 0001 	eor.w	r0, r0, r1
 8000e3c:	f000 4000 	and.w	r0, r0, #2147483648	@ 0x80000000
 8000e40:	4770      	bx	lr
 8000e42:	f090 0f00 	teq	r0, #0
 8000e46:	bf17      	itett	ne
 8000e48:	f090 4f00 	teqne	r0, #2147483648	@ 0x80000000
 8000e4c:	4608      	moveq	r0, r1
 8000e4e:	f091 0f00 	teqne	r1, #0
 8000e52:	f091 4f00 	teqne	r1, #2147483648	@ 0x80000000
 8000e56:	d014      	beq.n	8000e82 <__aeabi_fmul+0x15e>
 8000e58:	ea92 0f0c 	teq	r2, ip
 8000e5c:	d101      	bne.n	8000e62 <__aeabi_fmul+0x13e>
 8000e5e:	0242      	lsls	r2, r0, #9
 8000e60:	d10f      	bne.n	8000e82 <__aeabi_fmul+0x15e>
 8000e62:	ea93 0f0c 	teq	r3, ip
 8000e66:	d103      	bne.n	8000e70 <__aeabi_fmul+0x14c>
 8000e68:	024b      	lsls	r3, r1, #9
 8000e6a:	bf18      	it	ne
 8000e6c:	4608      	movne	r0, r1
 8000e6e:	d108      	bne.n	8000e82 <__aeabi_fmul+0x15e>
 8000e70:	ea80 0001 	eor.w	r0, r0, r1
 8000e74:	f000 4000 	and.w	r0, r0, #2147483648	@ 0x80000000
 8000e78:	f040 40fe 	orr.w	r0, r0, #2130706432	@ 0x7f000000
 8000e7c:	f440 0000 	orr.w	r0, r0, #8388608	@ 0x800000
 8000e80:	4770      	bx	lr
 8000e82:	f040 40fe 	orr.w	r0, r0, #2130706432	@ 0x7f000000
 8000e86:	f440 0040 	orr.w	r0, r0, #12582912	@ 0xc00000
 8000e8a:	4770      	bx	lr

08000e8c <__aeabi_fdiv>:
 8000e8c:	f04f 0cff 	mov.w	ip, #255	@ 0xff
 8000e90:	ea1c 52d0 	ands.w	r2, ip, r0, lsr #23
 8000e94:	bf1e      	ittt	ne
 8000e96:	ea1c 53d1 	andsne.w	r3, ip, r1, lsr #23
 8000e9a:	ea92 0f0c 	teqne	r2, ip
 8000e9e:	ea93 0f0c 	teqne	r3, ip
 8000ea2:	d069      	beq.n	8000f78 <__aeabi_fdiv+0xec>
 8000ea4:	eba2 0203 	sub.w	r2, r2, r3
 8000ea8:	ea80 0c01 	eor.w	ip, r0, r1
 8000eac:	0249      	lsls	r1, r1, #9
 8000eae:	ea4f 2040 	mov.w	r0, r0, lsl #9
 8000eb2:	d037      	beq.n	8000f24 <__aeabi_fdiv+0x98>
 8000eb4:	f04f 5380 	mov.w	r3, #268435456	@ 0x10000000
 8000eb8:	ea43 1111 	orr.w	r1, r3, r1, lsr #4
 8000ebc:	ea43 1310 	orr.w	r3, r3, r0, lsr #4
 8000ec0:	f00c 4000 	and.w	r0, ip, #2147483648	@ 0x80000000
 8000ec4:	428b      	cmp	r3, r1
 8000ec6:	bf38      	it	cc
 8000ec8:	005b      	lslcc	r3, r3, #1
 8000eca:	f142 027d 	adc.w	r2, r2, #125	@ 0x7d
 8000ece:	f44f 0c00 	mov.w	ip, #8388608	@ 0x800000
 8000ed2:	428b      	cmp	r3, r1
 8000ed4:	bf24      	itt	cs
 8000ed6:	1a5b      	subcs	r3, r3, r1
 8000ed8:	ea40 000c 	orrcs.w	r0, r0, ip
 8000edc:	ebb3 0f51 	cmp.w	r3, r1, lsr #1
 8000ee0:	bf24      	itt	cs
 8000ee2:	eba3 0351 	subcs.w	r3, r3, r1, lsr #1
 8000ee6:	ea40 005c 	orrcs.w	r0, r0, ip, lsr #1
 8000eea:	ebb3 0f91 	cmp.w	r3, r1, lsr #2
 8000eee:	bf24      	itt	cs
 8000ef0:	eba3 0391 	subcs.w	r3, r3, r1, lsr #2
 8000ef4:	ea40 009c 	orrcs.w	r0, r0, ip, lsr #2
 8000ef8:	ebb3 0fd1 	cmp.w	r3, r1, lsr #3
 8000efc:	bf24      	itt	cs
 8000efe:	eba3 03d1 	subcs.w	r3, r3, r1, lsr #3
 8000f02:	ea40 00dc 	orrcs.w	r0, r0, ip, lsr #3
 8000f06:	011b      	lsls	r3, r3, #4
 8000f08:	bf18      	it	ne
 8000f0a:	ea5f 1c1c 	movsne.w	ip, ip, lsr #4
 8000f0e:	d1e0      	bne.n	8000ed2 <__aeabi_fdiv+0x46>
 8000f10:	2afd      	cmp	r2, #253	@ 0xfd
 8000f12:	f63f af50 	bhi.w	8000db6 <__aeabi_fmul+0x92>
 8000f16:	428b      	cmp	r3, r1
 8000f18:	eb40 50c2 	adc.w	r0, r0, r2, lsl #23
 8000f1c:	bf08      	it	eq
 8000f1e:	f020 0001 	biceq.w	r0, r0, #1
 8000f22:	4770      	bx	lr
 8000f24:	f00c 4c00 	and.w	ip, ip, #2147483648	@ 0x80000000
 8000f28:	ea4c 2050 	orr.w	r0, ip, r0, lsr #9
 8000f2c:	327f      	adds	r2, #127	@ 0x7f
 8000f2e:	bfc2      	ittt	gt
 8000f30:	f1d2 03ff 	rsbsgt	r3, r2, #255	@ 0xff
 8000f34:	ea40 50c2 	orrgt.w	r0, r0, r2, lsl #23
 8000f38:	4770      	bxgt	lr
 8000f3a:	f440 0000 	orr.w	r0, r0, #8388608	@ 0x800000
 8000f3e:	f04f 0300 	mov.w	r3, #0
 8000f42:	3a01      	subs	r2, #1
 8000f44:	e737      	b.n	8000db6 <__aeabi_fmul+0x92>
 8000f46:	f092 0f00 	teq	r2, #0
 8000f4a:	f000 4c00 	and.w	ip, r0, #2147483648	@ 0x80000000
 8000f4e:	bf02      	ittt	eq
 8000f50:	0040      	lsleq	r0, r0, #1
 8000f52:	f410 0f00 	tsteq.w	r0, #8388608	@ 0x800000
 8000f56:	3a01      	subeq	r2, #1
 8000f58:	d0f9      	beq.n	8000f4e <__aeabi_fdiv+0xc2>
 8000f5a:	ea40 000c 	orr.w	r0, r0, ip
 8000f5e:	f093 0f00 	teq	r3, #0
 8000f62:	f001 4c00 	and.w	ip, r1, #2147483648	@ 0x80000000
 8000f66:	bf02      	ittt	eq
 8000f68:	0049      	lsleq	r1, r1, #1
 8000f6a:	f411 0f00 	tsteq.w	r1, #8388608	@ 0x800000
 8000f6e:	3b01      	subeq	r3, #1
 8000f70:	d0f9      	beq.n	8000f66 <__aeabi_fdiv+0xda>
 8000f72:	ea41 010c 	orr.w	r1, r1, ip
 8000f76:	e795      	b.n	8000ea4 <__aeabi_fdiv+0x18>
 8000f78:	ea0c 53d1 	and.w	r3, ip, r1, lsr #23
 8000f7c:	ea92 0f0c 	teq	r2, ip
 8000f80:	d108      	bne.n	8000f94 <__aeabi_fdiv+0x108>
 8000f82:	0242      	lsls	r2, r0, #9
 8000f84:	f47f af7d 	bne.w	8000e82 <__aeabi_fmul+0x15e>
 8000f88:	ea93 0f0c 	teq	r3, ip
 8000f8c:	f47f af70 	bne.w	8000e70 <__aeabi_fmul+0x14c>
 8000f90:	4608      	mov	r0, r1
 8000f92:	e776      	b.n	8000e82 <__aeabi_fmul+0x15e>
 8000f94:	ea93 0f0c 	teq	r3, ip
 8000f98:	d104      	bne.n	8000fa4 <__aeabi_fdiv+0x118>
 8000f9a:	024b      	lsls	r3, r1, #9
 8000f9c:	f43f af4c 	beq.w	8000e38 <__aeabi_fmul+0x114>
 8000fa0:	4608      	mov	r0, r1
 8000fa2:	e76e      	b.n	8000e82 <__aeabi_fmul+0x15e>
 8000fa4:	f030 4c00 	bics.w	ip, r0, #2147483648	@ 0x80000000
 8000fa8:	bf18      	it	ne
 8000faa:	f031 4c00 	bicsne.w	ip, r1, #2147483648	@ 0x80000000
 8000fae:	d1ca      	bne.n	8000f46 <__aeabi_fdiv+0xba>
 8000fb0:	f030 4200 	bics.w	r2, r0, #2147483648	@ 0x80000000
 8000fb4:	f47f af5c 	bne.w	8000e70 <__aeabi_fmul+0x14c>
 8000fb8:	f031 4300 	bics.w	r3, r1, #2147483648	@ 0x80000000
 8000fbc:	f47f af3c 	bne.w	8000e38 <__aeabi_fmul+0x114>
 8000fc0:	e75f      	b.n	8000e82 <__aeabi_fmul+0x15e>
 8000fc2:	bf00      	nop

08000fc4 <__gesf2>:
 8000fc4:	f04f 3cff 	mov.w	ip, #4294967295
 8000fc8:	e006      	b.n	8000fd8 <__cmpsf2+0x4>
 8000fca:	bf00      	nop

08000fcc <__lesf2>:
 8000fcc:	f04f 0c01 	mov.w	ip, #1
 8000fd0:	e002      	b.n	8000fd8 <__cmpsf2+0x4>
 8000fd2:	bf00      	nop

08000fd4 <__cmpsf2>:
 8000fd4:	f04f 0c01 	mov.w	ip, #1
 8000fd8:	f84d cd04 	str.w	ip, [sp, #-4]!
 8000fdc:	ea4f 0240 	mov.w	r2, r0, lsl #1
 8000fe0:	ea4f 0341 	mov.w	r3, r1, lsl #1
 8000fe4:	ea7f 6c22 	mvns.w	ip, r2, asr #24
 8000fe8:	bf18      	it	ne
 8000fea:	ea7f 6c23 	mvnsne.w	ip, r3, asr #24
 8000fee:	d011      	beq.n	8001014 <__cmpsf2+0x40>
 8000ff0:	b001      	add	sp, #4
 8000ff2:	ea52 0c53 	orrs.w	ip, r2, r3, lsr #1
 8000ff6:	bf18      	it	ne
 8000ff8:	ea90 0f01 	teqne	r0, r1
 8000ffc:	bf58      	it	pl
 8000ffe:	ebb2 0003 	subspl.w	r0, r2, r3
 8001002:	bf88      	it	hi
 8001004:	17c8      	asrhi	r0, r1, #31
 8001006:	bf38      	it	cc
 8001008:	ea6f 70e1 	mvncc.w	r0, r1, asr #31
 800100c:	bf18      	it	ne
 800100e:	f040 0001 	orrne.w	r0, r0, #1
 8001012:	4770      	bx	lr
 8001014:	ea7f 6c22 	mvns.w	ip, r2, asr #24
 8001018:	d102      	bne.n	8001020 <__cmpsf2+0x4c>
 800101a:	ea5f 2c40 	movs.w	ip, r0, lsl #9
 800101e:	d105      	bne.n	800102c <__cmpsf2+0x58>
 8001020:	ea7f 6c23 	mvns.w	ip, r3, asr #24
 8001024:	d1e4      	bne.n	8000ff0 <__cmpsf2+0x1c>
 8001026:	ea5f 2c41 	movs.w	ip, r1, lsl #9
 800102a:	d0e1      	beq.n	8000ff0 <__cmpsf2+0x1c>
 800102c:	f85d 0b04 	ldr.w	r0, [sp], #4
 8001030:	4770      	bx	lr
 8001032:	bf00      	nop

08001034 <__aeabi_cfrcmple>:
 8001034:	4684      	mov	ip, r0
 8001036:	4608      	mov	r0, r1
 8001038:	4661      	mov	r1, ip
 800103a:	e7ff      	b.n	800103c <__aeabi_cfcmpeq>

0800103c <__aeabi_cfcmpeq>:
 800103c:	b50f      	push	{r0, r1, r2, r3, lr}
 800103e:	f7ff ffc9 	bl	8000fd4 <__cmpsf2>
 8001042:	2800      	cmp	r0, #0
 8001044:	bf48      	it	mi
 8001046:	f110 0f00 	cmnmi.w	r0, #0
 800104a:	bd0f      	pop	{r0, r1, r2, r3, pc}

0800104c <__aeabi_fcmpeq>:
 800104c:	f84d ed08 	str.w	lr, [sp, #-8]!
 8001050:	f7ff fff4 	bl	800103c <__aeabi_cfcmpeq>
 8001054:	bf0c      	ite	eq
 8001056:	2001      	moveq	r0, #1
 8001058:	2000      	movne	r0, #0
 800105a:	f85d fb08 	ldr.w	pc, [sp], #8
 800105e:	bf00      	nop

08001060 <__aeabi_fcmplt>:
 8001060:	f84d ed08 	str.w	lr, [sp, #-8]!
 8001064:	f7ff ffea 	bl	800103c <__aeabi_cfcmpeq>
 8001068:	bf34      	ite	cc
 800106a:	2001      	movcc	r0, #1
 800106c:	2000      	movcs	r0, #0
 800106e:	f85d fb08 	ldr.w	pc, [sp], #8
 8001072:	bf00      	nop

08001074 <__aeabi_fcmple>:
 8001074:	f84d ed08 	str.w	lr, [sp, #-8]!
 8001078:	f7ff ffe0 	bl	800103c <__aeabi_cfcmpeq>
 800107c:	bf94      	ite	ls
 800107e:	2001      	movls	r0, #1
 8001080:	2000      	movhi	r0, #0
 8001082:	f85d fb08 	ldr.w	pc, [sp], #8
 8001086:	bf00      	nop

08001088 <__aeabi_fcmpge>:
 8001088:	f84d ed08 	str.w	lr, [sp, #-8]!
 800108c:	f7ff ffd2 	bl	8001034 <__aeabi_cfrcmple>
 8001090:	bf94      	ite	ls
 8001092:	2001      	movls	r0, #1
 8001094:	2000      	movhi	r0, #0
 8001096:	f85d fb08 	ldr.w	pc, [sp], #8
 800109a:	bf00      	nop

0800109c <__aeabi_fcmpgt>:
 800109c:	f84d ed08 	str.w	lr, [sp, #-8]!
 80010a0:	f7ff ffc8 	bl	8001034 <__aeabi_cfrcmple>
 80010a4:	bf34      	ite	cc
 80010a6:	2001      	movcc	r0, #1
 80010a8:	2000      	movcs	r0, #0
 80010aa:	f85d fb08 	ldr.w	pc, [sp], #8
 80010ae:	bf00      	nop

080010b0 <__aeabi_f2uiz>:
 80010b0:	0042      	lsls	r2, r0, #1
 80010b2:	d20e      	bcs.n	80010d2 <__aeabi_f2uiz+0x22>
 80010b4:	f1b2 4ffe 	cmp.w	r2, #2130706432	@ 0x7f000000
 80010b8:	d30b      	bcc.n	80010d2 <__aeabi_f2uiz+0x22>
 80010ba:	f04f 039e 	mov.w	r3, #158	@ 0x9e
 80010be:	ebb3 6212 	subs.w	r2, r3, r2, lsr #24
 80010c2:	d409      	bmi.n	80010d8 <__aeabi_f2uiz+0x28>
 80010c4:	ea4f 2300 	mov.w	r3, r0, lsl #8
 80010c8:	f043 4300 	orr.w	r3, r3, #2147483648	@ 0x80000000
 80010cc:	fa23 f002 	lsr.w	r0, r3, r2
 80010d0:	4770      	bx	lr
 80010d2:	f04f 0000 	mov.w	r0, #0
 80010d6:	4770      	bx	lr
 80010d8:	f112 0f61 	cmn.w	r2, #97	@ 0x61
 80010dc:	d101      	bne.n	80010e2 <__aeabi_f2uiz+0x32>
 80010de:	0242      	lsls	r2, r0, #9
 80010e0:	d102      	bne.n	80010e8 <__aeabi_f2uiz+0x38>
 80010e2:	f04f 30ff 	mov.w	r0, #4294967295
 80010e6:	4770      	bx	lr
 80010e8:	f04f 0000 	mov.w	r0, #0
 80010ec:	4770      	bx	lr
 80010ee:	bf00      	nop

080010f0 <max>:
float c1, c2, c3; // parameters theta
float d1, d2, d3; // parameters theta_dot
float u_S, u_M, u_B;

float max(int num_args, ...) // VARIABLE MUST BE FLOAT (EX: 70.0, 980.0 NOT 70 OR 980) , IF NOT FLOAT --> MAX FUNC WILL FALSE!!
{
 80010f0:	b40f      	push	{r0, r1, r2, r3}
 80010f2:	b580      	push	{r7, lr}
 80010f4:	b084      	sub	sp, #16
 80010f6:	af00      	add	r7, sp, #0
   float max;
   float current;
   va_list ap;
   va_start(ap, num_args);
 80010f8:	f107 031c 	add.w	r3, r7, #28
 80010fc:	603b      	str	r3, [r7, #0]
   for(int i = 0; i < num_args; i++)
 80010fe:	2300      	movs	r3, #0
 8001100:	60bb      	str	r3, [r7, #8]
 8001102:	e023      	b.n	800114c <max+0x5c>
   {
	   current = (float)va_arg(ap, double);  // Auto increment the pointer to receive the next argument (float) every call function
 8001104:	683b      	ldr	r3, [r7, #0]
 8001106:	3307      	adds	r3, #7
 8001108:	f023 0307 	bic.w	r3, r3, #7
 800110c:	f103 0208 	add.w	r2, r3, #8
 8001110:	603a      	str	r2, [r7, #0]
 8001112:	e9d3 2300 	ldrd	r2, r3, [r3]
 8001116:	4610      	mov	r0, r2
 8001118:	4619      	mov	r1, r3
 800111a:	f7ff fca5 	bl	8000a68 <__aeabi_d2f>
 800111e:	4603      	mov	r3, r0
 8001120:	607b      	str	r3, [r7, #4]
	   current += 0.0000001f; // Convert to float again :>
 8001122:	4910      	ldr	r1, [pc, #64]	@ (8001164 <max+0x74>)
 8001124:	6878      	ldr	r0, [r7, #4]
 8001126:	f7ff fcf5 	bl	8000b14 <__addsf3>
 800112a:	4603      	mov	r3, r0
 800112c:	607b      	str	r3, [r7, #4]
	   if(i == 0 || current > max)
 800112e:	68bb      	ldr	r3, [r7, #8]
 8001130:	2b00      	cmp	r3, #0
 8001132:	d006      	beq.n	8001142 <max+0x52>
 8001134:	68f9      	ldr	r1, [r7, #12]
 8001136:	6878      	ldr	r0, [r7, #4]
 8001138:	f7ff ffb0 	bl	800109c <__aeabi_fcmpgt>
 800113c:	4603      	mov	r3, r0
 800113e:	2b00      	cmp	r3, #0
 8001140:	d001      	beq.n	8001146 <max+0x56>
	   {
		   max = current;
 8001142:	687b      	ldr	r3, [r7, #4]
 8001144:	60fb      	str	r3, [r7, #12]
   for(int i = 0; i < num_args; i++)
 8001146:	68bb      	ldr	r3, [r7, #8]
 8001148:	3301      	adds	r3, #1
 800114a:	60bb      	str	r3, [r7, #8]
 800114c:	68ba      	ldr	r2, [r7, #8]
 800114e:	69bb      	ldr	r3, [r7, #24]
 8001150:	429a      	cmp	r2, r3
 8001152:	dbd7      	blt.n	8001104 <max+0x14>
	   }
   }
   va_end(ap);

   return max;
 8001154:	68fb      	ldr	r3, [r7, #12]
}
 8001156:	4618      	mov	r0, r3
 8001158:	3710      	adds	r7, #16
 800115a:	46bd      	mov	sp, r7
 800115c:	e8bd 4080 	ldmia.w	sp!, {r7, lr}
 8001160:	b004      	add	sp, #16
 8001162:	4770      	bx	lr
 8001164:	33d6bf95 	.word	0x33d6bf95

08001168 <min>:
float min(float a, float b) {
 8001168:	b580      	push	{r7, lr}
 800116a:	b082      	sub	sp, #8
 800116c:	af00      	add	r7, sp, #0
 800116e:	6078      	str	r0, [r7, #4]
 8001170:	6039      	str	r1, [r7, #0]
	return (a <= b) ? a : b;
 8001172:	6839      	ldr	r1, [r7, #0]
 8001174:	6878      	ldr	r0, [r7, #4]
 8001176:	f7ff ff7d 	bl	8001074 <__aeabi_fcmple>
 800117a:	4603      	mov	r3, r0
 800117c:	2b00      	cmp	r3, #0
 800117e:	d001      	beq.n	8001184 <min+0x1c>
 8001180:	687b      	ldr	r3, [r7, #4]
 8001182:	e000      	b.n	8001186 <min+0x1e>
 8001184:	683b      	ldr	r3, [r7, #0]
}
 8001186:	4618      	mov	r0, r3
 8001188:	3708      	adds	r7, #8
 800118a:	46bd      	mov	sp, r7
 800118c:	bd80      	pop	{r7, pc}

0800118e <mfTriang>:
//float max(float a, float b) {
//	return (a >= b) ? a : b;
//}


float mfTriang(float x, float a, float b, float c) {
 800118e:	b590      	push	{r4, r7, lr}
 8001190:	b087      	sub	sp, #28
 8001192:	af00      	add	r7, sp, #0
 8001194:	60f8      	str	r0, [r7, #12]
 8001196:	60b9      	str	r1, [r7, #8]
 8001198:	607a      	str	r2, [r7, #4]
 800119a:	603b      	str	r3, [r7, #0]
  float out_tri;

  if (x < a) {
 800119c:	68b9      	ldr	r1, [r7, #8]
 800119e:	68f8      	ldr	r0, [r7, #12]
 80011a0:	f7ff ff5e 	bl	8001060 <__aeabi_fcmplt>
 80011a4:	4603      	mov	r3, r0
 80011a6:	2b00      	cmp	r3, #0
 80011a8:	d003      	beq.n	80011b2 <mfTriang+0x24>
	  out_tri = 0;
 80011aa:	f04f 0300 	mov.w	r3, #0
 80011ae:	617b      	str	r3, [r7, #20]
 80011b0:	e042      	b.n	8001238 <mfTriang+0xaa>
  } else if ((x >= a) && (x <= b)) {
 80011b2:	68b9      	ldr	r1, [r7, #8]
 80011b4:	68f8      	ldr	r0, [r7, #12]
 80011b6:	f7ff ff67 	bl	8001088 <__aeabi_fcmpge>
 80011ba:	4603      	mov	r3, r0
 80011bc:	2b00      	cmp	r3, #0
 80011be:	d018      	beq.n	80011f2 <mfTriang+0x64>
 80011c0:	6879      	ldr	r1, [r7, #4]
 80011c2:	68f8      	ldr	r0, [r7, #12]
 80011c4:	f7ff ff56 	bl	8001074 <__aeabi_fcmple>
 80011c8:	4603      	mov	r3, r0
 80011ca:	2b00      	cmp	r3, #0
 80011cc:	d011      	beq.n	80011f2 <mfTriang+0x64>
	  out_tri = (x - a) / (b - a);
 80011ce:	68b9      	ldr	r1, [r7, #8]
 80011d0:	68f8      	ldr	r0, [r7, #12]
 80011d2:	f7ff fc9d 	bl	8000b10 <__aeabi_fsub>
 80011d6:	4603      	mov	r3, r0
 80011d8:	461c      	mov	r4, r3
 80011da:	68b9      	ldr	r1, [r7, #8]
 80011dc:	6878      	ldr	r0, [r7, #4]
 80011de:	f7ff fc97 	bl	8000b10 <__aeabi_fsub>
 80011e2:	4603      	mov	r3, r0
 80011e4:	4619      	mov	r1, r3
 80011e6:	4620      	mov	r0, r4
 80011e8:	f7ff fe50 	bl	8000e8c <__aeabi_fdiv>
 80011ec:	4603      	mov	r3, r0
 80011ee:	617b      	str	r3, [r7, #20]
 80011f0:	e022      	b.n	8001238 <mfTriang+0xaa>
  } else if ((x >= b) && (x <= c)) {
 80011f2:	6879      	ldr	r1, [r7, #4]
 80011f4:	68f8      	ldr	r0, [r7, #12]
 80011f6:	f7ff ff47 	bl	8001088 <__aeabi_fcmpge>
 80011fa:	4603      	mov	r3, r0
 80011fc:	2b00      	cmp	r3, #0
 80011fe:	d018      	beq.n	8001232 <mfTriang+0xa4>
 8001200:	6839      	ldr	r1, [r7, #0]
 8001202:	68f8      	ldr	r0, [r7, #12]
 8001204:	f7ff ff36 	bl	8001074 <__aeabi_fcmple>
 8001208:	4603      	mov	r3, r0
 800120a:	2b00      	cmp	r3, #0
 800120c:	d011      	beq.n	8001232 <mfTriang+0xa4>
	  out_tri = (c - x) / (c - b);
 800120e:	68f9      	ldr	r1, [r7, #12]
 8001210:	6838      	ldr	r0, [r7, #0]
 8001212:	f7ff fc7d 	bl	8000b10 <__aeabi_fsub>
 8001216:	4603      	mov	r3, r0
 8001218:	461c      	mov	r4, r3
 800121a:	6879      	ldr	r1, [r7, #4]
 800121c:	6838      	ldr	r0, [r7, #0]
 800121e:	f7ff fc77 	bl	8000b10 <__aeabi_fsub>
 8001222:	4603      	mov	r3, r0
 8001224:	4619      	mov	r1, r3
 8001226:	4620      	mov	r0, r4
 8001228:	f7ff fe30 	bl	8000e8c <__aeabi_fdiv>
 800122c:	4603      	mov	r3, r0
 800122e:	617b      	str	r3, [r7, #20]
 8001230:	e002      	b.n	8001238 <mfTriang+0xaa>
  } else {
	  out_tri = 0;
 8001232:	f04f 0300 	mov.w	r3, #0
 8001236:	617b      	str	r3, [r7, #20]
  }

  return out_tri;
 8001238:	697b      	ldr	r3, [r7, #20]
}
 800123a:	4618      	mov	r0, r3
 800123c:	371c      	adds	r7, #28
 800123e:	46bd      	mov	sp, r7
 8001240:	bd90      	pop	{r4, r7, pc}

08001242 <mfTrap>:

float mfTrap(float x, float a, float b, float c, float d) {
 8001242:	b590      	push	{r4, r7, lr}
 8001244:	b087      	sub	sp, #28
 8001246:	af00      	add	r7, sp, #0
 8001248:	60f8      	str	r0, [r7, #12]
 800124a:	60b9      	str	r1, [r7, #8]
 800124c:	607a      	str	r2, [r7, #4]
 800124e:	603b      	str	r3, [r7, #0]
  float out_trap;

  if (x < a) {
 8001250:	68b9      	ldr	r1, [r7, #8]
 8001252:	68f8      	ldr	r0, [r7, #12]
 8001254:	f7ff ff04 	bl	8001060 <__aeabi_fcmplt>
 8001258:	4603      	mov	r3, r0
 800125a:	2b00      	cmp	r3, #0
 800125c:	d003      	beq.n	8001266 <mfTrap+0x24>
	  out_trap = 0;
 800125e:	f04f 0300 	mov.w	r3, #0
 8001262:	617b      	str	r3, [r7, #20]
 8001264:	e06a      	b.n	800133c <mfTrap+0xfa>
  } else if ((x >= a) && (x <= b)) {
 8001266:	68b9      	ldr	r1, [r7, #8]
 8001268:	68f8      	ldr	r0, [r7, #12]
 800126a:	f7ff ff0d 	bl	8001088 <__aeabi_fcmpge>
 800126e:	4603      	mov	r3, r0
 8001270:	2b00      	cmp	r3, #0
 8001272:	d023      	beq.n	80012bc <mfTrap+0x7a>
 8001274:	6879      	ldr	r1, [r7, #4]
 8001276:	68f8      	ldr	r0, [r7, #12]
 8001278:	f7ff fefc 	bl	8001074 <__aeabi_fcmple>
 800127c:	4603      	mov	r3, r0
 800127e:	2b00      	cmp	r3, #0
 8001280:	d01c      	beq.n	80012bc <mfTrap+0x7a>
    if (a == b) {
 8001282:	6879      	ldr	r1, [r7, #4]
 8001284:	68b8      	ldr	r0, [r7, #8]
 8001286:	f7ff fee1 	bl	800104c <__aeabi_fcmpeq>
 800128a:	4603      	mov	r3, r0
 800128c:	2b00      	cmp	r3, #0
 800128e:	d003      	beq.n	8001298 <mfTrap+0x56>
    	out_trap = 1;
 8001290:	f04f 537e 	mov.w	r3, #1065353216	@ 0x3f800000
 8001294:	617b      	str	r3, [r7, #20]
    if (a == b) {
 8001296:	e051      	b.n	800133c <mfTrap+0xfa>
    } else {
    	out_trap = (x - a) / (b - a);
 8001298:	68b9      	ldr	r1, [r7, #8]
 800129a:	68f8      	ldr	r0, [r7, #12]
 800129c:	f7ff fc38 	bl	8000b10 <__aeabi_fsub>
 80012a0:	4603      	mov	r3, r0
 80012a2:	461c      	mov	r4, r3
 80012a4:	68b9      	ldr	r1, [r7, #8]
 80012a6:	6878      	ldr	r0, [r7, #4]
 80012a8:	f7ff fc32 	bl	8000b10 <__aeabi_fsub>
 80012ac:	4603      	mov	r3, r0
 80012ae:	4619      	mov	r1, r3
 80012b0:	4620      	mov	r0, r4
 80012b2:	f7ff fdeb 	bl	8000e8c <__aeabi_fdiv>
 80012b6:	4603      	mov	r3, r0
 80012b8:	617b      	str	r3, [r7, #20]
    if (a == b) {
 80012ba:	e03f      	b.n	800133c <mfTrap+0xfa>
    }
  } else if ((x >= b) && (x <= c)) {
 80012bc:	6879      	ldr	r1, [r7, #4]
 80012be:	68f8      	ldr	r0, [r7, #12]
 80012c0:	f7ff fee2 	bl	8001088 <__aeabi_fcmpge>
 80012c4:	4603      	mov	r3, r0
 80012c6:	2b00      	cmp	r3, #0
 80012c8:	d00a      	beq.n	80012e0 <mfTrap+0x9e>
 80012ca:	6839      	ldr	r1, [r7, #0]
 80012cc:	68f8      	ldr	r0, [r7, #12]
 80012ce:	f7ff fed1 	bl	8001074 <__aeabi_fcmple>
 80012d2:	4603      	mov	r3, r0
 80012d4:	2b00      	cmp	r3, #0
 80012d6:	d003      	beq.n	80012e0 <mfTrap+0x9e>
	  out_trap = 1;
 80012d8:	f04f 537e 	mov.w	r3, #1065353216	@ 0x3f800000
 80012dc:	617b      	str	r3, [r7, #20]
 80012de:	e02d      	b.n	800133c <mfTrap+0xfa>
  } else if ((x >= c) && (x <= d)) {
 80012e0:	6839      	ldr	r1, [r7, #0]
 80012e2:	68f8      	ldr	r0, [r7, #12]
 80012e4:	f7ff fed0 	bl	8001088 <__aeabi_fcmpge>
 80012e8:	4603      	mov	r3, r0
 80012ea:	2b00      	cmp	r3, #0
 80012ec:	d023      	beq.n	8001336 <mfTrap+0xf4>
 80012ee:	6ab9      	ldr	r1, [r7, #40]	@ 0x28
 80012f0:	68f8      	ldr	r0, [r7, #12]
 80012f2:	f7ff febf 	bl	8001074 <__aeabi_fcmple>
 80012f6:	4603      	mov	r3, r0
 80012f8:	2b00      	cmp	r3, #0
 80012fa:	d01c      	beq.n	8001336 <mfTrap+0xf4>
    if (c == d) {
 80012fc:	6ab9      	ldr	r1, [r7, #40]	@ 0x28
 80012fe:	6838      	ldr	r0, [r7, #0]
 8001300:	f7ff fea4 	bl	800104c <__aeabi_fcmpeq>
 8001304:	4603      	mov	r3, r0
 8001306:	2b00      	cmp	r3, #0
 8001308:	d003      	beq.n	8001312 <mfTrap+0xd0>
    	out_trap = 1;
 800130a:	f04f 537e 	mov.w	r3, #1065353216	@ 0x3f800000
 800130e:	617b      	str	r3, [r7, #20]
    if (c == d) {
 8001310:	e014      	b.n	800133c <mfTrap+0xfa>
    } else {
    	out_trap = (d - x) / (d - c);
 8001312:	68f9      	ldr	r1, [r7, #12]
 8001314:	6ab8      	ldr	r0, [r7, #40]	@ 0x28
 8001316:	f7ff fbfb 	bl	8000b10 <__aeabi_fsub>
 800131a:	4603      	mov	r3, r0
 800131c:	461c      	mov	r4, r3
 800131e:	6839      	ldr	r1, [r7, #0]
 8001320:	6ab8      	ldr	r0, [r7, #40]	@ 0x28
 8001322:	f7ff fbf5 	bl	8000b10 <__aeabi_fsub>
 8001326:	4603      	mov	r3, r0
 8001328:	4619      	mov	r1, r3
 800132a:	4620      	mov	r0, r4
 800132c:	f7ff fdae 	bl	8000e8c <__aeabi_fdiv>
 8001330:	4603      	mov	r3, r0
 8001332:	617b      	str	r3, [r7, #20]
    if (c == d) {
 8001334:	e002      	b.n	800133c <mfTrap+0xfa>
    }
  } else {
	  out_trap = 0;
 8001336:	f04f 0300 	mov.w	r3, #0
 800133a:	617b      	str	r3, [r7, #20]
  }

  return out_trap;
 800133c:	697b      	ldr	r3, [r7, #20]
}
 800133e:	4618      	mov	r0, r3
 8001340:	371c      	adds	r7, #28
 8001342:	46bd      	mov	sp, r7
 8001344:	bd90      	pop	{r4, r7, pc}
	...

08001348 <run_fuzzy>:

float run_fuzzy(float x1, float x2) {
 8001348:	e92d 4fb0 	stmdb	sp!, {r4, r5, r7, r8, r9, sl, fp, lr}
 800134c:	b0ba      	sub	sp, #232	@ 0xe8
 800134e:	af08      	add	r7, sp, #32
 8001350:	60f8      	str	r0, [r7, #12]
 8001352:	60b9      	str	r1, [r7, #8]
  Theta_struct theta;
  Thetadot_struct theta_dot;
  Uk_struct u_dot;

  // calculate theta (-1->1)
  c1 = 0.75f;
 8001354:	4ba2      	ldr	r3, [pc, #648]	@ (80015e0 <run_fuzzy+0x298>)
 8001356:	f04f 527d 	mov.w	r2, #1061158912	@ 0x3f400000
 800135a:	601a      	str	r2, [r3, #0]
  c2 = 0.55f;
 800135c:	4ba1      	ldr	r3, [pc, #644]	@ (80015e4 <run_fuzzy+0x29c>)
 800135e:	4aa2      	ldr	r2, [pc, #648]	@ (80015e8 <run_fuzzy+0x2a0>)
 8001360:	601a      	str	r2, [r3, #0]
  c3 = 0.38f;
 8001362:	4ba2      	ldr	r3, [pc, #648]	@ (80015ec <run_fuzzy+0x2a4>)
 8001364:	4aa2      	ldr	r2, [pc, #648]	@ (80015f0 <run_fuzzy+0x2a8>)
 8001366:	601a      	str	r2, [r3, #0]

  theta.NB = mfTrap(x1, -5.0f, -1.0f, -c1, -c2); // ve hinh dinh nghia cac gia tri ngon ngu cua bien NB,NS,... (theta)
 8001368:	4b9d      	ldr	r3, [pc, #628]	@ (80015e0 <run_fuzzy+0x298>)
 800136a:	681b      	ldr	r3, [r3, #0]
 800136c:	f083 4200 	eor.w	r2, r3, #2147483648	@ 0x80000000
 8001370:	4b9c      	ldr	r3, [pc, #624]	@ (80015e4 <run_fuzzy+0x29c>)
 8001372:	681b      	ldr	r3, [r3, #0]
 8001374:	f083 4300 	eor.w	r3, r3, #2147483648	@ 0x80000000
 8001378:	9300      	str	r3, [sp, #0]
 800137a:	4613      	mov	r3, r2
 800137c:	4a9d      	ldr	r2, [pc, #628]	@ (80015f4 <run_fuzzy+0x2ac>)
 800137e:	499e      	ldr	r1, [pc, #632]	@ (80015f8 <run_fuzzy+0x2b0>)
 8001380:	68f8      	ldr	r0, [r7, #12]
 8001382:	f7ff ff5e 	bl	8001242 <mfTrap>
 8001386:	4603      	mov	r3, r0
 8001388:	647b      	str	r3, [r7, #68]	@ 0x44
  theta.NS = mfTrap(x1, -c1, -c2, -c3, -0);
 800138a:	4b95      	ldr	r3, [pc, #596]	@ (80015e0 <run_fuzzy+0x298>)
 800138c:	681b      	ldr	r3, [r3, #0]
 800138e:	f083 4100 	eor.w	r1, r3, #2147483648	@ 0x80000000
 8001392:	4b94      	ldr	r3, [pc, #592]	@ (80015e4 <run_fuzzy+0x29c>)
 8001394:	681b      	ldr	r3, [r3, #0]
 8001396:	f083 4200 	eor.w	r2, r3, #2147483648	@ 0x80000000
 800139a:	4b94      	ldr	r3, [pc, #592]	@ (80015ec <run_fuzzy+0x2a4>)
 800139c:	681b      	ldr	r3, [r3, #0]
 800139e:	f083 4300 	eor.w	r3, r3, #2147483648	@ 0x80000000
 80013a2:	f04f 0000 	mov.w	r0, #0
 80013a6:	9000      	str	r0, [sp, #0]
 80013a8:	68f8      	ldr	r0, [r7, #12]
 80013aa:	f7ff ff4a 	bl	8001242 <mfTrap>
 80013ae:	4603      	mov	r3, r0
 80013b0:	64bb      	str	r3, [r7, #72]	@ 0x48
  theta.ZE = mfTrap(x1, -c2, -c3, c3, c2);
 80013b2:	4b8c      	ldr	r3, [pc, #560]	@ (80015e4 <run_fuzzy+0x29c>)
 80013b4:	681b      	ldr	r3, [r3, #0]
 80013b6:	f083 4100 	eor.w	r1, r3, #2147483648	@ 0x80000000
 80013ba:	4b8c      	ldr	r3, [pc, #560]	@ (80015ec <run_fuzzy+0x2a4>)
 80013bc:	681b      	ldr	r3, [r3, #0]
 80013be:	f083 4200 	eor.w	r2, r3, #2147483648	@ 0x80000000
 80013c2:	4b8a      	ldr	r3, [pc, #552]	@ (80015ec <run_fuzzy+0x2a4>)
 80013c4:	6818      	ldr	r0, [r3, #0]
 80013c6:	4b87      	ldr	r3, [pc, #540]	@ (80015e4 <run_fuzzy+0x29c>)
 80013c8:	681b      	ldr	r3, [r3, #0]
 80013ca:	9300      	str	r3, [sp, #0]
 80013cc:	4603      	mov	r3, r0
 80013ce:	68f8      	ldr	r0, [r7, #12]
 80013d0:	f7ff ff37 	bl	8001242 <mfTrap>
 80013d4:	4603      	mov	r3, r0
 80013d6:	64fb      	str	r3, [r7, #76]	@ 0x4c
  theta.PS = mfTrap(x1, 0, c3 - 0.03, c2 - 0.03, c1 - 0.03);
 80013d8:	4b84      	ldr	r3, [pc, #528]	@ (80015ec <run_fuzzy+0x2a4>)
 80013da:	681b      	ldr	r3, [r3, #0]
 80013dc:	4618      	mov	r0, r3
 80013de:	f7ff f81b 	bl	8000418 <__aeabi_f2d>
 80013e2:	a37d      	add	r3, pc, #500	@ (adr r3, 80015d8 <run_fuzzy+0x290>)
 80013e4:	e9d3 2300 	ldrd	r2, r3, [r3]
 80013e8:	f7fe feb6 	bl	8000158 <__aeabi_dsub>
 80013ec:	4602      	mov	r2, r0
 80013ee:	460b      	mov	r3, r1
 80013f0:	4610      	mov	r0, r2
 80013f2:	4619      	mov	r1, r3
 80013f4:	f7ff fb38 	bl	8000a68 <__aeabi_d2f>
 80013f8:	4604      	mov	r4, r0
 80013fa:	4b7a      	ldr	r3, [pc, #488]	@ (80015e4 <run_fuzzy+0x29c>)
 80013fc:	681b      	ldr	r3, [r3, #0]
 80013fe:	4618      	mov	r0, r3
 8001400:	f7ff f80a 	bl	8000418 <__aeabi_f2d>
 8001404:	a374      	add	r3, pc, #464	@ (adr r3, 80015d8 <run_fuzzy+0x290>)
 8001406:	e9d3 2300 	ldrd	r2, r3, [r3]
 800140a:	f7fe fea5 	bl	8000158 <__aeabi_dsub>
 800140e:	4602      	mov	r2, r0
 8001410:	460b      	mov	r3, r1
 8001412:	4610      	mov	r0, r2
 8001414:	4619      	mov	r1, r3
 8001416:	f7ff fb27 	bl	8000a68 <__aeabi_d2f>
 800141a:	4605      	mov	r5, r0
 800141c:	4b70      	ldr	r3, [pc, #448]	@ (80015e0 <run_fuzzy+0x298>)
 800141e:	681b      	ldr	r3, [r3, #0]
 8001420:	4618      	mov	r0, r3
 8001422:	f7fe fff9 	bl	8000418 <__aeabi_f2d>
 8001426:	a36c      	add	r3, pc, #432	@ (adr r3, 80015d8 <run_fuzzy+0x290>)
 8001428:	e9d3 2300 	ldrd	r2, r3, [r3]
 800142c:	f7fe fe94 	bl	8000158 <__aeabi_dsub>
 8001430:	4602      	mov	r2, r0
 8001432:	460b      	mov	r3, r1
 8001434:	4610      	mov	r0, r2
 8001436:	4619      	mov	r1, r3
 8001438:	f7ff fb16 	bl	8000a68 <__aeabi_d2f>
 800143c:	4603      	mov	r3, r0
 800143e:	9300      	str	r3, [sp, #0]
 8001440:	462b      	mov	r3, r5
 8001442:	4622      	mov	r2, r4
 8001444:	f04f 0100 	mov.w	r1, #0
 8001448:	68f8      	ldr	r0, [r7, #12]
 800144a:	f7ff fefa 	bl	8001242 <mfTrap>
 800144e:	4603      	mov	r3, r0
 8001450:	653b      	str	r3, [r7, #80]	@ 0x50
  theta.PB = mfTrap(x1, c2 - 0.03, c1 - 0.03, 1.0f, 5.0f);
 8001452:	4b64      	ldr	r3, [pc, #400]	@ (80015e4 <run_fuzzy+0x29c>)
 8001454:	681b      	ldr	r3, [r3, #0]
 8001456:	4618      	mov	r0, r3
 8001458:	f7fe ffde 	bl	8000418 <__aeabi_f2d>
 800145c:	a35e      	add	r3, pc, #376	@ (adr r3, 80015d8 <run_fuzzy+0x290>)
 800145e:	e9d3 2300 	ldrd	r2, r3, [r3]
 8001462:	f7fe fe79 	bl	8000158 <__aeabi_dsub>
 8001466:	4602      	mov	r2, r0
 8001468:	460b      	mov	r3, r1
 800146a:	4610      	mov	r0, r2
 800146c:	4619      	mov	r1, r3
 800146e:	f7ff fafb 	bl	8000a68 <__aeabi_d2f>
 8001472:	4604      	mov	r4, r0
 8001474:	4b5a      	ldr	r3, [pc, #360]	@ (80015e0 <run_fuzzy+0x298>)
 8001476:	681b      	ldr	r3, [r3, #0]
 8001478:	4618      	mov	r0, r3
 800147a:	f7fe ffcd 	bl	8000418 <__aeabi_f2d>
 800147e:	a356      	add	r3, pc, #344	@ (adr r3, 80015d8 <run_fuzzy+0x290>)
 8001480:	e9d3 2300 	ldrd	r2, r3, [r3]
 8001484:	f7fe fe68 	bl	8000158 <__aeabi_dsub>
 8001488:	4602      	mov	r2, r0
 800148a:	460b      	mov	r3, r1
 800148c:	4610      	mov	r0, r2
 800148e:	4619      	mov	r1, r3
 8001490:	f7ff faea 	bl	8000a68 <__aeabi_d2f>
 8001494:	4602      	mov	r2, r0
 8001496:	4b59      	ldr	r3, [pc, #356]	@ (80015fc <run_fuzzy+0x2b4>)
 8001498:	9300      	str	r3, [sp, #0]
 800149a:	f04f 537e 	mov.w	r3, #1065353216	@ 0x3f800000
 800149e:	4621      	mov	r1, r4
 80014a0:	68f8      	ldr	r0, [r7, #12]
 80014a2:	f7ff fece 	bl	8001242 <mfTrap>
 80014a6:	4603      	mov	r3, r0
 80014a8:	657b      	str	r3, [r7, #84]	@ 0x54

  // calculate theta_dot (-1->1)
//  d1 = 0.3f;
//  d2 = 0.03f;
//  d3 = 0.5f;
  d1 = 0.3f;
 80014aa:	4b55      	ldr	r3, [pc, #340]	@ (8001600 <run_fuzzy+0x2b8>)
 80014ac:	4a55      	ldr	r2, [pc, #340]	@ (8001604 <run_fuzzy+0x2bc>)
 80014ae:	601a      	str	r2, [r3, #0]
  d2 = 0.2f;
 80014b0:	4b55      	ldr	r3, [pc, #340]	@ (8001608 <run_fuzzy+0x2c0>)
 80014b2:	4a56      	ldr	r2, [pc, #344]	@ (800160c <run_fuzzy+0x2c4>)
 80014b4:	601a      	str	r2, [r3, #0]
  d3 = 0.08f;
 80014b6:	4b56      	ldr	r3, [pc, #344]	@ (8001610 <run_fuzzy+0x2c8>)
 80014b8:	4a56      	ldr	r2, [pc, #344]	@ (8001614 <run_fuzzy+0x2cc>)
 80014ba:	601a      	str	r2, [r3, #0]
  theta_dot.NB = mfTriang(x2, -5.0f, -1.0f, -d1); // ve hinh dinh nghia cac gia tri ngon ngu cua bien NB,NS,... (thetadot)
 80014bc:	4b50      	ldr	r3, [pc, #320]	@ (8001600 <run_fuzzy+0x2b8>)
 80014be:	681b      	ldr	r3, [r3, #0]
 80014c0:	f083 4300 	eor.w	r3, r3, #2147483648	@ 0x80000000
 80014c4:	4a4b      	ldr	r2, [pc, #300]	@ (80015f4 <run_fuzzy+0x2ac>)
 80014c6:	494c      	ldr	r1, [pc, #304]	@ (80015f8 <run_fuzzy+0x2b0>)
 80014c8:	68b8      	ldr	r0, [r7, #8]
 80014ca:	f7ff fe60 	bl	800118e <mfTriang>
 80014ce:	4603      	mov	r3, r0
 80014d0:	633b      	str	r3, [r7, #48]	@ 0x30
  theta_dot.NS = mfTriang(x2, -1.0f, -d2, -d3);
 80014d2:	4b4d      	ldr	r3, [pc, #308]	@ (8001608 <run_fuzzy+0x2c0>)
 80014d4:	681b      	ldr	r3, [r3, #0]
 80014d6:	f083 4200 	eor.w	r2, r3, #2147483648	@ 0x80000000
 80014da:	4b4d      	ldr	r3, [pc, #308]	@ (8001610 <run_fuzzy+0x2c8>)
 80014dc:	681b      	ldr	r3, [r3, #0]
 80014de:	f083 4300 	eor.w	r3, r3, #2147483648	@ 0x80000000
 80014e2:	4944      	ldr	r1, [pc, #272]	@ (80015f4 <run_fuzzy+0x2ac>)
 80014e4:	68b8      	ldr	r0, [r7, #8]
 80014e6:	f7ff fe52 	bl	800118e <mfTriang>
 80014ea:	4603      	mov	r3, r0
 80014ec:	637b      	str	r3, [r7, #52]	@ 0x34
  theta_dot.ZE = mfTriang(x2, -d3, 0, d3);
 80014ee:	4b48      	ldr	r3, [pc, #288]	@ (8001610 <run_fuzzy+0x2c8>)
 80014f0:	681b      	ldr	r3, [r3, #0]
 80014f2:	f083 4100 	eor.w	r1, r3, #2147483648	@ 0x80000000
 80014f6:	4b46      	ldr	r3, [pc, #280]	@ (8001610 <run_fuzzy+0x2c8>)
 80014f8:	681b      	ldr	r3, [r3, #0]
 80014fa:	f04f 0200 	mov.w	r2, #0
 80014fe:	68b8      	ldr	r0, [r7, #8]
 8001500:	f7ff fe45 	bl	800118e <mfTriang>
 8001504:	4603      	mov	r3, r0
 8001506:	63bb      	str	r3, [r7, #56]	@ 0x38
  theta_dot.PS = mfTriang(x2, d3, d2, 1.0f);
 8001508:	4b41      	ldr	r3, [pc, #260]	@ (8001610 <run_fuzzy+0x2c8>)
 800150a:	6819      	ldr	r1, [r3, #0]
 800150c:	4b3e      	ldr	r3, [pc, #248]	@ (8001608 <run_fuzzy+0x2c0>)
 800150e:	681a      	ldr	r2, [r3, #0]
 8001510:	f04f 537e 	mov.w	r3, #1065353216	@ 0x3f800000
 8001514:	68b8      	ldr	r0, [r7, #8]
 8001516:	f7ff fe3a 	bl	800118e <mfTriang>
 800151a:	4603      	mov	r3, r0
 800151c:	63fb      	str	r3, [r7, #60]	@ 0x3c
  theta_dot.PB = mfTriang(x2, d1, 1.0f, 5.0f);
 800151e:	4b38      	ldr	r3, [pc, #224]	@ (8001600 <run_fuzzy+0x2b8>)
 8001520:	6819      	ldr	r1, [r3, #0]
 8001522:	4b36      	ldr	r3, [pc, #216]	@ (80015fc <run_fuzzy+0x2b4>)
 8001524:	f04f 527e 	mov.w	r2, #1065353216	@ 0x3f800000
 8001528:	68b8      	ldr	r0, [r7, #8]
 800152a:	f7ff fe30 	bl	800118e <mfTriang>
 800152e:	4603      	mov	r3, r0
 8001530:	643b      	str	r3, [r7, #64]	@ 0x40

  // calculate uk_fuzzy (-1->1) base on MAX-MIN, "and" => MIN

  r[0] = min(theta.NB, theta_dot.NB); // NB
 8001532:	6c7b      	ldr	r3, [r7, #68]	@ 0x44
 8001534:	6b3a      	ldr	r2, [r7, #48]	@ 0x30
 8001536:	4611      	mov	r1, r2
 8001538:	4618      	mov	r0, r3
 800153a:	f7ff fe15 	bl	8001168 <min>
 800153e:	4603      	mov	r3, r0
 8001540:	65bb      	str	r3, [r7, #88]	@ 0x58

  r[1] = min(theta.NS, theta_dot.NB); // NB
 8001542:	6cbb      	ldr	r3, [r7, #72]	@ 0x48
 8001544:	6b3a      	ldr	r2, [r7, #48]	@ 0x30
 8001546:	4611      	mov	r1, r2
 8001548:	4618      	mov	r0, r3
 800154a:	f7ff fe0d 	bl	8001168 <min>
 800154e:	4603      	mov	r3, r0
 8001550:	65fb      	str	r3, [r7, #92]	@ 0x5c

  r[2] = min(theta.ZE, theta_dot.NB); // NM
 8001552:	6cfb      	ldr	r3, [r7, #76]	@ 0x4c
 8001554:	6b3a      	ldr	r2, [r7, #48]	@ 0x30
 8001556:	4611      	mov	r1, r2
 8001558:	4618      	mov	r0, r3
 800155a:	f7ff fe05 	bl	8001168 <min>
 800155e:	4603      	mov	r3, r0
 8001560:	663b      	str	r3, [r7, #96]	@ 0x60

  r[3] = min(theta.PS, theta_dot.NB); // NS
 8001562:	6d3b      	ldr	r3, [r7, #80]	@ 0x50
 8001564:	6b3a      	ldr	r2, [r7, #48]	@ 0x30
 8001566:	4611      	mov	r1, r2
 8001568:	4618      	mov	r0, r3
 800156a:	f7ff fdfd 	bl	8001168 <min>
 800156e:	4603      	mov	r3, r0
 8001570:	667b      	str	r3, [r7, #100]	@ 0x64

  r[4] = min(theta.PB, theta_dot.NB); // ZE
 8001572:	6d7b      	ldr	r3, [r7, #84]	@ 0x54
 8001574:	6b3a      	ldr	r2, [r7, #48]	@ 0x30
 8001576:	4611      	mov	r1, r2
 8001578:	4618      	mov	r0, r3
 800157a:	f7ff fdf5 	bl	8001168 <min>
 800157e:	4603      	mov	r3, r0
 8001580:	66bb      	str	r3, [r7, #104]	@ 0x68
  //-----------------------

  r[5] = min(theta.NB, theta_dot.NS); // NB
 8001582:	6c7b      	ldr	r3, [r7, #68]	@ 0x44
 8001584:	6b7a      	ldr	r2, [r7, #52]	@ 0x34
 8001586:	4611      	mov	r1, r2
 8001588:	4618      	mov	r0, r3
 800158a:	f7ff fded 	bl	8001168 <min>
 800158e:	4603      	mov	r3, r0
 8001590:	66fb      	str	r3, [r7, #108]	@ 0x6c

  r[6] = min(theta.NS, theta_dot.NS); // NM
 8001592:	6cbb      	ldr	r3, [r7, #72]	@ 0x48
 8001594:	6b7a      	ldr	r2, [r7, #52]	@ 0x34
 8001596:	4611      	mov	r1, r2
 8001598:	4618      	mov	r0, r3
 800159a:	f7ff fde5 	bl	8001168 <min>
 800159e:	4603      	mov	r3, r0
 80015a0:	673b      	str	r3, [r7, #112]	@ 0x70

  r[7] = min(theta.ZE, theta_dot.NS); // NS
 80015a2:	6cfb      	ldr	r3, [r7, #76]	@ 0x4c
 80015a4:	6b7a      	ldr	r2, [r7, #52]	@ 0x34
 80015a6:	4611      	mov	r1, r2
 80015a8:	4618      	mov	r0, r3
 80015aa:	f7ff fddd 	bl	8001168 <min>
 80015ae:	4603      	mov	r3, r0
 80015b0:	677b      	str	r3, [r7, #116]	@ 0x74

  r[8] = min(theta.PS, theta_dot.NS); // ZE
 80015b2:	6d3b      	ldr	r3, [r7, #80]	@ 0x50
 80015b4:	6b7a      	ldr	r2, [r7, #52]	@ 0x34
 80015b6:	4611      	mov	r1, r2
 80015b8:	4618      	mov	r0, r3
 80015ba:	f7ff fdd5 	bl	8001168 <min>
 80015be:	4603      	mov	r3, r0
 80015c0:	67bb      	str	r3, [r7, #120]	@ 0x78

  r[9] = min(theta.PB, theta_dot.NS); // PS
 80015c2:	6d7b      	ldr	r3, [r7, #84]	@ 0x54
 80015c4:	6b7a      	ldr	r2, [r7, #52]	@ 0x34
 80015c6:	4611      	mov	r1, r2
 80015c8:	4618      	mov	r0, r3
 80015ca:	f7ff fdcd 	bl	8001168 <min>
 80015ce:	4603      	mov	r3, r0
 80015d0:	67fb      	str	r3, [r7, #124]	@ 0x7c
 80015d2:	e021      	b.n	8001618 <run_fuzzy+0x2d0>
 80015d4:	f3af 8000 	nop.w
 80015d8:	eb851eb8 	.word	0xeb851eb8
 80015dc:	3f9eb851 	.word	0x3f9eb851
 80015e0:	2000011c 	.word	0x2000011c
 80015e4:	20000120 	.word	0x20000120
 80015e8:	3f0ccccd 	.word	0x3f0ccccd
 80015ec:	20000124 	.word	0x20000124
 80015f0:	3ec28f5c 	.word	0x3ec28f5c
 80015f4:	bf800000 	.word	0xbf800000
 80015f8:	c0a00000 	.word	0xc0a00000
 80015fc:	40a00000 	.word	0x40a00000
 8001600:	20000128 	.word	0x20000128
 8001604:	3e99999a 	.word	0x3e99999a
 8001608:	2000012c 	.word	0x2000012c
 800160c:	3e4ccccd 	.word	0x3e4ccccd
 8001610:	20000130 	.word	0x20000130
 8001614:	3da3d70a 	.word	0x3da3d70a
  //-----------------------

  r[10] = min(theta.NB, theta_dot.ZE); // NM
 8001618:	6c7b      	ldr	r3, [r7, #68]	@ 0x44
 800161a:	6bba      	ldr	r2, [r7, #56]	@ 0x38
 800161c:	4611      	mov	r1, r2
 800161e:	4618      	mov	r0, r3
 8001620:	f7ff fda2 	bl	8001168 <min>
 8001624:	4603      	mov	r3, r0
 8001626:	f8c7 3080 	str.w	r3, [r7, #128]	@ 0x80

  r[11] = min(theta.NS, theta_dot.ZE); // NS
 800162a:	6cbb      	ldr	r3, [r7, #72]	@ 0x48
 800162c:	6bba      	ldr	r2, [r7, #56]	@ 0x38
 800162e:	4611      	mov	r1, r2
 8001630:	4618      	mov	r0, r3
 8001632:	f7ff fd99 	bl	8001168 <min>
 8001636:	4603      	mov	r3, r0
 8001638:	f8c7 3084 	str.w	r3, [r7, #132]	@ 0x84

  r[12] = min(theta.ZE, theta_dot.ZE); // ZE
 800163c:	6cfb      	ldr	r3, [r7, #76]	@ 0x4c
 800163e:	6bba      	ldr	r2, [r7, #56]	@ 0x38
 8001640:	4611      	mov	r1, r2
 8001642:	4618      	mov	r0, r3
 8001644:	f7ff fd90 	bl	8001168 <min>
 8001648:	4603      	mov	r3, r0
 800164a:	f8c7 3088 	str.w	r3, [r7, #136]	@ 0x88

  r[13] = min(theta.PS, theta_dot.ZE); // PS
 800164e:	6d3b      	ldr	r3, [r7, #80]	@ 0x50
 8001650:	6bba      	ldr	r2, [r7, #56]	@ 0x38
 8001652:	4611      	mov	r1, r2
 8001654:	4618      	mov	r0, r3
 8001656:	f7ff fd87 	bl	8001168 <min>
 800165a:	4603      	mov	r3, r0
 800165c:	f8c7 308c 	str.w	r3, [r7, #140]	@ 0x8c

  r[14] = min(theta.PB, theta_dot.ZE); // PM
 8001660:	6d7b      	ldr	r3, [r7, #84]	@ 0x54
 8001662:	6bba      	ldr	r2, [r7, #56]	@ 0x38
 8001664:	4611      	mov	r1, r2
 8001666:	4618      	mov	r0, r3
 8001668:	f7ff fd7e 	bl	8001168 <min>
 800166c:	4603      	mov	r3, r0
 800166e:	f8c7 3090 	str.w	r3, [r7, #144]	@ 0x90
  //-----------------------
  r[15] = min(theta.NB, theta_dot.PS); // NS
 8001672:	6c7b      	ldr	r3, [r7, #68]	@ 0x44
 8001674:	6bfa      	ldr	r2, [r7, #60]	@ 0x3c
 8001676:	4611      	mov	r1, r2
 8001678:	4618      	mov	r0, r3
 800167a:	f7ff fd75 	bl	8001168 <min>
 800167e:	4603      	mov	r3, r0
 8001680:	f8c7 3094 	str.w	r3, [r7, #148]	@ 0x94

  r[16] = min(theta.NS, theta_dot.PS); // ZE
 8001684:	6cbb      	ldr	r3, [r7, #72]	@ 0x48
 8001686:	6bfa      	ldr	r2, [r7, #60]	@ 0x3c
 8001688:	4611      	mov	r1, r2
 800168a:	4618      	mov	r0, r3
 800168c:	f7ff fd6c 	bl	8001168 <min>
 8001690:	4603      	mov	r3, r0
 8001692:	f8c7 3098 	str.w	r3, [r7, #152]	@ 0x98

  r[17] = min(theta.ZE, theta_dot.PS); // PS
 8001696:	6cfb      	ldr	r3, [r7, #76]	@ 0x4c
 8001698:	6bfa      	ldr	r2, [r7, #60]	@ 0x3c
 800169a:	4611      	mov	r1, r2
 800169c:	4618      	mov	r0, r3
 800169e:	f7ff fd63 	bl	8001168 <min>
 80016a2:	4603      	mov	r3, r0
 80016a4:	f8c7 309c 	str.w	r3, [r7, #156]	@ 0x9c

  r[18] = min(theta.PS, theta_dot.PS); // PM
 80016a8:	6d3b      	ldr	r3, [r7, #80]	@ 0x50
 80016aa:	6bfa      	ldr	r2, [r7, #60]	@ 0x3c
 80016ac:	4611      	mov	r1, r2
 80016ae:	4618      	mov	r0, r3
 80016b0:	f7ff fd5a 	bl	8001168 <min>
 80016b4:	4603      	mov	r3, r0
 80016b6:	f8c7 30a0 	str.w	r3, [r7, #160]	@ 0xa0

  r[19] = min(theta.PB, theta_dot.PS); // PB
 80016ba:	6d7b      	ldr	r3, [r7, #84]	@ 0x54
 80016bc:	6bfa      	ldr	r2, [r7, #60]	@ 0x3c
 80016be:	4611      	mov	r1, r2
 80016c0:	4618      	mov	r0, r3
 80016c2:	f7ff fd51 	bl	8001168 <min>
 80016c6:	4603      	mov	r3, r0
 80016c8:	f8c7 30a4 	str.w	r3, [r7, #164]	@ 0xa4
  //-----------------------

  r[20] = min(theta.NB, theta_dot.PB); // ZE
 80016cc:	6c7b      	ldr	r3, [r7, #68]	@ 0x44
 80016ce:	6c3a      	ldr	r2, [r7, #64]	@ 0x40
 80016d0:	4611      	mov	r1, r2
 80016d2:	4618      	mov	r0, r3
 80016d4:	f7ff fd48 	bl	8001168 <min>
 80016d8:	4603      	mov	r3, r0
 80016da:	f8c7 30a8 	str.w	r3, [r7, #168]	@ 0xa8

  r[21] = min(theta.NS, theta_dot.PB); // PS
 80016de:	6cbb      	ldr	r3, [r7, #72]	@ 0x48
 80016e0:	6c3a      	ldr	r2, [r7, #64]	@ 0x40
 80016e2:	4611      	mov	r1, r2
 80016e4:	4618      	mov	r0, r3
 80016e6:	f7ff fd3f 	bl	8001168 <min>
 80016ea:	4603      	mov	r3, r0
 80016ec:	f8c7 30ac 	str.w	r3, [r7, #172]	@ 0xac

  r[22] = min(theta.ZE, theta_dot.PB); // PM
 80016f0:	6cfb      	ldr	r3, [r7, #76]	@ 0x4c
 80016f2:	6c3a      	ldr	r2, [r7, #64]	@ 0x40
 80016f4:	4611      	mov	r1, r2
 80016f6:	4618      	mov	r0, r3
 80016f8:	f7ff fd36 	bl	8001168 <min>
 80016fc:	4603      	mov	r3, r0
 80016fe:	f8c7 30b0 	str.w	r3, [r7, #176]	@ 0xb0

  r[23] = min(theta.PS, theta_dot.PB); // PB
 8001702:	6d3b      	ldr	r3, [r7, #80]	@ 0x50
 8001704:	6c3a      	ldr	r2, [r7, #64]	@ 0x40
 8001706:	4611      	mov	r1, r2
 8001708:	4618      	mov	r0, r3
 800170a:	f7ff fd2d 	bl	8001168 <min>
 800170e:	4603      	mov	r3, r0
 8001710:	f8c7 30b4 	str.w	r3, [r7, #180]	@ 0xb4

  r[24] = min(theta.PB, theta_dot.PB); // PB
 8001714:	6d7b      	ldr	r3, [r7, #84]	@ 0x54
 8001716:	6c3a      	ldr	r2, [r7, #64]	@ 0x40
 8001718:	4611      	mov	r1, r2
 800171a:	4618      	mov	r0, r3
 800171c:	f7ff fd24 	bl	8001168 <min>
 8001720:	4603      	mov	r3, r0
 8001722:	f8c7 30b8 	str.w	r3, [r7, #184]	@ 0xb8
   * ZE: r4 r8 r12 r16 r20
   * PS: r9 r13 r17 r21
   * PM: r14 r18 r22
   * PB: r19 r23 r24
   */
  u_dot.NB = max(3, r[0], r[1], r[5]);
 8001726:	6dbb      	ldr	r3, [r7, #88]	@ 0x58
 8001728:	4618      	mov	r0, r3
 800172a:	f7fe fe75 	bl	8000418 <__aeabi_f2d>
 800172e:	4680      	mov	r8, r0
 8001730:	4689      	mov	r9, r1
 8001732:	6dfb      	ldr	r3, [r7, #92]	@ 0x5c
 8001734:	4618      	mov	r0, r3
 8001736:	f7fe fe6f 	bl	8000418 <__aeabi_f2d>
 800173a:	4604      	mov	r4, r0
 800173c:	460d      	mov	r5, r1
 800173e:	6efb      	ldr	r3, [r7, #108]	@ 0x6c
 8001740:	4618      	mov	r0, r3
 8001742:	f7fe fe69 	bl	8000418 <__aeabi_f2d>
 8001746:	4602      	mov	r2, r0
 8001748:	460b      	mov	r3, r1
 800174a:	e9cd 2302 	strd	r2, r3, [sp, #8]
 800174e:	e9cd 4500 	strd	r4, r5, [sp]
 8001752:	4642      	mov	r2, r8
 8001754:	464b      	mov	r3, r9
 8001756:	2003      	movs	r0, #3
 8001758:	f7ff fcca 	bl	80010f0 <max>
 800175c:	4603      	mov	r3, r0
 800175e:	617b      	str	r3, [r7, #20]
  u_dot.NM = max(3, r[2], r[6], r[10]);
 8001760:	6e3b      	ldr	r3, [r7, #96]	@ 0x60
 8001762:	4618      	mov	r0, r3
 8001764:	f7fe fe58 	bl	8000418 <__aeabi_f2d>
 8001768:	4680      	mov	r8, r0
 800176a:	4689      	mov	r9, r1
 800176c:	6f3b      	ldr	r3, [r7, #112]	@ 0x70
 800176e:	4618      	mov	r0, r3
 8001770:	f7fe fe52 	bl	8000418 <__aeabi_f2d>
 8001774:	4604      	mov	r4, r0
 8001776:	460d      	mov	r5, r1
 8001778:	f8d7 3080 	ldr.w	r3, [r7, #128]	@ 0x80
 800177c:	4618      	mov	r0, r3
 800177e:	f7fe fe4b 	bl	8000418 <__aeabi_f2d>
 8001782:	4602      	mov	r2, r0
 8001784:	460b      	mov	r3, r1
 8001786:	e9cd 2302 	strd	r2, r3, [sp, #8]
 800178a:	e9cd 4500 	strd	r4, r5, [sp]
 800178e:	4642      	mov	r2, r8
 8001790:	464b      	mov	r3, r9
 8001792:	2003      	movs	r0, #3
 8001794:	f7ff fcac 	bl	80010f0 <max>
 8001798:	4603      	mov	r3, r0
 800179a:	61bb      	str	r3, [r7, #24]
  u_dot.NS = max(4, r[3], r[7], r[11], r[15]);
 800179c:	6e7b      	ldr	r3, [r7, #100]	@ 0x64
 800179e:	4618      	mov	r0, r3
 80017a0:	f7fe fe3a 	bl	8000418 <__aeabi_f2d>
 80017a4:	4682      	mov	sl, r0
 80017a6:	468b      	mov	fp, r1
 80017a8:	6f7b      	ldr	r3, [r7, #116]	@ 0x74
 80017aa:	4618      	mov	r0, r3
 80017ac:	f7fe fe34 	bl	8000418 <__aeabi_f2d>
 80017b0:	4604      	mov	r4, r0
 80017b2:	460d      	mov	r5, r1
 80017b4:	f8d7 3084 	ldr.w	r3, [r7, #132]	@ 0x84
 80017b8:	4618      	mov	r0, r3
 80017ba:	f7fe fe2d 	bl	8000418 <__aeabi_f2d>
 80017be:	4680      	mov	r8, r0
 80017c0:	4689      	mov	r9, r1
 80017c2:	f8d7 3094 	ldr.w	r3, [r7, #148]	@ 0x94
 80017c6:	4618      	mov	r0, r3
 80017c8:	f7fe fe26 	bl	8000418 <__aeabi_f2d>
 80017cc:	4602      	mov	r2, r0
 80017ce:	460b      	mov	r3, r1
 80017d0:	e9cd 2304 	strd	r2, r3, [sp, #16]
 80017d4:	e9cd 8902 	strd	r8, r9, [sp, #8]
 80017d8:	e9cd 4500 	strd	r4, r5, [sp]
 80017dc:	4652      	mov	r2, sl
 80017de:	465b      	mov	r3, fp
 80017e0:	2004      	movs	r0, #4
 80017e2:	f7ff fc85 	bl	80010f0 <max>
 80017e6:	4603      	mov	r3, r0
 80017e8:	61fb      	str	r3, [r7, #28]
  u_dot.ZE = max(5, r[4], r[8], r[12], r[16], r[20]);
 80017ea:	6ebb      	ldr	r3, [r7, #104]	@ 0x68
 80017ec:	4618      	mov	r0, r3
 80017ee:	f7fe fe13 	bl	8000418 <__aeabi_f2d>
 80017f2:	e9c7 0100 	strd	r0, r1, [r7]
 80017f6:	6fbb      	ldr	r3, [r7, #120]	@ 0x78
 80017f8:	4618      	mov	r0, r3
 80017fa:	f7fe fe0d 	bl	8000418 <__aeabi_f2d>
 80017fe:	4604      	mov	r4, r0
 8001800:	460d      	mov	r5, r1
 8001802:	f8d7 3088 	ldr.w	r3, [r7, #136]	@ 0x88
 8001806:	4618      	mov	r0, r3
 8001808:	f7fe fe06 	bl	8000418 <__aeabi_f2d>
 800180c:	4680      	mov	r8, r0
 800180e:	4689      	mov	r9, r1
 8001810:	f8d7 3098 	ldr.w	r3, [r7, #152]	@ 0x98
 8001814:	4618      	mov	r0, r3
 8001816:	f7fe fdff 	bl	8000418 <__aeabi_f2d>
 800181a:	4682      	mov	sl, r0
 800181c:	468b      	mov	fp, r1
 800181e:	f8d7 30a8 	ldr.w	r3, [r7, #168]	@ 0xa8
 8001822:	4618      	mov	r0, r3
 8001824:	f7fe fdf8 	bl	8000418 <__aeabi_f2d>
 8001828:	4602      	mov	r2, r0
 800182a:	460b      	mov	r3, r1
 800182c:	e9cd 2306 	strd	r2, r3, [sp, #24]
 8001830:	e9cd ab04 	strd	sl, fp, [sp, #16]
 8001834:	e9cd 8902 	strd	r8, r9, [sp, #8]
 8001838:	e9cd 4500 	strd	r4, r5, [sp]
 800183c:	e9d7 2300 	ldrd	r2, r3, [r7]
 8001840:	2005      	movs	r0, #5
 8001842:	f7ff fc55 	bl	80010f0 <max>
 8001846:	4603      	mov	r3, r0
 8001848:	623b      	str	r3, [r7, #32]
  u_dot.PS = max(4, r[9], r[13], r[17], r[21]);
 800184a:	6ffb      	ldr	r3, [r7, #124]	@ 0x7c
 800184c:	4618      	mov	r0, r3
 800184e:	f7fe fde3 	bl	8000418 <__aeabi_f2d>
 8001852:	4682      	mov	sl, r0
 8001854:	468b      	mov	fp, r1
 8001856:	f8d7 308c 	ldr.w	r3, [r7, #140]	@ 0x8c
 800185a:	4618      	mov	r0, r3
 800185c:	f7fe fddc 	bl	8000418 <__aeabi_f2d>
 8001860:	4604      	mov	r4, r0
 8001862:	460d      	mov	r5, r1
 8001864:	f8d7 309c 	ldr.w	r3, [r7, #156]	@ 0x9c
 8001868:	4618      	mov	r0, r3
 800186a:	f7fe fdd5 	bl	8000418 <__aeabi_f2d>
 800186e:	4680      	mov	r8, r0
 8001870:	4689      	mov	r9, r1
 8001872:	f8d7 30ac 	ldr.w	r3, [r7, #172]	@ 0xac
 8001876:	4618      	mov	r0, r3
 8001878:	f7fe fdce 	bl	8000418 <__aeabi_f2d>
 800187c:	4602      	mov	r2, r0
 800187e:	460b      	mov	r3, r1
 8001880:	e9cd 2304 	strd	r2, r3, [sp, #16]
 8001884:	e9cd 8902 	strd	r8, r9, [sp, #8]
 8001888:	e9cd 4500 	strd	r4, r5, [sp]
 800188c:	4652      	mov	r2, sl
 800188e:	465b      	mov	r3, fp
 8001890:	2004      	movs	r0, #4
 8001892:	f7ff fc2d 	bl	80010f0 <max>
 8001896:	4603      	mov	r3, r0
 8001898:	627b      	str	r3, [r7, #36]	@ 0x24
  u_dot.PM = max(3, r[14], r[18], r[22]);
 800189a:	f8d7 3090 	ldr.w	r3, [r7, #144]	@ 0x90
 800189e:	4618      	mov	r0, r3
 80018a0:	f7fe fdba 	bl	8000418 <__aeabi_f2d>
 80018a4:	4680      	mov	r8, r0
 80018a6:	4689      	mov	r9, r1
 80018a8:	f8d7 30a0 	ldr.w	r3, [r7, #160]	@ 0xa0
 80018ac:	4618      	mov	r0, r3
 80018ae:	f7fe fdb3 	bl	8000418 <__aeabi_f2d>
 80018b2:	4604      	mov	r4, r0
 80018b4:	460d      	mov	r5, r1
 80018b6:	f8d7 30b0 	ldr.w	r3, [r7, #176]	@ 0xb0
 80018ba:	4618      	mov	r0, r3
 80018bc:	f7fe fdac 	bl	8000418 <__aeabi_f2d>
 80018c0:	4602      	mov	r2, r0
 80018c2:	460b      	mov	r3, r1
 80018c4:	e9cd 2302 	strd	r2, r3, [sp, #8]
 80018c8:	e9cd 4500 	strd	r4, r5, [sp]
 80018cc:	4642      	mov	r2, r8
 80018ce:	464b      	mov	r3, r9
 80018d0:	2003      	movs	r0, #3
 80018d2:	f7ff fc0d 	bl	80010f0 <max>
 80018d6:	4603      	mov	r3, r0
 80018d8:	62bb      	str	r3, [r7, #40]	@ 0x28
  u_dot.PB = max(3, r[19], r[23], r[24]);
 80018da:	f8d7 30a4 	ldr.w	r3, [r7, #164]	@ 0xa4
 80018de:	4618      	mov	r0, r3
 80018e0:	f7fe fd9a 	bl	8000418 <__aeabi_f2d>
 80018e4:	4680      	mov	r8, r0
 80018e6:	4689      	mov	r9, r1
 80018e8:	f8d7 30b4 	ldr.w	r3, [r7, #180]	@ 0xb4
 80018ec:	4618      	mov	r0, r3
 80018ee:	f7fe fd93 	bl	8000418 <__aeabi_f2d>
 80018f2:	4604      	mov	r4, r0
 80018f4:	460d      	mov	r5, r1
 80018f6:	f8d7 30b8 	ldr.w	r3, [r7, #184]	@ 0xb8
 80018fa:	4618      	mov	r0, r3
 80018fc:	f7fe fd8c 	bl	8000418 <__aeabi_f2d>
 8001900:	4602      	mov	r2, r0
 8001902:	460b      	mov	r3, r1
 8001904:	e9cd 2302 	strd	r2, r3, [sp, #8]
 8001908:	e9cd 4500 	strd	r4, r5, [sp]
 800190c:	4642      	mov	r2, r8
 800190e:	464b      	mov	r3, r9
 8001910:	2003      	movs	r0, #3
 8001912:	f7ff fbed 	bl	80010f0 <max>
 8001916:	4603      	mov	r3, r0
 8001918:	62fb      	str	r3, [r7, #44]	@ 0x2c
//	  u_dot.PB = max(max(r[19], r[23]), r[24]);

  // weighted average defuzzification method
  float sum_beta;
  float sum_beta_y;
  u_S = 0.35f;
 800191a:	4b54      	ldr	r3, [pc, #336]	@ (8001a6c <run_fuzzy+0x724>)
 800191c:	4a54      	ldr	r2, [pc, #336]	@ (8001a70 <run_fuzzy+0x728>)
 800191e:	601a      	str	r2, [r3, #0]
  u_M = 0.58f;
 8001920:	4b54      	ldr	r3, [pc, #336]	@ (8001a74 <run_fuzzy+0x72c>)
 8001922:	4a55      	ldr	r2, [pc, #340]	@ (8001a78 <run_fuzzy+0x730>)
 8001924:	601a      	str	r2, [r3, #0]
  u_B = 0.8f;
 8001926:	4b55      	ldr	r3, [pc, #340]	@ (8001a7c <run_fuzzy+0x734>)
 8001928:	4a55      	ldr	r2, [pc, #340]	@ (8001a80 <run_fuzzy+0x738>)
 800192a:	601a      	str	r2, [r3, #0]
  sum_beta = u_dot.NB + u_dot.NM + u_dot.NS + u_dot.ZE + u_dot.PS + u_dot.PM + u_dot.PB;
 800192c:	697b      	ldr	r3, [r7, #20]
 800192e:	69ba      	ldr	r2, [r7, #24]
 8001930:	4611      	mov	r1, r2
 8001932:	4618      	mov	r0, r3
 8001934:	f7ff f8ee 	bl	8000b14 <__addsf3>
 8001938:	4603      	mov	r3, r0
 800193a:	461a      	mov	r2, r3
 800193c:	69fb      	ldr	r3, [r7, #28]
 800193e:	4619      	mov	r1, r3
 8001940:	4610      	mov	r0, r2
 8001942:	f7ff f8e7 	bl	8000b14 <__addsf3>
 8001946:	4603      	mov	r3, r0
 8001948:	461a      	mov	r2, r3
 800194a:	6a3b      	ldr	r3, [r7, #32]
 800194c:	4619      	mov	r1, r3
 800194e:	4610      	mov	r0, r2
 8001950:	f7ff f8e0 	bl	8000b14 <__addsf3>
 8001954:	4603      	mov	r3, r0
 8001956:	461a      	mov	r2, r3
 8001958:	6a7b      	ldr	r3, [r7, #36]	@ 0x24
 800195a:	4619      	mov	r1, r3
 800195c:	4610      	mov	r0, r2
 800195e:	f7ff f8d9 	bl	8000b14 <__addsf3>
 8001962:	4603      	mov	r3, r0
 8001964:	461a      	mov	r2, r3
 8001966:	6abb      	ldr	r3, [r7, #40]	@ 0x28
 8001968:	4619      	mov	r1, r3
 800196a:	4610      	mov	r0, r2
 800196c:	f7ff f8d2 	bl	8000b14 <__addsf3>
 8001970:	4603      	mov	r3, r0
 8001972:	461a      	mov	r2, r3
 8001974:	6afb      	ldr	r3, [r7, #44]	@ 0x2c
 8001976:	4619      	mov	r1, r3
 8001978:	4610      	mov	r0, r2
 800197a:	f7ff f8cb 	bl	8000b14 <__addsf3>
 800197e:	4603      	mov	r3, r0
 8001980:	f8c7 30c4 	str.w	r3, [r7, #196]	@ 0xc4
  sum_beta_y = -u_B * u_dot.NB + -u_M * u_dot.NM + -u_S * u_dot.NS + 0 * u_dot.ZE + u_S * u_dot.PS + u_M * u_dot.PM + u_B * u_dot.PB;
 8001984:	4b3d      	ldr	r3, [pc, #244]	@ (8001a7c <run_fuzzy+0x734>)
 8001986:	681b      	ldr	r3, [r3, #0]
 8001988:	f083 4300 	eor.w	r3, r3, #2147483648	@ 0x80000000
 800198c:	697a      	ldr	r2, [r7, #20]
 800198e:	4611      	mov	r1, r2
 8001990:	4618      	mov	r0, r3
 8001992:	f7ff f9c7 	bl	8000d24 <__aeabi_fmul>
 8001996:	4603      	mov	r3, r0
 8001998:	461c      	mov	r4, r3
 800199a:	4b36      	ldr	r3, [pc, #216]	@ (8001a74 <run_fuzzy+0x72c>)
 800199c:	681b      	ldr	r3, [r3, #0]
 800199e:	f083 4300 	eor.w	r3, r3, #2147483648	@ 0x80000000
 80019a2:	69ba      	ldr	r2, [r7, #24]
 80019a4:	4611      	mov	r1, r2
 80019a6:	4618      	mov	r0, r3
 80019a8:	f7ff f9bc 	bl	8000d24 <__aeabi_fmul>
 80019ac:	4603      	mov	r3, r0
 80019ae:	4619      	mov	r1, r3
 80019b0:	4620      	mov	r0, r4
 80019b2:	f7ff f8af 	bl	8000b14 <__addsf3>
 80019b6:	4603      	mov	r3, r0
 80019b8:	461c      	mov	r4, r3
 80019ba:	4b2c      	ldr	r3, [pc, #176]	@ (8001a6c <run_fuzzy+0x724>)
 80019bc:	681b      	ldr	r3, [r3, #0]
 80019be:	f083 4300 	eor.w	r3, r3, #2147483648	@ 0x80000000
 80019c2:	69fa      	ldr	r2, [r7, #28]
 80019c4:	4611      	mov	r1, r2
 80019c6:	4618      	mov	r0, r3
 80019c8:	f7ff f9ac 	bl	8000d24 <__aeabi_fmul>
 80019cc:	4603      	mov	r3, r0
 80019ce:	4619      	mov	r1, r3
 80019d0:	4620      	mov	r0, r4
 80019d2:	f7ff f89f 	bl	8000b14 <__addsf3>
 80019d6:	4603      	mov	r3, r0
 80019d8:	461c      	mov	r4, r3
 80019da:	6a3b      	ldr	r3, [r7, #32]
 80019dc:	f04f 0100 	mov.w	r1, #0
 80019e0:	4618      	mov	r0, r3
 80019e2:	f7ff f99f 	bl	8000d24 <__aeabi_fmul>
 80019e6:	4603      	mov	r3, r0
 80019e8:	4619      	mov	r1, r3
 80019ea:	4620      	mov	r0, r4
 80019ec:	f7ff f892 	bl	8000b14 <__addsf3>
 80019f0:	4603      	mov	r3, r0
 80019f2:	461c      	mov	r4, r3
 80019f4:	6a7b      	ldr	r3, [r7, #36]	@ 0x24
 80019f6:	4a1d      	ldr	r2, [pc, #116]	@ (8001a6c <run_fuzzy+0x724>)
 80019f8:	6812      	ldr	r2, [r2, #0]
 80019fa:	4611      	mov	r1, r2
 80019fc:	4618      	mov	r0, r3
 80019fe:	f7ff f991 	bl	8000d24 <__aeabi_fmul>
 8001a02:	4603      	mov	r3, r0
 8001a04:	4619      	mov	r1, r3
 8001a06:	4620      	mov	r0, r4
 8001a08:	f7ff f884 	bl	8000b14 <__addsf3>
 8001a0c:	4603      	mov	r3, r0
 8001a0e:	461c      	mov	r4, r3
 8001a10:	6abb      	ldr	r3, [r7, #40]	@ 0x28
 8001a12:	4a18      	ldr	r2, [pc, #96]	@ (8001a74 <run_fuzzy+0x72c>)
 8001a14:	6812      	ldr	r2, [r2, #0]
 8001a16:	4611      	mov	r1, r2
 8001a18:	4618      	mov	r0, r3
 8001a1a:	f7ff f983 	bl	8000d24 <__aeabi_fmul>
 8001a1e:	4603      	mov	r3, r0
 8001a20:	4619      	mov	r1, r3
 8001a22:	4620      	mov	r0, r4
 8001a24:	f7ff f876 	bl	8000b14 <__addsf3>
 8001a28:	4603      	mov	r3, r0
 8001a2a:	461c      	mov	r4, r3
 8001a2c:	6afb      	ldr	r3, [r7, #44]	@ 0x2c
 8001a2e:	4a13      	ldr	r2, [pc, #76]	@ (8001a7c <run_fuzzy+0x734>)
 8001a30:	6812      	ldr	r2, [r2, #0]
 8001a32:	4611      	mov	r1, r2
 8001a34:	4618      	mov	r0, r3
 8001a36:	f7ff f975 	bl	8000d24 <__aeabi_fmul>
 8001a3a:	4603      	mov	r3, r0
 8001a3c:	4619      	mov	r1, r3
 8001a3e:	4620      	mov	r0, r4
 8001a40:	f7ff f868 	bl	8000b14 <__addsf3>
 8001a44:	4603      	mov	r3, r0
 8001a46:	f8c7 30c0 	str.w	r3, [r7, #192]	@ 0xc0
  out = sum_beta_y / sum_beta; // Homework3 :>
 8001a4a:	f8d7 10c4 	ldr.w	r1, [r7, #196]	@ 0xc4
 8001a4e:	f8d7 00c0 	ldr.w	r0, [r7, #192]	@ 0xc0
 8001a52:	f7ff fa1b 	bl	8000e8c <__aeabi_fdiv>
 8001a56:	4603      	mov	r3, r0
 8001a58:	f8c7 30bc 	str.w	r3, [r7, #188]	@ 0xbc

  return out;
 8001a5c:	f8d7 30bc 	ldr.w	r3, [r7, #188]	@ 0xbc
}
 8001a60:	4618      	mov	r0, r3
 8001a62:	37c8      	adds	r7, #200	@ 0xc8
 8001a64:	46bd      	mov	sp, r7
 8001a66:	e8bd 8fb0 	ldmia.w	sp!, {r4, r5, r7, r8, r9, sl, fp, pc}
 8001a6a:	bf00      	nop
 8001a6c:	20000134 	.word	0x20000134
 8001a70:	3eb33333 	.word	0x3eb33333
 8001a74:	20000138 	.word	0x20000138
 8001a78:	3f147ae1 	.word	0x3f147ae1
 8001a7c:	2000013c 	.word	0x2000013c
 8001a80:	3f4ccccd 	.word	0x3f4ccccd

08001a84 <limit_range>:

void limit_range(float *x) {
 8001a84:	b580      	push	{r7, lr}
 8001a86:	b082      	sub	sp, #8
 8001a88:	af00      	add	r7, sp, #0
 8001a8a:	6078      	str	r0, [r7, #4]
  if (*x > 1)
 8001a8c:	687b      	ldr	r3, [r7, #4]
 8001a8e:	681b      	ldr	r3, [r3, #0]
 8001a90:	f04f 517e 	mov.w	r1, #1065353216	@ 0x3f800000
 8001a94:	4618      	mov	r0, r3
 8001a96:	f7ff fb01 	bl	800109c <__aeabi_fcmpgt>
 8001a9a:	4603      	mov	r3, r0
 8001a9c:	2b00      	cmp	r3, #0
 8001a9e:	d004      	beq.n	8001aaa <limit_range+0x26>
    *x = 1;
 8001aa0:	687b      	ldr	r3, [r7, #4]
 8001aa2:	f04f 527e 	mov.w	r2, #1065353216	@ 0x3f800000
 8001aa6:	601a      	str	r2, [r3, #0]
  else if (*x < -1)
    *x = -1;
}
 8001aa8:	e00c      	b.n	8001ac4 <limit_range+0x40>
  else if (*x < -1)
 8001aaa:	687b      	ldr	r3, [r7, #4]
 8001aac:	681b      	ldr	r3, [r3, #0]
 8001aae:	4907      	ldr	r1, [pc, #28]	@ (8001acc <limit_range+0x48>)
 8001ab0:	4618      	mov	r0, r3
 8001ab2:	f7ff fad5 	bl	8001060 <__aeabi_fcmplt>
 8001ab6:	4603      	mov	r3, r0
 8001ab8:	2b00      	cmp	r3, #0
 8001aba:	d100      	bne.n	8001abe <limit_range+0x3a>
}
 8001abc:	e002      	b.n	8001ac4 <limit_range+0x40>
    *x = -1;
 8001abe:	687b      	ldr	r3, [r7, #4]
 8001ac0:	4a02      	ldr	r2, [pc, #8]	@ (8001acc <limit_range+0x48>)
 8001ac2:	601a      	str	r2, [r3, #0]
}
 8001ac4:	bf00      	nop
 8001ac6:	3708      	adds	r7, #8
 8001ac8:	46bd      	mov	sp, r7
 8001aca:	bd80      	pop	{r7, pc}
 8001acc:	bf800000 	.word	0xbf800000

08001ad0 <main>:
/**
  * @brief  The application entry point.
  * @retval int
  */
int main(void)
{
 8001ad0:	b580      	push	{r7, lr}
 8001ad2:	af00      	add	r7, sp, #0
  /* USER CODE END 1 */

  /* MCU Configuration--------------------------------------------------------*/

  /* Reset of all peripherals, Initializes the Flash interface and the Systick. */
  HAL_Init();
 8001ad4:	f001 f96c 	bl	8002db0 <HAL_Init>
  /* USER CODE BEGIN Init */

  /* USER CODE END Init */

  /* Configure the system clock */
  SystemClock_Config();
 8001ad8:	f000 f810 	bl	8001afc <SystemClock_Config>
  /* USER CODE BEGIN SysInit */

  /* USER CODE END SysInit */

  /* Initialize all configured peripherals */
  MX_GPIO_Init();
 8001adc:	f000 f9b8 	bl	8001e50 <MX_GPIO_Init>
  MX_TIM3_Init();
 8001ae0:	f000 f8ce 	bl	8001c80 <MX_TIM3_Init>
  MX_USART1_UART_Init();
 8001ae4:	f000 f98a 	bl	8001dfc <MX_USART1_UART_Init>
  MX_TIM1_Init();
 8001ae8:	f000 f878 	bl	8001bdc <MX_TIM1_Init>
  MX_I2C1_Init();
 8001aec:	f000 f848 	bl	8001b80 <MX_I2C1_Init>
  MX_TIM4_Init();
 8001af0:	f000 f920 	bl	8001d34 <MX_TIM4_Init>
  /* USER CODE BEGIN 2 */
  Init_All();
 8001af4:	f000 fa30 	bl	8001f58 <Init_All>
  /* USER CODE END 2 */

  /* Infinite loop */
  /* USER CODE BEGIN WHILE */
  while (1)
 8001af8:	bf00      	nop
 8001afa:	e7fd      	b.n	8001af8 <main+0x28>

08001afc <SystemClock_Config>:
/**
  * @brief System Clock Configuration
  * @retval None
  */
void SystemClock_Config(void)
{
 8001afc:	b580      	push	{r7, lr}
 8001afe:	b090      	sub	sp, #64	@ 0x40
 8001b00:	af00      	add	r7, sp, #0
  RCC_OscInitTypeDef RCC_OscInitStruct = {0};
 8001b02:	f107 0318 	add.w	r3, r7, #24
 8001b06:	2228      	movs	r2, #40	@ 0x28
 8001b08:	2100      	movs	r1, #0
 8001b0a:	4618      	mov	r0, r3
 8001b0c:	f004 f902 	bl	8005d14 <memset>
  RCC_ClkInitTypeDef RCC_ClkInitStruct = {0};
 8001b10:	1d3b      	adds	r3, r7, #4
 8001b12:	2200      	movs	r2, #0
 8001b14:	601a      	str	r2, [r3, #0]
 8001b16:	605a      	str	r2, [r3, #4]
 8001b18:	609a      	str	r2, [r3, #8]
 8001b1a:	60da      	str	r2, [r3, #12]
 8001b1c:	611a      	str	r2, [r3, #16]

  /** Initializes the RCC Oscillators according to the specified parameters
  * in the RCC_OscInitTypeDef structure.
  */
  RCC_OscInitStruct.OscillatorType = RCC_OSCILLATORTYPE_HSI;
 8001b1e:	2302      	movs	r3, #2
 8001b20:	61bb      	str	r3, [r7, #24]
  RCC_OscInitStruct.HSIState = RCC_HSI_ON;
 8001b22:	2301      	movs	r3, #1
 8001b24:	62bb      	str	r3, [r7, #40]	@ 0x28
  RCC_OscInitStruct.HSICalibrationValue = RCC_HSICALIBRATION_DEFAULT;
 8001b26:	2310      	movs	r3, #16
 8001b28:	62fb      	str	r3, [r7, #44]	@ 0x2c
  RCC_OscInitStruct.PLL.PLLState = RCC_PLL_ON;
 8001b2a:	2302      	movs	r3, #2
 8001b2c:	637b      	str	r3, [r7, #52]	@ 0x34
  RCC_OscInitStruct.PLL.PLLSource = RCC_PLLSOURCE_HSI_DIV2;
 8001b2e:	2300      	movs	r3, #0
 8001b30:	63bb      	str	r3, [r7, #56]	@ 0x38
  RCC_OscInitStruct.PLL.PLLMUL = RCC_PLL_MUL16;
 8001b32:	f44f 1360 	mov.w	r3, #3670016	@ 0x380000
 8001b36:	63fb      	str	r3, [r7, #60]	@ 0x3c
  if (HAL_RCC_OscConfig(&RCC_OscInitStruct) != HAL_OK)
 8001b38:	f107 0318 	add.w	r3, r7, #24
 8001b3c:	4618      	mov	r0, r3
 8001b3e:	f002 fc9d 	bl	800447c <HAL_RCC_OscConfig>
 8001b42:	4603      	mov	r3, r0
 8001b44:	2b00      	cmp	r3, #0
 8001b46:	d001      	beq.n	8001b4c <SystemClock_Config+0x50>
  {
    Error_Handler();
 8001b48:	f000 fbb2 	bl	80022b0 <Error_Handler>
  }

  /** Initializes the CPU, AHB and APB buses clocks
  */
  RCC_ClkInitStruct.ClockType = RCC_CLOCKTYPE_HCLK|RCC_CLOCKTYPE_SYSCLK
 8001b4c:	230f      	movs	r3, #15
 8001b4e:	607b      	str	r3, [r7, #4]
                              |RCC_CLOCKTYPE_PCLK1|RCC_CLOCKTYPE_PCLK2;
  RCC_ClkInitStruct.SYSCLKSource = RCC_SYSCLKSOURCE_PLLCLK;
 8001b50:	2302      	movs	r3, #2
 8001b52:	60bb      	str	r3, [r7, #8]
  RCC_ClkInitStruct.AHBCLKDivider = RCC_SYSCLK_DIV1;
 8001b54:	2300      	movs	r3, #0
 8001b56:	60fb      	str	r3, [r7, #12]
  RCC_ClkInitStruct.APB1CLKDivider = RCC_HCLK_DIV2;
 8001b58:	f44f 6380 	mov.w	r3, #1024	@ 0x400
 8001b5c:	613b      	str	r3, [r7, #16]
  RCC_ClkInitStruct.APB2CLKDivider = RCC_HCLK_DIV1;
 8001b5e:	2300      	movs	r3, #0
 8001b60:	617b      	str	r3, [r7, #20]

  if (HAL_RCC_ClockConfig(&RCC_ClkInitStruct, FLASH_LATENCY_2) != HAL_OK)
 8001b62:	1d3b      	adds	r3, r7, #4
 8001b64:	2102      	movs	r1, #2
 8001b66:	4618      	mov	r0, r3
 8001b68:	f002 ff0a 	bl	8004980 <HAL_RCC_ClockConfig>
 8001b6c:	4603      	mov	r3, r0
 8001b6e:	2b00      	cmp	r3, #0
 8001b70:	d001      	beq.n	8001b76 <SystemClock_Config+0x7a>
  {
    Error_Handler();
 8001b72:	f000 fb9d 	bl	80022b0 <Error_Handler>
  }
}
 8001b76:	bf00      	nop
 8001b78:	3740      	adds	r7, #64	@ 0x40
 8001b7a:	46bd      	mov	sp, r7
 8001b7c:	bd80      	pop	{r7, pc}
	...

08001b80 <MX_I2C1_Init>:
  * @brief I2C1 Initialization Function
  * @param None
  * @retval None
  */
static void MX_I2C1_Init(void)
{
 8001b80:	b580      	push	{r7, lr}
 8001b82:	af00      	add	r7, sp, #0
  /* USER CODE END I2C1_Init 0 */

  /* USER CODE BEGIN I2C1_Init 1 */

  /* USER CODE END I2C1_Init 1 */
  hi2c1.Instance = I2C1;
 8001b84:	4b12      	ldr	r3, [pc, #72]	@ (8001bd0 <MX_I2C1_Init+0x50>)
 8001b86:	4a13      	ldr	r2, [pc, #76]	@ (8001bd4 <MX_I2C1_Init+0x54>)
 8001b88:	601a      	str	r2, [r3, #0]
  hi2c1.Init.ClockSpeed = 100000;
 8001b8a:	4b11      	ldr	r3, [pc, #68]	@ (8001bd0 <MX_I2C1_Init+0x50>)
 8001b8c:	4a12      	ldr	r2, [pc, #72]	@ (8001bd8 <MX_I2C1_Init+0x58>)
 8001b8e:	605a      	str	r2, [r3, #4]
  hi2c1.Init.DutyCycle = I2C_DUTYCYCLE_2;
 8001b90:	4b0f      	ldr	r3, [pc, #60]	@ (8001bd0 <MX_I2C1_Init+0x50>)
 8001b92:	2200      	movs	r2, #0
 8001b94:	609a      	str	r2, [r3, #8]
  hi2c1.Init.OwnAddress1 = 0;
 8001b96:	4b0e      	ldr	r3, [pc, #56]	@ (8001bd0 <MX_I2C1_Init+0x50>)
 8001b98:	2200      	movs	r2, #0
 8001b9a:	60da      	str	r2, [r3, #12]
  hi2c1.Init.AddressingMode = I2C_ADDRESSINGMODE_7BIT;
 8001b9c:	4b0c      	ldr	r3, [pc, #48]	@ (8001bd0 <MX_I2C1_Init+0x50>)
 8001b9e:	f44f 4280 	mov.w	r2, #16384	@ 0x4000
 8001ba2:	611a      	str	r2, [r3, #16]
  hi2c1.Init.DualAddressMode = I2C_DUALADDRESS_DISABLE;
 8001ba4:	4b0a      	ldr	r3, [pc, #40]	@ (8001bd0 <MX_I2C1_Init+0x50>)
 8001ba6:	2200      	movs	r2, #0
 8001ba8:	615a      	str	r2, [r3, #20]
  hi2c1.Init.OwnAddress2 = 0;
 8001baa:	4b09      	ldr	r3, [pc, #36]	@ (8001bd0 <MX_I2C1_Init+0x50>)
 8001bac:	2200      	movs	r2, #0
 8001bae:	619a      	str	r2, [r3, #24]
  hi2c1.Init.GeneralCallMode = I2C_GENERALCALL_DISABLE;
 8001bb0:	4b07      	ldr	r3, [pc, #28]	@ (8001bd0 <MX_I2C1_Init+0x50>)
 8001bb2:	2200      	movs	r2, #0
 8001bb4:	61da      	str	r2, [r3, #28]
  hi2c1.Init.NoStretchMode = I2C_NOSTRETCH_DISABLE;
 8001bb6:	4b06      	ldr	r3, [pc, #24]	@ (8001bd0 <MX_I2C1_Init+0x50>)
 8001bb8:	2200      	movs	r2, #0
 8001bba:	621a      	str	r2, [r3, #32]
  if (HAL_I2C_Init(&hi2c1) != HAL_OK)
 8001bbc:	4804      	ldr	r0, [pc, #16]	@ (8001bd0 <MX_I2C1_Init+0x50>)
 8001bbe:	f001 fc03 	bl	80033c8 <HAL_I2C_Init>
 8001bc2:	4603      	mov	r3, r0
 8001bc4:	2b00      	cmp	r3, #0
 8001bc6:	d001      	beq.n	8001bcc <MX_I2C1_Init+0x4c>
  {
    Error_Handler();
 8001bc8:	f000 fb72 	bl	80022b0 <Error_Handler>
  }
  /* USER CODE BEGIN I2C1_Init 2 */

  /* USER CODE END I2C1_Init 2 */

}
 8001bcc:	bf00      	nop
 8001bce:	bd80      	pop	{r7, pc}
 8001bd0:	20000140 	.word	0x20000140
 8001bd4:	40005400 	.word	0x40005400
 8001bd8:	000186a0 	.word	0x000186a0

08001bdc <MX_TIM1_Init>:
  * @brief TIM1 Initialization Function
  * @param None
  * @retval None
  */
static void MX_TIM1_Init(void)
{
 8001bdc:	b580      	push	{r7, lr}
 8001bde:	b086      	sub	sp, #24
 8001be0:	af00      	add	r7, sp, #0

  /* USER CODE BEGIN TIM1_Init 0 */

  /* USER CODE END TIM1_Init 0 */

  TIM_ClockConfigTypeDef sClockSourceConfig = {0};
 8001be2:	f107 0308 	add.w	r3, r7, #8
 8001be6:	2200      	movs	r2, #0
 8001be8:	601a      	str	r2, [r3, #0]
 8001bea:	605a      	str	r2, [r3, #4]
 8001bec:	609a      	str	r2, [r3, #8]
 8001bee:	60da      	str	r2, [r3, #12]
  TIM_MasterConfigTypeDef sMasterConfig = {0};
 8001bf0:	463b      	mov	r3, r7
 8001bf2:	2200      	movs	r2, #0
 8001bf4:	601a      	str	r2, [r3, #0]
 8001bf6:	605a      	str	r2, [r3, #4]

  /* USER CODE BEGIN TIM1_Init 1 */

  /* USER CODE END TIM1_Init 1 */
  htim1.Instance = TIM1;
 8001bf8:	4b1f      	ldr	r3, [pc, #124]	@ (8001c78 <MX_TIM1_Init+0x9c>)
 8001bfa:	4a20      	ldr	r2, [pc, #128]	@ (8001c7c <MX_TIM1_Init+0xa0>)
 8001bfc:	601a      	str	r2, [r3, #0]
  htim1.Init.Prescaler = 639;
 8001bfe:	4b1e      	ldr	r3, [pc, #120]	@ (8001c78 <MX_TIM1_Init+0x9c>)
 8001c00:	f240 227f 	movw	r2, #639	@ 0x27f
 8001c04:	605a      	str	r2, [r3, #4]
  htim1.Init.CounterMode = TIM_COUNTERMODE_UP;
 8001c06:	4b1c      	ldr	r3, [pc, #112]	@ (8001c78 <MX_TIM1_Init+0x9c>)
 8001c08:	2200      	movs	r2, #0
 8001c0a:	609a      	str	r2, [r3, #8]
  htim1.Init.Period = 9999;
 8001c0c:	4b1a      	ldr	r3, [pc, #104]	@ (8001c78 <MX_TIM1_Init+0x9c>)
 8001c0e:	f242 720f 	movw	r2, #9999	@ 0x270f
 8001c12:	60da      	str	r2, [r3, #12]
  htim1.Init.ClockDivision = TIM_CLOCKDIVISION_DIV1;
 8001c14:	4b18      	ldr	r3, [pc, #96]	@ (8001c78 <MX_TIM1_Init+0x9c>)
 8001c16:	2200      	movs	r2, #0
 8001c18:	611a      	str	r2, [r3, #16]
  htim1.Init.RepetitionCounter = 0;
 8001c1a:	4b17      	ldr	r3, [pc, #92]	@ (8001c78 <MX_TIM1_Init+0x9c>)
 8001c1c:	2200      	movs	r2, #0
 8001c1e:	615a      	str	r2, [r3, #20]
  htim1.Init.AutoReloadPreload = TIM_AUTORELOAD_PRELOAD_DISABLE;
 8001c20:	4b15      	ldr	r3, [pc, #84]	@ (8001c78 <MX_TIM1_Init+0x9c>)
 8001c22:	2200      	movs	r2, #0
 8001c24:	619a      	str	r2, [r3, #24]
  if (HAL_TIM_Base_Init(&htim1) != HAL_OK)
 8001c26:	4814      	ldr	r0, [pc, #80]	@ (8001c78 <MX_TIM1_Init+0x9c>)
 8001c28:	f003 f838 	bl	8004c9c <HAL_TIM_Base_Init>
 8001c2c:	4603      	mov	r3, r0
 8001c2e:	2b00      	cmp	r3, #0
 8001c30:	d001      	beq.n	8001c36 <MX_TIM1_Init+0x5a>
  {
    Error_Handler();
 8001c32:	f000 fb3d 	bl	80022b0 <Error_Handler>
  }
  sClockSourceConfig.ClockSource = TIM_CLOCKSOURCE_INTERNAL;
 8001c36:	f44f 5380 	mov.w	r3, #4096	@ 0x1000
 8001c3a:	60bb      	str	r3, [r7, #8]
  if (HAL_TIM_ConfigClockSource(&htim1, &sClockSourceConfig) != HAL_OK)
 8001c3c:	f107 0308 	add.w	r3, r7, #8
 8001c40:	4619      	mov	r1, r3
 8001c42:	480d      	ldr	r0, [pc, #52]	@ (8001c78 <MX_TIM1_Init+0x9c>)
 8001c44:	f003 fb88 	bl	8005358 <HAL_TIM_ConfigClockSource>
 8001c48:	4603      	mov	r3, r0
 8001c4a:	2b00      	cmp	r3, #0
 8001c4c:	d001      	beq.n	8001c52 <MX_TIM1_Init+0x76>
  {
    Error_Handler();
 8001c4e:	f000 fb2f 	bl	80022b0 <Error_Handler>
  }
  sMasterConfig.MasterOutputTrigger = TIM_TRGO_RESET;
 8001c52:	2300      	movs	r3, #0
 8001c54:	603b      	str	r3, [r7, #0]
  sMasterConfig.MasterSlaveMode = TIM_MASTERSLAVEMODE_DISABLE;
 8001c56:	2300      	movs	r3, #0
 8001c58:	607b      	str	r3, [r7, #4]
  if (HAL_TIMEx_MasterConfigSynchronization(&htim1, &sMasterConfig) != HAL_OK)
 8001c5a:	463b      	mov	r3, r7
 8001c5c:	4619      	mov	r1, r3
 8001c5e:	4806      	ldr	r0, [pc, #24]	@ (8001c78 <MX_TIM1_Init+0x9c>)
 8001c60:	f003 ff0a 	bl	8005a78 <HAL_TIMEx_MasterConfigSynchronization>
 8001c64:	4603      	mov	r3, r0
 8001c66:	2b00      	cmp	r3, #0
 8001c68:	d001      	beq.n	8001c6e <MX_TIM1_Init+0x92>
  {
    Error_Handler();
 8001c6a:	f000 fb21 	bl	80022b0 <Error_Handler>
  }
  /* USER CODE BEGIN TIM1_Init 2 */

  /* USER CODE END TIM1_Init 2 */

}
 8001c6e:	bf00      	nop
 8001c70:	3718      	adds	r7, #24
 8001c72:	46bd      	mov	sp, r7
 8001c74:	bd80      	pop	{r7, pc}
 8001c76:	bf00      	nop
 8001c78:	20000194 	.word	0x20000194
 8001c7c:	40012c00 	.word	0x40012c00

08001c80 <MX_TIM3_Init>:
  * @brief TIM3 Initialization Function
  * @param None
  * @retval None
  */
static void MX_TIM3_Init(void)
{
 8001c80:	b580      	push	{r7, lr}
 8001c82:	b08a      	sub	sp, #40	@ 0x28
 8001c84:	af00      	add	r7, sp, #0

  /* USER CODE BEGIN TIM3_Init 0 */

  /* USER CODE END TIM3_Init 0 */

  TIM_MasterConfigTypeDef sMasterConfig = {0};
 8001c86:	f107 0320 	add.w	r3, r7, #32
 8001c8a:	2200      	movs	r2, #0
 8001c8c:	601a      	str	r2, [r3, #0]
 8001c8e:	605a      	str	r2, [r3, #4]
  TIM_OC_InitTypeDef sConfigOC = {0};
 8001c90:	1d3b      	adds	r3, r7, #4
 8001c92:	2200      	movs	r2, #0
 8001c94:	601a      	str	r2, [r3, #0]
 8001c96:	605a      	str	r2, [r3, #4]
 8001c98:	609a      	str	r2, [r3, #8]
 8001c9a:	60da      	str	r2, [r3, #12]
 8001c9c:	611a      	str	r2, [r3, #16]
 8001c9e:	615a      	str	r2, [r3, #20]
 8001ca0:	619a      	str	r2, [r3, #24]

  /* USER CODE BEGIN TIM3_Init 1 */

  /* USER CODE END TIM3_Init 1 */
  htim3.Instance = TIM3;
 8001ca2:	4b22      	ldr	r3, [pc, #136]	@ (8001d2c <MX_TIM3_Init+0xac>)
 8001ca4:	4a22      	ldr	r2, [pc, #136]	@ (8001d30 <MX_TIM3_Init+0xb0>)
 8001ca6:	601a      	str	r2, [r3, #0]
  htim3.Init.Prescaler = 9;
 8001ca8:	4b20      	ldr	r3, [pc, #128]	@ (8001d2c <MX_TIM3_Init+0xac>)
 8001caa:	2209      	movs	r2, #9
 8001cac:	605a      	str	r2, [r3, #4]
  htim3.Init.CounterMode = TIM_COUNTERMODE_UP;
 8001cae:	4b1f      	ldr	r3, [pc, #124]	@ (8001d2c <MX_TIM3_Init+0xac>)
 8001cb0:	2200      	movs	r2, #0
 8001cb2:	609a      	str	r2, [r3, #8]
  htim3.Init.Period = 3199;
 8001cb4:	4b1d      	ldr	r3, [pc, #116]	@ (8001d2c <MX_TIM3_Init+0xac>)
 8001cb6:	f640 427f 	movw	r2, #3199	@ 0xc7f
 8001cba:	60da      	str	r2, [r3, #12]
  htim3.Init.ClockDivision = TIM_CLOCKDIVISION_DIV1;
 8001cbc:	4b1b      	ldr	r3, [pc, #108]	@ (8001d2c <MX_TIM3_Init+0xac>)
 8001cbe:	2200      	movs	r2, #0
 8001cc0:	611a      	str	r2, [r3, #16]
  htim3.Init.AutoReloadPreload = TIM_AUTORELOAD_PRELOAD_DISABLE;
 8001cc2:	4b1a      	ldr	r3, [pc, #104]	@ (8001d2c <MX_TIM3_Init+0xac>)
 8001cc4:	2200      	movs	r2, #0
 8001cc6:	619a      	str	r2, [r3, #24]
  if (HAL_TIM_PWM_Init(&htim3) != HAL_OK)
 8001cc8:	4818      	ldr	r0, [pc, #96]	@ (8001d2c <MX_TIM3_Init+0xac>)
 8001cca:	f003 f889 	bl	8004de0 <HAL_TIM_PWM_Init>
 8001cce:	4603      	mov	r3, r0
 8001cd0:	2b00      	cmp	r3, #0
 8001cd2:	d001      	beq.n	8001cd8 <MX_TIM3_Init+0x58>
  {
    Error_Handler();
 8001cd4:	f000 faec 	bl	80022b0 <Error_Handler>
  }
  sMasterConfig.MasterOutputTrigger = TIM_TRGO_RESET;
 8001cd8:	2300      	movs	r3, #0
 8001cda:	623b      	str	r3, [r7, #32]
  sMasterConfig.MasterSlaveMode = TIM_MASTERSLAVEMODE_DISABLE;
 8001cdc:	2300      	movs	r3, #0
 8001cde:	627b      	str	r3, [r7, #36]	@ 0x24
  if (HAL_TIMEx_MasterConfigSynchronization(&htim3, &sMasterConfig) != HAL_OK)
 8001ce0:	f107 0320 	add.w	r3, r7, #32
 8001ce4:	4619      	mov	r1, r3
 8001ce6:	4811      	ldr	r0, [pc, #68]	@ (8001d2c <MX_TIM3_Init+0xac>)
 8001ce8:	f003 fec6 	bl	8005a78 <HAL_TIMEx_MasterConfigSynchronization>
 8001cec:	4603      	mov	r3, r0
 8001cee:	2b00      	cmp	r3, #0
 8001cf0:	d001      	beq.n	8001cf6 <MX_TIM3_Init+0x76>
  {
    Error_Handler();
 8001cf2:	f000 fadd 	bl	80022b0 <Error_Handler>
  }
  sConfigOC.OCMode = TIM_OCMODE_PWM1;
 8001cf6:	2360      	movs	r3, #96	@ 0x60
 8001cf8:	607b      	str	r3, [r7, #4]
  sConfigOC.Pulse = 0;
 8001cfa:	2300      	movs	r3, #0
 8001cfc:	60bb      	str	r3, [r7, #8]
  sConfigOC.OCPolarity = TIM_OCPOLARITY_HIGH;
 8001cfe:	2300      	movs	r3, #0
 8001d00:	60fb      	str	r3, [r7, #12]
  sConfigOC.OCFastMode = TIM_OCFAST_DISABLE;
 8001d02:	2300      	movs	r3, #0
 8001d04:	617b      	str	r3, [r7, #20]
  if (HAL_TIM_PWM_ConfigChannel(&htim3, &sConfigOC, TIM_CHANNEL_1) != HAL_OK)
 8001d06:	1d3b      	adds	r3, r7, #4
 8001d08:	2200      	movs	r2, #0
 8001d0a:	4619      	mov	r1, r3
 8001d0c:	4807      	ldr	r0, [pc, #28]	@ (8001d2c <MX_TIM3_Init+0xac>)
 8001d0e:	f003 fa61 	bl	80051d4 <HAL_TIM_PWM_ConfigChannel>
 8001d12:	4603      	mov	r3, r0
 8001d14:	2b00      	cmp	r3, #0
 8001d16:	d001      	beq.n	8001d1c <MX_TIM3_Init+0x9c>
  {
    Error_Handler();
 8001d18:	f000 faca 	bl	80022b0 <Error_Handler>
  }
  /* USER CODE BEGIN TIM3_Init 2 */

  /* USER CODE END TIM3_Init 2 */
  HAL_TIM_MspPostInit(&htim3);
 8001d1c:	4803      	ldr	r0, [pc, #12]	@ (8001d2c <MX_TIM3_Init+0xac>)
 8001d1e:	f000 ff33 	bl	8002b88 <HAL_TIM_MspPostInit>

}
 8001d22:	bf00      	nop
 8001d24:	3728      	adds	r7, #40	@ 0x28
 8001d26:	46bd      	mov	sp, r7
 8001d28:	bd80      	pop	{r7, pc}
 8001d2a:	bf00      	nop
 8001d2c:	200001dc 	.word	0x200001dc
 8001d30:	40000400 	.word	0x40000400

08001d34 <MX_TIM4_Init>:
  * @brief TIM4 Initialization Function
  * @param None
  * @retval None
  */
static void MX_TIM4_Init(void)
{
 8001d34:	b580      	push	{r7, lr}
 8001d36:	b08a      	sub	sp, #40	@ 0x28
 8001d38:	af00      	add	r7, sp, #0

  /* USER CODE BEGIN TIM4_Init 0 */

  /* USER CODE END TIM4_Init 0 */

  TIM_MasterConfigTypeDef sMasterConfig = {0};
 8001d3a:	f107 0320 	add.w	r3, r7, #32
 8001d3e:	2200      	movs	r2, #0
 8001d40:	601a      	str	r2, [r3, #0]
 8001d42:	605a      	str	r2, [r3, #4]
  TIM_OC_InitTypeDef sConfigOC = {0};
 8001d44:	1d3b      	adds	r3, r7, #4
 8001d46:	2200      	movs	r2, #0
 8001d48:	601a      	str	r2, [r3, #0]
 8001d4a:	605a      	str	r2, [r3, #4]
 8001d4c:	609a      	str	r2, [r3, #8]
 8001d4e:	60da      	str	r2, [r3, #12]
 8001d50:	611a      	str	r2, [r3, #16]
 8001d52:	615a      	str	r2, [r3, #20]
 8001d54:	619a      	str	r2, [r3, #24]

  /* USER CODE BEGIN TIM4_Init 1 */

  /* USER CODE END TIM4_Init 1 */
  htim4.Instance = TIM4;
 8001d56:	4b27      	ldr	r3, [pc, #156]	@ (8001df4 <MX_TIM4_Init+0xc0>)
 8001d58:	4a27      	ldr	r2, [pc, #156]	@ (8001df8 <MX_TIM4_Init+0xc4>)
 8001d5a:	601a      	str	r2, [r3, #0]
  htim4.Init.Prescaler = 9;
 8001d5c:	4b25      	ldr	r3, [pc, #148]	@ (8001df4 <MX_TIM4_Init+0xc0>)
 8001d5e:	2209      	movs	r2, #9
 8001d60:	605a      	str	r2, [r3, #4]
  htim4.Init.CounterMode = TIM_COUNTERMODE_UP;
 8001d62:	4b24      	ldr	r3, [pc, #144]	@ (8001df4 <MX_TIM4_Init+0xc0>)
 8001d64:	2200      	movs	r2, #0
 8001d66:	609a      	str	r2, [r3, #8]
  htim4.Init.Period = 3199;
 8001d68:	4b22      	ldr	r3, [pc, #136]	@ (8001df4 <MX_TIM4_Init+0xc0>)
 8001d6a:	f640 427f 	movw	r2, #3199	@ 0xc7f
 8001d6e:	60da      	str	r2, [r3, #12]
  htim4.Init.ClockDivision = TIM_CLOCKDIVISION_DIV1;
 8001d70:	4b20      	ldr	r3, [pc, #128]	@ (8001df4 <MX_TIM4_Init+0xc0>)
 8001d72:	2200      	movs	r2, #0
 8001d74:	611a      	str	r2, [r3, #16]
  htim4.Init.AutoReloadPreload = TIM_AUTORELOAD_PRELOAD_DISABLE;
 8001d76:	4b1f      	ldr	r3, [pc, #124]	@ (8001df4 <MX_TIM4_Init+0xc0>)
 8001d78:	2200      	movs	r2, #0
 8001d7a:	619a      	str	r2, [r3, #24]
  if (HAL_TIM_PWM_Init(&htim4) != HAL_OK)
 8001d7c:	481d      	ldr	r0, [pc, #116]	@ (8001df4 <MX_TIM4_Init+0xc0>)
 8001d7e:	f003 f82f 	bl	8004de0 <HAL_TIM_PWM_Init>
 8001d82:	4603      	mov	r3, r0
 8001d84:	2b00      	cmp	r3, #0
 8001d86:	d001      	beq.n	8001d8c <MX_TIM4_Init+0x58>
  {
    Error_Handler();
 8001d88:	f000 fa92 	bl	80022b0 <Error_Handler>
  }
  sMasterConfig.MasterOutputTrigger = TIM_TRGO_RESET;
 8001d8c:	2300      	movs	r3, #0
 8001d8e:	623b      	str	r3, [r7, #32]
  sMasterConfig.MasterSlaveMode = TIM_MASTERSLAVEMODE_DISABLE;
 8001d90:	2300      	movs	r3, #0
 8001d92:	627b      	str	r3, [r7, #36]	@ 0x24
  if (HAL_TIMEx_MasterConfigSynchronization(&htim4, &sMasterConfig) != HAL_OK)
 8001d94:	f107 0320 	add.w	r3, r7, #32
 8001d98:	4619      	mov	r1, r3
 8001d9a:	4816      	ldr	r0, [pc, #88]	@ (8001df4 <MX_TIM4_Init+0xc0>)
 8001d9c:	f003 fe6c 	bl	8005a78 <HAL_TIMEx_MasterConfigSynchronization>
 8001da0:	4603      	mov	r3, r0
 8001da2:	2b00      	cmp	r3, #0
 8001da4:	d001      	beq.n	8001daa <MX_TIM4_Init+0x76>
  {
    Error_Handler();
 8001da6:	f000 fa83 	bl	80022b0 <Error_Handler>
  }
  sConfigOC.OCMode = TIM_OCMODE_PWM1;
 8001daa:	2360      	movs	r3, #96	@ 0x60
 8001dac:	607b      	str	r3, [r7, #4]
  sConfigOC.Pulse = 0;
 8001dae:	2300      	movs	r3, #0
 8001db0:	60bb      	str	r3, [r7, #8]
  sConfigOC.OCPolarity = TIM_OCPOLARITY_HIGH;
 8001db2:	2300      	movs	r3, #0
 8001db4:	60fb      	str	r3, [r7, #12]
  sConfigOC.OCFastMode = TIM_OCFAST_DISABLE;
 8001db6:	2300      	movs	r3, #0
 8001db8:	617b      	str	r3, [r7, #20]
  if (HAL_TIM_PWM_ConfigChannel(&htim4, &sConfigOC, TIM_CHANNEL_1) != HAL_OK)
 8001dba:	1d3b      	adds	r3, r7, #4
 8001dbc:	2200      	movs	r2, #0
 8001dbe:	4619      	mov	r1, r3
 8001dc0:	480c      	ldr	r0, [pc, #48]	@ (8001df4 <MX_TIM4_Init+0xc0>)
 8001dc2:	f003 fa07 	bl	80051d4 <HAL_TIM_PWM_ConfigChannel>
 8001dc6:	4603      	mov	r3, r0
 8001dc8:	2b00      	cmp	r3, #0
 8001dca:	d001      	beq.n	8001dd0 <MX_TIM4_Init+0x9c>
  {
    Error_Handler();
 8001dcc:	f000 fa70 	bl	80022b0 <Error_Handler>
  }
  if (HAL_TIM_PWM_ConfigChannel(&htim4, &sConfigOC, TIM_CHANNEL_2) != HAL_OK)
 8001dd0:	1d3b      	adds	r3, r7, #4
 8001dd2:	2204      	movs	r2, #4
 8001dd4:	4619      	mov	r1, r3
 8001dd6:	4807      	ldr	r0, [pc, #28]	@ (8001df4 <MX_TIM4_Init+0xc0>)
 8001dd8:	f003 f9fc 	bl	80051d4 <HAL_TIM_PWM_ConfigChannel>
 8001ddc:	4603      	mov	r3, r0
 8001dde:	2b00      	cmp	r3, #0
 8001de0:	d001      	beq.n	8001de6 <MX_TIM4_Init+0xb2>
  {
    Error_Handler();
 8001de2:	f000 fa65 	bl	80022b0 <Error_Handler>
  }
  /* USER CODE BEGIN TIM4_Init 2 */

  /* USER CODE END TIM4_Init 2 */
  HAL_TIM_MspPostInit(&htim4);
 8001de6:	4803      	ldr	r0, [pc, #12]	@ (8001df4 <MX_TIM4_Init+0xc0>)
 8001de8:	f000 fece 	bl	8002b88 <HAL_TIM_MspPostInit>

}
 8001dec:	bf00      	nop
 8001dee:	3728      	adds	r7, #40	@ 0x28
 8001df0:	46bd      	mov	sp, r7
 8001df2:	bd80      	pop	{r7, pc}
 8001df4:	20000224 	.word	0x20000224
 8001df8:	40000800 	.word	0x40000800

08001dfc <MX_USART1_UART_Init>:
  * @brief USART1 Initialization Function
  * @param None
  * @retval None
  */
static void MX_USART1_UART_Init(void)
{
 8001dfc:	b580      	push	{r7, lr}
 8001dfe:	af00      	add	r7, sp, #0
  /* USER CODE END USART1_Init 0 */

  /* USER CODE BEGIN USART1_Init 1 */

  /* USER CODE END USART1_Init 1 */
  huart1.Instance = USART1;
 8001e00:	4b11      	ldr	r3, [pc, #68]	@ (8001e48 <MX_USART1_UART_Init+0x4c>)
 8001e02:	4a12      	ldr	r2, [pc, #72]	@ (8001e4c <MX_USART1_UART_Init+0x50>)
 8001e04:	601a      	str	r2, [r3, #0]
  huart1.Init.BaudRate = 115200;
 8001e06:	4b10      	ldr	r3, [pc, #64]	@ (8001e48 <MX_USART1_UART_Init+0x4c>)
 8001e08:	f44f 32e1 	mov.w	r2, #115200	@ 0x1c200
 8001e0c:	605a      	str	r2, [r3, #4]
  huart1.Init.WordLength = UART_WORDLENGTH_8B;
 8001e0e:	4b0e      	ldr	r3, [pc, #56]	@ (8001e48 <MX_USART1_UART_Init+0x4c>)
 8001e10:	2200      	movs	r2, #0
 8001e12:	609a      	str	r2, [r3, #8]
  huart1.Init.StopBits = UART_STOPBITS_1;
 8001e14:	4b0c      	ldr	r3, [pc, #48]	@ (8001e48 <MX_USART1_UART_Init+0x4c>)
 8001e16:	2200      	movs	r2, #0
 8001e18:	60da      	str	r2, [r3, #12]
  huart1.Init.Parity = UART_PARITY_NONE;
 8001e1a:	4b0b      	ldr	r3, [pc, #44]	@ (8001e48 <MX_USART1_UART_Init+0x4c>)
 8001e1c:	2200      	movs	r2, #0
 8001e1e:	611a      	str	r2, [r3, #16]
  huart1.Init.Mode = UART_MODE_TX_RX;
 8001e20:	4b09      	ldr	r3, [pc, #36]	@ (8001e48 <MX_USART1_UART_Init+0x4c>)
 8001e22:	220c      	movs	r2, #12
 8001e24:	615a      	str	r2, [r3, #20]
  huart1.Init.HwFlowCtl = UART_HWCONTROL_NONE;
 8001e26:	4b08      	ldr	r3, [pc, #32]	@ (8001e48 <MX_USART1_UART_Init+0x4c>)
 8001e28:	2200      	movs	r2, #0
 8001e2a:	619a      	str	r2, [r3, #24]
  huart1.Init.OverSampling = UART_OVERSAMPLING_16;
 8001e2c:	4b06      	ldr	r3, [pc, #24]	@ (8001e48 <MX_USART1_UART_Init+0x4c>)
 8001e2e:	2200      	movs	r2, #0
 8001e30:	61da      	str	r2, [r3, #28]
  if (HAL_UART_Init(&huart1) != HAL_OK)
 8001e32:	4805      	ldr	r0, [pc, #20]	@ (8001e48 <MX_USART1_UART_Init+0x4c>)
 8001e34:	f003 fe90 	bl	8005b58 <HAL_UART_Init>
 8001e38:	4603      	mov	r3, r0
 8001e3a:	2b00      	cmp	r3, #0
 8001e3c:	d001      	beq.n	8001e42 <MX_USART1_UART_Init+0x46>
  {
    Error_Handler();
 8001e3e:	f000 fa37 	bl	80022b0 <Error_Handler>
  }
  /* USER CODE BEGIN USART1_Init 2 */

  /* USER CODE END USART1_Init 2 */

}
 8001e42:	bf00      	nop
 8001e44:	bd80      	pop	{r7, pc}
 8001e46:	bf00      	nop
 8001e48:	2000026c 	.word	0x2000026c
 8001e4c:	40013800 	.word	0x40013800

08001e50 <MX_GPIO_Init>:
  * @brief GPIO Initialization Function
  * @param None
  * @retval None
  */
static void MX_GPIO_Init(void)
{
 8001e50:	b580      	push	{r7, lr}
 8001e52:	b088      	sub	sp, #32
 8001e54:	af00      	add	r7, sp, #0
  GPIO_InitTypeDef GPIO_InitStruct = {0};
 8001e56:	f107 0310 	add.w	r3, r7, #16
 8001e5a:	2200      	movs	r2, #0
 8001e5c:	601a      	str	r2, [r3, #0]
 8001e5e:	605a      	str	r2, [r3, #4]
 8001e60:	609a      	str	r2, [r3, #8]
 8001e62:	60da      	str	r2, [r3, #12]
/* USER CODE BEGIN MX_GPIO_Init_1 */
/* USER CODE END MX_GPIO_Init_1 */

  /* GPIO Ports Clock Enable */
  __HAL_RCC_GPIOC_CLK_ENABLE();
 8001e64:	4b38      	ldr	r3, [pc, #224]	@ (8001f48 <MX_GPIO_Init+0xf8>)
 8001e66:	699b      	ldr	r3, [r3, #24]
 8001e68:	4a37      	ldr	r2, [pc, #220]	@ (8001f48 <MX_GPIO_Init+0xf8>)
 8001e6a:	f043 0310 	orr.w	r3, r3, #16
 8001e6e:	6193      	str	r3, [r2, #24]
 8001e70:	4b35      	ldr	r3, [pc, #212]	@ (8001f48 <MX_GPIO_Init+0xf8>)
 8001e72:	699b      	ldr	r3, [r3, #24]
 8001e74:	f003 0310 	and.w	r3, r3, #16
 8001e78:	60fb      	str	r3, [r7, #12]
 8001e7a:	68fb      	ldr	r3, [r7, #12]
  __HAL_RCC_GPIOD_CLK_ENABLE();
 8001e7c:	4b32      	ldr	r3, [pc, #200]	@ (8001f48 <MX_GPIO_Init+0xf8>)
 8001e7e:	699b      	ldr	r3, [r3, #24]
 8001e80:	4a31      	ldr	r2, [pc, #196]	@ (8001f48 <MX_GPIO_Init+0xf8>)
 8001e82:	f043 0320 	orr.w	r3, r3, #32
 8001e86:	6193      	str	r3, [r2, #24]
 8001e88:	4b2f      	ldr	r3, [pc, #188]	@ (8001f48 <MX_GPIO_Init+0xf8>)
 8001e8a:	699b      	ldr	r3, [r3, #24]
 8001e8c:	f003 0320 	and.w	r3, r3, #32
 8001e90:	60bb      	str	r3, [r7, #8]
 8001e92:	68bb      	ldr	r3, [r7, #8]
  __HAL_RCC_GPIOA_CLK_ENABLE();
 8001e94:	4b2c      	ldr	r3, [pc, #176]	@ (8001f48 <MX_GPIO_Init+0xf8>)
 8001e96:	699b      	ldr	r3, [r3, #24]
 8001e98:	4a2b      	ldr	r2, [pc, #172]	@ (8001f48 <MX_GPIO_Init+0xf8>)
 8001e9a:	f043 0304 	orr.w	r3, r3, #4
 8001e9e:	6193      	str	r3, [r2, #24]
 8001ea0:	4b29      	ldr	r3, [pc, #164]	@ (8001f48 <MX_GPIO_Init+0xf8>)
 8001ea2:	699b      	ldr	r3, [r3, #24]
 8001ea4:	f003 0304 	and.w	r3, r3, #4
 8001ea8:	607b      	str	r3, [r7, #4]
 8001eaa:	687b      	ldr	r3, [r7, #4]
  __HAL_RCC_GPIOB_CLK_ENABLE();
 8001eac:	4b26      	ldr	r3, [pc, #152]	@ (8001f48 <MX_GPIO_Init+0xf8>)
 8001eae:	699b      	ldr	r3, [r3, #24]
 8001eb0:	4a25      	ldr	r2, [pc, #148]	@ (8001f48 <MX_GPIO_Init+0xf8>)
 8001eb2:	f043 0308 	orr.w	r3, r3, #8
 8001eb6:	6193      	str	r3, [r2, #24]
 8001eb8:	4b23      	ldr	r3, [pc, #140]	@ (8001f48 <MX_GPIO_Init+0xf8>)
 8001eba:	699b      	ldr	r3, [r3, #24]
 8001ebc:	f003 0308 	and.w	r3, r3, #8
 8001ec0:	603b      	str	r3, [r7, #0]
 8001ec2:	683b      	ldr	r3, [r7, #0]

  /*Configure GPIO pin Output Level */
  HAL_GPIO_WritePin(GPIOC, GPIO_PIN_13, GPIO_PIN_RESET);
 8001ec4:	2200      	movs	r2, #0
 8001ec6:	f44f 5100 	mov.w	r1, #8192	@ 0x2000
 8001eca:	4820      	ldr	r0, [pc, #128]	@ (8001f4c <MX_GPIO_Init+0xfc>)
 8001ecc:	f001 fa64 	bl	8003398 <HAL_GPIO_WritePin>

  /*Configure GPIO pin Output Level */
  HAL_GPIO_WritePin(GPIOA, GPIO_OUT_LED_Pin|GPIO_PIN_5|IN1_Pin|IN2_Pin, GPIO_PIN_RESET);
 8001ed0:	2200      	movs	r2, #0
 8001ed2:	21e8      	movs	r1, #232	@ 0xe8
 8001ed4:	481e      	ldr	r0, [pc, #120]	@ (8001f50 <MX_GPIO_Init+0x100>)
 8001ed6:	f001 fa5f 	bl	8003398 <HAL_GPIO_WritePin>

  /*Configure GPIO pin Output Level */
  HAL_GPIO_WritePin(GPIOB, GPIO_PIN_10|GPIO_PIN_11|GPIO_PIN_5, GPIO_PIN_RESET);
 8001eda:	2200      	movs	r2, #0
 8001edc:	f44f 6142 	mov.w	r1, #3104	@ 0xc20
 8001ee0:	481c      	ldr	r0, [pc, #112]	@ (8001f54 <MX_GPIO_Init+0x104>)
 8001ee2:	f001 fa59 	bl	8003398 <HAL_GPIO_WritePin>

  /*Configure GPIO pin : PC13 */
  GPIO_InitStruct.Pin = GPIO_PIN_13;
 8001ee6:	f44f 5300 	mov.w	r3, #8192	@ 0x2000
 8001eea:	613b      	str	r3, [r7, #16]
  GPIO_InitStruct.Mode = GPIO_MODE_OUTPUT_PP;
 8001eec:	2301      	movs	r3, #1
 8001eee:	617b      	str	r3, [r7, #20]
  GPIO_InitStruct.Pull = GPIO_NOPULL;
 8001ef0:	2300      	movs	r3, #0
 8001ef2:	61bb      	str	r3, [r7, #24]
  GPIO_InitStruct.Speed = GPIO_SPEED_FREQ_LOW;
 8001ef4:	2302      	movs	r3, #2
 8001ef6:	61fb      	str	r3, [r7, #28]
  HAL_GPIO_Init(GPIOC, &GPIO_InitStruct);
 8001ef8:	f107 0310 	add.w	r3, r7, #16
 8001efc:	4619      	mov	r1, r3
 8001efe:	4813      	ldr	r0, [pc, #76]	@ (8001f4c <MX_GPIO_Init+0xfc>)
 8001f00:	f001 f8c6 	bl	8003090 <HAL_GPIO_Init>

  /*Configure GPIO pins : GPIO_OUT_LED_Pin PA5 IN1_Pin IN2_Pin */
  GPIO_InitStruct.Pin = GPIO_OUT_LED_Pin|GPIO_PIN_5|IN1_Pin|IN2_Pin;
 8001f04:	23e8      	movs	r3, #232	@ 0xe8
 8001f06:	613b      	str	r3, [r7, #16]
  GPIO_InitStruct.Mode = GPIO_MODE_OUTPUT_PP;
 8001f08:	2301      	movs	r3, #1
 8001f0a:	617b      	str	r3, [r7, #20]
  GPIO_InitStruct.Pull = GPIO_NOPULL;
 8001f0c:	2300      	movs	r3, #0
 8001f0e:	61bb      	str	r3, [r7, #24]
  GPIO_InitStruct.Speed = GPIO_SPEED_FREQ_LOW;
 8001f10:	2302      	movs	r3, #2
 8001f12:	61fb      	str	r3, [r7, #28]
  HAL_GPIO_Init(GPIOA, &GPIO_InitStruct);
 8001f14:	f107 0310 	add.w	r3, r7, #16
 8001f18:	4619      	mov	r1, r3
 8001f1a:	480d      	ldr	r0, [pc, #52]	@ (8001f50 <MX_GPIO_Init+0x100>)
 8001f1c:	f001 f8b8 	bl	8003090 <HAL_GPIO_Init>

  /*Configure GPIO pins : PB10 PB11 PB5 */
  GPIO_InitStruct.Pin = GPIO_PIN_10|GPIO_PIN_11|GPIO_PIN_5;
 8001f20:	f44f 6342 	mov.w	r3, #3104	@ 0xc20
 8001f24:	613b      	str	r3, [r7, #16]
  GPIO_InitStruct.Mode = GPIO_MODE_OUTPUT_PP;
 8001f26:	2301      	movs	r3, #1
 8001f28:	617b      	str	r3, [r7, #20]
  GPIO_InitStruct.Pull = GPIO_NOPULL;
 8001f2a:	2300      	movs	r3, #0
 8001f2c:	61bb      	str	r3, [r7, #24]
  GPIO_InitStruct.Speed = GPIO_SPEED_FREQ_LOW;
 8001f2e:	2302      	movs	r3, #2
 8001f30:	61fb      	str	r3, [r7, #28]
  HAL_GPIO_Init(GPIOB, &GPIO_InitStruct);
 8001f32:	f107 0310 	add.w	r3, r7, #16
 8001f36:	4619      	mov	r1, r3
 8001f38:	4806      	ldr	r0, [pc, #24]	@ (8001f54 <MX_GPIO_Init+0x104>)
 8001f3a:	f001 f8a9 	bl	8003090 <HAL_GPIO_Init>

/* USER CODE BEGIN MX_GPIO_Init_2 */
/* USER CODE END MX_GPIO_Init_2 */
}
 8001f3e:	bf00      	nop
 8001f40:	3720      	adds	r7, #32
 8001f42:	46bd      	mov	sp, r7
 8001f44:	bd80      	pop	{r7, pc}
 8001f46:	bf00      	nop
 8001f48:	40021000 	.word	0x40021000
 8001f4c:	40011000 	.word	0x40011000
 8001f50:	40010800 	.word	0x40010800
 8001f54:	40010c00 	.word	0x40010c00

08001f58 <Init_All>:

/* USER CODE BEGIN 4 */
void Init_All()
{
 8001f58:	b580      	push	{r7, lr}
 8001f5a:	af00      	add	r7, sp, #0
	while (MPU6050_Init(&hi2c1) == 1);
 8001f5c:	bf00      	nop
 8001f5e:	4809      	ldr	r0, [pc, #36]	@ (8001f84 <Init_All+0x2c>)
 8001f60:	f000 f9ac 	bl	80022bc <MPU6050_Init>
 8001f64:	4603      	mov	r3, r0
 8001f66:	2b01      	cmp	r3, #1
 8001f68:	d0f9      	beq.n	8001f5e <Init_All+0x6>
	HAL_TIM_Base_Start_IT(&htim1);
 8001f6a:	4807      	ldr	r0, [pc, #28]	@ (8001f88 <Init_All+0x30>)
 8001f6c:	f002 fee6 	bl	8004d3c <HAL_TIM_Base_Start_IT>
	HAL_TIM_PWM_Start(&htim3, TIM_CHANNEL_1);
 8001f70:	2100      	movs	r1, #0
 8001f72:	4806      	ldr	r0, [pc, #24]	@ (8001f8c <Init_All+0x34>)
 8001f74:	f002 ff84 	bl	8004e80 <HAL_TIM_PWM_Start>
	HAL_TIM_PWM_Start(&htim4, TIM_CHANNEL_2);
 8001f78:	2104      	movs	r1, #4
 8001f7a:	4805      	ldr	r0, [pc, #20]	@ (8001f90 <Init_All+0x38>)
 8001f7c:	f002 ff80 	bl	8004e80 <HAL_TIM_PWM_Start>
}
 8001f80:	bf00      	nop
 8001f82:	bd80      	pop	{r7, pc}
 8001f84:	20000140 	.word	0x20000140
 8001f88:	20000194 	.word	0x20000194
 8001f8c:	200001dc 	.word	0x200001dc
 8001f90:	20000224 	.word	0x20000224

08001f94 <HAL_TIM_PeriodElapsedCallback>:

void HAL_TIM_PeriodElapsedCallback(TIM_HandleTypeDef *htim)
{
 8001f94:	b580      	push	{r7, lr}
 8001f96:	b082      	sub	sp, #8
 8001f98:	af00      	add	r7, sp, #0
 8001f9a:	6078      	str	r0, [r7, #4]
	if(htim->Instance == htim1.Instance)
 8001f9c:	687b      	ldr	r3, [r7, #4]
 8001f9e:	681a      	ldr	r2, [r3, #0]
 8001fa0:	4b2b      	ldr	r3, [pc, #172]	@ (8002050 <HAL_TIM_PeriodElapsedCallback+0xbc>)
 8001fa2:	681b      	ldr	r3, [r3, #0]
 8001fa4:	429a      	cmp	r2, r3
 8001fa6:	d14e      	bne.n	8002046 <HAL_TIM_PeriodElapsedCallback+0xb2>
	{
		MPU6050_Read_All(&hi2c1, &MPU6050);
 8001fa8:	492a      	ldr	r1, [pc, #168]	@ (8002054 <HAL_TIM_PeriodElapsedCallback+0xc0>)
 8001faa:	482b      	ldr	r0, [pc, #172]	@ (8002058 <HAL_TIM_PeriodElapsedCallback+0xc4>)
 8001fac:	f000 f9e0 	bl	8002370 <MPU6050_Read_All>
		Fuzzy_Process();
 8001fb0:	f000 f85e 	bl	8002070 <Fuzzy_Process>
//		if ((Parameters.theta <= THETA_OFFSET + 4 && Parameters.theta >= THETA_OFFSET - 2)
//			|| Parameters.theta < -THETA_OVER || Parameters.theta > THETA_OVER)
//		{
//			pwm_out(0);
//		}
		if (Parameters.theta < -THETA_OVER || Parameters.theta > THETA_OVER)
 8001fb4:	4b29      	ldr	r3, [pc, #164]	@ (800205c <HAL_TIM_PeriodElapsedCallback+0xc8>)
 8001fb6:	68db      	ldr	r3, [r3, #12]
 8001fb8:	4929      	ldr	r1, [pc, #164]	@ (8002060 <HAL_TIM_PeriodElapsedCallback+0xcc>)
 8001fba:	4618      	mov	r0, r3
 8001fbc:	f7ff f850 	bl	8001060 <__aeabi_fcmplt>
 8001fc0:	4603      	mov	r3, r0
 8001fc2:	2b00      	cmp	r3, #0
 8001fc4:	d108      	bne.n	8001fd8 <HAL_TIM_PeriodElapsedCallback+0x44>
 8001fc6:	4b25      	ldr	r3, [pc, #148]	@ (800205c <HAL_TIM_PeriodElapsedCallback+0xc8>)
 8001fc8:	68db      	ldr	r3, [r3, #12]
 8001fca:	4926      	ldr	r1, [pc, #152]	@ (8002064 <HAL_TIM_PeriodElapsedCallback+0xd0>)
 8001fcc:	4618      	mov	r0, r3
 8001fce:	f7ff f865 	bl	800109c <__aeabi_fcmpgt>
 8001fd2:	4603      	mov	r3, r0
 8001fd4:	2b00      	cmp	r3, #0
 8001fd6:	d002      	beq.n	8001fde <HAL_TIM_PeriodElapsedCallback+0x4a>
		{
			motor_stop();
 8001fd8:	f000 f8ea 	bl	80021b0 <motor_stop>
		else
		{
			motor_stop();
		}
	}
}
 8001fdc:	e033      	b.n	8002046 <HAL_TIM_PeriodElapsedCallback+0xb2>
		else if(Parameters.uk_fuzzy > 0)
 8001fde:	4b1f      	ldr	r3, [pc, #124]	@ (800205c <HAL_TIM_PeriodElapsedCallback+0xc8>)
 8001fe0:	689b      	ldr	r3, [r3, #8]
 8001fe2:	f04f 0100 	mov.w	r1, #0
 8001fe6:	4618      	mov	r0, r3
 8001fe8:	f7ff f858 	bl	800109c <__aeabi_fcmpgt>
 8001fec:	4603      	mov	r3, r0
 8001fee:	2b00      	cmp	r3, #0
 8001ff0:	d00d      	beq.n	800200e <HAL_TIM_PeriodElapsedCallback+0x7a>
			motor_forward();
 8001ff2:	f000 f8a1 	bl	8002138 <motor_forward>
			pwm_out(Parameters.uk_fuzzy);
 8001ff6:	4b19      	ldr	r3, [pc, #100]	@ (800205c <HAL_TIM_PeriodElapsedCallback+0xc8>)
 8001ff8:	689b      	ldr	r3, [r3, #8]
 8001ffa:	4618      	mov	r0, r3
 8001ffc:	f000 f8fc 	bl	80021f8 <pwm_out>
			forward = 1; //debug
 8002000:	4b19      	ldr	r3, [pc, #100]	@ (8002068 <HAL_TIM_PeriodElapsedCallback+0xd4>)
 8002002:	2201      	movs	r2, #1
 8002004:	701a      	strb	r2, [r3, #0]
			reverse = 0;
 8002006:	4b19      	ldr	r3, [pc, #100]	@ (800206c <HAL_TIM_PeriodElapsedCallback+0xd8>)
 8002008:	2200      	movs	r2, #0
 800200a:	701a      	strb	r2, [r3, #0]
}
 800200c:	e01b      	b.n	8002046 <HAL_TIM_PeriodElapsedCallback+0xb2>
		else if(Parameters.uk_fuzzy < 0)
 800200e:	4b13      	ldr	r3, [pc, #76]	@ (800205c <HAL_TIM_PeriodElapsedCallback+0xc8>)
 8002010:	689b      	ldr	r3, [r3, #8]
 8002012:	f04f 0100 	mov.w	r1, #0
 8002016:	4618      	mov	r0, r3
 8002018:	f7ff f822 	bl	8001060 <__aeabi_fcmplt>
 800201c:	4603      	mov	r3, r0
 800201e:	2b00      	cmp	r3, #0
 8002020:	d00f      	beq.n	8002042 <HAL_TIM_PeriodElapsedCallback+0xae>
			motor_reverse();
 8002022:	f000 f8a7 	bl	8002174 <motor_reverse>
			pwm_out((-(Parameters.uk_fuzzy))); //hardware
 8002026:	4b0d      	ldr	r3, [pc, #52]	@ (800205c <HAL_TIM_PeriodElapsedCallback+0xc8>)
 8002028:	689b      	ldr	r3, [r3, #8]
 800202a:	f083 4300 	eor.w	r3, r3, #2147483648	@ 0x80000000
 800202e:	4618      	mov	r0, r3
 8002030:	f000 f8e2 	bl	80021f8 <pwm_out>
			forward = 0; //debug
 8002034:	4b0c      	ldr	r3, [pc, #48]	@ (8002068 <HAL_TIM_PeriodElapsedCallback+0xd4>)
 8002036:	2200      	movs	r2, #0
 8002038:	701a      	strb	r2, [r3, #0]
			reverse = 1;
 800203a:	4b0c      	ldr	r3, [pc, #48]	@ (800206c <HAL_TIM_PeriodElapsedCallback+0xd8>)
 800203c:	2201      	movs	r2, #1
 800203e:	701a      	strb	r2, [r3, #0]
}
 8002040:	e001      	b.n	8002046 <HAL_TIM_PeriodElapsedCallback+0xb2>
			motor_stop();
 8002042:	f000 f8b5 	bl	80021b0 <motor_stop>
}
 8002046:	bf00      	nop
 8002048:	3708      	adds	r7, #8
 800204a:	46bd      	mov	sp, r7
 800204c:	bd80      	pop	{r7, pc}
 800204e:	bf00      	nop
 8002050:	20000194 	.word	0x20000194
 8002054:	200002b8 	.word	0x200002b8
 8002058:	20000140 	.word	0x20000140
 800205c:	20000310 	.word	0x20000310
 8002060:	c2700000 	.word	0xc2700000
 8002064:	42700000 	.word	0x42700000
 8002068:	20000324 	.word	0x20000324
 800206c:	20000325 	.word	0x20000325

08002070 <Fuzzy_Process>:

void Fuzzy_Process()
{
 8002070:	b580      	push	{r7, lr}
 8002072:	af00      	add	r7, sp, #0
	Parameters.theta = MPU6050.KalmanAngleY + THETA_OFFSET;
 8002074:	4b29      	ldr	r3, [pc, #164]	@ (800211c <Fuzzy_Process+0xac>)
 8002076:	e9d3 0114 	ldrd	r0, r1, [r3, #80]	@ 0x50
 800207a:	f04f 0200 	mov.w	r2, #0
 800207e:	4b28      	ldr	r3, [pc, #160]	@ (8002120 <Fuzzy_Process+0xb0>)
 8002080:	f7fe f86c 	bl	800015c <__adddf3>
 8002084:	4602      	mov	r2, r0
 8002086:	460b      	mov	r3, r1
 8002088:	4610      	mov	r0, r2
 800208a:	4619      	mov	r1, r3
 800208c:	f7fe fcec 	bl	8000a68 <__aeabi_d2f>
 8002090:	4603      	mov	r3, r0
 8002092:	4a24      	ldr	r2, [pc, #144]	@ (8002124 <Fuzzy_Process+0xb4>)
 8002094:	60d3      	str	r3, [r2, #12]
	Parameters.theta_dot = MPU6050.Gy;
 8002096:	4b21      	ldr	r3, [pc, #132]	@ (800211c <Fuzzy_Process+0xac>)
 8002098:	e9d3 230c 	ldrd	r2, r3, [r3, #48]	@ 0x30
 800209c:	4610      	mov	r0, r2
 800209e:	4619      	mov	r1, r3
 80020a0:	f7fe fce2 	bl	8000a68 <__aeabi_d2f>
 80020a4:	4603      	mov	r3, r0
 80020a6:	4a1f      	ldr	r2, [pc, #124]	@ (8002124 <Fuzzy_Process+0xb4>)
 80020a8:	6113      	str	r3, [r2, #16]
	Parameters.input[0] = Parameters.theta * (1.0f/K_THETA);
 80020aa:	4b1e      	ldr	r3, [pc, #120]	@ (8002124 <Fuzzy_Process+0xb4>)
 80020ac:	68db      	ldr	r3, [r3, #12]
 80020ae:	f04f 5178 	mov.w	r1, #1040187392	@ 0x3e000000
 80020b2:	4618      	mov	r0, r3
 80020b4:	f7fe fe36 	bl	8000d24 <__aeabi_fmul>
 80020b8:	4603      	mov	r3, r0
 80020ba:	461a      	mov	r2, r3
 80020bc:	4b19      	ldr	r3, [pc, #100]	@ (8002124 <Fuzzy_Process+0xb4>)
 80020be:	601a      	str	r2, [r3, #0]
	Parameters.input[1] = Parameters.theta_dot * (1.0f/K_THETA_DOT);
 80020c0:	4b18      	ldr	r3, [pc, #96]	@ (8002124 <Fuzzy_Process+0xb4>)
 80020c2:	691b      	ldr	r3, [r3, #16]
 80020c4:	4918      	ldr	r1, [pc, #96]	@ (8002128 <Fuzzy_Process+0xb8>)
 80020c6:	4618      	mov	r0, r3
 80020c8:	f7fe fe2c 	bl	8000d24 <__aeabi_fmul>
 80020cc:	4603      	mov	r3, r0
 80020ce:	461a      	mov	r2, r3
 80020d0:	4b14      	ldr	r3, [pc, #80]	@ (8002124 <Fuzzy_Process+0xb4>)
 80020d2:	605a      	str	r2, [r3, #4]
	limit_range(&(Parameters.input[0]));
 80020d4:	4813      	ldr	r0, [pc, #76]	@ (8002124 <Fuzzy_Process+0xb4>)
 80020d6:	f7ff fcd5 	bl	8001a84 <limit_range>
	limit_range(&(Parameters.input[1]));
 80020da:	4814      	ldr	r0, [pc, #80]	@ (800212c <Fuzzy_Process+0xbc>)
 80020dc:	f7ff fcd2 	bl	8001a84 <limit_range>
	Parameters.uk_fuzzy = (run_fuzzy(Parameters.input[0], Parameters.input[1])) * K_UK_FUZZY;
 80020e0:	4b10      	ldr	r3, [pc, #64]	@ (8002124 <Fuzzy_Process+0xb4>)
 80020e2:	681b      	ldr	r3, [r3, #0]
 80020e4:	4a0f      	ldr	r2, [pc, #60]	@ (8002124 <Fuzzy_Process+0xb4>)
 80020e6:	6852      	ldr	r2, [r2, #4]
 80020e8:	4611      	mov	r1, r2
 80020ea:	4618      	mov	r0, r3
 80020ec:	f7ff f92c 	bl	8001348 <run_fuzzy>
 80020f0:	4603      	mov	r3, r0
 80020f2:	490f      	ldr	r1, [pc, #60]	@ (8002130 <Fuzzy_Process+0xc0>)
 80020f4:	4618      	mov	r0, r3
 80020f6:	f7fe fe15 	bl	8000d24 <__aeabi_fmul>
 80020fa:	4603      	mov	r3, r0
 80020fc:	461a      	mov	r2, r3
 80020fe:	4b09      	ldr	r3, [pc, #36]	@ (8002124 <Fuzzy_Process+0xb4>)
 8002100:	609a      	str	r2, [r3, #8]
	Parameters.uk_fuzzy *= (1.0f/3199); //convert uk (-3199->3199 to -100->100)
 8002102:	4b08      	ldr	r3, [pc, #32]	@ (8002124 <Fuzzy_Process+0xb4>)
 8002104:	689b      	ldr	r3, [r3, #8]
 8002106:	490b      	ldr	r1, [pc, #44]	@ (8002134 <Fuzzy_Process+0xc4>)
 8002108:	4618      	mov	r0, r3
 800210a:	f7fe fe0b 	bl	8000d24 <__aeabi_fmul>
 800210e:	4603      	mov	r3, r0
 8002110:	461a      	mov	r2, r3
 8002112:	4b04      	ldr	r3, [pc, #16]	@ (8002124 <Fuzzy_Process+0xb4>)
 8002114:	609a      	str	r2, [r3, #8]
}
 8002116:	bf00      	nop
 8002118:	bd80      	pop	{r7, pc}
 800211a:	bf00      	nop
 800211c:	200002b8 	.word	0x200002b8
 8002120:	40040000 	.word	0x40040000
 8002124:	20000310 	.word	0x20000310
 8002128:	3c23d70a 	.word	0x3c23d70a
 800212c:	20000314 	.word	0x20000314
 8002130:	4547f000 	.word	0x4547f000
 8002134:	39a3e427 	.word	0x39a3e427

08002138 <motor_forward>:

void motor_forward()
{
 8002138:	b580      	push	{r7, lr}
 800213a:	af00      	add	r7, sp, #0
	HAL_GPIO_WritePin(GPIOA, GPIO_PIN_6, 1); //IN1
 800213c:	2201      	movs	r2, #1
 800213e:	2140      	movs	r1, #64	@ 0x40
 8002140:	480a      	ldr	r0, [pc, #40]	@ (800216c <motor_forward+0x34>)
 8002142:	f001 f929 	bl	8003398 <HAL_GPIO_WritePin>
	HAL_GPIO_WritePin(GPIOA, GPIO_PIN_7, 0); //IN2
 8002146:	2200      	movs	r2, #0
 8002148:	2180      	movs	r1, #128	@ 0x80
 800214a:	4808      	ldr	r0, [pc, #32]	@ (800216c <motor_forward+0x34>)
 800214c:	f001 f924 	bl	8003398 <HAL_GPIO_WritePin>
	HAL_GPIO_WritePin(GPIOB, GPIO_PIN_10, 1); //IN3
 8002150:	2201      	movs	r2, #1
 8002152:	f44f 6180 	mov.w	r1, #1024	@ 0x400
 8002156:	4806      	ldr	r0, [pc, #24]	@ (8002170 <motor_forward+0x38>)
 8002158:	f001 f91e 	bl	8003398 <HAL_GPIO_WritePin>
	HAL_GPIO_WritePin(GPIOB, GPIO_PIN_5, 0); //IN4
 800215c:	2200      	movs	r2, #0
 800215e:	2120      	movs	r1, #32
 8002160:	4803      	ldr	r0, [pc, #12]	@ (8002170 <motor_forward+0x38>)
 8002162:	f001 f919 	bl	8003398 <HAL_GPIO_WritePin>
}
 8002166:	bf00      	nop
 8002168:	bd80      	pop	{r7, pc}
 800216a:	bf00      	nop
 800216c:	40010800 	.word	0x40010800
 8002170:	40010c00 	.word	0x40010c00

08002174 <motor_reverse>:

void motor_reverse()
{
 8002174:	b580      	push	{r7, lr}
 8002176:	af00      	add	r7, sp, #0
	HAL_GPIO_WritePin(GPIOA, GPIO_PIN_6, 0); //IN1
 8002178:	2200      	movs	r2, #0
 800217a:	2140      	movs	r1, #64	@ 0x40
 800217c:	480a      	ldr	r0, [pc, #40]	@ (80021a8 <motor_reverse+0x34>)
 800217e:	f001 f90b 	bl	8003398 <HAL_GPIO_WritePin>
	HAL_GPIO_WritePin(GPIOA, GPIO_PIN_7, 1); //IN2
 8002182:	2201      	movs	r2, #1
 8002184:	2180      	movs	r1, #128	@ 0x80
 8002186:	4808      	ldr	r0, [pc, #32]	@ (80021a8 <motor_reverse+0x34>)
 8002188:	f001 f906 	bl	8003398 <HAL_GPIO_WritePin>
	HAL_GPIO_WritePin(GPIOB, GPIO_PIN_10, 0); //IN3
 800218c:	2200      	movs	r2, #0
 800218e:	f44f 6180 	mov.w	r1, #1024	@ 0x400
 8002192:	4806      	ldr	r0, [pc, #24]	@ (80021ac <motor_reverse+0x38>)
 8002194:	f001 f900 	bl	8003398 <HAL_GPIO_WritePin>
	HAL_GPIO_WritePin(GPIOB, GPIO_PIN_5, 1); //IN4
 8002198:	2201      	movs	r2, #1
 800219a:	2120      	movs	r1, #32
 800219c:	4803      	ldr	r0, [pc, #12]	@ (80021ac <motor_reverse+0x38>)
 800219e:	f001 f8fb 	bl	8003398 <HAL_GPIO_WritePin>
}
 80021a2:	bf00      	nop
 80021a4:	bd80      	pop	{r7, pc}
 80021a6:	bf00      	nop
 80021a8:	40010800 	.word	0x40010800
 80021ac:	40010c00 	.word	0x40010c00

080021b0 <motor_stop>:

void motor_stop()
{
 80021b0:	b580      	push	{r7, lr}
 80021b2:	af00      	add	r7, sp, #0
	HAL_GPIO_WritePin(GPIOA, GPIO_PIN_6, 0); //IN1
 80021b4:	2200      	movs	r2, #0
 80021b6:	2140      	movs	r1, #64	@ 0x40
 80021b8:	480c      	ldr	r0, [pc, #48]	@ (80021ec <motor_stop+0x3c>)
 80021ba:	f001 f8ed 	bl	8003398 <HAL_GPIO_WritePin>
	HAL_GPIO_WritePin(GPIOA, GPIO_PIN_7, 0); //IN2
 80021be:	2200      	movs	r2, #0
 80021c0:	2180      	movs	r1, #128	@ 0x80
 80021c2:	480a      	ldr	r0, [pc, #40]	@ (80021ec <motor_stop+0x3c>)
 80021c4:	f001 f8e8 	bl	8003398 <HAL_GPIO_WritePin>
	HAL_GPIO_WritePin(GPIOB, GPIO_PIN_10, 0); //IN3
 80021c8:	2200      	movs	r2, #0
 80021ca:	f44f 6180 	mov.w	r1, #1024	@ 0x400
 80021ce:	4808      	ldr	r0, [pc, #32]	@ (80021f0 <motor_stop+0x40>)
 80021d0:	f001 f8e2 	bl	8003398 <HAL_GPIO_WritePin>
	HAL_GPIO_WritePin(GPIOB, GPIO_PIN_5, 0); //IN4
 80021d4:	2200      	movs	r2, #0
 80021d6:	2120      	movs	r1, #32
 80021d8:	4805      	ldr	r0, [pc, #20]	@ (80021f0 <motor_stop+0x40>)
 80021da:	f001 f8dd 	bl	8003398 <HAL_GPIO_WritePin>
	pwm_out(0);
 80021de:	f04f 0000 	mov.w	r0, #0
 80021e2:	f000 f809 	bl	80021f8 <pwm_out>
}
 80021e6:	bf00      	nop
 80021e8:	bd80      	pop	{r7, pc}
 80021ea:	bf00      	nop
 80021ec:	40010800 	.word	0x40010800
 80021f0:	40010c00 	.word	0x40010c00
 80021f4:	00000000 	.word	0x00000000

080021f8 <pwm_out>:

void pwm_out(float duty) //duty 0->1 (not 0->100), uk -1->1
{
 80021f8:	b5b0      	push	{r4, r5, r7, lr}
 80021fa:	b082      	sub	sp, #8
 80021fc:	af00      	add	r7, sp, #0
 80021fe:	6078      	str	r0, [r7, #4]
	if (duty > 1) duty = 1;
 8002200:	f04f 517e 	mov.w	r1, #1065353216	@ 0x3f800000
 8002204:	6878      	ldr	r0, [r7, #4]
 8002206:	f7fe ff49 	bl	800109c <__aeabi_fcmpgt>
 800220a:	4603      	mov	r3, r0
 800220c:	2b00      	cmp	r3, #0
 800220e:	d002      	beq.n	8002216 <pwm_out+0x1e>
 8002210:	f04f 537e 	mov.w	r3, #1065353216	@ 0x3f800000
 8002214:	607b      	str	r3, [r7, #4]
	if (duty < 0) duty = 0;
 8002216:	f04f 0100 	mov.w	r1, #0
 800221a:	6878      	ldr	r0, [r7, #4]
 800221c:	f7fe ff20 	bl	8001060 <__aeabi_fcmplt>
 8002220:	4603      	mov	r3, r0
 8002222:	2b00      	cmp	r3, #0
 8002224:	d002      	beq.n	800222c <pwm_out+0x34>
 8002226:	f04f 0300 	mov.w	r3, #0
 800222a:	607b      	str	r3, [r7, #4]
	htim3.Instance->CCR1 = (htim3.Instance->ARR) * (duty + 0.025); //hardware
 800222c:	4b1e      	ldr	r3, [pc, #120]	@ (80022a8 <pwm_out+0xb0>)
 800222e:	681b      	ldr	r3, [r3, #0]
 8002230:	6adb      	ldr	r3, [r3, #44]	@ 0x2c
 8002232:	4618      	mov	r0, r3
 8002234:	f7fe f8ce 	bl	80003d4 <__aeabi_ui2d>
 8002238:	4604      	mov	r4, r0
 800223a:	460d      	mov	r5, r1
 800223c:	6878      	ldr	r0, [r7, #4]
 800223e:	f7fe f8eb 	bl	8000418 <__aeabi_f2d>
 8002242:	a317      	add	r3, pc, #92	@ (adr r3, 80022a0 <pwm_out+0xa8>)
 8002244:	e9d3 2300 	ldrd	r2, r3, [r3]
 8002248:	f7fd ff88 	bl	800015c <__adddf3>
 800224c:	4602      	mov	r2, r0
 800224e:	460b      	mov	r3, r1
 8002250:	4620      	mov	r0, r4
 8002252:	4629      	mov	r1, r5
 8002254:	f7fe f938 	bl	80004c8 <__aeabi_dmul>
 8002258:	4602      	mov	r2, r0
 800225a:	460b      	mov	r3, r1
 800225c:	4912      	ldr	r1, [pc, #72]	@ (80022a8 <pwm_out+0xb0>)
 800225e:	680c      	ldr	r4, [r1, #0]
 8002260:	4610      	mov	r0, r2
 8002262:	4619      	mov	r1, r3
 8002264:	f7fe fbe0 	bl	8000a28 <__aeabi_d2uiz>
 8002268:	4603      	mov	r3, r0
 800226a:	6363      	str	r3, [r4, #52]	@ 0x34
	htim4.Instance->CCR2 = (htim4.Instance->ARR) * (duty);
 800226c:	4b0f      	ldr	r3, [pc, #60]	@ (80022ac <pwm_out+0xb4>)
 800226e:	681b      	ldr	r3, [r3, #0]
 8002270:	6adb      	ldr	r3, [r3, #44]	@ 0x2c
 8002272:	4618      	mov	r0, r3
 8002274:	f7fe fcfe 	bl	8000c74 <__aeabi_ui2f>
 8002278:	4603      	mov	r3, r0
 800227a:	6879      	ldr	r1, [r7, #4]
 800227c:	4618      	mov	r0, r3
 800227e:	f7fe fd51 	bl	8000d24 <__aeabi_fmul>
 8002282:	4603      	mov	r3, r0
 8002284:	461a      	mov	r2, r3
 8002286:	4b09      	ldr	r3, [pc, #36]	@ (80022ac <pwm_out+0xb4>)
 8002288:	681c      	ldr	r4, [r3, #0]
 800228a:	4610      	mov	r0, r2
 800228c:	f7fe ff10 	bl	80010b0 <__aeabi_f2uiz>
 8002290:	4603      	mov	r3, r0
 8002292:	63a3      	str	r3, [r4, #56]	@ 0x38
}
 8002294:	bf00      	nop
 8002296:	3708      	adds	r7, #8
 8002298:	46bd      	mov	sp, r7
 800229a:	bdb0      	pop	{r4, r5, r7, pc}
 800229c:	f3af 8000 	nop.w
 80022a0:	9999999a 	.word	0x9999999a
 80022a4:	3f999999 	.word	0x3f999999
 80022a8:	200001dc 	.word	0x200001dc
 80022ac:	20000224 	.word	0x20000224

080022b0 <Error_Handler>:
/**
  * @brief  This function is executed in case of error occurrence.
  * @retval None
  */
void Error_Handler(void)
{
 80022b0:	b480      	push	{r7}
 80022b2:	af00      	add	r7, sp, #0
  \details Disables IRQ interrupts by setting the I-bit in the CPSR.
           Can only be executed in Privileged modes.
 */
__STATIC_FORCEINLINE void __disable_irq(void)
{
  __ASM volatile ("cpsid i" : : : "memory");
 80022b4:	b672      	cpsid	i
}
 80022b6:	bf00      	nop
  /* USER CODE BEGIN Error_Handler_Debug */
  /* User can add his own implementation to report the HAL error return state */
  __disable_irq();
  while (1)
 80022b8:	bf00      	nop
 80022ba:	e7fd      	b.n	80022b8 <Error_Handler+0x8>

080022bc <MPU6050_Init>:
    .Q_bias = 0.003f,
    .R_measure = 0.03f,
};

uint8_t MPU6050_Init(I2C_HandleTypeDef *I2Cx)
{
 80022bc:	b580      	push	{r7, lr}
 80022be:	b088      	sub	sp, #32
 80022c0:	af04      	add	r7, sp, #16
 80022c2:	6078      	str	r0, [r7, #4]
    uint8_t check;
    uint8_t Data;

    // check device ID WHO_AM_I

    HAL_I2C_Mem_Read(I2Cx, MPU6050_ADDR, WHO_AM_I_REG, 1, &check, 1, i2c_timeout);
 80022c4:	2364      	movs	r3, #100	@ 0x64
 80022c6:	9302      	str	r3, [sp, #8]
 80022c8:	2301      	movs	r3, #1
 80022ca:	9301      	str	r3, [sp, #4]
 80022cc:	f107 030f 	add.w	r3, r7, #15
 80022d0:	9300      	str	r3, [sp, #0]
 80022d2:	2301      	movs	r3, #1
 80022d4:	2275      	movs	r2, #117	@ 0x75
 80022d6:	21d0      	movs	r1, #208	@ 0xd0
 80022d8:	6878      	ldr	r0, [r7, #4]
 80022da:	f001 fab3 	bl	8003844 <HAL_I2C_Mem_Read>

    if (check == 104) // 0x68 will be returned by the sensor if everything goes well
 80022de:	7bfb      	ldrb	r3, [r7, #15]
 80022e0:	2b68      	cmp	r3, #104	@ 0x68
 80022e2:	d13d      	bne.n	8002360 <MPU6050_Init+0xa4>
    {
        // power management register 0X6B we should write all 0's to wake the sensor up
        Data = 0;
 80022e4:	2300      	movs	r3, #0
 80022e6:	73bb      	strb	r3, [r7, #14]
        HAL_I2C_Mem_Write(I2Cx, MPU6050_ADDR, PWR_MGMT_1_REG, 1, &Data, 1, i2c_timeout);
 80022e8:	2364      	movs	r3, #100	@ 0x64
 80022ea:	9302      	str	r3, [sp, #8]
 80022ec:	2301      	movs	r3, #1
 80022ee:	9301      	str	r3, [sp, #4]
 80022f0:	f107 030e 	add.w	r3, r7, #14
 80022f4:	9300      	str	r3, [sp, #0]
 80022f6:	2301      	movs	r3, #1
 80022f8:	226b      	movs	r2, #107	@ 0x6b
 80022fa:	21d0      	movs	r1, #208	@ 0xd0
 80022fc:	6878      	ldr	r0, [r7, #4]
 80022fe:	f001 f9a7 	bl	8003650 <HAL_I2C_Mem_Write>

        // Set DATA RATE of 1KHz by writing SMPLRT_DIV register
        Data = 0x07;
 8002302:	2307      	movs	r3, #7
 8002304:	73bb      	strb	r3, [r7, #14]
        HAL_I2C_Mem_Write(I2Cx, MPU6050_ADDR, SMPLRT_DIV_REG, 1, &Data, 1, i2c_timeout);
 8002306:	2364      	movs	r3, #100	@ 0x64
 8002308:	9302      	str	r3, [sp, #8]
 800230a:	2301      	movs	r3, #1
 800230c:	9301      	str	r3, [sp, #4]
 800230e:	f107 030e 	add.w	r3, r7, #14
 8002312:	9300      	str	r3, [sp, #0]
 8002314:	2301      	movs	r3, #1
 8002316:	2219      	movs	r2, #25
 8002318:	21d0      	movs	r1, #208	@ 0xd0
 800231a:	6878      	ldr	r0, [r7, #4]
 800231c:	f001 f998 	bl	8003650 <HAL_I2C_Mem_Write>

        // Set accelerometer configuration in ACCEL_CONFIG Register
        // XA_ST=0,YA_ST=0,ZA_ST=0, FS_SEL=0 ->  2g
        Data = 0x00;
 8002320:	2300      	movs	r3, #0
 8002322:	73bb      	strb	r3, [r7, #14]
        HAL_I2C_Mem_Write(I2Cx, MPU6050_ADDR, ACCEL_CONFIG_REG, 1, &Data, 1, i2c_timeout);
 8002324:	2364      	movs	r3, #100	@ 0x64
 8002326:	9302      	str	r3, [sp, #8]
 8002328:	2301      	movs	r3, #1
 800232a:	9301      	str	r3, [sp, #4]
 800232c:	f107 030e 	add.w	r3, r7, #14
 8002330:	9300      	str	r3, [sp, #0]
 8002332:	2301      	movs	r3, #1
 8002334:	221c      	movs	r2, #28
 8002336:	21d0      	movs	r1, #208	@ 0xd0
 8002338:	6878      	ldr	r0, [r7, #4]
 800233a:	f001 f989 	bl	8003650 <HAL_I2C_Mem_Write>

        // Set Gyroscopic configuration in GYRO_CONFIG Register
        // XG_ST=0,YG_ST=0,ZG_ST=0, FS_SEL=0 ->  250 /s
        Data = 0x00;
 800233e:	2300      	movs	r3, #0
 8002340:	73bb      	strb	r3, [r7, #14]
        HAL_I2C_Mem_Write(I2Cx, MPU6050_ADDR, GYRO_CONFIG_REG, 1, &Data, 1, i2c_timeout);
 8002342:	2364      	movs	r3, #100	@ 0x64
 8002344:	9302      	str	r3, [sp, #8]
 8002346:	2301      	movs	r3, #1
 8002348:	9301      	str	r3, [sp, #4]
 800234a:	f107 030e 	add.w	r3, r7, #14
 800234e:	9300      	str	r3, [sp, #0]
 8002350:	2301      	movs	r3, #1
 8002352:	221b      	movs	r2, #27
 8002354:	21d0      	movs	r1, #208	@ 0xd0
 8002356:	6878      	ldr	r0, [r7, #4]
 8002358:	f001 f97a 	bl	8003650 <HAL_I2C_Mem_Write>
        return 0;
 800235c:	2300      	movs	r3, #0
 800235e:	e000      	b.n	8002362 <MPU6050_Init+0xa6>
    }
    return 1;
 8002360:	2301      	movs	r3, #1
}
 8002362:	4618      	mov	r0, r3
 8002364:	3710      	adds	r7, #16
 8002366:	46bd      	mov	sp, r7
 8002368:	bd80      	pop	{r7, pc}
 800236a:	0000      	movs	r0, r0
 800236c:	0000      	movs	r0, r0
	...

08002370 <MPU6050_Read_All>:
    temp = (int16_t)(Rec_Data[0] << 8 | Rec_Data[1]);
    DataStruct->Temperature = (float)((int16_t)temp / (float)340.0 + (float)36.53);
}

void MPU6050_Read_All(I2C_HandleTypeDef *I2Cx, MPU6050_t *DataStruct)
{
 8002370:	e92d 4fb0 	stmdb	sp!, {r4, r5, r7, r8, r9, sl, fp, lr}
 8002374:	b094      	sub	sp, #80	@ 0x50
 8002376:	af04      	add	r7, sp, #16
 8002378:	6078      	str	r0, [r7, #4]
 800237a:	6039      	str	r1, [r7, #0]
    uint8_t Rec_Data[14];
    int16_t temp;

    // Read 14 BYTES of data starting from ACCEL_XOUT_H register

    HAL_I2C_Mem_Read(I2Cx, MPU6050_ADDR, ACCEL_XOUT_H_REG, 1, Rec_Data, 14, i2c_timeout);
 800237c:	2364      	movs	r3, #100	@ 0x64
 800237e:	9302      	str	r3, [sp, #8]
 8002380:	230e      	movs	r3, #14
 8002382:	9301      	str	r3, [sp, #4]
 8002384:	f107 0308 	add.w	r3, r7, #8
 8002388:	9300      	str	r3, [sp, #0]
 800238a:	2301      	movs	r3, #1
 800238c:	223b      	movs	r2, #59	@ 0x3b
 800238e:	21d0      	movs	r1, #208	@ 0xd0
 8002390:	6878      	ldr	r0, [r7, #4]
 8002392:	f001 fa57 	bl	8003844 <HAL_I2C_Mem_Read>

    DataStruct->Accel_X_RAW = (int16_t)(Rec_Data[0] << 8 | Rec_Data[1]);
 8002396:	7a3b      	ldrb	r3, [r7, #8]
 8002398:	021b      	lsls	r3, r3, #8
 800239a:	b21a      	sxth	r2, r3
 800239c:	7a7b      	ldrb	r3, [r7, #9]
 800239e:	b21b      	sxth	r3, r3
 80023a0:	4313      	orrs	r3, r2
 80023a2:	b21a      	sxth	r2, r3
 80023a4:	683b      	ldr	r3, [r7, #0]
 80023a6:	801a      	strh	r2, [r3, #0]
    DataStruct->Accel_Y_RAW = (int16_t)(Rec_Data[2] << 8 | Rec_Data[3]);
 80023a8:	7abb      	ldrb	r3, [r7, #10]
 80023aa:	021b      	lsls	r3, r3, #8
 80023ac:	b21a      	sxth	r2, r3
 80023ae:	7afb      	ldrb	r3, [r7, #11]
 80023b0:	b21b      	sxth	r3, r3
 80023b2:	4313      	orrs	r3, r2
 80023b4:	b21a      	sxth	r2, r3
 80023b6:	683b      	ldr	r3, [r7, #0]
 80023b8:	805a      	strh	r2, [r3, #2]
    DataStruct->Accel_Z_RAW = (int16_t)(Rec_Data[4] << 8 | Rec_Data[5]);
 80023ba:	7b3b      	ldrb	r3, [r7, #12]
 80023bc:	021b      	lsls	r3, r3, #8
 80023be:	b21a      	sxth	r2, r3
 80023c0:	7b7b      	ldrb	r3, [r7, #13]
 80023c2:	b21b      	sxth	r3, r3
 80023c4:	4313      	orrs	r3, r2
 80023c6:	b21a      	sxth	r2, r3
 80023c8:	683b      	ldr	r3, [r7, #0]
 80023ca:	809a      	strh	r2, [r3, #4]
    temp = (int16_t)(Rec_Data[6] << 8 | Rec_Data[7]);
 80023cc:	7bbb      	ldrb	r3, [r7, #14]
 80023ce:	021b      	lsls	r3, r3, #8
 80023d0:	b21a      	sxth	r2, r3
 80023d2:	7bfb      	ldrb	r3, [r7, #15]
 80023d4:	b21b      	sxth	r3, r3
 80023d6:	4313      	orrs	r3, r2
 80023d8:	86fb      	strh	r3, [r7, #54]	@ 0x36
    DataStruct->Gyro_X_RAW = (int16_t)(Rec_Data[8] << 8 | Rec_Data[9]);
 80023da:	7c3b      	ldrb	r3, [r7, #16]
 80023dc:	021b      	lsls	r3, r3, #8
 80023de:	b21a      	sxth	r2, r3
 80023e0:	7c7b      	ldrb	r3, [r7, #17]
 80023e2:	b21b      	sxth	r3, r3
 80023e4:	4313      	orrs	r3, r2
 80023e6:	b21a      	sxth	r2, r3
 80023e8:	683b      	ldr	r3, [r7, #0]
 80023ea:	841a      	strh	r2, [r3, #32]
    DataStruct->Gyro_Y_RAW = (int16_t)(Rec_Data[10] << 8 | Rec_Data[11]);
 80023ec:	7cbb      	ldrb	r3, [r7, #18]
 80023ee:	021b      	lsls	r3, r3, #8
 80023f0:	b21a      	sxth	r2, r3
 80023f2:	7cfb      	ldrb	r3, [r7, #19]
 80023f4:	b21b      	sxth	r3, r3
 80023f6:	4313      	orrs	r3, r2
 80023f8:	b21a      	sxth	r2, r3
 80023fa:	683b      	ldr	r3, [r7, #0]
 80023fc:	845a      	strh	r2, [r3, #34]	@ 0x22
    DataStruct->Gyro_Z_RAW = (int16_t)(Rec_Data[12] << 8 | Rec_Data[13]);
 80023fe:	7d3b      	ldrb	r3, [r7, #20]
 8002400:	021b      	lsls	r3, r3, #8
 8002402:	b21a      	sxth	r2, r3
 8002404:	7d7b      	ldrb	r3, [r7, #21]
 8002406:	b21b      	sxth	r3, r3
 8002408:	4313      	orrs	r3, r2
 800240a:	b21a      	sxth	r2, r3
 800240c:	683b      	ldr	r3, [r7, #0]
 800240e:	849a      	strh	r2, [r3, #36]	@ 0x24

    DataStruct->Ax = DataStruct->Accel_X_RAW / 16384.0;
 8002410:	683b      	ldr	r3, [r7, #0]
 8002412:	f9b3 3000 	ldrsh.w	r3, [r3]
 8002416:	4618      	mov	r0, r3
 8002418:	f7fd ffec 	bl	80003f4 <__aeabi_i2d>
 800241c:	f04f 0200 	mov.w	r2, #0
 8002420:	4b95      	ldr	r3, [pc, #596]	@ (8002678 <MPU6050_Read_All+0x308>)
 8002422:	f7fe f97b 	bl	800071c <__aeabi_ddiv>
 8002426:	4602      	mov	r2, r0
 8002428:	460b      	mov	r3, r1
 800242a:	6839      	ldr	r1, [r7, #0]
 800242c:	e9c1 2302 	strd	r2, r3, [r1, #8]
    DataStruct->Ay = DataStruct->Accel_Y_RAW / 16384.0;
 8002430:	683b      	ldr	r3, [r7, #0]
 8002432:	f9b3 3002 	ldrsh.w	r3, [r3, #2]
 8002436:	4618      	mov	r0, r3
 8002438:	f7fd ffdc 	bl	80003f4 <__aeabi_i2d>
 800243c:	f04f 0200 	mov.w	r2, #0
 8002440:	4b8d      	ldr	r3, [pc, #564]	@ (8002678 <MPU6050_Read_All+0x308>)
 8002442:	f7fe f96b 	bl	800071c <__aeabi_ddiv>
 8002446:	4602      	mov	r2, r0
 8002448:	460b      	mov	r3, r1
 800244a:	6839      	ldr	r1, [r7, #0]
 800244c:	e9c1 2304 	strd	r2, r3, [r1, #16]
    DataStruct->Az = DataStruct->Accel_Z_RAW / Accel_Z_corrector;
 8002450:	683b      	ldr	r3, [r7, #0]
 8002452:	f9b3 3004 	ldrsh.w	r3, [r3, #4]
 8002456:	4618      	mov	r0, r3
 8002458:	f7fd ffcc 	bl	80003f4 <__aeabi_i2d>
 800245c:	a380      	add	r3, pc, #512	@ (adr r3, 8002660 <MPU6050_Read_All+0x2f0>)
 800245e:	e9d3 2300 	ldrd	r2, r3, [r3]
 8002462:	f7fe f95b 	bl	800071c <__aeabi_ddiv>
 8002466:	4602      	mov	r2, r0
 8002468:	460b      	mov	r3, r1
 800246a:	6839      	ldr	r1, [r7, #0]
 800246c:	e9c1 2306 	strd	r2, r3, [r1, #24]
    DataStruct->Temperature = (float)((int16_t)temp / (float)340.0 + (float)36.53);
 8002470:	f9b7 3036 	ldrsh.w	r3, [r7, #54]	@ 0x36
 8002474:	4618      	mov	r0, r3
 8002476:	f7fe fc01 	bl	8000c7c <__aeabi_i2f>
 800247a:	4603      	mov	r3, r0
 800247c:	497f      	ldr	r1, [pc, #508]	@ (800267c <MPU6050_Read_All+0x30c>)
 800247e:	4618      	mov	r0, r3
 8002480:	f7fe fd04 	bl	8000e8c <__aeabi_fdiv>
 8002484:	4603      	mov	r3, r0
 8002486:	497e      	ldr	r1, [pc, #504]	@ (8002680 <MPU6050_Read_All+0x310>)
 8002488:	4618      	mov	r0, r3
 800248a:	f7fe fb43 	bl	8000b14 <__addsf3>
 800248e:	4603      	mov	r3, r0
 8002490:	461a      	mov	r2, r3
 8002492:	683b      	ldr	r3, [r7, #0]
 8002494:	641a      	str	r2, [r3, #64]	@ 0x40
    DataStruct->Gx = DataStruct->Gyro_X_RAW / 131.0;
 8002496:	683b      	ldr	r3, [r7, #0]
 8002498:	f9b3 3020 	ldrsh.w	r3, [r3, #32]
 800249c:	4618      	mov	r0, r3
 800249e:	f7fd ffa9 	bl	80003f4 <__aeabi_i2d>
 80024a2:	a371      	add	r3, pc, #452	@ (adr r3, 8002668 <MPU6050_Read_All+0x2f8>)
 80024a4:	e9d3 2300 	ldrd	r2, r3, [r3]
 80024a8:	f7fe f938 	bl	800071c <__aeabi_ddiv>
 80024ac:	4602      	mov	r2, r0
 80024ae:	460b      	mov	r3, r1
 80024b0:	6839      	ldr	r1, [r7, #0]
 80024b2:	e9c1 230a 	strd	r2, r3, [r1, #40]	@ 0x28
    DataStruct->Gy = DataStruct->Gyro_Y_RAW / 131.0;
 80024b6:	683b      	ldr	r3, [r7, #0]
 80024b8:	f9b3 3022 	ldrsh.w	r3, [r3, #34]	@ 0x22
 80024bc:	4618      	mov	r0, r3
 80024be:	f7fd ff99 	bl	80003f4 <__aeabi_i2d>
 80024c2:	a369      	add	r3, pc, #420	@ (adr r3, 8002668 <MPU6050_Read_All+0x2f8>)
 80024c4:	e9d3 2300 	ldrd	r2, r3, [r3]
 80024c8:	f7fe f928 	bl	800071c <__aeabi_ddiv>
 80024cc:	4602      	mov	r2, r0
 80024ce:	460b      	mov	r3, r1
 80024d0:	6839      	ldr	r1, [r7, #0]
 80024d2:	e9c1 230c 	strd	r2, r3, [r1, #48]	@ 0x30
    DataStruct->Gz = DataStruct->Gyro_Z_RAW / 131.0;
 80024d6:	683b      	ldr	r3, [r7, #0]
 80024d8:	f9b3 3024 	ldrsh.w	r3, [r3, #36]	@ 0x24
 80024dc:	4618      	mov	r0, r3
 80024de:	f7fd ff89 	bl	80003f4 <__aeabi_i2d>
 80024e2:	a361      	add	r3, pc, #388	@ (adr r3, 8002668 <MPU6050_Read_All+0x2f8>)
 80024e4:	e9d3 2300 	ldrd	r2, r3, [r3]
 80024e8:	f7fe f918 	bl	800071c <__aeabi_ddiv>
 80024ec:	4602      	mov	r2, r0
 80024ee:	460b      	mov	r3, r1
 80024f0:	6839      	ldr	r1, [r7, #0]
 80024f2:	e9c1 230e 	strd	r2, r3, [r1, #56]	@ 0x38

    // Kalman angle solve
    double dt = (double)(HAL_GetTick() - timer) / 1000;
 80024f6:	f000 fcb3 	bl	8002e60 <HAL_GetTick>
 80024fa:	4602      	mov	r2, r0
 80024fc:	4b61      	ldr	r3, [pc, #388]	@ (8002684 <MPU6050_Read_All+0x314>)
 80024fe:	681b      	ldr	r3, [r3, #0]
 8002500:	1ad3      	subs	r3, r2, r3
 8002502:	4618      	mov	r0, r3
 8002504:	f7fd ff66 	bl	80003d4 <__aeabi_ui2d>
 8002508:	f04f 0200 	mov.w	r2, #0
 800250c:	4b5e      	ldr	r3, [pc, #376]	@ (8002688 <MPU6050_Read_All+0x318>)
 800250e:	f7fe f905 	bl	800071c <__aeabi_ddiv>
 8002512:	4602      	mov	r2, r0
 8002514:	460b      	mov	r3, r1
 8002516:	e9c7 230a 	strd	r2, r3, [r7, #40]	@ 0x28
    timer = HAL_GetTick();
 800251a:	f000 fca1 	bl	8002e60 <HAL_GetTick>
 800251e:	4603      	mov	r3, r0
 8002520:	4a58      	ldr	r2, [pc, #352]	@ (8002684 <MPU6050_Read_All+0x314>)
 8002522:	6013      	str	r3, [r2, #0]
    double roll;
    double roll_sqrt = sqrt(
        DataStruct->Accel_X_RAW * DataStruct->Accel_X_RAW + DataStruct->Accel_Z_RAW * DataStruct->Accel_Z_RAW);
 8002524:	683b      	ldr	r3, [r7, #0]
 8002526:	f9b3 3000 	ldrsh.w	r3, [r3]
 800252a:	461a      	mov	r2, r3
 800252c:	683b      	ldr	r3, [r7, #0]
 800252e:	f9b3 3000 	ldrsh.w	r3, [r3]
 8002532:	fb03 f202 	mul.w	r2, r3, r2
 8002536:	683b      	ldr	r3, [r7, #0]
 8002538:	f9b3 3004 	ldrsh.w	r3, [r3, #4]
 800253c:	4619      	mov	r1, r3
 800253e:	683b      	ldr	r3, [r7, #0]
 8002540:	f9b3 3004 	ldrsh.w	r3, [r3, #4]
 8002544:	fb01 f303 	mul.w	r3, r1, r3
 8002548:	4413      	add	r3, r2
    double roll_sqrt = sqrt(
 800254a:	4618      	mov	r0, r3
 800254c:	f7fd ff52 	bl	80003f4 <__aeabi_i2d>
 8002550:	4602      	mov	r2, r0
 8002552:	460b      	mov	r3, r1
 8002554:	4610      	mov	r0, r2
 8002556:	4619      	mov	r1, r3
 8002558:	f003 fc10 	bl	8005d7c <sqrt>
 800255c:	e9c7 0108 	strd	r0, r1, [r7, #32]
    if (roll_sqrt != 0.0)
 8002560:	f04f 0200 	mov.w	r2, #0
 8002564:	f04f 0300 	mov.w	r3, #0
 8002568:	e9d7 0108 	ldrd	r0, r1, [r7, #32]
 800256c:	f7fe fa14 	bl	8000998 <__aeabi_dcmpeq>
 8002570:	4603      	mov	r3, r0
 8002572:	2b00      	cmp	r3, #0
 8002574:	d119      	bne.n	80025aa <MPU6050_Read_All+0x23a>
    {
        roll = atan(DataStruct->Accel_Y_RAW / roll_sqrt) * RAD_TO_DEG;
 8002576:	683b      	ldr	r3, [r7, #0]
 8002578:	f9b3 3002 	ldrsh.w	r3, [r3, #2]
 800257c:	4618      	mov	r0, r3
 800257e:	f7fd ff39 	bl	80003f4 <__aeabi_i2d>
 8002582:	e9d7 2308 	ldrd	r2, r3, [r7, #32]
 8002586:	f7fe f8c9 	bl	800071c <__aeabi_ddiv>
 800258a:	4602      	mov	r2, r0
 800258c:	460b      	mov	r3, r1
 800258e:	4610      	mov	r0, r2
 8002590:	4619      	mov	r1, r3
 8002592:	f003 fc19 	bl	8005dc8 <atan>
 8002596:	a336      	add	r3, pc, #216	@ (adr r3, 8002670 <MPU6050_Read_All+0x300>)
 8002598:	e9d3 2300 	ldrd	r2, r3, [r3]
 800259c:	f7fd ff94 	bl	80004c8 <__aeabi_dmul>
 80025a0:	4602      	mov	r2, r0
 80025a2:	460b      	mov	r3, r1
 80025a4:	e9c7 230e 	strd	r2, r3, [r7, #56]	@ 0x38
 80025a8:	e005      	b.n	80025b6 <MPU6050_Read_All+0x246>
    }
    else
    {
        roll = 0.0;
 80025aa:	f04f 0200 	mov.w	r2, #0
 80025ae:	f04f 0300 	mov.w	r3, #0
 80025b2:	e9c7 230e 	strd	r2, r3, [r7, #56]	@ 0x38
    }
    double pitch = atan2(-DataStruct->Accel_X_RAW, DataStruct->Accel_Z_RAW) * RAD_TO_DEG;
 80025b6:	683b      	ldr	r3, [r7, #0]
 80025b8:	f9b3 3000 	ldrsh.w	r3, [r3]
 80025bc:	425b      	negs	r3, r3
 80025be:	4618      	mov	r0, r3
 80025c0:	f7fd ff18 	bl	80003f4 <__aeabi_i2d>
 80025c4:	4682      	mov	sl, r0
 80025c6:	468b      	mov	fp, r1
 80025c8:	683b      	ldr	r3, [r7, #0]
 80025ca:	f9b3 3004 	ldrsh.w	r3, [r3, #4]
 80025ce:	4618      	mov	r0, r3
 80025d0:	f7fd ff10 	bl	80003f4 <__aeabi_i2d>
 80025d4:	4602      	mov	r2, r0
 80025d6:	460b      	mov	r3, r1
 80025d8:	4650      	mov	r0, sl
 80025da:	4659      	mov	r1, fp
 80025dc:	f003 fbcc 	bl	8005d78 <atan2>
 80025e0:	a323      	add	r3, pc, #140	@ (adr r3, 8002670 <MPU6050_Read_All+0x300>)
 80025e2:	e9d3 2300 	ldrd	r2, r3, [r3]
 80025e6:	f7fd ff6f 	bl	80004c8 <__aeabi_dmul>
 80025ea:	4602      	mov	r2, r0
 80025ec:	460b      	mov	r3, r1
 80025ee:	e9c7 2306 	strd	r2, r3, [r7, #24]
    if ((pitch < -90 && DataStruct->KalmanAngleY > 90) || (pitch > 90 && DataStruct->KalmanAngleY < -90))
 80025f2:	f04f 0200 	mov.w	r2, #0
 80025f6:	4b25      	ldr	r3, [pc, #148]	@ (800268c <MPU6050_Read_All+0x31c>)
 80025f8:	e9d7 0106 	ldrd	r0, r1, [r7, #24]
 80025fc:	f7fe f9d6 	bl	80009ac <__aeabi_dcmplt>
 8002600:	4603      	mov	r3, r0
 8002602:	2b00      	cmp	r3, #0
 8002604:	d00a      	beq.n	800261c <MPU6050_Read_All+0x2ac>
 8002606:	683b      	ldr	r3, [r7, #0]
 8002608:	e9d3 0114 	ldrd	r0, r1, [r3, #80]	@ 0x50
 800260c:	f04f 0200 	mov.w	r2, #0
 8002610:	4b1f      	ldr	r3, [pc, #124]	@ (8002690 <MPU6050_Read_All+0x320>)
 8002612:	f7fe f9e9 	bl	80009e8 <__aeabi_dcmpgt>
 8002616:	4603      	mov	r3, r0
 8002618:	2b00      	cmp	r3, #0
 800261a:	d114      	bne.n	8002646 <MPU6050_Read_All+0x2d6>
 800261c:	f04f 0200 	mov.w	r2, #0
 8002620:	4b1b      	ldr	r3, [pc, #108]	@ (8002690 <MPU6050_Read_All+0x320>)
 8002622:	e9d7 0106 	ldrd	r0, r1, [r7, #24]
 8002626:	f7fe f9df 	bl	80009e8 <__aeabi_dcmpgt>
 800262a:	4603      	mov	r3, r0
 800262c:	2b00      	cmp	r3, #0
 800262e:	d033      	beq.n	8002698 <MPU6050_Read_All+0x328>
 8002630:	683b      	ldr	r3, [r7, #0]
 8002632:	e9d3 0114 	ldrd	r0, r1, [r3, #80]	@ 0x50
 8002636:	f04f 0200 	mov.w	r2, #0
 800263a:	4b14      	ldr	r3, [pc, #80]	@ (800268c <MPU6050_Read_All+0x31c>)
 800263c:	f7fe f9b6 	bl	80009ac <__aeabi_dcmplt>
 8002640:	4603      	mov	r3, r0
 8002642:	2b00      	cmp	r3, #0
 8002644:	d028      	beq.n	8002698 <MPU6050_Read_All+0x328>
    {
        KalmanY.angle = pitch;
 8002646:	4913      	ldr	r1, [pc, #76]	@ (8002694 <MPU6050_Read_All+0x324>)
 8002648:	e9d7 2306 	ldrd	r2, r3, [r7, #24]
 800264c:	e9c1 2306 	strd	r2, r3, [r1, #24]
        DataStruct->KalmanAngleY = pitch;
 8002650:	6839      	ldr	r1, [r7, #0]
 8002652:	e9d7 2306 	ldrd	r2, r3, [r7, #24]
 8002656:	e9c1 2314 	strd	r2, r3, [r1, #80]	@ 0x50
 800265a:	e030      	b.n	80026be <MPU6050_Read_All+0x34e>
 800265c:	f3af 8000 	nop.w
 8002660:	00000000 	.word	0x00000000
 8002664:	40cc2900 	.word	0x40cc2900
 8002668:	00000000 	.word	0x00000000
 800266c:	40606000 	.word	0x40606000
 8002670:	1a63c1f8 	.word	0x1a63c1f8
 8002674:	404ca5dc 	.word	0x404ca5dc
 8002678:	40d00000 	.word	0x40d00000
 800267c:	43aa0000 	.word	0x43aa0000
 8002680:	42121eb8 	.word	0x42121eb8
 8002684:	20000328 	.word	0x20000328
 8002688:	408f4000 	.word	0x408f4000
 800268c:	c0568000 	.word	0xc0568000
 8002690:	40568000 	.word	0x40568000
 8002694:	20000048 	.word	0x20000048
    }
    else
    {
        DataStruct->KalmanAngleY = Kalman_getAngle(&KalmanY, pitch, DataStruct->Gy, dt);
 8002698:	683b      	ldr	r3, [r7, #0]
 800269a:	e9d3 230c 	ldrd	r2, r3, [r3, #48]	@ 0x30
 800269e:	e9d7 010a 	ldrd	r0, r1, [r7, #40]	@ 0x28
 80026a2:	e9cd 0102 	strd	r0, r1, [sp, #8]
 80026a6:	e9cd 2300 	strd	r2, r3, [sp]
 80026aa:	e9d7 2306 	ldrd	r2, r3, [r7, #24]
 80026ae:	481c      	ldr	r0, [pc, #112]	@ (8002720 <MPU6050_Read_All+0x3b0>)
 80026b0:	f000 f83c 	bl	800272c <Kalman_getAngle>
 80026b4:	4602      	mov	r2, r0
 80026b6:	460b      	mov	r3, r1
 80026b8:	6839      	ldr	r1, [r7, #0]
 80026ba:	e9c1 2314 	strd	r2, r3, [r1, #80]	@ 0x50
    }
    if (fabs(DataStruct->KalmanAngleY) > 90)
 80026be:	683b      	ldr	r3, [r7, #0]
 80026c0:	e9d3 2314 	ldrd	r2, r3, [r3, #80]	@ 0x50
 80026c4:	4690      	mov	r8, r2
 80026c6:	f023 4900 	bic.w	r9, r3, #2147483648	@ 0x80000000
 80026ca:	f04f 0200 	mov.w	r2, #0
 80026ce:	4b15      	ldr	r3, [pc, #84]	@ (8002724 <MPU6050_Read_All+0x3b4>)
 80026d0:	4640      	mov	r0, r8
 80026d2:	4649      	mov	r1, r9
 80026d4:	f7fe f988 	bl	80009e8 <__aeabi_dcmpgt>
 80026d8:	4603      	mov	r3, r0
 80026da:	2b00      	cmp	r3, #0
 80026dc:	d008      	beq.n	80026f0 <MPU6050_Read_All+0x380>
        DataStruct->Gx = -DataStruct->Gx;
 80026de:	683b      	ldr	r3, [r7, #0]
 80026e0:	e9d3 230a 	ldrd	r2, r3, [r3, #40]	@ 0x28
 80026e4:	4614      	mov	r4, r2
 80026e6:	f083 4500 	eor.w	r5, r3, #2147483648	@ 0x80000000
 80026ea:	683b      	ldr	r3, [r7, #0]
 80026ec:	e9c3 450a 	strd	r4, r5, [r3, #40]	@ 0x28
    DataStruct->KalmanAngleX = Kalman_getAngle(&KalmanX, roll, DataStruct->Gx, dt);
 80026f0:	683b      	ldr	r3, [r7, #0]
 80026f2:	e9d3 230a 	ldrd	r2, r3, [r3, #40]	@ 0x28
 80026f6:	e9d7 010a 	ldrd	r0, r1, [r7, #40]	@ 0x28
 80026fa:	e9cd 0102 	strd	r0, r1, [sp, #8]
 80026fe:	e9cd 2300 	strd	r2, r3, [sp]
 8002702:	e9d7 230e 	ldrd	r2, r3, [r7, #56]	@ 0x38
 8002706:	4808      	ldr	r0, [pc, #32]	@ (8002728 <MPU6050_Read_All+0x3b8>)
 8002708:	f000 f810 	bl	800272c <Kalman_getAngle>
 800270c:	4602      	mov	r2, r0
 800270e:	460b      	mov	r3, r1
 8002710:	6839      	ldr	r1, [r7, #0]
 8002712:	e9c1 2312 	strd	r2, r3, [r1, #72]	@ 0x48
}
 8002716:	bf00      	nop
 8002718:	3740      	adds	r7, #64	@ 0x40
 800271a:	46bd      	mov	sp, r7
 800271c:	e8bd 8fb0 	ldmia.w	sp!, {r4, r5, r7, r8, r9, sl, fp, pc}
 8002720:	20000048 	.word	0x20000048
 8002724:	40568000 	.word	0x40568000
 8002728:	20000000 	.word	0x20000000

0800272c <Kalman_getAngle>:

double Kalman_getAngle(Kalman_t *Kalman, double newAngle, double newRate, double dt)
{
 800272c:	b5b0      	push	{r4, r5, r7, lr}
 800272e:	b092      	sub	sp, #72	@ 0x48
 8002730:	af00      	add	r7, sp, #0
 8002732:	60f8      	str	r0, [r7, #12]
 8002734:	e9c7 2300 	strd	r2, r3, [r7]
    double rate = newRate - Kalman->bias;
 8002738:	68fb      	ldr	r3, [r7, #12]
 800273a:	e9d3 2308 	ldrd	r2, r3, [r3, #32]
 800273e:	e9d7 0116 	ldrd	r0, r1, [r7, #88]	@ 0x58
 8002742:	f7fd fd09 	bl	8000158 <__aeabi_dsub>
 8002746:	4602      	mov	r2, r0
 8002748:	460b      	mov	r3, r1
 800274a:	e9c7 2310 	strd	r2, r3, [r7, #64]	@ 0x40
    Kalman->angle += dt * rate;
 800274e:	68fb      	ldr	r3, [r7, #12]
 8002750:	e9d3 4506 	ldrd	r4, r5, [r3, #24]
 8002754:	e9d7 2310 	ldrd	r2, r3, [r7, #64]	@ 0x40
 8002758:	e9d7 0118 	ldrd	r0, r1, [r7, #96]	@ 0x60
 800275c:	f7fd feb4 	bl	80004c8 <__aeabi_dmul>
 8002760:	4602      	mov	r2, r0
 8002762:	460b      	mov	r3, r1
 8002764:	4620      	mov	r0, r4
 8002766:	4629      	mov	r1, r5
 8002768:	f7fd fcf8 	bl	800015c <__adddf3>
 800276c:	4602      	mov	r2, r0
 800276e:	460b      	mov	r3, r1
 8002770:	68f9      	ldr	r1, [r7, #12]
 8002772:	e9c1 2306 	strd	r2, r3, [r1, #24]

    Kalman->P[0][0] += dt * (dt * Kalman->P[1][1] - Kalman->P[0][1] - Kalman->P[1][0] + Kalman->Q_angle);
 8002776:	68fb      	ldr	r3, [r7, #12]
 8002778:	e9d3 450a 	ldrd	r4, r5, [r3, #40]	@ 0x28
 800277c:	68fb      	ldr	r3, [r7, #12]
 800277e:	e9d3 0110 	ldrd	r0, r1, [r3, #64]	@ 0x40
 8002782:	e9d7 2318 	ldrd	r2, r3, [r7, #96]	@ 0x60
 8002786:	f7fd fe9f 	bl	80004c8 <__aeabi_dmul>
 800278a:	4602      	mov	r2, r0
 800278c:	460b      	mov	r3, r1
 800278e:	4610      	mov	r0, r2
 8002790:	4619      	mov	r1, r3
 8002792:	68fb      	ldr	r3, [r7, #12]
 8002794:	e9d3 230c 	ldrd	r2, r3, [r3, #48]	@ 0x30
 8002798:	f7fd fcde 	bl	8000158 <__aeabi_dsub>
 800279c:	4602      	mov	r2, r0
 800279e:	460b      	mov	r3, r1
 80027a0:	4610      	mov	r0, r2
 80027a2:	4619      	mov	r1, r3
 80027a4:	68fb      	ldr	r3, [r7, #12]
 80027a6:	e9d3 230e 	ldrd	r2, r3, [r3, #56]	@ 0x38
 80027aa:	f7fd fcd5 	bl	8000158 <__aeabi_dsub>
 80027ae:	4602      	mov	r2, r0
 80027b0:	460b      	mov	r3, r1
 80027b2:	4610      	mov	r0, r2
 80027b4:	4619      	mov	r1, r3
 80027b6:	68fb      	ldr	r3, [r7, #12]
 80027b8:	e9d3 2300 	ldrd	r2, r3, [r3]
 80027bc:	f7fd fcce 	bl	800015c <__adddf3>
 80027c0:	4602      	mov	r2, r0
 80027c2:	460b      	mov	r3, r1
 80027c4:	4610      	mov	r0, r2
 80027c6:	4619      	mov	r1, r3
 80027c8:	e9d7 2318 	ldrd	r2, r3, [r7, #96]	@ 0x60
 80027cc:	f7fd fe7c 	bl	80004c8 <__aeabi_dmul>
 80027d0:	4602      	mov	r2, r0
 80027d2:	460b      	mov	r3, r1
 80027d4:	4620      	mov	r0, r4
 80027d6:	4629      	mov	r1, r5
 80027d8:	f7fd fcc0 	bl	800015c <__adddf3>
 80027dc:	4602      	mov	r2, r0
 80027de:	460b      	mov	r3, r1
 80027e0:	68f9      	ldr	r1, [r7, #12]
 80027e2:	e9c1 230a 	strd	r2, r3, [r1, #40]	@ 0x28
    Kalman->P[0][1] -= dt * Kalman->P[1][1];
 80027e6:	68fb      	ldr	r3, [r7, #12]
 80027e8:	e9d3 450c 	ldrd	r4, r5, [r3, #48]	@ 0x30
 80027ec:	68fb      	ldr	r3, [r7, #12]
 80027ee:	e9d3 0110 	ldrd	r0, r1, [r3, #64]	@ 0x40
 80027f2:	e9d7 2318 	ldrd	r2, r3, [r7, #96]	@ 0x60
 80027f6:	f7fd fe67 	bl	80004c8 <__aeabi_dmul>
 80027fa:	4602      	mov	r2, r0
 80027fc:	460b      	mov	r3, r1
 80027fe:	4620      	mov	r0, r4
 8002800:	4629      	mov	r1, r5
 8002802:	f7fd fca9 	bl	8000158 <__aeabi_dsub>
 8002806:	4602      	mov	r2, r0
 8002808:	460b      	mov	r3, r1
 800280a:	68f9      	ldr	r1, [r7, #12]
 800280c:	e9c1 230c 	strd	r2, r3, [r1, #48]	@ 0x30
    Kalman->P[1][0] -= dt * Kalman->P[1][1];
 8002810:	68fb      	ldr	r3, [r7, #12]
 8002812:	e9d3 450e 	ldrd	r4, r5, [r3, #56]	@ 0x38
 8002816:	68fb      	ldr	r3, [r7, #12]
 8002818:	e9d3 0110 	ldrd	r0, r1, [r3, #64]	@ 0x40
 800281c:	e9d7 2318 	ldrd	r2, r3, [r7, #96]	@ 0x60
 8002820:	f7fd fe52 	bl	80004c8 <__aeabi_dmul>
 8002824:	4602      	mov	r2, r0
 8002826:	460b      	mov	r3, r1
 8002828:	4620      	mov	r0, r4
 800282a:	4629      	mov	r1, r5
 800282c:	f7fd fc94 	bl	8000158 <__aeabi_dsub>
 8002830:	4602      	mov	r2, r0
 8002832:	460b      	mov	r3, r1
 8002834:	68f9      	ldr	r1, [r7, #12]
 8002836:	e9c1 230e 	strd	r2, r3, [r1, #56]	@ 0x38
    Kalman->P[1][1] += Kalman->Q_bias * dt;
 800283a:	68fb      	ldr	r3, [r7, #12]
 800283c:	e9d3 4510 	ldrd	r4, r5, [r3, #64]	@ 0x40
 8002840:	68fb      	ldr	r3, [r7, #12]
 8002842:	e9d3 0102 	ldrd	r0, r1, [r3, #8]
 8002846:	e9d7 2318 	ldrd	r2, r3, [r7, #96]	@ 0x60
 800284a:	f7fd fe3d 	bl	80004c8 <__aeabi_dmul>
 800284e:	4602      	mov	r2, r0
 8002850:	460b      	mov	r3, r1
 8002852:	4620      	mov	r0, r4
 8002854:	4629      	mov	r1, r5
 8002856:	f7fd fc81 	bl	800015c <__adddf3>
 800285a:	4602      	mov	r2, r0
 800285c:	460b      	mov	r3, r1
 800285e:	68f9      	ldr	r1, [r7, #12]
 8002860:	e9c1 2310 	strd	r2, r3, [r1, #64]	@ 0x40

    double S = Kalman->P[0][0] + Kalman->R_measure;
 8002864:	68fb      	ldr	r3, [r7, #12]
 8002866:	e9d3 010a 	ldrd	r0, r1, [r3, #40]	@ 0x28
 800286a:	68fb      	ldr	r3, [r7, #12]
 800286c:	e9d3 2304 	ldrd	r2, r3, [r3, #16]
 8002870:	f7fd fc74 	bl	800015c <__adddf3>
 8002874:	4602      	mov	r2, r0
 8002876:	460b      	mov	r3, r1
 8002878:	e9c7 230e 	strd	r2, r3, [r7, #56]	@ 0x38
    double K[2];
    K[0] = Kalman->P[0][0] / S;
 800287c:	68fb      	ldr	r3, [r7, #12]
 800287e:	e9d3 010a 	ldrd	r0, r1, [r3, #40]	@ 0x28
 8002882:	e9d7 230e 	ldrd	r2, r3, [r7, #56]	@ 0x38
 8002886:	f7fd ff49 	bl	800071c <__aeabi_ddiv>
 800288a:	4602      	mov	r2, r0
 800288c:	460b      	mov	r3, r1
 800288e:	e9c7 2304 	strd	r2, r3, [r7, #16]
    K[1] = Kalman->P[1][0] / S;
 8002892:	68fb      	ldr	r3, [r7, #12]
 8002894:	e9d3 010e 	ldrd	r0, r1, [r3, #56]	@ 0x38
 8002898:	e9d7 230e 	ldrd	r2, r3, [r7, #56]	@ 0x38
 800289c:	f7fd ff3e 	bl	800071c <__aeabi_ddiv>
 80028a0:	4602      	mov	r2, r0
 80028a2:	460b      	mov	r3, r1
 80028a4:	e9c7 2306 	strd	r2, r3, [r7, #24]

    double y = newAngle - Kalman->angle;
 80028a8:	68fb      	ldr	r3, [r7, #12]
 80028aa:	e9d3 2306 	ldrd	r2, r3, [r3, #24]
 80028ae:	e9d7 0100 	ldrd	r0, r1, [r7]
 80028b2:	f7fd fc51 	bl	8000158 <__aeabi_dsub>
 80028b6:	4602      	mov	r2, r0
 80028b8:	460b      	mov	r3, r1
 80028ba:	e9c7 230c 	strd	r2, r3, [r7, #48]	@ 0x30
    Kalman->angle += K[0] * y;
 80028be:	68fb      	ldr	r3, [r7, #12]
 80028c0:	e9d3 4506 	ldrd	r4, r5, [r3, #24]
 80028c4:	e9d7 0104 	ldrd	r0, r1, [r7, #16]
 80028c8:	e9d7 230c 	ldrd	r2, r3, [r7, #48]	@ 0x30
 80028cc:	f7fd fdfc 	bl	80004c8 <__aeabi_dmul>
 80028d0:	4602      	mov	r2, r0
 80028d2:	460b      	mov	r3, r1
 80028d4:	4620      	mov	r0, r4
 80028d6:	4629      	mov	r1, r5
 80028d8:	f7fd fc40 	bl	800015c <__adddf3>
 80028dc:	4602      	mov	r2, r0
 80028de:	460b      	mov	r3, r1
 80028e0:	68f9      	ldr	r1, [r7, #12]
 80028e2:	e9c1 2306 	strd	r2, r3, [r1, #24]
    Kalman->bias += K[1] * y;
 80028e6:	68fb      	ldr	r3, [r7, #12]
 80028e8:	e9d3 4508 	ldrd	r4, r5, [r3, #32]
 80028ec:	e9d7 0106 	ldrd	r0, r1, [r7, #24]
 80028f0:	e9d7 230c 	ldrd	r2, r3, [r7, #48]	@ 0x30
 80028f4:	f7fd fde8 	bl	80004c8 <__aeabi_dmul>
 80028f8:	4602      	mov	r2, r0
 80028fa:	460b      	mov	r3, r1
 80028fc:	4620      	mov	r0, r4
 80028fe:	4629      	mov	r1, r5
 8002900:	f7fd fc2c 	bl	800015c <__adddf3>
 8002904:	4602      	mov	r2, r0
 8002906:	460b      	mov	r3, r1
 8002908:	68f9      	ldr	r1, [r7, #12]
 800290a:	e9c1 2308 	strd	r2, r3, [r1, #32]

    double P00_temp = Kalman->P[0][0];
 800290e:	68fb      	ldr	r3, [r7, #12]
 8002910:	e9d3 230a 	ldrd	r2, r3, [r3, #40]	@ 0x28
 8002914:	e9c7 230a 	strd	r2, r3, [r7, #40]	@ 0x28
    double P01_temp = Kalman->P[0][1];
 8002918:	68fb      	ldr	r3, [r7, #12]
 800291a:	e9d3 230c 	ldrd	r2, r3, [r3, #48]	@ 0x30
 800291e:	e9c7 2308 	strd	r2, r3, [r7, #32]

    Kalman->P[0][0] -= K[0] * P00_temp;
 8002922:	68fb      	ldr	r3, [r7, #12]
 8002924:	e9d3 450a 	ldrd	r4, r5, [r3, #40]	@ 0x28
 8002928:	e9d7 0104 	ldrd	r0, r1, [r7, #16]
 800292c:	e9d7 230a 	ldrd	r2, r3, [r7, #40]	@ 0x28
 8002930:	f7fd fdca 	bl	80004c8 <__aeabi_dmul>
 8002934:	4602      	mov	r2, r0
 8002936:	460b      	mov	r3, r1
 8002938:	4620      	mov	r0, r4
 800293a:	4629      	mov	r1, r5
 800293c:	f7fd fc0c 	bl	8000158 <__aeabi_dsub>
 8002940:	4602      	mov	r2, r0
 8002942:	460b      	mov	r3, r1
 8002944:	68f9      	ldr	r1, [r7, #12]
 8002946:	e9c1 230a 	strd	r2, r3, [r1, #40]	@ 0x28
    Kalman->P[0][1] -= K[0] * P01_temp;
 800294a:	68fb      	ldr	r3, [r7, #12]
 800294c:	e9d3 450c 	ldrd	r4, r5, [r3, #48]	@ 0x30
 8002950:	e9d7 0104 	ldrd	r0, r1, [r7, #16]
 8002954:	e9d7 2308 	ldrd	r2, r3, [r7, #32]
 8002958:	f7fd fdb6 	bl	80004c8 <__aeabi_dmul>
 800295c:	4602      	mov	r2, r0
 800295e:	460b      	mov	r3, r1
 8002960:	4620      	mov	r0, r4
 8002962:	4629      	mov	r1, r5
 8002964:	f7fd fbf8 	bl	8000158 <__aeabi_dsub>
 8002968:	4602      	mov	r2, r0
 800296a:	460b      	mov	r3, r1
 800296c:	68f9      	ldr	r1, [r7, #12]
 800296e:	e9c1 230c 	strd	r2, r3, [r1, #48]	@ 0x30
    Kalman->P[1][0] -= K[1] * P00_temp;
 8002972:	68fb      	ldr	r3, [r7, #12]
 8002974:	e9d3 450e 	ldrd	r4, r5, [r3, #56]	@ 0x38
 8002978:	e9d7 0106 	ldrd	r0, r1, [r7, #24]
 800297c:	e9d7 230a 	ldrd	r2, r3, [r7, #40]	@ 0x28
 8002980:	f7fd fda2 	bl	80004c8 <__aeabi_dmul>
 8002984:	4602      	mov	r2, r0
 8002986:	460b      	mov	r3, r1
 8002988:	4620      	mov	r0, r4
 800298a:	4629      	mov	r1, r5
 800298c:	f7fd fbe4 	bl	8000158 <__aeabi_dsub>
 8002990:	4602      	mov	r2, r0
 8002992:	460b      	mov	r3, r1
 8002994:	68f9      	ldr	r1, [r7, #12]
 8002996:	e9c1 230e 	strd	r2, r3, [r1, #56]	@ 0x38
    Kalman->P[1][1] -= K[1] * P01_temp;
 800299a:	68fb      	ldr	r3, [r7, #12]
 800299c:	e9d3 4510 	ldrd	r4, r5, [r3, #64]	@ 0x40
 80029a0:	e9d7 0106 	ldrd	r0, r1, [r7, #24]
 80029a4:	e9d7 2308 	ldrd	r2, r3, [r7, #32]
 80029a8:	f7fd fd8e 	bl	80004c8 <__aeabi_dmul>
 80029ac:	4602      	mov	r2, r0
 80029ae:	460b      	mov	r3, r1
 80029b0:	4620      	mov	r0, r4
 80029b2:	4629      	mov	r1, r5
 80029b4:	f7fd fbd0 	bl	8000158 <__aeabi_dsub>
 80029b8:	4602      	mov	r2, r0
 80029ba:	460b      	mov	r3, r1
 80029bc:	68f9      	ldr	r1, [r7, #12]
 80029be:	e9c1 2310 	strd	r2, r3, [r1, #64]	@ 0x40

    return Kalman->angle;
 80029c2:	68fb      	ldr	r3, [r7, #12]
 80029c4:	e9d3 2306 	ldrd	r2, r3, [r3, #24]
};
 80029c8:	4610      	mov	r0, r2
 80029ca:	4619      	mov	r1, r3
 80029cc:	3748      	adds	r7, #72	@ 0x48
 80029ce:	46bd      	mov	sp, r7
 80029d0:	bdb0      	pop	{r4, r5, r7, pc}
	...

080029d4 <HAL_MspInit>:
void HAL_TIM_MspPostInit(TIM_HandleTypeDef *htim);
                                        /**
  * Initializes the Global MSP.
  */
void HAL_MspInit(void)
{
 80029d4:	b480      	push	{r7}
 80029d6:	b085      	sub	sp, #20
 80029d8:	af00      	add	r7, sp, #0

  /* USER CODE BEGIN MspInit 0 */

  /* USER CODE END MspInit 0 */

  __HAL_RCC_AFIO_CLK_ENABLE();
 80029da:	4b15      	ldr	r3, [pc, #84]	@ (8002a30 <HAL_MspInit+0x5c>)
 80029dc:	699b      	ldr	r3, [r3, #24]
 80029de:	4a14      	ldr	r2, [pc, #80]	@ (8002a30 <HAL_MspInit+0x5c>)
 80029e0:	f043 0301 	orr.w	r3, r3, #1
 80029e4:	6193      	str	r3, [r2, #24]
 80029e6:	4b12      	ldr	r3, [pc, #72]	@ (8002a30 <HAL_MspInit+0x5c>)
 80029e8:	699b      	ldr	r3, [r3, #24]
 80029ea:	f003 0301 	and.w	r3, r3, #1
 80029ee:	60bb      	str	r3, [r7, #8]
 80029f0:	68bb      	ldr	r3, [r7, #8]
  __HAL_RCC_PWR_CLK_ENABLE();
 80029f2:	4b0f      	ldr	r3, [pc, #60]	@ (8002a30 <HAL_MspInit+0x5c>)
 80029f4:	69db      	ldr	r3, [r3, #28]
 80029f6:	4a0e      	ldr	r2, [pc, #56]	@ (8002a30 <HAL_MspInit+0x5c>)
 80029f8:	f043 5380 	orr.w	r3, r3, #268435456	@ 0x10000000
 80029fc:	61d3      	str	r3, [r2, #28]
 80029fe:	4b0c      	ldr	r3, [pc, #48]	@ (8002a30 <HAL_MspInit+0x5c>)
 8002a00:	69db      	ldr	r3, [r3, #28]
 8002a02:	f003 5380 	and.w	r3, r3, #268435456	@ 0x10000000
 8002a06:	607b      	str	r3, [r7, #4]
 8002a08:	687b      	ldr	r3, [r7, #4]

  /* System interrupt init*/

  /** NOJTAG: JTAG-DP Disabled and SW-DP Enabled
  */
  __HAL_AFIO_REMAP_SWJ_NOJTAG();
 8002a0a:	4b0a      	ldr	r3, [pc, #40]	@ (8002a34 <HAL_MspInit+0x60>)
 8002a0c:	685b      	ldr	r3, [r3, #4]
 8002a0e:	60fb      	str	r3, [r7, #12]
 8002a10:	68fb      	ldr	r3, [r7, #12]
 8002a12:	f023 63e0 	bic.w	r3, r3, #117440512	@ 0x7000000
 8002a16:	60fb      	str	r3, [r7, #12]
 8002a18:	68fb      	ldr	r3, [r7, #12]
 8002a1a:	f043 7300 	orr.w	r3, r3, #33554432	@ 0x2000000
 8002a1e:	60fb      	str	r3, [r7, #12]
 8002a20:	4a04      	ldr	r2, [pc, #16]	@ (8002a34 <HAL_MspInit+0x60>)
 8002a22:	68fb      	ldr	r3, [r7, #12]
 8002a24:	6053      	str	r3, [r2, #4]

  /* USER CODE BEGIN MspInit 1 */

  /* USER CODE END MspInit 1 */
}
 8002a26:	bf00      	nop
 8002a28:	3714      	adds	r7, #20
 8002a2a:	46bd      	mov	sp, r7
 8002a2c:	bc80      	pop	{r7}
 8002a2e:	4770      	bx	lr
 8002a30:	40021000 	.word	0x40021000
 8002a34:	40010000 	.word	0x40010000

08002a38 <HAL_I2C_MspInit>:
* This function configures the hardware resources used in this example
* @param hi2c: I2C handle pointer
* @retval None
*/
void HAL_I2C_MspInit(I2C_HandleTypeDef* hi2c)
{
 8002a38:	b580      	push	{r7, lr}
 8002a3a:	b08a      	sub	sp, #40	@ 0x28
 8002a3c:	af00      	add	r7, sp, #0
 8002a3e:	6078      	str	r0, [r7, #4]
  GPIO_InitTypeDef GPIO_InitStruct = {0};
 8002a40:	f107 0314 	add.w	r3, r7, #20
 8002a44:	2200      	movs	r2, #0
 8002a46:	601a      	str	r2, [r3, #0]
 8002a48:	605a      	str	r2, [r3, #4]
 8002a4a:	609a      	str	r2, [r3, #8]
 8002a4c:	60da      	str	r2, [r3, #12]
  if(hi2c->Instance==I2C1)
 8002a4e:	687b      	ldr	r3, [r7, #4]
 8002a50:	681b      	ldr	r3, [r3, #0]
 8002a52:	4a1d      	ldr	r2, [pc, #116]	@ (8002ac8 <HAL_I2C_MspInit+0x90>)
 8002a54:	4293      	cmp	r3, r2
 8002a56:	d132      	bne.n	8002abe <HAL_I2C_MspInit+0x86>
  {
  /* USER CODE BEGIN I2C1_MspInit 0 */

  /* USER CODE END I2C1_MspInit 0 */

    __HAL_RCC_GPIOB_CLK_ENABLE();
 8002a58:	4b1c      	ldr	r3, [pc, #112]	@ (8002acc <HAL_I2C_MspInit+0x94>)
 8002a5a:	699b      	ldr	r3, [r3, #24]
 8002a5c:	4a1b      	ldr	r2, [pc, #108]	@ (8002acc <HAL_I2C_MspInit+0x94>)
 8002a5e:	f043 0308 	orr.w	r3, r3, #8
 8002a62:	6193      	str	r3, [r2, #24]
 8002a64:	4b19      	ldr	r3, [pc, #100]	@ (8002acc <HAL_I2C_MspInit+0x94>)
 8002a66:	699b      	ldr	r3, [r3, #24]
 8002a68:	f003 0308 	and.w	r3, r3, #8
 8002a6c:	613b      	str	r3, [r7, #16]
 8002a6e:	693b      	ldr	r3, [r7, #16]
    /**I2C1 GPIO Configuration
    PB8     ------> I2C1_SCL
    PB9     ------> I2C1_SDA
    */
    GPIO_InitStruct.Pin = GPIO_PIN_8|GPIO_PIN_9;
 8002a70:	f44f 7340 	mov.w	r3, #768	@ 0x300
 8002a74:	617b      	str	r3, [r7, #20]
    GPIO_InitStruct.Mode = GPIO_MODE_AF_OD;
 8002a76:	2312      	movs	r3, #18
 8002a78:	61bb      	str	r3, [r7, #24]
    GPIO_InitStruct.Speed = GPIO_SPEED_FREQ_HIGH;
 8002a7a:	2303      	movs	r3, #3
 8002a7c:	623b      	str	r3, [r7, #32]
    HAL_GPIO_Init(GPIOB, &GPIO_InitStruct);
 8002a7e:	f107 0314 	add.w	r3, r7, #20
 8002a82:	4619      	mov	r1, r3
 8002a84:	4812      	ldr	r0, [pc, #72]	@ (8002ad0 <HAL_I2C_MspInit+0x98>)
 8002a86:	f000 fb03 	bl	8003090 <HAL_GPIO_Init>

    __HAL_AFIO_REMAP_I2C1_ENABLE();
 8002a8a:	4b12      	ldr	r3, [pc, #72]	@ (8002ad4 <HAL_I2C_MspInit+0x9c>)
 8002a8c:	685b      	ldr	r3, [r3, #4]
 8002a8e:	627b      	str	r3, [r7, #36]	@ 0x24
 8002a90:	6a7b      	ldr	r3, [r7, #36]	@ 0x24
 8002a92:	f043 63e0 	orr.w	r3, r3, #117440512	@ 0x7000000
 8002a96:	627b      	str	r3, [r7, #36]	@ 0x24
 8002a98:	6a7b      	ldr	r3, [r7, #36]	@ 0x24
 8002a9a:	f043 0302 	orr.w	r3, r3, #2
 8002a9e:	627b      	str	r3, [r7, #36]	@ 0x24
 8002aa0:	4a0c      	ldr	r2, [pc, #48]	@ (8002ad4 <HAL_I2C_MspInit+0x9c>)
 8002aa2:	6a7b      	ldr	r3, [r7, #36]	@ 0x24
 8002aa4:	6053      	str	r3, [r2, #4]

    /* Peripheral clock enable */
    __HAL_RCC_I2C1_CLK_ENABLE();
 8002aa6:	4b09      	ldr	r3, [pc, #36]	@ (8002acc <HAL_I2C_MspInit+0x94>)
 8002aa8:	69db      	ldr	r3, [r3, #28]
 8002aaa:	4a08      	ldr	r2, [pc, #32]	@ (8002acc <HAL_I2C_MspInit+0x94>)
 8002aac:	f443 1300 	orr.w	r3, r3, #2097152	@ 0x200000
 8002ab0:	61d3      	str	r3, [r2, #28]
 8002ab2:	4b06      	ldr	r3, [pc, #24]	@ (8002acc <HAL_I2C_MspInit+0x94>)
 8002ab4:	69db      	ldr	r3, [r3, #28]
 8002ab6:	f403 1300 	and.w	r3, r3, #2097152	@ 0x200000
 8002aba:	60fb      	str	r3, [r7, #12]
 8002abc:	68fb      	ldr	r3, [r7, #12]
  /* USER CODE BEGIN I2C1_MspInit 1 */

  /* USER CODE END I2C1_MspInit 1 */
  }

}
 8002abe:	bf00      	nop
 8002ac0:	3728      	adds	r7, #40	@ 0x28
 8002ac2:	46bd      	mov	sp, r7
 8002ac4:	bd80      	pop	{r7, pc}
 8002ac6:	bf00      	nop
 8002ac8:	40005400 	.word	0x40005400
 8002acc:	40021000 	.word	0x40021000
 8002ad0:	40010c00 	.word	0x40010c00
 8002ad4:	40010000 	.word	0x40010000

08002ad8 <HAL_TIM_Base_MspInit>:
* This function configures the hardware resources used in this example
* @param htim_base: TIM_Base handle pointer
* @retval None
*/
void HAL_TIM_Base_MspInit(TIM_HandleTypeDef* htim_base)
{
 8002ad8:	b580      	push	{r7, lr}
 8002ada:	b084      	sub	sp, #16
 8002adc:	af00      	add	r7, sp, #0
 8002ade:	6078      	str	r0, [r7, #4]
  if(htim_base->Instance==TIM1)
 8002ae0:	687b      	ldr	r3, [r7, #4]
 8002ae2:	681b      	ldr	r3, [r3, #0]
 8002ae4:	4a0d      	ldr	r2, [pc, #52]	@ (8002b1c <HAL_TIM_Base_MspInit+0x44>)
 8002ae6:	4293      	cmp	r3, r2
 8002ae8:	d113      	bne.n	8002b12 <HAL_TIM_Base_MspInit+0x3a>
  {
  /* USER CODE BEGIN TIM1_MspInit 0 */

  /* USER CODE END TIM1_MspInit 0 */
    /* Peripheral clock enable */
    __HAL_RCC_TIM1_CLK_ENABLE();
 8002aea:	4b0d      	ldr	r3, [pc, #52]	@ (8002b20 <HAL_TIM_Base_MspInit+0x48>)
 8002aec:	699b      	ldr	r3, [r3, #24]
 8002aee:	4a0c      	ldr	r2, [pc, #48]	@ (8002b20 <HAL_TIM_Base_MspInit+0x48>)
 8002af0:	f443 6300 	orr.w	r3, r3, #2048	@ 0x800
 8002af4:	6193      	str	r3, [r2, #24]
 8002af6:	4b0a      	ldr	r3, [pc, #40]	@ (8002b20 <HAL_TIM_Base_MspInit+0x48>)
 8002af8:	699b      	ldr	r3, [r3, #24]
 8002afa:	f403 6300 	and.w	r3, r3, #2048	@ 0x800
 8002afe:	60fb      	str	r3, [r7, #12]
 8002b00:	68fb      	ldr	r3, [r7, #12]
    /* TIM1 interrupt Init */
    HAL_NVIC_SetPriority(TIM1_UP_IRQn, 0, 0);
 8002b02:	2200      	movs	r2, #0
 8002b04:	2100      	movs	r1, #0
 8002b06:	2019      	movs	r0, #25
 8002b08:	f000 fa8b 	bl	8003022 <HAL_NVIC_SetPriority>
    HAL_NVIC_EnableIRQ(TIM1_UP_IRQn);
 8002b0c:	2019      	movs	r0, #25
 8002b0e:	f000 faa4 	bl	800305a <HAL_NVIC_EnableIRQ>
  /* USER CODE BEGIN TIM1_MspInit 1 */

  /* USER CODE END TIM1_MspInit 1 */
  }

}
 8002b12:	bf00      	nop
 8002b14:	3710      	adds	r7, #16
 8002b16:	46bd      	mov	sp, r7
 8002b18:	bd80      	pop	{r7, pc}
 8002b1a:	bf00      	nop
 8002b1c:	40012c00 	.word	0x40012c00
 8002b20:	40021000 	.word	0x40021000

08002b24 <HAL_TIM_PWM_MspInit>:
* This function configures the hardware resources used in this example
* @param htim_pwm: TIM_PWM handle pointer
* @retval None
*/
void HAL_TIM_PWM_MspInit(TIM_HandleTypeDef* htim_pwm)
{
 8002b24:	b480      	push	{r7}
 8002b26:	b085      	sub	sp, #20
 8002b28:	af00      	add	r7, sp, #0
 8002b2a:	6078      	str	r0, [r7, #4]
  if(htim_pwm->Instance==TIM3)
 8002b2c:	687b      	ldr	r3, [r7, #4]
 8002b2e:	681b      	ldr	r3, [r3, #0]
 8002b30:	4a12      	ldr	r2, [pc, #72]	@ (8002b7c <HAL_TIM_PWM_MspInit+0x58>)
 8002b32:	4293      	cmp	r3, r2
 8002b34:	d10c      	bne.n	8002b50 <HAL_TIM_PWM_MspInit+0x2c>
  {
  /* USER CODE BEGIN TIM3_MspInit 0 */

  /* USER CODE END TIM3_MspInit 0 */
    /* Peripheral clock enable */
    __HAL_RCC_TIM3_CLK_ENABLE();
 8002b36:	4b12      	ldr	r3, [pc, #72]	@ (8002b80 <HAL_TIM_PWM_MspInit+0x5c>)
 8002b38:	69db      	ldr	r3, [r3, #28]
 8002b3a:	4a11      	ldr	r2, [pc, #68]	@ (8002b80 <HAL_TIM_PWM_MspInit+0x5c>)
 8002b3c:	f043 0302 	orr.w	r3, r3, #2
 8002b40:	61d3      	str	r3, [r2, #28]
 8002b42:	4b0f      	ldr	r3, [pc, #60]	@ (8002b80 <HAL_TIM_PWM_MspInit+0x5c>)
 8002b44:	69db      	ldr	r3, [r3, #28]
 8002b46:	f003 0302 	and.w	r3, r3, #2
 8002b4a:	60fb      	str	r3, [r7, #12]
 8002b4c:	68fb      	ldr	r3, [r7, #12]
  /* USER CODE BEGIN TIM4_MspInit 1 */

  /* USER CODE END TIM4_MspInit 1 */
  }

}
 8002b4e:	e010      	b.n	8002b72 <HAL_TIM_PWM_MspInit+0x4e>
  else if(htim_pwm->Instance==TIM4)
 8002b50:	687b      	ldr	r3, [r7, #4]
 8002b52:	681b      	ldr	r3, [r3, #0]
 8002b54:	4a0b      	ldr	r2, [pc, #44]	@ (8002b84 <HAL_TIM_PWM_MspInit+0x60>)
 8002b56:	4293      	cmp	r3, r2
 8002b58:	d10b      	bne.n	8002b72 <HAL_TIM_PWM_MspInit+0x4e>
    __HAL_RCC_TIM4_CLK_ENABLE();
 8002b5a:	4b09      	ldr	r3, [pc, #36]	@ (8002b80 <HAL_TIM_PWM_MspInit+0x5c>)
 8002b5c:	69db      	ldr	r3, [r3, #28]
 8002b5e:	4a08      	ldr	r2, [pc, #32]	@ (8002b80 <HAL_TIM_PWM_MspInit+0x5c>)
 8002b60:	f043 0304 	orr.w	r3, r3, #4
 8002b64:	61d3      	str	r3, [r2, #28]
 8002b66:	4b06      	ldr	r3, [pc, #24]	@ (8002b80 <HAL_TIM_PWM_MspInit+0x5c>)
 8002b68:	69db      	ldr	r3, [r3, #28]
 8002b6a:	f003 0304 	and.w	r3, r3, #4
 8002b6e:	60bb      	str	r3, [r7, #8]
 8002b70:	68bb      	ldr	r3, [r7, #8]
}
 8002b72:	bf00      	nop
 8002b74:	3714      	adds	r7, #20
 8002b76:	46bd      	mov	sp, r7
 8002b78:	bc80      	pop	{r7}
 8002b7a:	4770      	bx	lr
 8002b7c:	40000400 	.word	0x40000400
 8002b80:	40021000 	.word	0x40021000
 8002b84:	40000800 	.word	0x40000800

08002b88 <HAL_TIM_MspPostInit>:

void HAL_TIM_MspPostInit(TIM_HandleTypeDef* htim)
{
 8002b88:	b580      	push	{r7, lr}
 8002b8a:	b08a      	sub	sp, #40	@ 0x28
 8002b8c:	af00      	add	r7, sp, #0
 8002b8e:	6078      	str	r0, [r7, #4]
  GPIO_InitTypeDef GPIO_InitStruct = {0};
 8002b90:	f107 0314 	add.w	r3, r7, #20
 8002b94:	2200      	movs	r2, #0
 8002b96:	601a      	str	r2, [r3, #0]
 8002b98:	605a      	str	r2, [r3, #4]
 8002b9a:	609a      	str	r2, [r3, #8]
 8002b9c:	60da      	str	r2, [r3, #12]
  if(htim->Instance==TIM3)
 8002b9e:	687b      	ldr	r3, [r7, #4]
 8002ba0:	681b      	ldr	r3, [r3, #0]
 8002ba2:	4a27      	ldr	r2, [pc, #156]	@ (8002c40 <HAL_TIM_MspPostInit+0xb8>)
 8002ba4:	4293      	cmp	r3, r2
 8002ba6:	d12a      	bne.n	8002bfe <HAL_TIM_MspPostInit+0x76>
  {
  /* USER CODE BEGIN TIM3_MspPostInit 0 */

  /* USER CODE END TIM3_MspPostInit 0 */
    __HAL_RCC_GPIOB_CLK_ENABLE();
 8002ba8:	4b26      	ldr	r3, [pc, #152]	@ (8002c44 <HAL_TIM_MspPostInit+0xbc>)
 8002baa:	699b      	ldr	r3, [r3, #24]
 8002bac:	4a25      	ldr	r2, [pc, #148]	@ (8002c44 <HAL_TIM_MspPostInit+0xbc>)
 8002bae:	f043 0308 	orr.w	r3, r3, #8
 8002bb2:	6193      	str	r3, [r2, #24]
 8002bb4:	4b23      	ldr	r3, [pc, #140]	@ (8002c44 <HAL_TIM_MspPostInit+0xbc>)
 8002bb6:	699b      	ldr	r3, [r3, #24]
 8002bb8:	f003 0308 	and.w	r3, r3, #8
 8002bbc:	613b      	str	r3, [r7, #16]
 8002bbe:	693b      	ldr	r3, [r7, #16]
    /**TIM3 GPIO Configuration
    PB4     ------> TIM3_CH1
    */
    GPIO_InitStruct.Pin = GPIO_PIN_4;
 8002bc0:	2310      	movs	r3, #16
 8002bc2:	617b      	str	r3, [r7, #20]
    GPIO_InitStruct.Mode = GPIO_MODE_AF_PP;
 8002bc4:	2302      	movs	r3, #2
 8002bc6:	61bb      	str	r3, [r7, #24]
    GPIO_InitStruct.Speed = GPIO_SPEED_FREQ_LOW;
 8002bc8:	2302      	movs	r3, #2
 8002bca:	623b      	str	r3, [r7, #32]
    HAL_GPIO_Init(GPIOB, &GPIO_InitStruct);
 8002bcc:	f107 0314 	add.w	r3, r7, #20
 8002bd0:	4619      	mov	r1, r3
 8002bd2:	481d      	ldr	r0, [pc, #116]	@ (8002c48 <HAL_TIM_MspPostInit+0xc0>)
 8002bd4:	f000 fa5c 	bl	8003090 <HAL_GPIO_Init>

    __HAL_AFIO_REMAP_TIM3_PARTIAL();
 8002bd8:	4b1c      	ldr	r3, [pc, #112]	@ (8002c4c <HAL_TIM_MspPostInit+0xc4>)
 8002bda:	685b      	ldr	r3, [r3, #4]
 8002bdc:	627b      	str	r3, [r7, #36]	@ 0x24
 8002bde:	6a7b      	ldr	r3, [r7, #36]	@ 0x24
 8002be0:	f423 6340 	bic.w	r3, r3, #3072	@ 0xc00
 8002be4:	627b      	str	r3, [r7, #36]	@ 0x24
 8002be6:	6a7b      	ldr	r3, [r7, #36]	@ 0x24
 8002be8:	f043 63e0 	orr.w	r3, r3, #117440512	@ 0x7000000
 8002bec:	627b      	str	r3, [r7, #36]	@ 0x24
 8002bee:	6a7b      	ldr	r3, [r7, #36]	@ 0x24
 8002bf0:	f443 6300 	orr.w	r3, r3, #2048	@ 0x800
 8002bf4:	627b      	str	r3, [r7, #36]	@ 0x24
 8002bf6:	4a15      	ldr	r2, [pc, #84]	@ (8002c4c <HAL_TIM_MspPostInit+0xc4>)
 8002bf8:	6a7b      	ldr	r3, [r7, #36]	@ 0x24
 8002bfa:	6053      	str	r3, [r2, #4]
  /* USER CODE BEGIN TIM4_MspPostInit 1 */

  /* USER CODE END TIM4_MspPostInit 1 */
  }

}
 8002bfc:	e01c      	b.n	8002c38 <HAL_TIM_MspPostInit+0xb0>
  else if(htim->Instance==TIM4)
 8002bfe:	687b      	ldr	r3, [r7, #4]
 8002c00:	681b      	ldr	r3, [r3, #0]
 8002c02:	4a13      	ldr	r2, [pc, #76]	@ (8002c50 <HAL_TIM_MspPostInit+0xc8>)
 8002c04:	4293      	cmp	r3, r2
 8002c06:	d117      	bne.n	8002c38 <HAL_TIM_MspPostInit+0xb0>
    __HAL_RCC_GPIOB_CLK_ENABLE();
 8002c08:	4b0e      	ldr	r3, [pc, #56]	@ (8002c44 <HAL_TIM_MspPostInit+0xbc>)
 8002c0a:	699b      	ldr	r3, [r3, #24]
 8002c0c:	4a0d      	ldr	r2, [pc, #52]	@ (8002c44 <HAL_TIM_MspPostInit+0xbc>)
 8002c0e:	f043 0308 	orr.w	r3, r3, #8
 8002c12:	6193      	str	r3, [r2, #24]
 8002c14:	4b0b      	ldr	r3, [pc, #44]	@ (8002c44 <HAL_TIM_MspPostInit+0xbc>)
 8002c16:	699b      	ldr	r3, [r3, #24]
 8002c18:	f003 0308 	and.w	r3, r3, #8
 8002c1c:	60fb      	str	r3, [r7, #12]
 8002c1e:	68fb      	ldr	r3, [r7, #12]
    GPIO_InitStruct.Pin = GPIO_PIN_6|GPIO_PIN_7;
 8002c20:	23c0      	movs	r3, #192	@ 0xc0
 8002c22:	617b      	str	r3, [r7, #20]
    GPIO_InitStruct.Mode = GPIO_MODE_AF_PP;
 8002c24:	2302      	movs	r3, #2
 8002c26:	61bb      	str	r3, [r7, #24]
    GPIO_InitStruct.Speed = GPIO_SPEED_FREQ_LOW;
 8002c28:	2302      	movs	r3, #2
 8002c2a:	623b      	str	r3, [r7, #32]
    HAL_GPIO_Init(GPIOB, &GPIO_InitStruct);
 8002c2c:	f107 0314 	add.w	r3, r7, #20
 8002c30:	4619      	mov	r1, r3
 8002c32:	4805      	ldr	r0, [pc, #20]	@ (8002c48 <HAL_TIM_MspPostInit+0xc0>)
 8002c34:	f000 fa2c 	bl	8003090 <HAL_GPIO_Init>
}
 8002c38:	bf00      	nop
 8002c3a:	3728      	adds	r7, #40	@ 0x28
 8002c3c:	46bd      	mov	sp, r7
 8002c3e:	bd80      	pop	{r7, pc}
 8002c40:	40000400 	.word	0x40000400
 8002c44:	40021000 	.word	0x40021000
 8002c48:	40010c00 	.word	0x40010c00
 8002c4c:	40010000 	.word	0x40010000
 8002c50:	40000800 	.word	0x40000800

08002c54 <HAL_UART_MspInit>:
* This function configures the hardware resources used in this example
* @param huart: UART handle pointer
* @retval None
*/
void HAL_UART_MspInit(UART_HandleTypeDef* huart)
{
 8002c54:	b580      	push	{r7, lr}
 8002c56:	b088      	sub	sp, #32
 8002c58:	af00      	add	r7, sp, #0
 8002c5a:	6078      	str	r0, [r7, #4]
  GPIO_InitTypeDef GPIO_InitStruct = {0};
 8002c5c:	f107 0310 	add.w	r3, r7, #16
 8002c60:	2200      	movs	r2, #0
 8002c62:	601a      	str	r2, [r3, #0]
 8002c64:	605a      	str	r2, [r3, #4]
 8002c66:	609a      	str	r2, [r3, #8]
 8002c68:	60da      	str	r2, [r3, #12]
  if(huart->Instance==USART1)
 8002c6a:	687b      	ldr	r3, [r7, #4]
 8002c6c:	681b      	ldr	r3, [r3, #0]
 8002c6e:	4a1c      	ldr	r2, [pc, #112]	@ (8002ce0 <HAL_UART_MspInit+0x8c>)
 8002c70:	4293      	cmp	r3, r2
 8002c72:	d131      	bne.n	8002cd8 <HAL_UART_MspInit+0x84>
  {
  /* USER CODE BEGIN USART1_MspInit 0 */

  /* USER CODE END USART1_MspInit 0 */
    /* Peripheral clock enable */
    __HAL_RCC_USART1_CLK_ENABLE();
 8002c74:	4b1b      	ldr	r3, [pc, #108]	@ (8002ce4 <HAL_UART_MspInit+0x90>)
 8002c76:	699b      	ldr	r3, [r3, #24]
 8002c78:	4a1a      	ldr	r2, [pc, #104]	@ (8002ce4 <HAL_UART_MspInit+0x90>)
 8002c7a:	f443 4380 	orr.w	r3, r3, #16384	@ 0x4000
 8002c7e:	6193      	str	r3, [r2, #24]
 8002c80:	4b18      	ldr	r3, [pc, #96]	@ (8002ce4 <HAL_UART_MspInit+0x90>)
 8002c82:	699b      	ldr	r3, [r3, #24]
 8002c84:	f403 4380 	and.w	r3, r3, #16384	@ 0x4000
 8002c88:	60fb      	str	r3, [r7, #12]
 8002c8a:	68fb      	ldr	r3, [r7, #12]

    __HAL_RCC_GPIOA_CLK_ENABLE();
 8002c8c:	4b15      	ldr	r3, [pc, #84]	@ (8002ce4 <HAL_UART_MspInit+0x90>)
 8002c8e:	699b      	ldr	r3, [r3, #24]
 8002c90:	4a14      	ldr	r2, [pc, #80]	@ (8002ce4 <HAL_UART_MspInit+0x90>)
 8002c92:	f043 0304 	orr.w	r3, r3, #4
 8002c96:	6193      	str	r3, [r2, #24]
 8002c98:	4b12      	ldr	r3, [pc, #72]	@ (8002ce4 <HAL_UART_MspInit+0x90>)
 8002c9a:	699b      	ldr	r3, [r3, #24]
 8002c9c:	f003 0304 	and.w	r3, r3, #4
 8002ca0:	60bb      	str	r3, [r7, #8]
 8002ca2:	68bb      	ldr	r3, [r7, #8]
    /**USART1 GPIO Configuration
    PA9     ------> USART1_TX
    PA10     ------> USART1_RX
    */
    GPIO_InitStruct.Pin = GPIO_PIN_9;
 8002ca4:	f44f 7300 	mov.w	r3, #512	@ 0x200
 8002ca8:	613b      	str	r3, [r7, #16]
    GPIO_InitStruct.Mode = GPIO_MODE_AF_PP;
 8002caa:	2302      	movs	r3, #2
 8002cac:	617b      	str	r3, [r7, #20]
    GPIO_InitStruct.Speed = GPIO_SPEED_FREQ_HIGH;
 8002cae:	2303      	movs	r3, #3
 8002cb0:	61fb      	str	r3, [r7, #28]
    HAL_GPIO_Init(GPIOA, &GPIO_InitStruct);
 8002cb2:	f107 0310 	add.w	r3, r7, #16
 8002cb6:	4619      	mov	r1, r3
 8002cb8:	480b      	ldr	r0, [pc, #44]	@ (8002ce8 <HAL_UART_MspInit+0x94>)
 8002cba:	f000 f9e9 	bl	8003090 <HAL_GPIO_Init>

    GPIO_InitStruct.Pin = GPIO_PIN_10;
 8002cbe:	f44f 6380 	mov.w	r3, #1024	@ 0x400
 8002cc2:	613b      	str	r3, [r7, #16]
    GPIO_InitStruct.Mode = GPIO_MODE_INPUT;
 8002cc4:	2300      	movs	r3, #0
 8002cc6:	617b      	str	r3, [r7, #20]
    GPIO_InitStruct.Pull = GPIO_NOPULL;
 8002cc8:	2300      	movs	r3, #0
 8002cca:	61bb      	str	r3, [r7, #24]
    HAL_GPIO_Init(GPIOA, &GPIO_InitStruct);
 8002ccc:	f107 0310 	add.w	r3, r7, #16
 8002cd0:	4619      	mov	r1, r3
 8002cd2:	4805      	ldr	r0, [pc, #20]	@ (8002ce8 <HAL_UART_MspInit+0x94>)
 8002cd4:	f000 f9dc 	bl	8003090 <HAL_GPIO_Init>
  /* USER CODE BEGIN USART1_MspInit 1 */

  /* USER CODE END USART1_MspInit 1 */
  }

}
 8002cd8:	bf00      	nop
 8002cda:	3720      	adds	r7, #32
 8002cdc:	46bd      	mov	sp, r7
 8002cde:	bd80      	pop	{r7, pc}
 8002ce0:	40013800 	.word	0x40013800
 8002ce4:	40021000 	.word	0x40021000
 8002ce8:	40010800 	.word	0x40010800

08002cec <NMI_Handler>:
/******************************************************************************/
/**
  * @brief This function handles Non maskable interrupt.
  */
void NMI_Handler(void)
{
 8002cec:	b480      	push	{r7}
 8002cee:	af00      	add	r7, sp, #0
  /* USER CODE BEGIN NonMaskableInt_IRQn 0 */

  /* USER CODE END NonMaskableInt_IRQn 0 */
  /* USER CODE BEGIN NonMaskableInt_IRQn 1 */
   while (1)
 8002cf0:	bf00      	nop
 8002cf2:	e7fd      	b.n	8002cf0 <NMI_Handler+0x4>

08002cf4 <HardFault_Handler>:

/**
  * @brief This function handles Hard fault interrupt.
  */
void HardFault_Handler(void)
{
 8002cf4:	b480      	push	{r7}
 8002cf6:	af00      	add	r7, sp, #0
  /* USER CODE BEGIN HardFault_IRQn 0 */

  /* USER CODE END HardFault_IRQn 0 */
  while (1)
 8002cf8:	bf00      	nop
 8002cfa:	e7fd      	b.n	8002cf8 <HardFault_Handler+0x4>

08002cfc <MemManage_Handler>:

/**
  * @brief This function handles Memory management fault.
  */
void MemManage_Handler(void)
{
 8002cfc:	b480      	push	{r7}
 8002cfe:	af00      	add	r7, sp, #0
  /* USER CODE BEGIN MemoryManagement_IRQn 0 */

  /* USER CODE END MemoryManagement_IRQn 0 */
  while (1)
 8002d00:	bf00      	nop
 8002d02:	e7fd      	b.n	8002d00 <MemManage_Handler+0x4>

08002d04 <BusFault_Handler>:

/**
  * @brief This function handles Prefetch fault, memory access fault.
  */
void BusFault_Handler(void)
{
 8002d04:	b480      	push	{r7}
 8002d06:	af00      	add	r7, sp, #0
  /* USER CODE BEGIN BusFault_IRQn 0 */

  /* USER CODE END BusFault_IRQn 0 */
  while (1)
 8002d08:	bf00      	nop
 8002d0a:	e7fd      	b.n	8002d08 <BusFault_Handler+0x4>

08002d0c <UsageFault_Handler>:

/**
  * @brief This function handles Undefined instruction or illegal state.
  */
void UsageFault_Handler(void)
{
 8002d0c:	b480      	push	{r7}
 8002d0e:	af00      	add	r7, sp, #0
  /* USER CODE BEGIN UsageFault_IRQn 0 */

  /* USER CODE END UsageFault_IRQn 0 */
  while (1)
 8002d10:	bf00      	nop
 8002d12:	e7fd      	b.n	8002d10 <UsageFault_Handler+0x4>

08002d14 <SVC_Handler>:

/**
  * @brief This function handles System service call via SWI instruction.
  */
void SVC_Handler(void)
{
 8002d14:	b480      	push	{r7}
 8002d16:	af00      	add	r7, sp, #0

  /* USER CODE END SVCall_IRQn 0 */
  /* USER CODE BEGIN SVCall_IRQn 1 */

  /* USER CODE END SVCall_IRQn 1 */
}
 8002d18:	bf00      	nop
 8002d1a:	46bd      	mov	sp, r7
 8002d1c:	bc80      	pop	{r7}
 8002d1e:	4770      	bx	lr

08002d20 <DebugMon_Handler>:

/**
  * @brief This function handles Debug monitor.
  */
void DebugMon_Handler(void)
{
 8002d20:	b480      	push	{r7}
 8002d22:	af00      	add	r7, sp, #0

  /* USER CODE END DebugMonitor_IRQn 0 */
  /* USER CODE BEGIN DebugMonitor_IRQn 1 */

  /* USER CODE END DebugMonitor_IRQn 1 */
}
 8002d24:	bf00      	nop
 8002d26:	46bd      	mov	sp, r7
 8002d28:	bc80      	pop	{r7}
 8002d2a:	4770      	bx	lr

08002d2c <PendSV_Handler>:

/**
  * @brief This function handles Pendable request for system service.
  */
void PendSV_Handler(void)
{
 8002d2c:	b480      	push	{r7}
 8002d2e:	af00      	add	r7, sp, #0

  /* USER CODE END PendSV_IRQn 0 */
  /* USER CODE BEGIN PendSV_IRQn 1 */

  /* USER CODE END PendSV_IRQn 1 */
}
 8002d30:	bf00      	nop
 8002d32:	46bd      	mov	sp, r7
 8002d34:	bc80      	pop	{r7}
 8002d36:	4770      	bx	lr

08002d38 <SysTick_Handler>:

/**
  * @brief This function handles System tick timer.
  */
void SysTick_Handler(void)
{
 8002d38:	b580      	push	{r7, lr}
 8002d3a:	af00      	add	r7, sp, #0
  /* USER CODE BEGIN SysTick_IRQn 0 */

  /* USER CODE END SysTick_IRQn 0 */
  HAL_IncTick();
 8002d3c:	f000 f87e 	bl	8002e3c <HAL_IncTick>
  /* USER CODE BEGIN SysTick_IRQn 1 */

  /* USER CODE END SysTick_IRQn 1 */
}
 8002d40:	bf00      	nop
 8002d42:	bd80      	pop	{r7, pc}

08002d44 <TIM1_UP_IRQHandler>:

/**
  * @brief This function handles TIM1 update interrupt.
  */
void TIM1_UP_IRQHandler(void)
{
 8002d44:	b580      	push	{r7, lr}
 8002d46:	af00      	add	r7, sp, #0
  /* USER CODE BEGIN TIM1_UP_IRQn 0 */

  /* USER CODE END TIM1_UP_IRQn 0 */
  HAL_TIM_IRQHandler(&htim1);
 8002d48:	4802      	ldr	r0, [pc, #8]	@ (8002d54 <TIM1_UP_IRQHandler+0x10>)
 8002d4a:	f002 f93b 	bl	8004fc4 <HAL_TIM_IRQHandler>
  /* USER CODE BEGIN TIM1_UP_IRQn 1 */

  /* USER CODE END TIM1_UP_IRQn 1 */
}
 8002d4e:	bf00      	nop
 8002d50:	bd80      	pop	{r7, pc}
 8002d52:	bf00      	nop
 8002d54:	20000194 	.word	0x20000194

08002d58 <SystemInit>:
  * @note   This function should be used only after reset.
  * @param  None
  * @retval None
  */
void SystemInit (void)
{
 8002d58:	b480      	push	{r7}
 8002d5a:	af00      	add	r7, sp, #0

  /* Configure the Vector Table location -------------------------------------*/
#if defined(USER_VECT_TAB_ADDRESS)
  SCB->VTOR = VECT_TAB_BASE_ADDRESS | VECT_TAB_OFFSET; /* Vector Table Relocation in Internal SRAM. */
#endif /* USER_VECT_TAB_ADDRESS */
}
 8002d5c:	bf00      	nop
 8002d5e:	46bd      	mov	sp, r7
 8002d60:	bc80      	pop	{r7}
 8002d62:	4770      	bx	lr

08002d64 <Reset_Handler>:
  .weak Reset_Handler
  .type Reset_Handler, %function
Reset_Handler:

/* Call the clock system initialization function.*/
     bl  SystemInit
 8002d64:	f7ff fff8 	bl	8002d58 <SystemInit>

/* Copy the data segment initializers from flash to SRAM */
  ldr r0, =_sdata
 8002d68:	480b      	ldr	r0, [pc, #44]	@ (8002d98 <LoopFillZerobss+0xe>)
  ldr r1, =_edata
 8002d6a:	490c      	ldr	r1, [pc, #48]	@ (8002d9c <LoopFillZerobss+0x12>)
  ldr r2, =_sidata
 8002d6c:	4a0c      	ldr	r2, [pc, #48]	@ (8002da0 <LoopFillZerobss+0x16>)
  movs r3, #0
 8002d6e:	2300      	movs	r3, #0
  b LoopCopyDataInit
 8002d70:	e002      	b.n	8002d78 <LoopCopyDataInit>

08002d72 <CopyDataInit>:

CopyDataInit:
  ldr r4, [r2, r3]
 8002d72:	58d4      	ldr	r4, [r2, r3]
  str r4, [r0, r3]
 8002d74:	50c4      	str	r4, [r0, r3]
  adds r3, r3, #4
 8002d76:	3304      	adds	r3, #4

08002d78 <LoopCopyDataInit>:

LoopCopyDataInit:
  adds r4, r0, r3
 8002d78:	18c4      	adds	r4, r0, r3
  cmp r4, r1
 8002d7a:	428c      	cmp	r4, r1
  bcc CopyDataInit
 8002d7c:	d3f9      	bcc.n	8002d72 <CopyDataInit>
  
/* Zero fill the bss segment. */
  ldr r2, =_sbss
 8002d7e:	4a09      	ldr	r2, [pc, #36]	@ (8002da4 <LoopFillZerobss+0x1a>)
  ldr r4, =_ebss
 8002d80:	4c09      	ldr	r4, [pc, #36]	@ (8002da8 <LoopFillZerobss+0x1e>)
  movs r3, #0
 8002d82:	2300      	movs	r3, #0
  b LoopFillZerobss
 8002d84:	e001      	b.n	8002d8a <LoopFillZerobss>

08002d86 <FillZerobss>:

FillZerobss:
  str  r3, [r2]
 8002d86:	6013      	str	r3, [r2, #0]
  adds r2, r2, #4
 8002d88:	3204      	adds	r2, #4

08002d8a <LoopFillZerobss>:

LoopFillZerobss:
  cmp r2, r4
 8002d8a:	42a2      	cmp	r2, r4
  bcc FillZerobss
 8002d8c:	d3fb      	bcc.n	8002d86 <FillZerobss>

/* Call static constructors */
    bl __libc_init_array
 8002d8e:	f002 ffcf 	bl	8005d30 <__libc_init_array>
/* Call the application's entry point.*/
  bl main
 8002d92:	f7fe fe9d 	bl	8001ad0 <main>
  bx lr
 8002d96:	4770      	bx	lr
  ldr r0, =_sdata
 8002d98:	20000000 	.word	0x20000000
  ldr r1, =_edata
 8002d9c:	20000100 	.word	0x20000100
  ldr r2, =_sidata
 8002da0:	08006508 	.word	0x08006508
  ldr r2, =_sbss
 8002da4:	20000100 	.word	0x20000100
  ldr r4, =_ebss
 8002da8:	20000468 	.word	0x20000468

08002dac <ADC1_2_IRQHandler>:
 * @retval : None
*/
    .section .text.Default_Handler,"ax",%progbits
Default_Handler:
Infinite_Loop:
  b Infinite_Loop
 8002dac:	e7fe      	b.n	8002dac <ADC1_2_IRQHandler>
	...

08002db0 <HAL_Init>:
  *         need to ensure that the SysTick time base is always set to 1 millisecond
  *         to have correct HAL operation.
  * @retval HAL status
  */
HAL_StatusTypeDef HAL_Init(void)
{
 8002db0:	b580      	push	{r7, lr}
 8002db2:	af00      	add	r7, sp, #0
    defined(STM32F102x6) || defined(STM32F102xB) || \
    defined(STM32F103x6) || defined(STM32F103xB) || defined(STM32F103xE) || defined(STM32F103xG) || \
    defined(STM32F105xC) || defined(STM32F107xC)

  /* Prefetch buffer is not available on value line devices */
  __HAL_FLASH_PREFETCH_BUFFER_ENABLE();
 8002db4:	4b08      	ldr	r3, [pc, #32]	@ (8002dd8 <HAL_Init+0x28>)
 8002db6:	681b      	ldr	r3, [r3, #0]
 8002db8:	4a07      	ldr	r2, [pc, #28]	@ (8002dd8 <HAL_Init+0x28>)
 8002dba:	f043 0310 	orr.w	r3, r3, #16
 8002dbe:	6013      	str	r3, [r2, #0]
#endif
#endif /* PREFETCH_ENABLE */

  /* Set Interrupt Group Priority */
  HAL_NVIC_SetPriorityGrouping(NVIC_PRIORITYGROUP_4);
 8002dc0:	2003      	movs	r0, #3
 8002dc2:	f000 f923 	bl	800300c <HAL_NVIC_SetPriorityGrouping>

  /* Use systick as time base source and configure 1ms tick (default clock after Reset is HSI) */
  HAL_InitTick(TICK_INT_PRIORITY);
 8002dc6:	200f      	movs	r0, #15
 8002dc8:	f000 f808 	bl	8002ddc <HAL_InitTick>

  /* Init the low level hardware */
  HAL_MspInit();
 8002dcc:	f7ff fe02 	bl	80029d4 <HAL_MspInit>

  /* Return function status */
  return HAL_OK;
 8002dd0:	2300      	movs	r3, #0
}
 8002dd2:	4618      	mov	r0, r3
 8002dd4:	bd80      	pop	{r7, pc}
 8002dd6:	bf00      	nop
 8002dd8:	40022000 	.word	0x40022000

08002ddc <HAL_InitTick>:
  *       implementation  in user file.
  * @param TickPriority Tick interrupt priority.
  * @retval HAL status
  */
__weak HAL_StatusTypeDef HAL_InitTick(uint32_t TickPriority)
{
 8002ddc:	b580      	push	{r7, lr}
 8002dde:	b082      	sub	sp, #8
 8002de0:	af00      	add	r7, sp, #0
 8002de2:	6078      	str	r0, [r7, #4]
  /* Configure the SysTick to have interrupt in 1ms time basis*/
  if (HAL_SYSTICK_Config(SystemCoreClock / (1000U / uwTickFreq)) > 0U)
 8002de4:	4b12      	ldr	r3, [pc, #72]	@ (8002e30 <HAL_InitTick+0x54>)
 8002de6:	681a      	ldr	r2, [r3, #0]
 8002de8:	4b12      	ldr	r3, [pc, #72]	@ (8002e34 <HAL_InitTick+0x58>)
 8002dea:	781b      	ldrb	r3, [r3, #0]
 8002dec:	4619      	mov	r1, r3
 8002dee:	f44f 737a 	mov.w	r3, #1000	@ 0x3e8
 8002df2:	fbb3 f3f1 	udiv	r3, r3, r1
 8002df6:	fbb2 f3f3 	udiv	r3, r2, r3
 8002dfa:	4618      	mov	r0, r3
 8002dfc:	f000 f93b 	bl	8003076 <HAL_SYSTICK_Config>
 8002e00:	4603      	mov	r3, r0
 8002e02:	2b00      	cmp	r3, #0
 8002e04:	d001      	beq.n	8002e0a <HAL_InitTick+0x2e>
  {
    return HAL_ERROR;
 8002e06:	2301      	movs	r3, #1
 8002e08:	e00e      	b.n	8002e28 <HAL_InitTick+0x4c>
  }

  /* Configure the SysTick IRQ priority */
  if (TickPriority < (1UL << __NVIC_PRIO_BITS))
 8002e0a:	687b      	ldr	r3, [r7, #4]
 8002e0c:	2b0f      	cmp	r3, #15
 8002e0e:	d80a      	bhi.n	8002e26 <HAL_InitTick+0x4a>
  {
    HAL_NVIC_SetPriority(SysTick_IRQn, TickPriority, 0U);
 8002e10:	2200      	movs	r2, #0
 8002e12:	6879      	ldr	r1, [r7, #4]
 8002e14:	f04f 30ff 	mov.w	r0, #4294967295
 8002e18:	f000 f903 	bl	8003022 <HAL_NVIC_SetPriority>
    uwTickPrio = TickPriority;
 8002e1c:	4a06      	ldr	r2, [pc, #24]	@ (8002e38 <HAL_InitTick+0x5c>)
 8002e1e:	687b      	ldr	r3, [r7, #4]
 8002e20:	6013      	str	r3, [r2, #0]
  {
    return HAL_ERROR;
  }

  /* Return function status */
  return HAL_OK;
 8002e22:	2300      	movs	r3, #0
 8002e24:	e000      	b.n	8002e28 <HAL_InitTick+0x4c>
    return HAL_ERROR;
 8002e26:	2301      	movs	r3, #1
}
 8002e28:	4618      	mov	r0, r3
 8002e2a:	3708      	adds	r7, #8
 8002e2c:	46bd      	mov	sp, r7
 8002e2e:	bd80      	pop	{r7, pc}
 8002e30:	20000090 	.word	0x20000090
 8002e34:	20000098 	.word	0x20000098
 8002e38:	20000094 	.word	0x20000094

08002e3c <HAL_IncTick>:
  * @note This function is declared as __weak to be overwritten in case of other
  *      implementations in user file.
  * @retval None
  */
__weak void HAL_IncTick(void)
{
 8002e3c:	b480      	push	{r7}
 8002e3e:	af00      	add	r7, sp, #0
  uwTick += uwTickFreq;
 8002e40:	4b05      	ldr	r3, [pc, #20]	@ (8002e58 <HAL_IncTick+0x1c>)
 8002e42:	781b      	ldrb	r3, [r3, #0]
 8002e44:	461a      	mov	r2, r3
 8002e46:	4b05      	ldr	r3, [pc, #20]	@ (8002e5c <HAL_IncTick+0x20>)
 8002e48:	681b      	ldr	r3, [r3, #0]
 8002e4a:	4413      	add	r3, r2
 8002e4c:	4a03      	ldr	r2, [pc, #12]	@ (8002e5c <HAL_IncTick+0x20>)
 8002e4e:	6013      	str	r3, [r2, #0]
}
 8002e50:	bf00      	nop
 8002e52:	46bd      	mov	sp, r7
 8002e54:	bc80      	pop	{r7}
 8002e56:	4770      	bx	lr
 8002e58:	20000098 	.word	0x20000098
 8002e5c:	2000032c 	.word	0x2000032c

08002e60 <HAL_GetTick>:
  * @note  This function is declared as __weak to be overwritten in case of other
  *       implementations in user file.
  * @retval tick value
  */
__weak uint32_t HAL_GetTick(void)
{
 8002e60:	b480      	push	{r7}
 8002e62:	af00      	add	r7, sp, #0
  return uwTick;
 8002e64:	4b02      	ldr	r3, [pc, #8]	@ (8002e70 <HAL_GetTick+0x10>)
 8002e66:	681b      	ldr	r3, [r3, #0]
}
 8002e68:	4618      	mov	r0, r3
 8002e6a:	46bd      	mov	sp, r7
 8002e6c:	bc80      	pop	{r7}
 8002e6e:	4770      	bx	lr
 8002e70:	2000032c 	.word	0x2000032c

08002e74 <__NVIC_SetPriorityGrouping>:
           In case of a conflict between priority grouping and available
           priority bits (__NVIC_PRIO_BITS), the smallest possible priority group is set.
  \param [in]      PriorityGroup  Priority grouping field.
 */
__STATIC_INLINE void __NVIC_SetPriorityGrouping(uint32_t PriorityGroup)
{
 8002e74:	b480      	push	{r7}
 8002e76:	b085      	sub	sp, #20
 8002e78:	af00      	add	r7, sp, #0
 8002e7a:	6078      	str	r0, [r7, #4]
  uint32_t reg_value;
  uint32_t PriorityGroupTmp = (PriorityGroup & (uint32_t)0x07UL);             /* only values 0..7 are used          */
 8002e7c:	687b      	ldr	r3, [r7, #4]
 8002e7e:	f003 0307 	and.w	r3, r3, #7
 8002e82:	60fb      	str	r3, [r7, #12]

  reg_value  =  SCB->AIRCR;                                                   /* read old register configuration    */
 8002e84:	4b0c      	ldr	r3, [pc, #48]	@ (8002eb8 <__NVIC_SetPriorityGrouping+0x44>)
 8002e86:	68db      	ldr	r3, [r3, #12]
 8002e88:	60bb      	str	r3, [r7, #8]
  reg_value &= ~((uint32_t)(SCB_AIRCR_VECTKEY_Msk | SCB_AIRCR_PRIGROUP_Msk)); /* clear bits to change               */
 8002e8a:	68ba      	ldr	r2, [r7, #8]
 8002e8c:	f64f 03ff 	movw	r3, #63743	@ 0xf8ff
 8002e90:	4013      	ands	r3, r2
 8002e92:	60bb      	str	r3, [r7, #8]
  reg_value  =  (reg_value                                   |
                ((uint32_t)0x5FAUL << SCB_AIRCR_VECTKEY_Pos) |
                (PriorityGroupTmp << SCB_AIRCR_PRIGROUP_Pos) );               /* Insert write key and priority group */
 8002e94:	68fb      	ldr	r3, [r7, #12]
 8002e96:	021a      	lsls	r2, r3, #8
                ((uint32_t)0x5FAUL << SCB_AIRCR_VECTKEY_Pos) |
 8002e98:	68bb      	ldr	r3, [r7, #8]
 8002e9a:	4313      	orrs	r3, r2
  reg_value  =  (reg_value                                   |
 8002e9c:	f043 63bf 	orr.w	r3, r3, #100139008	@ 0x5f80000
 8002ea0:	f443 3300 	orr.w	r3, r3, #131072	@ 0x20000
 8002ea4:	60bb      	str	r3, [r7, #8]
  SCB->AIRCR =  reg_value;
 8002ea6:	4a04      	ldr	r2, [pc, #16]	@ (8002eb8 <__NVIC_SetPriorityGrouping+0x44>)
 8002ea8:	68bb      	ldr	r3, [r7, #8]
 8002eaa:	60d3      	str	r3, [r2, #12]
}
 8002eac:	bf00      	nop
 8002eae:	3714      	adds	r7, #20
 8002eb0:	46bd      	mov	sp, r7
 8002eb2:	bc80      	pop	{r7}
 8002eb4:	4770      	bx	lr
 8002eb6:	bf00      	nop
 8002eb8:	e000ed00 	.word	0xe000ed00

08002ebc <__NVIC_GetPriorityGrouping>:
  \brief   Get Priority Grouping
  \details Reads the priority grouping field from the NVIC Interrupt Controller.
  \return                Priority grouping field (SCB->AIRCR [10:8] PRIGROUP field).
 */
__STATIC_INLINE uint32_t __NVIC_GetPriorityGrouping(void)
{
 8002ebc:	b480      	push	{r7}
 8002ebe:	af00      	add	r7, sp, #0
  return ((uint32_t)((SCB->AIRCR & SCB_AIRCR_PRIGROUP_Msk) >> SCB_AIRCR_PRIGROUP_Pos));
 8002ec0:	4b04      	ldr	r3, [pc, #16]	@ (8002ed4 <__NVIC_GetPriorityGrouping+0x18>)
 8002ec2:	68db      	ldr	r3, [r3, #12]
 8002ec4:	0a1b      	lsrs	r3, r3, #8
 8002ec6:	f003 0307 	and.w	r3, r3, #7
}
 8002eca:	4618      	mov	r0, r3
 8002ecc:	46bd      	mov	sp, r7
 8002ece:	bc80      	pop	{r7}
 8002ed0:	4770      	bx	lr
 8002ed2:	bf00      	nop
 8002ed4:	e000ed00 	.word	0xe000ed00

08002ed8 <__NVIC_EnableIRQ>:
  \details Enables a device specific interrupt in the NVIC interrupt controller.
  \param [in]      IRQn  Device specific interrupt number.
  \note    IRQn must not be negative.
 */
__STATIC_INLINE void __NVIC_EnableIRQ(IRQn_Type IRQn)
{
 8002ed8:	b480      	push	{r7}
 8002eda:	b083      	sub	sp, #12
 8002edc:	af00      	add	r7, sp, #0
 8002ede:	4603      	mov	r3, r0
 8002ee0:	71fb      	strb	r3, [r7, #7]
  if ((int32_t)(IRQn) >= 0)
 8002ee2:	f997 3007 	ldrsb.w	r3, [r7, #7]
 8002ee6:	2b00      	cmp	r3, #0
 8002ee8:	db0b      	blt.n	8002f02 <__NVIC_EnableIRQ+0x2a>
  {
    NVIC->ISER[(((uint32_t)IRQn) >> 5UL)] = (uint32_t)(1UL << (((uint32_t)IRQn) & 0x1FUL));
 8002eea:	79fb      	ldrb	r3, [r7, #7]
 8002eec:	f003 021f 	and.w	r2, r3, #31
 8002ef0:	4906      	ldr	r1, [pc, #24]	@ (8002f0c <__NVIC_EnableIRQ+0x34>)
 8002ef2:	f997 3007 	ldrsb.w	r3, [r7, #7]
 8002ef6:	095b      	lsrs	r3, r3, #5
 8002ef8:	2001      	movs	r0, #1
 8002efa:	fa00 f202 	lsl.w	r2, r0, r2
 8002efe:	f841 2023 	str.w	r2, [r1, r3, lsl #2]
  }
}
 8002f02:	bf00      	nop
 8002f04:	370c      	adds	r7, #12
 8002f06:	46bd      	mov	sp, r7
 8002f08:	bc80      	pop	{r7}
 8002f0a:	4770      	bx	lr
 8002f0c:	e000e100 	.word	0xe000e100

08002f10 <__NVIC_SetPriority>:
  \param [in]      IRQn  Interrupt number.
  \param [in]  priority  Priority to set.
  \note    The priority cannot be set for every processor exception.
 */
__STATIC_INLINE void __NVIC_SetPriority(IRQn_Type IRQn, uint32_t priority)
{
 8002f10:	b480      	push	{r7}
 8002f12:	b083      	sub	sp, #12
 8002f14:	af00      	add	r7, sp, #0
 8002f16:	4603      	mov	r3, r0
 8002f18:	6039      	str	r1, [r7, #0]
 8002f1a:	71fb      	strb	r3, [r7, #7]
  if ((int32_t)(IRQn) >= 0)
 8002f1c:	f997 3007 	ldrsb.w	r3, [r7, #7]
 8002f20:	2b00      	cmp	r3, #0
 8002f22:	db0a      	blt.n	8002f3a <__NVIC_SetPriority+0x2a>
  {
    NVIC->IP[((uint32_t)IRQn)]               = (uint8_t)((priority << (8U - __NVIC_PRIO_BITS)) & (uint32_t)0xFFUL);
 8002f24:	683b      	ldr	r3, [r7, #0]
 8002f26:	b2da      	uxtb	r2, r3
 8002f28:	490c      	ldr	r1, [pc, #48]	@ (8002f5c <__NVIC_SetPriority+0x4c>)
 8002f2a:	f997 3007 	ldrsb.w	r3, [r7, #7]
 8002f2e:	0112      	lsls	r2, r2, #4
 8002f30:	b2d2      	uxtb	r2, r2
 8002f32:	440b      	add	r3, r1
 8002f34:	f883 2300 	strb.w	r2, [r3, #768]	@ 0x300
  }
  else
  {
    SCB->SHP[(((uint32_t)IRQn) & 0xFUL)-4UL] = (uint8_t)((priority << (8U - __NVIC_PRIO_BITS)) & (uint32_t)0xFFUL);
  }
}
 8002f38:	e00a      	b.n	8002f50 <__NVIC_SetPriority+0x40>
    SCB->SHP[(((uint32_t)IRQn) & 0xFUL)-4UL] = (uint8_t)((priority << (8U - __NVIC_PRIO_BITS)) & (uint32_t)0xFFUL);
 8002f3a:	683b      	ldr	r3, [r7, #0]
 8002f3c:	b2da      	uxtb	r2, r3
 8002f3e:	4908      	ldr	r1, [pc, #32]	@ (8002f60 <__NVIC_SetPriority+0x50>)
 8002f40:	79fb      	ldrb	r3, [r7, #7]
 8002f42:	f003 030f 	and.w	r3, r3, #15
 8002f46:	3b04      	subs	r3, #4
 8002f48:	0112      	lsls	r2, r2, #4
 8002f4a:	b2d2      	uxtb	r2, r2
 8002f4c:	440b      	add	r3, r1
 8002f4e:	761a      	strb	r2, [r3, #24]
}
 8002f50:	bf00      	nop
 8002f52:	370c      	adds	r7, #12
 8002f54:	46bd      	mov	sp, r7
 8002f56:	bc80      	pop	{r7}
 8002f58:	4770      	bx	lr
 8002f5a:	bf00      	nop
 8002f5c:	e000e100 	.word	0xe000e100
 8002f60:	e000ed00 	.word	0xe000ed00

08002f64 <NVIC_EncodePriority>:
  \param [in]   PreemptPriority  Preemptive priority value (starting from 0).
  \param [in]       SubPriority  Subpriority value (starting from 0).
  \return                        Encoded priority. Value can be used in the function \ref NVIC_SetPriority().
 */
__STATIC_INLINE uint32_t NVIC_EncodePriority (uint32_t PriorityGroup, uint32_t PreemptPriority, uint32_t SubPriority)
{
 8002f64:	b480      	push	{r7}
 8002f66:	b089      	sub	sp, #36	@ 0x24
 8002f68:	af00      	add	r7, sp, #0
 8002f6a:	60f8      	str	r0, [r7, #12]
 8002f6c:	60b9      	str	r1, [r7, #8]
 8002f6e:	607a      	str	r2, [r7, #4]
  uint32_t PriorityGroupTmp = (PriorityGroup & (uint32_t)0x07UL);   /* only values 0..7 are used          */
 8002f70:	68fb      	ldr	r3, [r7, #12]
 8002f72:	f003 0307 	and.w	r3, r3, #7
 8002f76:	61fb      	str	r3, [r7, #28]
  uint32_t PreemptPriorityBits;
  uint32_t SubPriorityBits;

  PreemptPriorityBits = ((7UL - PriorityGroupTmp) > (uint32_t)(__NVIC_PRIO_BITS)) ? (uint32_t)(__NVIC_PRIO_BITS) : (uint32_t)(7UL - PriorityGroupTmp);
 8002f78:	69fb      	ldr	r3, [r7, #28]
 8002f7a:	f1c3 0307 	rsb	r3, r3, #7
 8002f7e:	2b04      	cmp	r3, #4
 8002f80:	bf28      	it	cs
 8002f82:	2304      	movcs	r3, #4
 8002f84:	61bb      	str	r3, [r7, #24]
  SubPriorityBits     = ((PriorityGroupTmp + (uint32_t)(__NVIC_PRIO_BITS)) < (uint32_t)7UL) ? (uint32_t)0UL : (uint32_t)((PriorityGroupTmp - 7UL) + (uint32_t)(__NVIC_PRIO_BITS));
 8002f86:	69fb      	ldr	r3, [r7, #28]
 8002f88:	3304      	adds	r3, #4
 8002f8a:	2b06      	cmp	r3, #6
 8002f8c:	d902      	bls.n	8002f94 <NVIC_EncodePriority+0x30>
 8002f8e:	69fb      	ldr	r3, [r7, #28]
 8002f90:	3b03      	subs	r3, #3
 8002f92:	e000      	b.n	8002f96 <NVIC_EncodePriority+0x32>
 8002f94:	2300      	movs	r3, #0
 8002f96:	617b      	str	r3, [r7, #20]

  return (
           ((PreemptPriority & (uint32_t)((1UL << (PreemptPriorityBits)) - 1UL)) << SubPriorityBits) |
 8002f98:	f04f 32ff 	mov.w	r2, #4294967295
 8002f9c:	69bb      	ldr	r3, [r7, #24]
 8002f9e:	fa02 f303 	lsl.w	r3, r2, r3
 8002fa2:	43da      	mvns	r2, r3
 8002fa4:	68bb      	ldr	r3, [r7, #8]
 8002fa6:	401a      	ands	r2, r3
 8002fa8:	697b      	ldr	r3, [r7, #20]
 8002faa:	409a      	lsls	r2, r3
           ((SubPriority     & (uint32_t)((1UL << (SubPriorityBits    )) - 1UL)))
 8002fac:	f04f 31ff 	mov.w	r1, #4294967295
 8002fb0:	697b      	ldr	r3, [r7, #20]
 8002fb2:	fa01 f303 	lsl.w	r3, r1, r3
 8002fb6:	43d9      	mvns	r1, r3
 8002fb8:	687b      	ldr	r3, [r7, #4]
 8002fba:	400b      	ands	r3, r1
           ((PreemptPriority & (uint32_t)((1UL << (PreemptPriorityBits)) - 1UL)) << SubPriorityBits) |
 8002fbc:	4313      	orrs	r3, r2
         );
}
 8002fbe:	4618      	mov	r0, r3
 8002fc0:	3724      	adds	r7, #36	@ 0x24
 8002fc2:	46bd      	mov	sp, r7
 8002fc4:	bc80      	pop	{r7}
 8002fc6:	4770      	bx	lr

08002fc8 <SysTick_Config>:
  \note    When the variable <b>__Vendor_SysTickConfig</b> is set to 1, then the
           function <b>SysTick_Config</b> is not included. In this case, the file <b><i>device</i>.h</b>
           must contain a vendor-specific implementation of this function.
 */
__STATIC_INLINE uint32_t SysTick_Config(uint32_t ticks)
{
 8002fc8:	b580      	push	{r7, lr}
 8002fca:	b082      	sub	sp, #8
 8002fcc:	af00      	add	r7, sp, #0
 8002fce:	6078      	str	r0, [r7, #4]
  if ((ticks - 1UL) > SysTick_LOAD_RELOAD_Msk)
 8002fd0:	687b      	ldr	r3, [r7, #4]
 8002fd2:	3b01      	subs	r3, #1
 8002fd4:	f1b3 7f80 	cmp.w	r3, #16777216	@ 0x1000000
 8002fd8:	d301      	bcc.n	8002fde <SysTick_Config+0x16>
  {
    return (1UL);                                                   /* Reload value impossible */
 8002fda:	2301      	movs	r3, #1
 8002fdc:	e00f      	b.n	8002ffe <SysTick_Config+0x36>
  }

  SysTick->LOAD  = (uint32_t)(ticks - 1UL);                         /* set reload register */
 8002fde:	4a0a      	ldr	r2, [pc, #40]	@ (8003008 <SysTick_Config+0x40>)
 8002fe0:	687b      	ldr	r3, [r7, #4]
 8002fe2:	3b01      	subs	r3, #1
 8002fe4:	6053      	str	r3, [r2, #4]
  NVIC_SetPriority (SysTick_IRQn, (1UL << __NVIC_PRIO_BITS) - 1UL); /* set Priority for Systick Interrupt */
 8002fe6:	210f      	movs	r1, #15
 8002fe8:	f04f 30ff 	mov.w	r0, #4294967295
 8002fec:	f7ff ff90 	bl	8002f10 <__NVIC_SetPriority>
  SysTick->VAL   = 0UL;                                             /* Load the SysTick Counter Value */
 8002ff0:	4b05      	ldr	r3, [pc, #20]	@ (8003008 <SysTick_Config+0x40>)
 8002ff2:	2200      	movs	r2, #0
 8002ff4:	609a      	str	r2, [r3, #8]
  SysTick->CTRL  = SysTick_CTRL_CLKSOURCE_Msk |
 8002ff6:	4b04      	ldr	r3, [pc, #16]	@ (8003008 <SysTick_Config+0x40>)
 8002ff8:	2207      	movs	r2, #7
 8002ffa:	601a      	str	r2, [r3, #0]
                   SysTick_CTRL_TICKINT_Msk   |
                   SysTick_CTRL_ENABLE_Msk;                         /* Enable SysTick IRQ and SysTick Timer */
  return (0UL);                                                     /* Function successful */
 8002ffc:	2300      	movs	r3, #0
}
 8002ffe:	4618      	mov	r0, r3
 8003000:	3708      	adds	r7, #8
 8003002:	46bd      	mov	sp, r7
 8003004:	bd80      	pop	{r7, pc}
 8003006:	bf00      	nop
 8003008:	e000e010 	.word	0xe000e010

0800300c <HAL_NVIC_SetPriorityGrouping>:
  * @note   When the NVIC_PriorityGroup_0 is selected, IRQ preemption is no more possible. 
  *         The pending IRQ priority will be managed only by the subpriority. 
  * @retval None
  */
void HAL_NVIC_SetPriorityGrouping(uint32_t PriorityGroup)
{
 800300c:	b580      	push	{r7, lr}
 800300e:	b082      	sub	sp, #8
 8003010:	af00      	add	r7, sp, #0
 8003012:	6078      	str	r0, [r7, #4]
  /* Check the parameters */
  assert_param(IS_NVIC_PRIORITY_GROUP(PriorityGroup));
  
  /* Set the PRIGROUP[10:8] bits according to the PriorityGroup parameter value */
  NVIC_SetPriorityGrouping(PriorityGroup);
 8003014:	6878      	ldr	r0, [r7, #4]
 8003016:	f7ff ff2d 	bl	8002e74 <__NVIC_SetPriorityGrouping>
}
 800301a:	bf00      	nop
 800301c:	3708      	adds	r7, #8
 800301e:	46bd      	mov	sp, r7
 8003020:	bd80      	pop	{r7, pc}

08003022 <HAL_NVIC_SetPriority>:
  *         This parameter can be a value between 0 and 15
  *         A lower priority value indicates a higher priority.          
  * @retval None
  */
void HAL_NVIC_SetPriority(IRQn_Type IRQn, uint32_t PreemptPriority, uint32_t SubPriority)
{ 
 8003022:	b580      	push	{r7, lr}
 8003024:	b086      	sub	sp, #24
 8003026:	af00      	add	r7, sp, #0
 8003028:	4603      	mov	r3, r0
 800302a:	60b9      	str	r1, [r7, #8]
 800302c:	607a      	str	r2, [r7, #4]
 800302e:	73fb      	strb	r3, [r7, #15]
  uint32_t prioritygroup = 0x00U;
 8003030:	2300      	movs	r3, #0
 8003032:	617b      	str	r3, [r7, #20]
  
  /* Check the parameters */
  assert_param(IS_NVIC_SUB_PRIORITY(SubPriority));
  assert_param(IS_NVIC_PREEMPTION_PRIORITY(PreemptPriority));
  
  prioritygroup = NVIC_GetPriorityGrouping();
 8003034:	f7ff ff42 	bl	8002ebc <__NVIC_GetPriorityGrouping>
 8003038:	6178      	str	r0, [r7, #20]
  
  NVIC_SetPriority(IRQn, NVIC_EncodePriority(prioritygroup, PreemptPriority, SubPriority));
 800303a:	687a      	ldr	r2, [r7, #4]
 800303c:	68b9      	ldr	r1, [r7, #8]
 800303e:	6978      	ldr	r0, [r7, #20]
 8003040:	f7ff ff90 	bl	8002f64 <NVIC_EncodePriority>
 8003044:	4602      	mov	r2, r0
 8003046:	f997 300f 	ldrsb.w	r3, [r7, #15]
 800304a:	4611      	mov	r1, r2
 800304c:	4618      	mov	r0, r3
 800304e:	f7ff ff5f 	bl	8002f10 <__NVIC_SetPriority>
}
 8003052:	bf00      	nop
 8003054:	3718      	adds	r7, #24
 8003056:	46bd      	mov	sp, r7
 8003058:	bd80      	pop	{r7, pc}

0800305a <HAL_NVIC_EnableIRQ>:
  *         This parameter can be an enumerator of IRQn_Type enumeration
  *         (For the complete STM32 Devices IRQ Channels list, please refer to the appropriate CMSIS device file (stm32f10xxx.h))
  * @retval None
  */
void HAL_NVIC_EnableIRQ(IRQn_Type IRQn)
{
 800305a:	b580      	push	{r7, lr}
 800305c:	b082      	sub	sp, #8
 800305e:	af00      	add	r7, sp, #0
 8003060:	4603      	mov	r3, r0
 8003062:	71fb      	strb	r3, [r7, #7]
  /* Check the parameters */
  assert_param(IS_NVIC_DEVICE_IRQ(IRQn));

  /* Enable interrupt */
  NVIC_EnableIRQ(IRQn);
 8003064:	f997 3007 	ldrsb.w	r3, [r7, #7]
 8003068:	4618      	mov	r0, r3
 800306a:	f7ff ff35 	bl	8002ed8 <__NVIC_EnableIRQ>
}
 800306e:	bf00      	nop
 8003070:	3708      	adds	r7, #8
 8003072:	46bd      	mov	sp, r7
 8003074:	bd80      	pop	{r7, pc}

08003076 <HAL_SYSTICK_Config>:
  * @param  TicksNumb: Specifies the ticks Number of ticks between two interrupts.
  * @retval status:  - 0  Function succeeded.
  *                  - 1  Function failed.
  */
uint32_t HAL_SYSTICK_Config(uint32_t TicksNumb)
{
 8003076:	b580      	push	{r7, lr}
 8003078:	b082      	sub	sp, #8
 800307a:	af00      	add	r7, sp, #0
 800307c:	6078      	str	r0, [r7, #4]
   return SysTick_Config(TicksNumb);
 800307e:	6878      	ldr	r0, [r7, #4]
 8003080:	f7ff ffa2 	bl	8002fc8 <SysTick_Config>
 8003084:	4603      	mov	r3, r0
}
 8003086:	4618      	mov	r0, r3
 8003088:	3708      	adds	r7, #8
 800308a:	46bd      	mov	sp, r7
 800308c:	bd80      	pop	{r7, pc}
	...

08003090 <HAL_GPIO_Init>:
  * @param  GPIO_Init: pointer to a GPIO_InitTypeDef structure that contains
  *         the configuration information for the specified GPIO peripheral.
  * @retval None
  */
void HAL_GPIO_Init(GPIO_TypeDef  *GPIOx, GPIO_InitTypeDef *GPIO_Init)
{
 8003090:	b480      	push	{r7}
 8003092:	b08b      	sub	sp, #44	@ 0x2c
 8003094:	af00      	add	r7, sp, #0
 8003096:	6078      	str	r0, [r7, #4]
 8003098:	6039      	str	r1, [r7, #0]
  uint32_t position = 0x00u;
 800309a:	2300      	movs	r3, #0
 800309c:	627b      	str	r3, [r7, #36]	@ 0x24
  uint32_t ioposition;
  uint32_t iocurrent;
  uint32_t temp;
  uint32_t config = 0x00u;
 800309e:	2300      	movs	r3, #0
 80030a0:	623b      	str	r3, [r7, #32]
  assert_param(IS_GPIO_ALL_INSTANCE(GPIOx));
  assert_param(IS_GPIO_PIN(GPIO_Init->Pin));
  assert_param(IS_GPIO_MODE(GPIO_Init->Mode));

  /* Configure the port pins */
  while (((GPIO_Init->Pin) >> position) != 0x00u)
 80030a2:	e169      	b.n	8003378 <HAL_GPIO_Init+0x2e8>
  {
    /* Get the IO position */
    ioposition = (0x01uL << position);
 80030a4:	2201      	movs	r2, #1
 80030a6:	6a7b      	ldr	r3, [r7, #36]	@ 0x24
 80030a8:	fa02 f303 	lsl.w	r3, r2, r3
 80030ac:	61fb      	str	r3, [r7, #28]

    /* Get the current IO position */
    iocurrent = (uint32_t)(GPIO_Init->Pin) & ioposition;
 80030ae:	683b      	ldr	r3, [r7, #0]
 80030b0:	681b      	ldr	r3, [r3, #0]
 80030b2:	69fa      	ldr	r2, [r7, #28]
 80030b4:	4013      	ands	r3, r2
 80030b6:	61bb      	str	r3, [r7, #24]

    if (iocurrent == ioposition)
 80030b8:	69ba      	ldr	r2, [r7, #24]
 80030ba:	69fb      	ldr	r3, [r7, #28]
 80030bc:	429a      	cmp	r2, r3
 80030be:	f040 8158 	bne.w	8003372 <HAL_GPIO_Init+0x2e2>
    {
      /* Check the Alternate function parameters */
      assert_param(IS_GPIO_AF_INSTANCE(GPIOx));

      /* Based on the required mode, filling config variable with MODEy[1:0] and CNFy[3:2] corresponding bits */
      switch (GPIO_Init->Mode)
 80030c2:	683b      	ldr	r3, [r7, #0]
 80030c4:	685b      	ldr	r3, [r3, #4]
 80030c6:	4a9a      	ldr	r2, [pc, #616]	@ (8003330 <HAL_GPIO_Init+0x2a0>)
 80030c8:	4293      	cmp	r3, r2
 80030ca:	d05e      	beq.n	800318a <HAL_GPIO_Init+0xfa>
 80030cc:	4a98      	ldr	r2, [pc, #608]	@ (8003330 <HAL_GPIO_Init+0x2a0>)
 80030ce:	4293      	cmp	r3, r2
 80030d0:	d875      	bhi.n	80031be <HAL_GPIO_Init+0x12e>
 80030d2:	4a98      	ldr	r2, [pc, #608]	@ (8003334 <HAL_GPIO_Init+0x2a4>)
 80030d4:	4293      	cmp	r3, r2
 80030d6:	d058      	beq.n	800318a <HAL_GPIO_Init+0xfa>
 80030d8:	4a96      	ldr	r2, [pc, #600]	@ (8003334 <HAL_GPIO_Init+0x2a4>)
 80030da:	4293      	cmp	r3, r2
 80030dc:	d86f      	bhi.n	80031be <HAL_GPIO_Init+0x12e>
 80030de:	4a96      	ldr	r2, [pc, #600]	@ (8003338 <HAL_GPIO_Init+0x2a8>)
 80030e0:	4293      	cmp	r3, r2
 80030e2:	d052      	beq.n	800318a <HAL_GPIO_Init+0xfa>
 80030e4:	4a94      	ldr	r2, [pc, #592]	@ (8003338 <HAL_GPIO_Init+0x2a8>)
 80030e6:	4293      	cmp	r3, r2
 80030e8:	d869      	bhi.n	80031be <HAL_GPIO_Init+0x12e>
 80030ea:	4a94      	ldr	r2, [pc, #592]	@ (800333c <HAL_GPIO_Init+0x2ac>)
 80030ec:	4293      	cmp	r3, r2
 80030ee:	d04c      	beq.n	800318a <HAL_GPIO_Init+0xfa>
 80030f0:	4a92      	ldr	r2, [pc, #584]	@ (800333c <HAL_GPIO_Init+0x2ac>)
 80030f2:	4293      	cmp	r3, r2
 80030f4:	d863      	bhi.n	80031be <HAL_GPIO_Init+0x12e>
 80030f6:	4a92      	ldr	r2, [pc, #584]	@ (8003340 <HAL_GPIO_Init+0x2b0>)
 80030f8:	4293      	cmp	r3, r2
 80030fa:	d046      	beq.n	800318a <HAL_GPIO_Init+0xfa>
 80030fc:	4a90      	ldr	r2, [pc, #576]	@ (8003340 <HAL_GPIO_Init+0x2b0>)
 80030fe:	4293      	cmp	r3, r2
 8003100:	d85d      	bhi.n	80031be <HAL_GPIO_Init+0x12e>
 8003102:	2b12      	cmp	r3, #18
 8003104:	d82a      	bhi.n	800315c <HAL_GPIO_Init+0xcc>
 8003106:	2b12      	cmp	r3, #18
 8003108:	d859      	bhi.n	80031be <HAL_GPIO_Init+0x12e>
 800310a:	a201      	add	r2, pc, #4	@ (adr r2, 8003110 <HAL_GPIO_Init+0x80>)
 800310c:	f852 f023 	ldr.w	pc, [r2, r3, lsl #2]
 8003110:	0800318b 	.word	0x0800318b
 8003114:	08003165 	.word	0x08003165
 8003118:	08003177 	.word	0x08003177
 800311c:	080031b9 	.word	0x080031b9
 8003120:	080031bf 	.word	0x080031bf
 8003124:	080031bf 	.word	0x080031bf
 8003128:	080031bf 	.word	0x080031bf
 800312c:	080031bf 	.word	0x080031bf
 8003130:	080031bf 	.word	0x080031bf
 8003134:	080031bf 	.word	0x080031bf
 8003138:	080031bf 	.word	0x080031bf
 800313c:	080031bf 	.word	0x080031bf
 8003140:	080031bf 	.word	0x080031bf
 8003144:	080031bf 	.word	0x080031bf
 8003148:	080031bf 	.word	0x080031bf
 800314c:	080031bf 	.word	0x080031bf
 8003150:	080031bf 	.word	0x080031bf
 8003154:	0800316d 	.word	0x0800316d
 8003158:	08003181 	.word	0x08003181
 800315c:	4a79      	ldr	r2, [pc, #484]	@ (8003344 <HAL_GPIO_Init+0x2b4>)
 800315e:	4293      	cmp	r3, r2
 8003160:	d013      	beq.n	800318a <HAL_GPIO_Init+0xfa>
          config = GPIO_CR_MODE_INPUT + GPIO_CR_CNF_ANALOG;
          break;

        /* Parameters are checked with assert_param */
        default:
          break;
 8003162:	e02c      	b.n	80031be <HAL_GPIO_Init+0x12e>
          config = GPIO_Init->Speed + GPIO_CR_CNF_GP_OUTPUT_PP;
 8003164:	683b      	ldr	r3, [r7, #0]
 8003166:	68db      	ldr	r3, [r3, #12]
 8003168:	623b      	str	r3, [r7, #32]
          break;
 800316a:	e029      	b.n	80031c0 <HAL_GPIO_Init+0x130>
          config = GPIO_Init->Speed + GPIO_CR_CNF_GP_OUTPUT_OD;
 800316c:	683b      	ldr	r3, [r7, #0]
 800316e:	68db      	ldr	r3, [r3, #12]
 8003170:	3304      	adds	r3, #4
 8003172:	623b      	str	r3, [r7, #32]
          break;
 8003174:	e024      	b.n	80031c0 <HAL_GPIO_Init+0x130>
          config = GPIO_Init->Speed + GPIO_CR_CNF_AF_OUTPUT_PP;
 8003176:	683b      	ldr	r3, [r7, #0]
 8003178:	68db      	ldr	r3, [r3, #12]
 800317a:	3308      	adds	r3, #8
 800317c:	623b      	str	r3, [r7, #32]
          break;
 800317e:	e01f      	b.n	80031c0 <HAL_GPIO_Init+0x130>
          config = GPIO_Init->Speed + GPIO_CR_CNF_AF_OUTPUT_OD;
 8003180:	683b      	ldr	r3, [r7, #0]
 8003182:	68db      	ldr	r3, [r3, #12]
 8003184:	330c      	adds	r3, #12
 8003186:	623b      	str	r3, [r7, #32]
          break;
 8003188:	e01a      	b.n	80031c0 <HAL_GPIO_Init+0x130>
          if (GPIO_Init->Pull == GPIO_NOPULL)
 800318a:	683b      	ldr	r3, [r7, #0]
 800318c:	689b      	ldr	r3, [r3, #8]
 800318e:	2b00      	cmp	r3, #0
 8003190:	d102      	bne.n	8003198 <HAL_GPIO_Init+0x108>
            config = GPIO_CR_MODE_INPUT + GPIO_CR_CNF_INPUT_FLOATING;
 8003192:	2304      	movs	r3, #4
 8003194:	623b      	str	r3, [r7, #32]
          break;
 8003196:	e013      	b.n	80031c0 <HAL_GPIO_Init+0x130>
          else if (GPIO_Init->Pull == GPIO_PULLUP)
 8003198:	683b      	ldr	r3, [r7, #0]
 800319a:	689b      	ldr	r3, [r3, #8]
 800319c:	2b01      	cmp	r3, #1
 800319e:	d105      	bne.n	80031ac <HAL_GPIO_Init+0x11c>
            config = GPIO_CR_MODE_INPUT + GPIO_CR_CNF_INPUT_PU_PD;
 80031a0:	2308      	movs	r3, #8
 80031a2:	623b      	str	r3, [r7, #32]
            GPIOx->BSRR = ioposition;
 80031a4:	687b      	ldr	r3, [r7, #4]
 80031a6:	69fa      	ldr	r2, [r7, #28]
 80031a8:	611a      	str	r2, [r3, #16]
          break;
 80031aa:	e009      	b.n	80031c0 <HAL_GPIO_Init+0x130>
            config = GPIO_CR_MODE_INPUT + GPIO_CR_CNF_INPUT_PU_PD;
 80031ac:	2308      	movs	r3, #8
 80031ae:	623b      	str	r3, [r7, #32]
            GPIOx->BRR = ioposition;
 80031b0:	687b      	ldr	r3, [r7, #4]
 80031b2:	69fa      	ldr	r2, [r7, #28]
 80031b4:	615a      	str	r2, [r3, #20]
          break;
 80031b6:	e003      	b.n	80031c0 <HAL_GPIO_Init+0x130>
          config = GPIO_CR_MODE_INPUT + GPIO_CR_CNF_ANALOG;
 80031b8:	2300      	movs	r3, #0
 80031ba:	623b      	str	r3, [r7, #32]
          break;
 80031bc:	e000      	b.n	80031c0 <HAL_GPIO_Init+0x130>
          break;
 80031be:	bf00      	nop
      }

      /* Check if the current bit belongs to first half or last half of the pin count number
       in order to address CRH or CRL register*/
      configregister = (iocurrent < GPIO_PIN_8) ? &GPIOx->CRL     : &GPIOx->CRH;
 80031c0:	69bb      	ldr	r3, [r7, #24]
 80031c2:	2bff      	cmp	r3, #255	@ 0xff
 80031c4:	d801      	bhi.n	80031ca <HAL_GPIO_Init+0x13a>
 80031c6:	687b      	ldr	r3, [r7, #4]
 80031c8:	e001      	b.n	80031ce <HAL_GPIO_Init+0x13e>
 80031ca:	687b      	ldr	r3, [r7, #4]
 80031cc:	3304      	adds	r3, #4
 80031ce:	617b      	str	r3, [r7, #20]
      registeroffset = (iocurrent < GPIO_PIN_8) ? (position << 2u) : ((position - 8u) << 2u);
 80031d0:	69bb      	ldr	r3, [r7, #24]
 80031d2:	2bff      	cmp	r3, #255	@ 0xff
 80031d4:	d802      	bhi.n	80031dc <HAL_GPIO_Init+0x14c>
 80031d6:	6a7b      	ldr	r3, [r7, #36]	@ 0x24
 80031d8:	009b      	lsls	r3, r3, #2
 80031da:	e002      	b.n	80031e2 <HAL_GPIO_Init+0x152>
 80031dc:	6a7b      	ldr	r3, [r7, #36]	@ 0x24
 80031de:	3b08      	subs	r3, #8
 80031e0:	009b      	lsls	r3, r3, #2
 80031e2:	613b      	str	r3, [r7, #16]

      /* Apply the new configuration of the pin to the register */
      MODIFY_REG((*configregister), ((GPIO_CRL_MODE0 | GPIO_CRL_CNF0) << registeroffset), (config << registeroffset));
 80031e4:	697b      	ldr	r3, [r7, #20]
 80031e6:	681a      	ldr	r2, [r3, #0]
 80031e8:	210f      	movs	r1, #15
 80031ea:	693b      	ldr	r3, [r7, #16]
 80031ec:	fa01 f303 	lsl.w	r3, r1, r3
 80031f0:	43db      	mvns	r3, r3
 80031f2:	401a      	ands	r2, r3
 80031f4:	6a39      	ldr	r1, [r7, #32]
 80031f6:	693b      	ldr	r3, [r7, #16]
 80031f8:	fa01 f303 	lsl.w	r3, r1, r3
 80031fc:	431a      	orrs	r2, r3
 80031fe:	697b      	ldr	r3, [r7, #20]
 8003200:	601a      	str	r2, [r3, #0]

      /*--------------------- EXTI Mode Configuration ------------------------*/
      /* Configure the External Interrupt or event for the current IO */
      if ((GPIO_Init->Mode & EXTI_MODE) == EXTI_MODE)
 8003202:	683b      	ldr	r3, [r7, #0]
 8003204:	685b      	ldr	r3, [r3, #4]
 8003206:	f003 5380 	and.w	r3, r3, #268435456	@ 0x10000000
 800320a:	2b00      	cmp	r3, #0
 800320c:	f000 80b1 	beq.w	8003372 <HAL_GPIO_Init+0x2e2>
      {
        /* Enable AFIO Clock */
        __HAL_RCC_AFIO_CLK_ENABLE();
 8003210:	4b4d      	ldr	r3, [pc, #308]	@ (8003348 <HAL_GPIO_Init+0x2b8>)
 8003212:	699b      	ldr	r3, [r3, #24]
 8003214:	4a4c      	ldr	r2, [pc, #304]	@ (8003348 <HAL_GPIO_Init+0x2b8>)
 8003216:	f043 0301 	orr.w	r3, r3, #1
 800321a:	6193      	str	r3, [r2, #24]
 800321c:	4b4a      	ldr	r3, [pc, #296]	@ (8003348 <HAL_GPIO_Init+0x2b8>)
 800321e:	699b      	ldr	r3, [r3, #24]
 8003220:	f003 0301 	and.w	r3, r3, #1
 8003224:	60bb      	str	r3, [r7, #8]
 8003226:	68bb      	ldr	r3, [r7, #8]
        temp = AFIO->EXTICR[position >> 2u];
 8003228:	4a48      	ldr	r2, [pc, #288]	@ (800334c <HAL_GPIO_Init+0x2bc>)
 800322a:	6a7b      	ldr	r3, [r7, #36]	@ 0x24
 800322c:	089b      	lsrs	r3, r3, #2
 800322e:	3302      	adds	r3, #2
 8003230:	f852 3023 	ldr.w	r3, [r2, r3, lsl #2]
 8003234:	60fb      	str	r3, [r7, #12]
        CLEAR_BIT(temp, (0x0Fu) << (4u * (position & 0x03u)));
 8003236:	6a7b      	ldr	r3, [r7, #36]	@ 0x24
 8003238:	f003 0303 	and.w	r3, r3, #3
 800323c:	009b      	lsls	r3, r3, #2
 800323e:	220f      	movs	r2, #15
 8003240:	fa02 f303 	lsl.w	r3, r2, r3
 8003244:	43db      	mvns	r3, r3
 8003246:	68fa      	ldr	r2, [r7, #12]
 8003248:	4013      	ands	r3, r2
 800324a:	60fb      	str	r3, [r7, #12]
        SET_BIT(temp, (GPIO_GET_INDEX(GPIOx)) << (4u * (position & 0x03u)));
 800324c:	687b      	ldr	r3, [r7, #4]
 800324e:	4a40      	ldr	r2, [pc, #256]	@ (8003350 <HAL_GPIO_Init+0x2c0>)
 8003250:	4293      	cmp	r3, r2
 8003252:	d013      	beq.n	800327c <HAL_GPIO_Init+0x1ec>
 8003254:	687b      	ldr	r3, [r7, #4]
 8003256:	4a3f      	ldr	r2, [pc, #252]	@ (8003354 <HAL_GPIO_Init+0x2c4>)
 8003258:	4293      	cmp	r3, r2
 800325a:	d00d      	beq.n	8003278 <HAL_GPIO_Init+0x1e8>
 800325c:	687b      	ldr	r3, [r7, #4]
 800325e:	4a3e      	ldr	r2, [pc, #248]	@ (8003358 <HAL_GPIO_Init+0x2c8>)
 8003260:	4293      	cmp	r3, r2
 8003262:	d007      	beq.n	8003274 <HAL_GPIO_Init+0x1e4>
 8003264:	687b      	ldr	r3, [r7, #4]
 8003266:	4a3d      	ldr	r2, [pc, #244]	@ (800335c <HAL_GPIO_Init+0x2cc>)
 8003268:	4293      	cmp	r3, r2
 800326a:	d101      	bne.n	8003270 <HAL_GPIO_Init+0x1e0>
 800326c:	2303      	movs	r3, #3
 800326e:	e006      	b.n	800327e <HAL_GPIO_Init+0x1ee>
 8003270:	2304      	movs	r3, #4
 8003272:	e004      	b.n	800327e <HAL_GPIO_Init+0x1ee>
 8003274:	2302      	movs	r3, #2
 8003276:	e002      	b.n	800327e <HAL_GPIO_Init+0x1ee>
 8003278:	2301      	movs	r3, #1
 800327a:	e000      	b.n	800327e <HAL_GPIO_Init+0x1ee>
 800327c:	2300      	movs	r3, #0
 800327e:	6a7a      	ldr	r2, [r7, #36]	@ 0x24
 8003280:	f002 0203 	and.w	r2, r2, #3
 8003284:	0092      	lsls	r2, r2, #2
 8003286:	4093      	lsls	r3, r2
 8003288:	68fa      	ldr	r2, [r7, #12]
 800328a:	4313      	orrs	r3, r2
 800328c:	60fb      	str	r3, [r7, #12]
        AFIO->EXTICR[position >> 2u] = temp;
 800328e:	492f      	ldr	r1, [pc, #188]	@ (800334c <HAL_GPIO_Init+0x2bc>)
 8003290:	6a7b      	ldr	r3, [r7, #36]	@ 0x24
 8003292:	089b      	lsrs	r3, r3, #2
 8003294:	3302      	adds	r3, #2
 8003296:	68fa      	ldr	r2, [r7, #12]
 8003298:	f841 2023 	str.w	r2, [r1, r3, lsl #2]


        /* Enable or disable the rising trigger */
        if ((GPIO_Init->Mode & RISING_EDGE) == RISING_EDGE)
 800329c:	683b      	ldr	r3, [r7, #0]
 800329e:	685b      	ldr	r3, [r3, #4]
 80032a0:	f403 1380 	and.w	r3, r3, #1048576	@ 0x100000
 80032a4:	2b00      	cmp	r3, #0
 80032a6:	d006      	beq.n	80032b6 <HAL_GPIO_Init+0x226>
        {
          SET_BIT(EXTI->RTSR, iocurrent);
 80032a8:	4b2d      	ldr	r3, [pc, #180]	@ (8003360 <HAL_GPIO_Init+0x2d0>)
 80032aa:	689a      	ldr	r2, [r3, #8]
 80032ac:	492c      	ldr	r1, [pc, #176]	@ (8003360 <HAL_GPIO_Init+0x2d0>)
 80032ae:	69bb      	ldr	r3, [r7, #24]
 80032b0:	4313      	orrs	r3, r2
 80032b2:	608b      	str	r3, [r1, #8]
 80032b4:	e006      	b.n	80032c4 <HAL_GPIO_Init+0x234>
        }
        else
        {
          CLEAR_BIT(EXTI->RTSR, iocurrent);
 80032b6:	4b2a      	ldr	r3, [pc, #168]	@ (8003360 <HAL_GPIO_Init+0x2d0>)
 80032b8:	689a      	ldr	r2, [r3, #8]
 80032ba:	69bb      	ldr	r3, [r7, #24]
 80032bc:	43db      	mvns	r3, r3
 80032be:	4928      	ldr	r1, [pc, #160]	@ (8003360 <HAL_GPIO_Init+0x2d0>)
 80032c0:	4013      	ands	r3, r2
 80032c2:	608b      	str	r3, [r1, #8]
        }

        /* Enable or disable the falling trigger */
        if ((GPIO_Init->Mode & FALLING_EDGE) == FALLING_EDGE)
 80032c4:	683b      	ldr	r3, [r7, #0]
 80032c6:	685b      	ldr	r3, [r3, #4]
 80032c8:	f403 1300 	and.w	r3, r3, #2097152	@ 0x200000
 80032cc:	2b00      	cmp	r3, #0
 80032ce:	d006      	beq.n	80032de <HAL_GPIO_Init+0x24e>
        {
          SET_BIT(EXTI->FTSR, iocurrent);
 80032d0:	4b23      	ldr	r3, [pc, #140]	@ (8003360 <HAL_GPIO_Init+0x2d0>)
 80032d2:	68da      	ldr	r2, [r3, #12]
 80032d4:	4922      	ldr	r1, [pc, #136]	@ (8003360 <HAL_GPIO_Init+0x2d0>)
 80032d6:	69bb      	ldr	r3, [r7, #24]
 80032d8:	4313      	orrs	r3, r2
 80032da:	60cb      	str	r3, [r1, #12]
 80032dc:	e006      	b.n	80032ec <HAL_GPIO_Init+0x25c>
        }
        else
        {
          CLEAR_BIT(EXTI->FTSR, iocurrent);
 80032de:	4b20      	ldr	r3, [pc, #128]	@ (8003360 <HAL_GPIO_Init+0x2d0>)
 80032e0:	68da      	ldr	r2, [r3, #12]
 80032e2:	69bb      	ldr	r3, [r7, #24]
 80032e4:	43db      	mvns	r3, r3
 80032e6:	491e      	ldr	r1, [pc, #120]	@ (8003360 <HAL_GPIO_Init+0x2d0>)
 80032e8:	4013      	ands	r3, r2
 80032ea:	60cb      	str	r3, [r1, #12]
        }

        /* Configure the event mask */
        if ((GPIO_Init->Mode & GPIO_MODE_EVT) == GPIO_MODE_EVT)
 80032ec:	683b      	ldr	r3, [r7, #0]
 80032ee:	685b      	ldr	r3, [r3, #4]
 80032f0:	f403 3300 	and.w	r3, r3, #131072	@ 0x20000
 80032f4:	2b00      	cmp	r3, #0
 80032f6:	d006      	beq.n	8003306 <HAL_GPIO_Init+0x276>
        {
          SET_BIT(EXTI->EMR, iocurrent);
 80032f8:	4b19      	ldr	r3, [pc, #100]	@ (8003360 <HAL_GPIO_Init+0x2d0>)
 80032fa:	685a      	ldr	r2, [r3, #4]
 80032fc:	4918      	ldr	r1, [pc, #96]	@ (8003360 <HAL_GPIO_Init+0x2d0>)
 80032fe:	69bb      	ldr	r3, [r7, #24]
 8003300:	4313      	orrs	r3, r2
 8003302:	604b      	str	r3, [r1, #4]
 8003304:	e006      	b.n	8003314 <HAL_GPIO_Init+0x284>
        }
        else
        {
          CLEAR_BIT(EXTI->EMR, iocurrent);
 8003306:	4b16      	ldr	r3, [pc, #88]	@ (8003360 <HAL_GPIO_Init+0x2d0>)
 8003308:	685a      	ldr	r2, [r3, #4]
 800330a:	69bb      	ldr	r3, [r7, #24]
 800330c:	43db      	mvns	r3, r3
 800330e:	4914      	ldr	r1, [pc, #80]	@ (8003360 <HAL_GPIO_Init+0x2d0>)
 8003310:	4013      	ands	r3, r2
 8003312:	604b      	str	r3, [r1, #4]
        }

        /* Configure the interrupt mask */
        if ((GPIO_Init->Mode & GPIO_MODE_IT) == GPIO_MODE_IT)
 8003314:	683b      	ldr	r3, [r7, #0]
 8003316:	685b      	ldr	r3, [r3, #4]
 8003318:	f403 3380 	and.w	r3, r3, #65536	@ 0x10000
 800331c:	2b00      	cmp	r3, #0
 800331e:	d021      	beq.n	8003364 <HAL_GPIO_Init+0x2d4>
        {
          SET_BIT(EXTI->IMR, iocurrent);
 8003320:	4b0f      	ldr	r3, [pc, #60]	@ (8003360 <HAL_GPIO_Init+0x2d0>)
 8003322:	681a      	ldr	r2, [r3, #0]
 8003324:	490e      	ldr	r1, [pc, #56]	@ (8003360 <HAL_GPIO_Init+0x2d0>)
 8003326:	69bb      	ldr	r3, [r7, #24]
 8003328:	4313      	orrs	r3, r2
 800332a:	600b      	str	r3, [r1, #0]
 800332c:	e021      	b.n	8003372 <HAL_GPIO_Init+0x2e2>
 800332e:	bf00      	nop
 8003330:	10320000 	.word	0x10320000
 8003334:	10310000 	.word	0x10310000
 8003338:	10220000 	.word	0x10220000
 800333c:	10210000 	.word	0x10210000
 8003340:	10120000 	.word	0x10120000
 8003344:	10110000 	.word	0x10110000
 8003348:	40021000 	.word	0x40021000
 800334c:	40010000 	.word	0x40010000
 8003350:	40010800 	.word	0x40010800
 8003354:	40010c00 	.word	0x40010c00
 8003358:	40011000 	.word	0x40011000
 800335c:	40011400 	.word	0x40011400
 8003360:	40010400 	.word	0x40010400
        }
        else
        {
          CLEAR_BIT(EXTI->IMR, iocurrent);
 8003364:	4b0b      	ldr	r3, [pc, #44]	@ (8003394 <HAL_GPIO_Init+0x304>)
 8003366:	681a      	ldr	r2, [r3, #0]
 8003368:	69bb      	ldr	r3, [r7, #24]
 800336a:	43db      	mvns	r3, r3
 800336c:	4909      	ldr	r1, [pc, #36]	@ (8003394 <HAL_GPIO_Init+0x304>)
 800336e:	4013      	ands	r3, r2
 8003370:	600b      	str	r3, [r1, #0]
        }
      }
    }

	position++;
 8003372:	6a7b      	ldr	r3, [r7, #36]	@ 0x24
 8003374:	3301      	adds	r3, #1
 8003376:	627b      	str	r3, [r7, #36]	@ 0x24
  while (((GPIO_Init->Pin) >> position) != 0x00u)
 8003378:	683b      	ldr	r3, [r7, #0]
 800337a:	681a      	ldr	r2, [r3, #0]
 800337c:	6a7b      	ldr	r3, [r7, #36]	@ 0x24
 800337e:	fa22 f303 	lsr.w	r3, r2, r3
 8003382:	2b00      	cmp	r3, #0
 8003384:	f47f ae8e 	bne.w	80030a4 <HAL_GPIO_Init+0x14>
  }
}
 8003388:	bf00      	nop
 800338a:	bf00      	nop
 800338c:	372c      	adds	r7, #44	@ 0x2c
 800338e:	46bd      	mov	sp, r7
 8003390:	bc80      	pop	{r7}
 8003392:	4770      	bx	lr
 8003394:	40010400 	.word	0x40010400

08003398 <HAL_GPIO_WritePin>:
  *            @arg GPIO_PIN_RESET: to clear the port pin
  *            @arg GPIO_PIN_SET: to set the port pin
  * @retval None
  */
void HAL_GPIO_WritePin(GPIO_TypeDef *GPIOx, uint16_t GPIO_Pin, GPIO_PinState PinState)
{
 8003398:	b480      	push	{r7}
 800339a:	b083      	sub	sp, #12
 800339c:	af00      	add	r7, sp, #0
 800339e:	6078      	str	r0, [r7, #4]
 80033a0:	460b      	mov	r3, r1
 80033a2:	807b      	strh	r3, [r7, #2]
 80033a4:	4613      	mov	r3, r2
 80033a6:	707b      	strb	r3, [r7, #1]
  /* Check the parameters */
  assert_param(IS_GPIO_PIN(GPIO_Pin));
  assert_param(IS_GPIO_PIN_ACTION(PinState));

  if (PinState != GPIO_PIN_RESET)
 80033a8:	787b      	ldrb	r3, [r7, #1]
 80033aa:	2b00      	cmp	r3, #0
 80033ac:	d003      	beq.n	80033b6 <HAL_GPIO_WritePin+0x1e>
  {
    GPIOx->BSRR = GPIO_Pin;
 80033ae:	887a      	ldrh	r2, [r7, #2]
 80033b0:	687b      	ldr	r3, [r7, #4]
 80033b2:	611a      	str	r2, [r3, #16]
  }
  else
  {
    GPIOx->BSRR = (uint32_t)GPIO_Pin << 16u;
  }
}
 80033b4:	e003      	b.n	80033be <HAL_GPIO_WritePin+0x26>
    GPIOx->BSRR = (uint32_t)GPIO_Pin << 16u;
 80033b6:	887b      	ldrh	r3, [r7, #2]
 80033b8:	041a      	lsls	r2, r3, #16
 80033ba:	687b      	ldr	r3, [r7, #4]
 80033bc:	611a      	str	r2, [r3, #16]
}
 80033be:	bf00      	nop
 80033c0:	370c      	adds	r7, #12
 80033c2:	46bd      	mov	sp, r7
 80033c4:	bc80      	pop	{r7}
 80033c6:	4770      	bx	lr

080033c8 <HAL_I2C_Init>:
  * @param  hi2c Pointer to a I2C_HandleTypeDef structure that contains
  *                the configuration information for the specified I2C.
  * @retval HAL status
  */
HAL_StatusTypeDef HAL_I2C_Init(I2C_HandleTypeDef *hi2c)
{
 80033c8:	b580      	push	{r7, lr}
 80033ca:	b084      	sub	sp, #16
 80033cc:	af00      	add	r7, sp, #0
 80033ce:	6078      	str	r0, [r7, #4]
  uint32_t freqrange;
  uint32_t pclk1;

  /* Check the I2C handle allocation */
  if (hi2c == NULL)
 80033d0:	687b      	ldr	r3, [r7, #4]
 80033d2:	2b00      	cmp	r3, #0
 80033d4:	d101      	bne.n	80033da <HAL_I2C_Init+0x12>
  {
    return HAL_ERROR;
 80033d6:	2301      	movs	r3, #1
 80033d8:	e12b      	b.n	8003632 <HAL_I2C_Init+0x26a>
  assert_param(IS_I2C_DUAL_ADDRESS(hi2c->Init.DualAddressMode));
  assert_param(IS_I2C_OWN_ADDRESS2(hi2c->Init.OwnAddress2));
  assert_param(IS_I2C_GENERAL_CALL(hi2c->Init.GeneralCallMode));
  assert_param(IS_I2C_NO_STRETCH(hi2c->Init.NoStretchMode));

  if (hi2c->State == HAL_I2C_STATE_RESET)
 80033da:	687b      	ldr	r3, [r7, #4]
 80033dc:	f893 303d 	ldrb.w	r3, [r3, #61]	@ 0x3d
 80033e0:	b2db      	uxtb	r3, r3
 80033e2:	2b00      	cmp	r3, #0
 80033e4:	d106      	bne.n	80033f4 <HAL_I2C_Init+0x2c>
  {
    /* Allocate lock resource and initialize it */
    hi2c->Lock = HAL_UNLOCKED;
 80033e6:	687b      	ldr	r3, [r7, #4]
 80033e8:	2200      	movs	r2, #0
 80033ea:	f883 203c 	strb.w	r2, [r3, #60]	@ 0x3c

    /* Init the low level hardware : GPIO, CLOCK, NVIC */
    hi2c->MspInitCallback(hi2c);
#else
    /* Init the low level hardware : GPIO, CLOCK, NVIC */
    HAL_I2C_MspInit(hi2c);
 80033ee:	6878      	ldr	r0, [r7, #4]
 80033f0:	f7ff fb22 	bl	8002a38 <HAL_I2C_MspInit>
#endif /* USE_HAL_I2C_REGISTER_CALLBACKS */
  }

  hi2c->State = HAL_I2C_STATE_BUSY;
 80033f4:	687b      	ldr	r3, [r7, #4]
 80033f6:	2224      	movs	r2, #36	@ 0x24
 80033f8:	f883 203d 	strb.w	r2, [r3, #61]	@ 0x3d

  /* Disable the selected I2C peripheral */
  __HAL_I2C_DISABLE(hi2c);
 80033fc:	687b      	ldr	r3, [r7, #4]
 80033fe:	681b      	ldr	r3, [r3, #0]
 8003400:	681a      	ldr	r2, [r3, #0]
 8003402:	687b      	ldr	r3, [r7, #4]
 8003404:	681b      	ldr	r3, [r3, #0]
 8003406:	f022 0201 	bic.w	r2, r2, #1
 800340a:	601a      	str	r2, [r3, #0]

  /*Reset I2C*/
  hi2c->Instance->CR1 |= I2C_CR1_SWRST;
 800340c:	687b      	ldr	r3, [r7, #4]
 800340e:	681b      	ldr	r3, [r3, #0]
 8003410:	681a      	ldr	r2, [r3, #0]
 8003412:	687b      	ldr	r3, [r7, #4]
 8003414:	681b      	ldr	r3, [r3, #0]
 8003416:	f442 4200 	orr.w	r2, r2, #32768	@ 0x8000
 800341a:	601a      	str	r2, [r3, #0]
  hi2c->Instance->CR1 &= ~I2C_CR1_SWRST;
 800341c:	687b      	ldr	r3, [r7, #4]
 800341e:	681b      	ldr	r3, [r3, #0]
 8003420:	681a      	ldr	r2, [r3, #0]
 8003422:	687b      	ldr	r3, [r7, #4]
 8003424:	681b      	ldr	r3, [r3, #0]
 8003426:	f422 4200 	bic.w	r2, r2, #32768	@ 0x8000
 800342a:	601a      	str	r2, [r3, #0]

  /* Get PCLK1 frequency */
  pclk1 = HAL_RCC_GetPCLK1Freq();
 800342c:	f001 fbf0 	bl	8004c10 <HAL_RCC_GetPCLK1Freq>
 8003430:	60f8      	str	r0, [r7, #12]

  /* Check the minimum allowed PCLK1 frequency */
  if (I2C_MIN_PCLK_FREQ(pclk1, hi2c->Init.ClockSpeed) == 1U)
 8003432:	687b      	ldr	r3, [r7, #4]
 8003434:	685b      	ldr	r3, [r3, #4]
 8003436:	4a81      	ldr	r2, [pc, #516]	@ (800363c <HAL_I2C_Init+0x274>)
 8003438:	4293      	cmp	r3, r2
 800343a:	d807      	bhi.n	800344c <HAL_I2C_Init+0x84>
 800343c:	68fb      	ldr	r3, [r7, #12]
 800343e:	4a80      	ldr	r2, [pc, #512]	@ (8003640 <HAL_I2C_Init+0x278>)
 8003440:	4293      	cmp	r3, r2
 8003442:	bf94      	ite	ls
 8003444:	2301      	movls	r3, #1
 8003446:	2300      	movhi	r3, #0
 8003448:	b2db      	uxtb	r3, r3
 800344a:	e006      	b.n	800345a <HAL_I2C_Init+0x92>
 800344c:	68fb      	ldr	r3, [r7, #12]
 800344e:	4a7d      	ldr	r2, [pc, #500]	@ (8003644 <HAL_I2C_Init+0x27c>)
 8003450:	4293      	cmp	r3, r2
 8003452:	bf94      	ite	ls
 8003454:	2301      	movls	r3, #1
 8003456:	2300      	movhi	r3, #0
 8003458:	b2db      	uxtb	r3, r3
 800345a:	2b00      	cmp	r3, #0
 800345c:	d001      	beq.n	8003462 <HAL_I2C_Init+0x9a>
  {
    return HAL_ERROR;
 800345e:	2301      	movs	r3, #1
 8003460:	e0e7      	b.n	8003632 <HAL_I2C_Init+0x26a>
  }

  /* Calculate frequency range */
  freqrange = I2C_FREQRANGE(pclk1);
 8003462:	68fb      	ldr	r3, [r7, #12]
 8003464:	4a78      	ldr	r2, [pc, #480]	@ (8003648 <HAL_I2C_Init+0x280>)
 8003466:	fba2 2303 	umull	r2, r3, r2, r3
 800346a:	0c9b      	lsrs	r3, r3, #18
 800346c:	60bb      	str	r3, [r7, #8]

  /*---------------------------- I2Cx CR2 Configuration ----------------------*/
  /* Configure I2Cx: Frequency range */
  MODIFY_REG(hi2c->Instance->CR2, I2C_CR2_FREQ, freqrange);
 800346e:	687b      	ldr	r3, [r7, #4]
 8003470:	681b      	ldr	r3, [r3, #0]
 8003472:	685b      	ldr	r3, [r3, #4]
 8003474:	f023 013f 	bic.w	r1, r3, #63	@ 0x3f
 8003478:	687b      	ldr	r3, [r7, #4]
 800347a:	681b      	ldr	r3, [r3, #0]
 800347c:	68ba      	ldr	r2, [r7, #8]
 800347e:	430a      	orrs	r2, r1
 8003480:	605a      	str	r2, [r3, #4]

  /*---------------------------- I2Cx TRISE Configuration --------------------*/
  /* Configure I2Cx: Rise Time */
  MODIFY_REG(hi2c->Instance->TRISE, I2C_TRISE_TRISE, I2C_RISE_TIME(freqrange, hi2c->Init.ClockSpeed));
 8003482:	687b      	ldr	r3, [r7, #4]
 8003484:	681b      	ldr	r3, [r3, #0]
 8003486:	6a1b      	ldr	r3, [r3, #32]
 8003488:	f023 013f 	bic.w	r1, r3, #63	@ 0x3f
 800348c:	687b      	ldr	r3, [r7, #4]
 800348e:	685b      	ldr	r3, [r3, #4]
 8003490:	4a6a      	ldr	r2, [pc, #424]	@ (800363c <HAL_I2C_Init+0x274>)
 8003492:	4293      	cmp	r3, r2
 8003494:	d802      	bhi.n	800349c <HAL_I2C_Init+0xd4>
 8003496:	68bb      	ldr	r3, [r7, #8]
 8003498:	3301      	adds	r3, #1
 800349a:	e009      	b.n	80034b0 <HAL_I2C_Init+0xe8>
 800349c:	68bb      	ldr	r3, [r7, #8]
 800349e:	f44f 7296 	mov.w	r2, #300	@ 0x12c
 80034a2:	fb02 f303 	mul.w	r3, r2, r3
 80034a6:	4a69      	ldr	r2, [pc, #420]	@ (800364c <HAL_I2C_Init+0x284>)
 80034a8:	fba2 2303 	umull	r2, r3, r2, r3
 80034ac:	099b      	lsrs	r3, r3, #6
 80034ae:	3301      	adds	r3, #1
 80034b0:	687a      	ldr	r2, [r7, #4]
 80034b2:	6812      	ldr	r2, [r2, #0]
 80034b4:	430b      	orrs	r3, r1
 80034b6:	6213      	str	r3, [r2, #32]

  /*---------------------------- I2Cx CCR Configuration ----------------------*/
  /* Configure I2Cx: Speed */
  MODIFY_REG(hi2c->Instance->CCR, (I2C_CCR_FS | I2C_CCR_DUTY | I2C_CCR_CCR), I2C_SPEED(pclk1, hi2c->Init.ClockSpeed, hi2c->Init.DutyCycle));
 80034b8:	687b      	ldr	r3, [r7, #4]
 80034ba:	681b      	ldr	r3, [r3, #0]
 80034bc:	69db      	ldr	r3, [r3, #28]
 80034be:	f423 424f 	bic.w	r2, r3, #52992	@ 0xcf00
 80034c2:	f022 02ff 	bic.w	r2, r2, #255	@ 0xff
 80034c6:	687b      	ldr	r3, [r7, #4]
 80034c8:	685b      	ldr	r3, [r3, #4]
 80034ca:	495c      	ldr	r1, [pc, #368]	@ (800363c <HAL_I2C_Init+0x274>)
 80034cc:	428b      	cmp	r3, r1
 80034ce:	d819      	bhi.n	8003504 <HAL_I2C_Init+0x13c>
 80034d0:	68fb      	ldr	r3, [r7, #12]
 80034d2:	1e59      	subs	r1, r3, #1
 80034d4:	687b      	ldr	r3, [r7, #4]
 80034d6:	685b      	ldr	r3, [r3, #4]
 80034d8:	005b      	lsls	r3, r3, #1
 80034da:	fbb1 f3f3 	udiv	r3, r1, r3
 80034de:	1c59      	adds	r1, r3, #1
 80034e0:	f640 73fc 	movw	r3, #4092	@ 0xffc
 80034e4:	400b      	ands	r3, r1
 80034e6:	2b00      	cmp	r3, #0
 80034e8:	d00a      	beq.n	8003500 <HAL_I2C_Init+0x138>
 80034ea:	68fb      	ldr	r3, [r7, #12]
 80034ec:	1e59      	subs	r1, r3, #1
 80034ee:	687b      	ldr	r3, [r7, #4]
 80034f0:	685b      	ldr	r3, [r3, #4]
 80034f2:	005b      	lsls	r3, r3, #1
 80034f4:	fbb1 f3f3 	udiv	r3, r1, r3
 80034f8:	3301      	adds	r3, #1
 80034fa:	f3c3 030b 	ubfx	r3, r3, #0, #12
 80034fe:	e051      	b.n	80035a4 <HAL_I2C_Init+0x1dc>
 8003500:	2304      	movs	r3, #4
 8003502:	e04f      	b.n	80035a4 <HAL_I2C_Init+0x1dc>
 8003504:	687b      	ldr	r3, [r7, #4]
 8003506:	689b      	ldr	r3, [r3, #8]
 8003508:	2b00      	cmp	r3, #0
 800350a:	d111      	bne.n	8003530 <HAL_I2C_Init+0x168>
 800350c:	68fb      	ldr	r3, [r7, #12]
 800350e:	1e58      	subs	r0, r3, #1
 8003510:	687b      	ldr	r3, [r7, #4]
 8003512:	6859      	ldr	r1, [r3, #4]
 8003514:	460b      	mov	r3, r1
 8003516:	005b      	lsls	r3, r3, #1
 8003518:	440b      	add	r3, r1
 800351a:	fbb0 f3f3 	udiv	r3, r0, r3
 800351e:	3301      	adds	r3, #1
 8003520:	f3c3 030b 	ubfx	r3, r3, #0, #12
 8003524:	2b00      	cmp	r3, #0
 8003526:	bf0c      	ite	eq
 8003528:	2301      	moveq	r3, #1
 800352a:	2300      	movne	r3, #0
 800352c:	b2db      	uxtb	r3, r3
 800352e:	e012      	b.n	8003556 <HAL_I2C_Init+0x18e>
 8003530:	68fb      	ldr	r3, [r7, #12]
 8003532:	1e58      	subs	r0, r3, #1
 8003534:	687b      	ldr	r3, [r7, #4]
 8003536:	6859      	ldr	r1, [r3, #4]
 8003538:	460b      	mov	r3, r1
 800353a:	009b      	lsls	r3, r3, #2
 800353c:	440b      	add	r3, r1
 800353e:	0099      	lsls	r1, r3, #2
 8003540:	440b      	add	r3, r1
 8003542:	fbb0 f3f3 	udiv	r3, r0, r3
 8003546:	3301      	adds	r3, #1
 8003548:	f3c3 030b 	ubfx	r3, r3, #0, #12
 800354c:	2b00      	cmp	r3, #0
 800354e:	bf0c      	ite	eq
 8003550:	2301      	moveq	r3, #1
 8003552:	2300      	movne	r3, #0
 8003554:	b2db      	uxtb	r3, r3
 8003556:	2b00      	cmp	r3, #0
 8003558:	d001      	beq.n	800355e <HAL_I2C_Init+0x196>
 800355a:	2301      	movs	r3, #1
 800355c:	e022      	b.n	80035a4 <HAL_I2C_Init+0x1dc>
 800355e:	687b      	ldr	r3, [r7, #4]
 8003560:	689b      	ldr	r3, [r3, #8]
 8003562:	2b00      	cmp	r3, #0
 8003564:	d10e      	bne.n	8003584 <HAL_I2C_Init+0x1bc>
 8003566:	68fb      	ldr	r3, [r7, #12]
 8003568:	1e58      	subs	r0, r3, #1
 800356a:	687b      	ldr	r3, [r7, #4]
 800356c:	6859      	ldr	r1, [r3, #4]
 800356e:	460b      	mov	r3, r1
 8003570:	005b      	lsls	r3, r3, #1
 8003572:	440b      	add	r3, r1
 8003574:	fbb0 f3f3 	udiv	r3, r0, r3
 8003578:	3301      	adds	r3, #1
 800357a:	f3c3 030b 	ubfx	r3, r3, #0, #12
 800357e:	f443 4300 	orr.w	r3, r3, #32768	@ 0x8000
 8003582:	e00f      	b.n	80035a4 <HAL_I2C_Init+0x1dc>
 8003584:	68fb      	ldr	r3, [r7, #12]
 8003586:	1e58      	subs	r0, r3, #1
 8003588:	687b      	ldr	r3, [r7, #4]
 800358a:	6859      	ldr	r1, [r3, #4]
 800358c:	460b      	mov	r3, r1
 800358e:	009b      	lsls	r3, r3, #2
 8003590:	440b      	add	r3, r1
 8003592:	0099      	lsls	r1, r3, #2
 8003594:	440b      	add	r3, r1
 8003596:	fbb0 f3f3 	udiv	r3, r0, r3
 800359a:	3301      	adds	r3, #1
 800359c:	f3c3 030b 	ubfx	r3, r3, #0, #12
 80035a0:	f443 4340 	orr.w	r3, r3, #49152	@ 0xc000
 80035a4:	6879      	ldr	r1, [r7, #4]
 80035a6:	6809      	ldr	r1, [r1, #0]
 80035a8:	4313      	orrs	r3, r2
 80035aa:	61cb      	str	r3, [r1, #28]

  /*---------------------------- I2Cx CR1 Configuration ----------------------*/
  /* Configure I2Cx: Generalcall and NoStretch mode */
  MODIFY_REG(hi2c->Instance->CR1, (I2C_CR1_ENGC | I2C_CR1_NOSTRETCH), (hi2c->Init.GeneralCallMode | hi2c->Init.NoStretchMode));
 80035ac:	687b      	ldr	r3, [r7, #4]
 80035ae:	681b      	ldr	r3, [r3, #0]
 80035b0:	681b      	ldr	r3, [r3, #0]
 80035b2:	f023 01c0 	bic.w	r1, r3, #192	@ 0xc0
 80035b6:	687b      	ldr	r3, [r7, #4]
 80035b8:	69da      	ldr	r2, [r3, #28]
 80035ba:	687b      	ldr	r3, [r7, #4]
 80035bc:	6a1b      	ldr	r3, [r3, #32]
 80035be:	431a      	orrs	r2, r3
 80035c0:	687b      	ldr	r3, [r7, #4]
 80035c2:	681b      	ldr	r3, [r3, #0]
 80035c4:	430a      	orrs	r2, r1
 80035c6:	601a      	str	r2, [r3, #0]

  /*---------------------------- I2Cx OAR1 Configuration ---------------------*/
  /* Configure I2Cx: Own Address1 and addressing mode */
  MODIFY_REG(hi2c->Instance->OAR1, (I2C_OAR1_ADDMODE | I2C_OAR1_ADD8_9 | I2C_OAR1_ADD1_7 | I2C_OAR1_ADD0), (hi2c->Init.AddressingMode | hi2c->Init.OwnAddress1));
 80035c8:	687b      	ldr	r3, [r7, #4]
 80035ca:	681b      	ldr	r3, [r3, #0]
 80035cc:	689b      	ldr	r3, [r3, #8]
 80035ce:	f423 4303 	bic.w	r3, r3, #33536	@ 0x8300
 80035d2:	f023 03ff 	bic.w	r3, r3, #255	@ 0xff
 80035d6:	687a      	ldr	r2, [r7, #4]
 80035d8:	6911      	ldr	r1, [r2, #16]
 80035da:	687a      	ldr	r2, [r7, #4]
 80035dc:	68d2      	ldr	r2, [r2, #12]
 80035de:	4311      	orrs	r1, r2
 80035e0:	687a      	ldr	r2, [r7, #4]
 80035e2:	6812      	ldr	r2, [r2, #0]
 80035e4:	430b      	orrs	r3, r1
 80035e6:	6093      	str	r3, [r2, #8]

  /*---------------------------- I2Cx OAR2 Configuration ---------------------*/
  /* Configure I2Cx: Dual mode and Own Address2 */
  MODIFY_REG(hi2c->Instance->OAR2, (I2C_OAR2_ENDUAL | I2C_OAR2_ADD2), (hi2c->Init.DualAddressMode | hi2c->Init.OwnAddress2));
 80035e8:	687b      	ldr	r3, [r7, #4]
 80035ea:	681b      	ldr	r3, [r3, #0]
 80035ec:	68db      	ldr	r3, [r3, #12]
 80035ee:	f023 01ff 	bic.w	r1, r3, #255	@ 0xff
 80035f2:	687b      	ldr	r3, [r7, #4]
 80035f4:	695a      	ldr	r2, [r3, #20]
 80035f6:	687b      	ldr	r3, [r7, #4]
 80035f8:	699b      	ldr	r3, [r3, #24]
 80035fa:	431a      	orrs	r2, r3
 80035fc:	687b      	ldr	r3, [r7, #4]
 80035fe:	681b      	ldr	r3, [r3, #0]
 8003600:	430a      	orrs	r2, r1
 8003602:	60da      	str	r2, [r3, #12]

  /* Enable the selected I2C peripheral */
  __HAL_I2C_ENABLE(hi2c);
 8003604:	687b      	ldr	r3, [r7, #4]
 8003606:	681b      	ldr	r3, [r3, #0]
 8003608:	681a      	ldr	r2, [r3, #0]
 800360a:	687b      	ldr	r3, [r7, #4]
 800360c:	681b      	ldr	r3, [r3, #0]
 800360e:	f042 0201 	orr.w	r2, r2, #1
 8003612:	601a      	str	r2, [r3, #0]

  hi2c->ErrorCode = HAL_I2C_ERROR_NONE;
 8003614:	687b      	ldr	r3, [r7, #4]
 8003616:	2200      	movs	r2, #0
 8003618:	641a      	str	r2, [r3, #64]	@ 0x40
  hi2c->State = HAL_I2C_STATE_READY;
 800361a:	687b      	ldr	r3, [r7, #4]
 800361c:	2220      	movs	r2, #32
 800361e:	f883 203d 	strb.w	r2, [r3, #61]	@ 0x3d
  hi2c->PreviousState = I2C_STATE_NONE;
 8003622:	687b      	ldr	r3, [r7, #4]
 8003624:	2200      	movs	r2, #0
 8003626:	631a      	str	r2, [r3, #48]	@ 0x30
  hi2c->Mode = HAL_I2C_MODE_NONE;
 8003628:	687b      	ldr	r3, [r7, #4]
 800362a:	2200      	movs	r2, #0
 800362c:	f883 203e 	strb.w	r2, [r3, #62]	@ 0x3e

  return HAL_OK;
 8003630:	2300      	movs	r3, #0
}
 8003632:	4618      	mov	r0, r3
 8003634:	3710      	adds	r7, #16
 8003636:	46bd      	mov	sp, r7
 8003638:	bd80      	pop	{r7, pc}
 800363a:	bf00      	nop
 800363c:	000186a0 	.word	0x000186a0
 8003640:	001e847f 	.word	0x001e847f
 8003644:	003d08ff 	.word	0x003d08ff
 8003648:	431bde83 	.word	0x431bde83
 800364c:	10624dd3 	.word	0x10624dd3

08003650 <HAL_I2C_Mem_Write>:
  * @param  Size Amount of data to be sent
  * @param  Timeout Timeout duration
  * @retval HAL status
  */
HAL_StatusTypeDef HAL_I2C_Mem_Write(I2C_HandleTypeDef *hi2c, uint16_t DevAddress, uint16_t MemAddress, uint16_t MemAddSize, uint8_t *pData, uint16_t Size, uint32_t Timeout)
{
 8003650:	b580      	push	{r7, lr}
 8003652:	b088      	sub	sp, #32
 8003654:	af02      	add	r7, sp, #8
 8003656:	60f8      	str	r0, [r7, #12]
 8003658:	4608      	mov	r0, r1
 800365a:	4611      	mov	r1, r2
 800365c:	461a      	mov	r2, r3
 800365e:	4603      	mov	r3, r0
 8003660:	817b      	strh	r3, [r7, #10]
 8003662:	460b      	mov	r3, r1
 8003664:	813b      	strh	r3, [r7, #8]
 8003666:	4613      	mov	r3, r2
 8003668:	80fb      	strh	r3, [r7, #6]
  /* Init tickstart for timeout management*/
  uint32_t tickstart = HAL_GetTick();
 800366a:	f7ff fbf9 	bl	8002e60 <HAL_GetTick>
 800366e:	6178      	str	r0, [r7, #20]

  /* Check the parameters */
  assert_param(IS_I2C_MEMADD_SIZE(MemAddSize));

  if (hi2c->State == HAL_I2C_STATE_READY)
 8003670:	68fb      	ldr	r3, [r7, #12]
 8003672:	f893 303d 	ldrb.w	r3, [r3, #61]	@ 0x3d
 8003676:	b2db      	uxtb	r3, r3
 8003678:	2b20      	cmp	r3, #32
 800367a:	f040 80d9 	bne.w	8003830 <HAL_I2C_Mem_Write+0x1e0>
  {
    /* Wait until BUSY flag is reset */
    if (I2C_WaitOnFlagUntilTimeout(hi2c, I2C_FLAG_BUSY, SET, I2C_TIMEOUT_BUSY_FLAG, tickstart) != HAL_OK)
 800367e:	697b      	ldr	r3, [r7, #20]
 8003680:	9300      	str	r3, [sp, #0]
 8003682:	2319      	movs	r3, #25
 8003684:	2201      	movs	r2, #1
 8003686:	496d      	ldr	r1, [pc, #436]	@ (800383c <HAL_I2C_Mem_Write+0x1ec>)
 8003688:	68f8      	ldr	r0, [r7, #12]
 800368a:	f000 fcc1 	bl	8004010 <I2C_WaitOnFlagUntilTimeout>
 800368e:	4603      	mov	r3, r0
 8003690:	2b00      	cmp	r3, #0
 8003692:	d001      	beq.n	8003698 <HAL_I2C_Mem_Write+0x48>
    {
      return HAL_BUSY;
 8003694:	2302      	movs	r3, #2
 8003696:	e0cc      	b.n	8003832 <HAL_I2C_Mem_Write+0x1e2>
    }

    /* Process Locked */
    __HAL_LOCK(hi2c);
 8003698:	68fb      	ldr	r3, [r7, #12]
 800369a:	f893 303c 	ldrb.w	r3, [r3, #60]	@ 0x3c
 800369e:	2b01      	cmp	r3, #1
 80036a0:	d101      	bne.n	80036a6 <HAL_I2C_Mem_Write+0x56>
 80036a2:	2302      	movs	r3, #2
 80036a4:	e0c5      	b.n	8003832 <HAL_I2C_Mem_Write+0x1e2>
 80036a6:	68fb      	ldr	r3, [r7, #12]
 80036a8:	2201      	movs	r2, #1
 80036aa:	f883 203c 	strb.w	r2, [r3, #60]	@ 0x3c

    /* Check if the I2C is already enabled */
    if ((hi2c->Instance->CR1 & I2C_CR1_PE) != I2C_CR1_PE)
 80036ae:	68fb      	ldr	r3, [r7, #12]
 80036b0:	681b      	ldr	r3, [r3, #0]
 80036b2:	681b      	ldr	r3, [r3, #0]
 80036b4:	f003 0301 	and.w	r3, r3, #1
 80036b8:	2b01      	cmp	r3, #1
 80036ba:	d007      	beq.n	80036cc <HAL_I2C_Mem_Write+0x7c>
    {
      /* Enable I2C peripheral */
      __HAL_I2C_ENABLE(hi2c);
 80036bc:	68fb      	ldr	r3, [r7, #12]
 80036be:	681b      	ldr	r3, [r3, #0]
 80036c0:	681a      	ldr	r2, [r3, #0]
 80036c2:	68fb      	ldr	r3, [r7, #12]
 80036c4:	681b      	ldr	r3, [r3, #0]
 80036c6:	f042 0201 	orr.w	r2, r2, #1
 80036ca:	601a      	str	r2, [r3, #0]
    }

    /* Disable Pos */
    CLEAR_BIT(hi2c->Instance->CR1, I2C_CR1_POS);
 80036cc:	68fb      	ldr	r3, [r7, #12]
 80036ce:	681b      	ldr	r3, [r3, #0]
 80036d0:	681a      	ldr	r2, [r3, #0]
 80036d2:	68fb      	ldr	r3, [r7, #12]
 80036d4:	681b      	ldr	r3, [r3, #0]
 80036d6:	f422 6200 	bic.w	r2, r2, #2048	@ 0x800
 80036da:	601a      	str	r2, [r3, #0]

    hi2c->State     = HAL_I2C_STATE_BUSY_TX;
 80036dc:	68fb      	ldr	r3, [r7, #12]
 80036de:	2221      	movs	r2, #33	@ 0x21
 80036e0:	f883 203d 	strb.w	r2, [r3, #61]	@ 0x3d
    hi2c->Mode      = HAL_I2C_MODE_MEM;
 80036e4:	68fb      	ldr	r3, [r7, #12]
 80036e6:	2240      	movs	r2, #64	@ 0x40
 80036e8:	f883 203e 	strb.w	r2, [r3, #62]	@ 0x3e
    hi2c->ErrorCode = HAL_I2C_ERROR_NONE;
 80036ec:	68fb      	ldr	r3, [r7, #12]
 80036ee:	2200      	movs	r2, #0
 80036f0:	641a      	str	r2, [r3, #64]	@ 0x40

    /* Prepare transfer parameters */
    hi2c->pBuffPtr    = pData;
 80036f2:	68fb      	ldr	r3, [r7, #12]
 80036f4:	6a3a      	ldr	r2, [r7, #32]
 80036f6:	625a      	str	r2, [r3, #36]	@ 0x24
    hi2c->XferCount   = Size;
 80036f8:	68fb      	ldr	r3, [r7, #12]
 80036fa:	8cba      	ldrh	r2, [r7, #36]	@ 0x24
 80036fc:	855a      	strh	r2, [r3, #42]	@ 0x2a
    hi2c->XferSize    = hi2c->XferCount;
 80036fe:	68fb      	ldr	r3, [r7, #12]
 8003700:	8d5b      	ldrh	r3, [r3, #42]	@ 0x2a
 8003702:	b29a      	uxth	r2, r3
 8003704:	68fb      	ldr	r3, [r7, #12]
 8003706:	851a      	strh	r2, [r3, #40]	@ 0x28
    hi2c->XferOptions = I2C_NO_OPTION_FRAME;
 8003708:	68fb      	ldr	r3, [r7, #12]
 800370a:	4a4d      	ldr	r2, [pc, #308]	@ (8003840 <HAL_I2C_Mem_Write+0x1f0>)
 800370c:	62da      	str	r2, [r3, #44]	@ 0x2c

    /* Send Slave Address and Memory Address */
    if (I2C_RequestMemoryWrite(hi2c, DevAddress, MemAddress, MemAddSize, Timeout, tickstart) != HAL_OK)
 800370e:	88f8      	ldrh	r0, [r7, #6]
 8003710:	893a      	ldrh	r2, [r7, #8]
 8003712:	8979      	ldrh	r1, [r7, #10]
 8003714:	697b      	ldr	r3, [r7, #20]
 8003716:	9301      	str	r3, [sp, #4]
 8003718:	6abb      	ldr	r3, [r7, #40]	@ 0x28
 800371a:	9300      	str	r3, [sp, #0]
 800371c:	4603      	mov	r3, r0
 800371e:	68f8      	ldr	r0, [r7, #12]
 8003720:	f000 faf8 	bl	8003d14 <I2C_RequestMemoryWrite>
 8003724:	4603      	mov	r3, r0
 8003726:	2b00      	cmp	r3, #0
 8003728:	d052      	beq.n	80037d0 <HAL_I2C_Mem_Write+0x180>
    {
      return HAL_ERROR;
 800372a:	2301      	movs	r3, #1
 800372c:	e081      	b.n	8003832 <HAL_I2C_Mem_Write+0x1e2>
    }

    while (hi2c->XferSize > 0U)
    {
      /* Wait until TXE flag is set */
      if (I2C_WaitOnTXEFlagUntilTimeout(hi2c, Timeout, tickstart) != HAL_OK)
 800372e:	697a      	ldr	r2, [r7, #20]
 8003730:	6ab9      	ldr	r1, [r7, #40]	@ 0x28
 8003732:	68f8      	ldr	r0, [r7, #12]
 8003734:	f000 fd86 	bl	8004244 <I2C_WaitOnTXEFlagUntilTimeout>
 8003738:	4603      	mov	r3, r0
 800373a:	2b00      	cmp	r3, #0
 800373c:	d00d      	beq.n	800375a <HAL_I2C_Mem_Write+0x10a>
      {
        if (hi2c->ErrorCode == HAL_I2C_ERROR_AF)
 800373e:	68fb      	ldr	r3, [r7, #12]
 8003740:	6c1b      	ldr	r3, [r3, #64]	@ 0x40
 8003742:	2b04      	cmp	r3, #4
 8003744:	d107      	bne.n	8003756 <HAL_I2C_Mem_Write+0x106>
        {
          /* Generate Stop */
          SET_BIT(hi2c->Instance->CR1, I2C_CR1_STOP);
 8003746:	68fb      	ldr	r3, [r7, #12]
 8003748:	681b      	ldr	r3, [r3, #0]
 800374a:	681a      	ldr	r2, [r3, #0]
 800374c:	68fb      	ldr	r3, [r7, #12]
 800374e:	681b      	ldr	r3, [r3, #0]
 8003750:	f442 7200 	orr.w	r2, r2, #512	@ 0x200
 8003754:	601a      	str	r2, [r3, #0]
        }
        return HAL_ERROR;
 8003756:	2301      	movs	r3, #1
 8003758:	e06b      	b.n	8003832 <HAL_I2C_Mem_Write+0x1e2>
      }

      /* Write data to DR */
      hi2c->Instance->DR = *hi2c->pBuffPtr;
 800375a:	68fb      	ldr	r3, [r7, #12]
 800375c:	6a5b      	ldr	r3, [r3, #36]	@ 0x24
 800375e:	781a      	ldrb	r2, [r3, #0]
 8003760:	68fb      	ldr	r3, [r7, #12]
 8003762:	681b      	ldr	r3, [r3, #0]
 8003764:	611a      	str	r2, [r3, #16]

      /* Increment Buffer pointer */
      hi2c->pBuffPtr++;
 8003766:	68fb      	ldr	r3, [r7, #12]
 8003768:	6a5b      	ldr	r3, [r3, #36]	@ 0x24
 800376a:	1c5a      	adds	r2, r3, #1
 800376c:	68fb      	ldr	r3, [r7, #12]
 800376e:	625a      	str	r2, [r3, #36]	@ 0x24

      /* Update counter */
      hi2c->XferSize--;
 8003770:	68fb      	ldr	r3, [r7, #12]
 8003772:	8d1b      	ldrh	r3, [r3, #40]	@ 0x28
 8003774:	3b01      	subs	r3, #1
 8003776:	b29a      	uxth	r2, r3
 8003778:	68fb      	ldr	r3, [r7, #12]
 800377a:	851a      	strh	r2, [r3, #40]	@ 0x28
      hi2c->XferCount--;
 800377c:	68fb      	ldr	r3, [r7, #12]
 800377e:	8d5b      	ldrh	r3, [r3, #42]	@ 0x2a
 8003780:	b29b      	uxth	r3, r3
 8003782:	3b01      	subs	r3, #1
 8003784:	b29a      	uxth	r2, r3
 8003786:	68fb      	ldr	r3, [r7, #12]
 8003788:	855a      	strh	r2, [r3, #42]	@ 0x2a

      if ((__HAL_I2C_GET_FLAG(hi2c, I2C_FLAG_BTF) == SET) && (hi2c->XferSize != 0U))
 800378a:	68fb      	ldr	r3, [r7, #12]
 800378c:	681b      	ldr	r3, [r3, #0]
 800378e:	695b      	ldr	r3, [r3, #20]
 8003790:	f003 0304 	and.w	r3, r3, #4
 8003794:	2b04      	cmp	r3, #4
 8003796:	d11b      	bne.n	80037d0 <HAL_I2C_Mem_Write+0x180>
 8003798:	68fb      	ldr	r3, [r7, #12]
 800379a:	8d1b      	ldrh	r3, [r3, #40]	@ 0x28
 800379c:	2b00      	cmp	r3, #0
 800379e:	d017      	beq.n	80037d0 <HAL_I2C_Mem_Write+0x180>
      {
        /* Write data to DR */
        hi2c->Instance->DR = *hi2c->pBuffPtr;
 80037a0:	68fb      	ldr	r3, [r7, #12]
 80037a2:	6a5b      	ldr	r3, [r3, #36]	@ 0x24
 80037a4:	781a      	ldrb	r2, [r3, #0]
 80037a6:	68fb      	ldr	r3, [r7, #12]
 80037a8:	681b      	ldr	r3, [r3, #0]
 80037aa:	611a      	str	r2, [r3, #16]

        /* Increment Buffer pointer */
        hi2c->pBuffPtr++;
 80037ac:	68fb      	ldr	r3, [r7, #12]
 80037ae:	6a5b      	ldr	r3, [r3, #36]	@ 0x24
 80037b0:	1c5a      	adds	r2, r3, #1
 80037b2:	68fb      	ldr	r3, [r7, #12]
 80037b4:	625a      	str	r2, [r3, #36]	@ 0x24

        /* Update counter */
        hi2c->XferSize--;
 80037b6:	68fb      	ldr	r3, [r7, #12]
 80037b8:	8d1b      	ldrh	r3, [r3, #40]	@ 0x28
 80037ba:	3b01      	subs	r3, #1
 80037bc:	b29a      	uxth	r2, r3
 80037be:	68fb      	ldr	r3, [r7, #12]
 80037c0:	851a      	strh	r2, [r3, #40]	@ 0x28
        hi2c->XferCount--;
 80037c2:	68fb      	ldr	r3, [r7, #12]
 80037c4:	8d5b      	ldrh	r3, [r3, #42]	@ 0x2a
 80037c6:	b29b      	uxth	r3, r3
 80037c8:	3b01      	subs	r3, #1
 80037ca:	b29a      	uxth	r2, r3
 80037cc:	68fb      	ldr	r3, [r7, #12]
 80037ce:	855a      	strh	r2, [r3, #42]	@ 0x2a
    while (hi2c->XferSize > 0U)
 80037d0:	68fb      	ldr	r3, [r7, #12]
 80037d2:	8d1b      	ldrh	r3, [r3, #40]	@ 0x28
 80037d4:	2b00      	cmp	r3, #0
 80037d6:	d1aa      	bne.n	800372e <HAL_I2C_Mem_Write+0xde>
      }
    }

    /* Wait until BTF flag is set */
    if (I2C_WaitOnBTFFlagUntilTimeout(hi2c, Timeout, tickstart) != HAL_OK)
 80037d8:	697a      	ldr	r2, [r7, #20]
 80037da:	6ab9      	ldr	r1, [r7, #40]	@ 0x28
 80037dc:	68f8      	ldr	r0, [r7, #12]
 80037de:	f000 fd79 	bl	80042d4 <I2C_WaitOnBTFFlagUntilTimeout>
 80037e2:	4603      	mov	r3, r0
 80037e4:	2b00      	cmp	r3, #0
 80037e6:	d00d      	beq.n	8003804 <HAL_I2C_Mem_Write+0x1b4>
    {
      if (hi2c->ErrorCode == HAL_I2C_ERROR_AF)
 80037e8:	68fb      	ldr	r3, [r7, #12]
 80037ea:	6c1b      	ldr	r3, [r3, #64]	@ 0x40
 80037ec:	2b04      	cmp	r3, #4
 80037ee:	d107      	bne.n	8003800 <HAL_I2C_Mem_Write+0x1b0>
      {
        /* Generate Stop */
        SET_BIT(hi2c->Instance->CR1, I2C_CR1_STOP);
 80037f0:	68fb      	ldr	r3, [r7, #12]
 80037f2:	681b      	ldr	r3, [r3, #0]
 80037f4:	681a      	ldr	r2, [r3, #0]
 80037f6:	68fb      	ldr	r3, [r7, #12]
 80037f8:	681b      	ldr	r3, [r3, #0]
 80037fa:	f442 7200 	orr.w	r2, r2, #512	@ 0x200
 80037fe:	601a      	str	r2, [r3, #0]
      }
      return HAL_ERROR;
 8003800:	2301      	movs	r3, #1
 8003802:	e016      	b.n	8003832 <HAL_I2C_Mem_Write+0x1e2>
    }

    /* Generate Stop */
    SET_BIT(hi2c->Instance->CR1, I2C_CR1_STOP);
 8003804:	68fb      	ldr	r3, [r7, #12]
 8003806:	681b      	ldr	r3, [r3, #0]
 8003808:	681a      	ldr	r2, [r3, #0]
 800380a:	68fb      	ldr	r3, [r7, #12]
 800380c:	681b      	ldr	r3, [r3, #0]
 800380e:	f442 7200 	orr.w	r2, r2, #512	@ 0x200
 8003812:	601a      	str	r2, [r3, #0]

    hi2c->State = HAL_I2C_STATE_READY;
 8003814:	68fb      	ldr	r3, [r7, #12]
 8003816:	2220      	movs	r2, #32
 8003818:	f883 203d 	strb.w	r2, [r3, #61]	@ 0x3d
    hi2c->Mode = HAL_I2C_MODE_NONE;
 800381c:	68fb      	ldr	r3, [r7, #12]
 800381e:	2200      	movs	r2, #0
 8003820:	f883 203e 	strb.w	r2, [r3, #62]	@ 0x3e

    /* Process Unlocked */
    __HAL_UNLOCK(hi2c);
 8003824:	68fb      	ldr	r3, [r7, #12]
 8003826:	2200      	movs	r2, #0
 8003828:	f883 203c 	strb.w	r2, [r3, #60]	@ 0x3c

    return HAL_OK;
 800382c:	2300      	movs	r3, #0
 800382e:	e000      	b.n	8003832 <HAL_I2C_Mem_Write+0x1e2>
  }
  else
  {
    return HAL_BUSY;
 8003830:	2302      	movs	r3, #2
  }
}
 8003832:	4618      	mov	r0, r3
 8003834:	3718      	adds	r7, #24
 8003836:	46bd      	mov	sp, r7
 8003838:	bd80      	pop	{r7, pc}
 800383a:	bf00      	nop
 800383c:	00100002 	.word	0x00100002
 8003840:	ffff0000 	.word	0xffff0000

08003844 <HAL_I2C_Mem_Read>:
  * @param  Size Amount of data to be sent
  * @param  Timeout Timeout duration
  * @retval HAL status
  */
HAL_StatusTypeDef HAL_I2C_Mem_Read(I2C_HandleTypeDef *hi2c, uint16_t DevAddress, uint16_t MemAddress, uint16_t MemAddSize, uint8_t *pData, uint16_t Size, uint32_t Timeout)
{
 8003844:	b580      	push	{r7, lr}
 8003846:	b08c      	sub	sp, #48	@ 0x30
 8003848:	af02      	add	r7, sp, #8
 800384a:	60f8      	str	r0, [r7, #12]
 800384c:	4608      	mov	r0, r1
 800384e:	4611      	mov	r1, r2
 8003850:	461a      	mov	r2, r3
 8003852:	4603      	mov	r3, r0
 8003854:	817b      	strh	r3, [r7, #10]
 8003856:	460b      	mov	r3, r1
 8003858:	813b      	strh	r3, [r7, #8]
 800385a:	4613      	mov	r3, r2
 800385c:	80fb      	strh	r3, [r7, #6]
  __IO uint32_t count = 0U;
 800385e:	2300      	movs	r3, #0
 8003860:	623b      	str	r3, [r7, #32]

  /* Init tickstart for timeout management*/
  uint32_t tickstart = HAL_GetTick();
 8003862:	f7ff fafd 	bl	8002e60 <HAL_GetTick>
 8003866:	6278      	str	r0, [r7, #36]	@ 0x24

  /* Check the parameters */
  assert_param(IS_I2C_MEMADD_SIZE(MemAddSize));

  if (hi2c->State == HAL_I2C_STATE_READY)
 8003868:	68fb      	ldr	r3, [r7, #12]
 800386a:	f893 303d 	ldrb.w	r3, [r3, #61]	@ 0x3d
 800386e:	b2db      	uxtb	r3, r3
 8003870:	2b20      	cmp	r3, #32
 8003872:	f040 8244 	bne.w	8003cfe <HAL_I2C_Mem_Read+0x4ba>
  {
    /* Wait until BUSY flag is reset */
    if (I2C_WaitOnFlagUntilTimeout(hi2c, I2C_FLAG_BUSY, SET, I2C_TIMEOUT_BUSY_FLAG, tickstart) != HAL_OK)
 8003876:	6a7b      	ldr	r3, [r7, #36]	@ 0x24
 8003878:	9300      	str	r3, [sp, #0]
 800387a:	2319      	movs	r3, #25
 800387c:	2201      	movs	r2, #1
 800387e:	4982      	ldr	r1, [pc, #520]	@ (8003a88 <HAL_I2C_Mem_Read+0x244>)
 8003880:	68f8      	ldr	r0, [r7, #12]
 8003882:	f000 fbc5 	bl	8004010 <I2C_WaitOnFlagUntilTimeout>
 8003886:	4603      	mov	r3, r0
 8003888:	2b00      	cmp	r3, #0
 800388a:	d001      	beq.n	8003890 <HAL_I2C_Mem_Read+0x4c>
    {
      return HAL_BUSY;
 800388c:	2302      	movs	r3, #2
 800388e:	e237      	b.n	8003d00 <HAL_I2C_Mem_Read+0x4bc>
    }

    /* Process Locked */
    __HAL_LOCK(hi2c);
 8003890:	68fb      	ldr	r3, [r7, #12]
 8003892:	f893 303c 	ldrb.w	r3, [r3, #60]	@ 0x3c
 8003896:	2b01      	cmp	r3, #1
 8003898:	d101      	bne.n	800389e <HAL_I2C_Mem_Read+0x5a>
 800389a:	2302      	movs	r3, #2
 800389c:	e230      	b.n	8003d00 <HAL_I2C_Mem_Read+0x4bc>
 800389e:	68fb      	ldr	r3, [r7, #12]
 80038a0:	2201      	movs	r2, #1
 80038a2:	f883 203c 	strb.w	r2, [r3, #60]	@ 0x3c

    /* Check if the I2C is already enabled */
    if ((hi2c->Instance->CR1 & I2C_CR1_PE) != I2C_CR1_PE)
 80038a6:	68fb      	ldr	r3, [r7, #12]
 80038a8:	681b      	ldr	r3, [r3, #0]
 80038aa:	681b      	ldr	r3, [r3, #0]
 80038ac:	f003 0301 	and.w	r3, r3, #1
 80038b0:	2b01      	cmp	r3, #1
 80038b2:	d007      	beq.n	80038c4 <HAL_I2C_Mem_Read+0x80>
    {
      /* Enable I2C peripheral */
      __HAL_I2C_ENABLE(hi2c);
 80038b4:	68fb      	ldr	r3, [r7, #12]
 80038b6:	681b      	ldr	r3, [r3, #0]
 80038b8:	681a      	ldr	r2, [r3, #0]
 80038ba:	68fb      	ldr	r3, [r7, #12]
 80038bc:	681b      	ldr	r3, [r3, #0]
 80038be:	f042 0201 	orr.w	r2, r2, #1
 80038c2:	601a      	str	r2, [r3, #0]
    }

    /* Disable Pos */
    CLEAR_BIT(hi2c->Instance->CR1, I2C_CR1_POS);
 80038c4:	68fb      	ldr	r3, [r7, #12]
 80038c6:	681b      	ldr	r3, [r3, #0]
 80038c8:	681a      	ldr	r2, [r3, #0]
 80038ca:	68fb      	ldr	r3, [r7, #12]
 80038cc:	681b      	ldr	r3, [r3, #0]
 80038ce:	f422 6200 	bic.w	r2, r2, #2048	@ 0x800
 80038d2:	601a      	str	r2, [r3, #0]

    hi2c->State     = HAL_I2C_STATE_BUSY_RX;
 80038d4:	68fb      	ldr	r3, [r7, #12]
 80038d6:	2222      	movs	r2, #34	@ 0x22
 80038d8:	f883 203d 	strb.w	r2, [r3, #61]	@ 0x3d
    hi2c->Mode      = HAL_I2C_MODE_MEM;
 80038dc:	68fb      	ldr	r3, [r7, #12]
 80038de:	2240      	movs	r2, #64	@ 0x40
 80038e0:	f883 203e 	strb.w	r2, [r3, #62]	@ 0x3e
    hi2c->ErrorCode = HAL_I2C_ERROR_NONE;
 80038e4:	68fb      	ldr	r3, [r7, #12]
 80038e6:	2200      	movs	r2, #0
 80038e8:	641a      	str	r2, [r3, #64]	@ 0x40

    /* Prepare transfer parameters */
    hi2c->pBuffPtr    = pData;
 80038ea:	68fb      	ldr	r3, [r7, #12]
 80038ec:	6b3a      	ldr	r2, [r7, #48]	@ 0x30
 80038ee:	625a      	str	r2, [r3, #36]	@ 0x24
    hi2c->XferCount   = Size;
 80038f0:	68fb      	ldr	r3, [r7, #12]
 80038f2:	8eba      	ldrh	r2, [r7, #52]	@ 0x34
 80038f4:	855a      	strh	r2, [r3, #42]	@ 0x2a
    hi2c->XferSize    = hi2c->XferCount;
 80038f6:	68fb      	ldr	r3, [r7, #12]
 80038f8:	8d5b      	ldrh	r3, [r3, #42]	@ 0x2a
 80038fa:	b29a      	uxth	r2, r3
 80038fc:	68fb      	ldr	r3, [r7, #12]
 80038fe:	851a      	strh	r2, [r3, #40]	@ 0x28
    hi2c->XferOptions = I2C_NO_OPTION_FRAME;
 8003900:	68fb      	ldr	r3, [r7, #12]
 8003902:	4a62      	ldr	r2, [pc, #392]	@ (8003a8c <HAL_I2C_Mem_Read+0x248>)
 8003904:	62da      	str	r2, [r3, #44]	@ 0x2c

    /* Send Slave Address and Memory Address */
    if (I2C_RequestMemoryRead(hi2c, DevAddress, MemAddress, MemAddSize, Timeout, tickstart) != HAL_OK)
 8003906:	88f8      	ldrh	r0, [r7, #6]
 8003908:	893a      	ldrh	r2, [r7, #8]
 800390a:	8979      	ldrh	r1, [r7, #10]
 800390c:	6a7b      	ldr	r3, [r7, #36]	@ 0x24
 800390e:	9301      	str	r3, [sp, #4]
 8003910:	6bbb      	ldr	r3, [r7, #56]	@ 0x38
 8003912:	9300      	str	r3, [sp, #0]
 8003914:	4603      	mov	r3, r0
 8003916:	68f8      	ldr	r0, [r7, #12]
 8003918:	f000 fa92 	bl	8003e40 <I2C_RequestMemoryRead>
 800391c:	4603      	mov	r3, r0
 800391e:	2b00      	cmp	r3, #0
 8003920:	d001      	beq.n	8003926 <HAL_I2C_Mem_Read+0xe2>
    {
      return HAL_ERROR;
 8003922:	2301      	movs	r3, #1
 8003924:	e1ec      	b.n	8003d00 <HAL_I2C_Mem_Read+0x4bc>
    }

    if (hi2c->XferSize == 0U)
 8003926:	68fb      	ldr	r3, [r7, #12]
 8003928:	8d1b      	ldrh	r3, [r3, #40]	@ 0x28
 800392a:	2b00      	cmp	r3, #0
 800392c:	d113      	bne.n	8003956 <HAL_I2C_Mem_Read+0x112>
    {
      /* Clear ADDR flag */
      __HAL_I2C_CLEAR_ADDRFLAG(hi2c);
 800392e:	2300      	movs	r3, #0
 8003930:	61fb      	str	r3, [r7, #28]
 8003932:	68fb      	ldr	r3, [r7, #12]
 8003934:	681b      	ldr	r3, [r3, #0]
 8003936:	695b      	ldr	r3, [r3, #20]
 8003938:	61fb      	str	r3, [r7, #28]
 800393a:	68fb      	ldr	r3, [r7, #12]
 800393c:	681b      	ldr	r3, [r3, #0]
 800393e:	699b      	ldr	r3, [r3, #24]
 8003940:	61fb      	str	r3, [r7, #28]
 8003942:	69fb      	ldr	r3, [r7, #28]

      /* Generate Stop */
      SET_BIT(hi2c->Instance->CR1, I2C_CR1_STOP);
 8003944:	68fb      	ldr	r3, [r7, #12]
 8003946:	681b      	ldr	r3, [r3, #0]
 8003948:	681a      	ldr	r2, [r3, #0]
 800394a:	68fb      	ldr	r3, [r7, #12]
 800394c:	681b      	ldr	r3, [r3, #0]
 800394e:	f442 7200 	orr.w	r2, r2, #512	@ 0x200
 8003952:	601a      	str	r2, [r3, #0]
 8003954:	e1c0      	b.n	8003cd8 <HAL_I2C_Mem_Read+0x494>
    }
    else if (hi2c->XferSize == 1U)
 8003956:	68fb      	ldr	r3, [r7, #12]
 8003958:	8d1b      	ldrh	r3, [r3, #40]	@ 0x28
 800395a:	2b01      	cmp	r3, #1
 800395c:	d11e      	bne.n	800399c <HAL_I2C_Mem_Read+0x158>
    {
      /* Disable Acknowledge */
      CLEAR_BIT(hi2c->Instance->CR1, I2C_CR1_ACK);
 800395e:	68fb      	ldr	r3, [r7, #12]
 8003960:	681b      	ldr	r3, [r3, #0]
 8003962:	681a      	ldr	r2, [r3, #0]
 8003964:	68fb      	ldr	r3, [r7, #12]
 8003966:	681b      	ldr	r3, [r3, #0]
 8003968:	f422 6280 	bic.w	r2, r2, #1024	@ 0x400
 800396c:	601a      	str	r2, [r3, #0]
  __ASM volatile ("cpsid i" : : : "memory");
 800396e:	b672      	cpsid	i
}
 8003970:	bf00      	nop
      /* Disable all active IRQs around ADDR clearing and STOP programming because the EV6_3
         software sequence must complete before the current byte end of transfer */
      __disable_irq();

      /* Clear ADDR flag */
      __HAL_I2C_CLEAR_ADDRFLAG(hi2c);
 8003972:	2300      	movs	r3, #0
 8003974:	61bb      	str	r3, [r7, #24]
 8003976:	68fb      	ldr	r3, [r7, #12]
 8003978:	681b      	ldr	r3, [r3, #0]
 800397a:	695b      	ldr	r3, [r3, #20]
 800397c:	61bb      	str	r3, [r7, #24]
 800397e:	68fb      	ldr	r3, [r7, #12]
 8003980:	681b      	ldr	r3, [r3, #0]
 8003982:	699b      	ldr	r3, [r3, #24]
 8003984:	61bb      	str	r3, [r7, #24]
 8003986:	69bb      	ldr	r3, [r7, #24]

      /* Generate Stop */
      SET_BIT(hi2c->Instance->CR1, I2C_CR1_STOP);
 8003988:	68fb      	ldr	r3, [r7, #12]
 800398a:	681b      	ldr	r3, [r3, #0]
 800398c:	681a      	ldr	r2, [r3, #0]
 800398e:	68fb      	ldr	r3, [r7, #12]
 8003990:	681b      	ldr	r3, [r3, #0]
 8003992:	f442 7200 	orr.w	r2, r2, #512	@ 0x200
 8003996:	601a      	str	r2, [r3, #0]
  __ASM volatile ("cpsie i" : : : "memory");
 8003998:	b662      	cpsie	i
}
 800399a:	e035      	b.n	8003a08 <HAL_I2C_Mem_Read+0x1c4>

      /* Re-enable IRQs */
      __enable_irq();
    }
    else if (hi2c->XferSize == 2U)
 800399c:	68fb      	ldr	r3, [r7, #12]
 800399e:	8d1b      	ldrh	r3, [r3, #40]	@ 0x28
 80039a0:	2b02      	cmp	r3, #2
 80039a2:	d11e      	bne.n	80039e2 <HAL_I2C_Mem_Read+0x19e>
    {
      /* Enable Pos */
      SET_BIT(hi2c->Instance->CR1, I2C_CR1_POS);
 80039a4:	68fb      	ldr	r3, [r7, #12]
 80039a6:	681b      	ldr	r3, [r3, #0]
 80039a8:	681a      	ldr	r2, [r3, #0]
 80039aa:	68fb      	ldr	r3, [r7, #12]
 80039ac:	681b      	ldr	r3, [r3, #0]
 80039ae:	f442 6200 	orr.w	r2, r2, #2048	@ 0x800
 80039b2:	601a      	str	r2, [r3, #0]
  __ASM volatile ("cpsid i" : : : "memory");
 80039b4:	b672      	cpsid	i
}
 80039b6:	bf00      	nop
      /* Disable all active IRQs around ADDR clearing and STOP programming because the EV6_3
         software sequence must complete before the current byte end of transfer */
      __disable_irq();

      /* Clear ADDR flag */
      __HAL_I2C_CLEAR_ADDRFLAG(hi2c);
 80039b8:	2300      	movs	r3, #0
 80039ba:	617b      	str	r3, [r7, #20]
 80039bc:	68fb      	ldr	r3, [r7, #12]
 80039be:	681b      	ldr	r3, [r3, #0]
 80039c0:	695b      	ldr	r3, [r3, #20]
 80039c2:	617b      	str	r3, [r7, #20]
 80039c4:	68fb      	ldr	r3, [r7, #12]
 80039c6:	681b      	ldr	r3, [r3, #0]
 80039c8:	699b      	ldr	r3, [r3, #24]
 80039ca:	617b      	str	r3, [r7, #20]
 80039cc:	697b      	ldr	r3, [r7, #20]

      /* Disable Acknowledge */
      CLEAR_BIT(hi2c->Instance->CR1, I2C_CR1_ACK);
 80039ce:	68fb      	ldr	r3, [r7, #12]
 80039d0:	681b      	ldr	r3, [r3, #0]
 80039d2:	681a      	ldr	r2, [r3, #0]
 80039d4:	68fb      	ldr	r3, [r7, #12]
 80039d6:	681b      	ldr	r3, [r3, #0]
 80039d8:	f422 6280 	bic.w	r2, r2, #1024	@ 0x400
 80039dc:	601a      	str	r2, [r3, #0]
  __ASM volatile ("cpsie i" : : : "memory");
 80039de:	b662      	cpsie	i
}
 80039e0:	e012      	b.n	8003a08 <HAL_I2C_Mem_Read+0x1c4>
      __enable_irq();
    }
    else
    {
      /* Enable Acknowledge */
      SET_BIT(hi2c->Instance->CR1, I2C_CR1_ACK);
 80039e2:	68fb      	ldr	r3, [r7, #12]
 80039e4:	681b      	ldr	r3, [r3, #0]
 80039e6:	681a      	ldr	r2, [r3, #0]
 80039e8:	68fb      	ldr	r3, [r7, #12]
 80039ea:	681b      	ldr	r3, [r3, #0]
 80039ec:	f442 6280 	orr.w	r2, r2, #1024	@ 0x400
 80039f0:	601a      	str	r2, [r3, #0]
      /* Clear ADDR flag */
      __HAL_I2C_CLEAR_ADDRFLAG(hi2c);
 80039f2:	2300      	movs	r3, #0
 80039f4:	613b      	str	r3, [r7, #16]
 80039f6:	68fb      	ldr	r3, [r7, #12]
 80039f8:	681b      	ldr	r3, [r3, #0]
 80039fa:	695b      	ldr	r3, [r3, #20]
 80039fc:	613b      	str	r3, [r7, #16]
 80039fe:	68fb      	ldr	r3, [r7, #12]
 8003a00:	681b      	ldr	r3, [r3, #0]
 8003a02:	699b      	ldr	r3, [r3, #24]
 8003a04:	613b      	str	r3, [r7, #16]
 8003a06:	693b      	ldr	r3, [r7, #16]
    }

    while (hi2c->XferSize > 0U)
 8003a08:	e166      	b.n	8003cd8 <HAL_I2C_Mem_Read+0x494>
    {
      if (hi2c->XferSize <= 3U)
 8003a0a:	68fb      	ldr	r3, [r7, #12]
 8003a0c:	8d1b      	ldrh	r3, [r3, #40]	@ 0x28
 8003a0e:	2b03      	cmp	r3, #3
 8003a10:	f200 811f 	bhi.w	8003c52 <HAL_I2C_Mem_Read+0x40e>
      {
        /* One byte */
        if (hi2c->XferSize == 1U)
 8003a14:	68fb      	ldr	r3, [r7, #12]
 8003a16:	8d1b      	ldrh	r3, [r3, #40]	@ 0x28
 8003a18:	2b01      	cmp	r3, #1
 8003a1a:	d123      	bne.n	8003a64 <HAL_I2C_Mem_Read+0x220>
        {
          /* Wait until RXNE flag is set */
          if (I2C_WaitOnRXNEFlagUntilTimeout(hi2c, Timeout, tickstart) != HAL_OK)
 8003a1c:	6a7a      	ldr	r2, [r7, #36]	@ 0x24
 8003a1e:	6bb9      	ldr	r1, [r7, #56]	@ 0x38
 8003a20:	68f8      	ldr	r0, [r7, #12]
 8003a22:	f000 fc9f 	bl	8004364 <I2C_WaitOnRXNEFlagUntilTimeout>
 8003a26:	4603      	mov	r3, r0
 8003a28:	2b00      	cmp	r3, #0
 8003a2a:	d001      	beq.n	8003a30 <HAL_I2C_Mem_Read+0x1ec>
          {
            return HAL_ERROR;
 8003a2c:	2301      	movs	r3, #1
 8003a2e:	e167      	b.n	8003d00 <HAL_I2C_Mem_Read+0x4bc>
          }

          /* Read data from DR */
          *hi2c->pBuffPtr = (uint8_t)hi2c->Instance->DR;
 8003a30:	68fb      	ldr	r3, [r7, #12]
 8003a32:	681b      	ldr	r3, [r3, #0]
 8003a34:	691a      	ldr	r2, [r3, #16]
 8003a36:	68fb      	ldr	r3, [r7, #12]
 8003a38:	6a5b      	ldr	r3, [r3, #36]	@ 0x24
 8003a3a:	b2d2      	uxtb	r2, r2
 8003a3c:	701a      	strb	r2, [r3, #0]

          /* Increment Buffer pointer */
          hi2c->pBuffPtr++;
 8003a3e:	68fb      	ldr	r3, [r7, #12]
 8003a40:	6a5b      	ldr	r3, [r3, #36]	@ 0x24
 8003a42:	1c5a      	adds	r2, r3, #1
 8003a44:	68fb      	ldr	r3, [r7, #12]
 8003a46:	625a      	str	r2, [r3, #36]	@ 0x24

          /* Update counter */
          hi2c->XferSize--;
 8003a48:	68fb      	ldr	r3, [r7, #12]
 8003a4a:	8d1b      	ldrh	r3, [r3, #40]	@ 0x28
 8003a4c:	3b01      	subs	r3, #1
 8003a4e:	b29a      	uxth	r2, r3
 8003a50:	68fb      	ldr	r3, [r7, #12]
 8003a52:	851a      	strh	r2, [r3, #40]	@ 0x28
          hi2c->XferCount--;
 8003a54:	68fb      	ldr	r3, [r7, #12]
 8003a56:	8d5b      	ldrh	r3, [r3, #42]	@ 0x2a
 8003a58:	b29b      	uxth	r3, r3
 8003a5a:	3b01      	subs	r3, #1
 8003a5c:	b29a      	uxth	r2, r3
 8003a5e:	68fb      	ldr	r3, [r7, #12]
 8003a60:	855a      	strh	r2, [r3, #42]	@ 0x2a
 8003a62:	e139      	b.n	8003cd8 <HAL_I2C_Mem_Read+0x494>
        }
        /* Two bytes */
        else if (hi2c->XferSize == 2U)
 8003a64:	68fb      	ldr	r3, [r7, #12]
 8003a66:	8d1b      	ldrh	r3, [r3, #40]	@ 0x28
 8003a68:	2b02      	cmp	r3, #2
 8003a6a:	d152      	bne.n	8003b12 <HAL_I2C_Mem_Read+0x2ce>
        {
          /* Wait until BTF flag is set */
          if (I2C_WaitOnFlagUntilTimeout(hi2c, I2C_FLAG_BTF, RESET, Timeout, tickstart) != HAL_OK)
 8003a6c:	6a7b      	ldr	r3, [r7, #36]	@ 0x24
 8003a6e:	9300      	str	r3, [sp, #0]
 8003a70:	6bbb      	ldr	r3, [r7, #56]	@ 0x38
 8003a72:	2200      	movs	r2, #0
 8003a74:	4906      	ldr	r1, [pc, #24]	@ (8003a90 <HAL_I2C_Mem_Read+0x24c>)
 8003a76:	68f8      	ldr	r0, [r7, #12]
 8003a78:	f000 faca 	bl	8004010 <I2C_WaitOnFlagUntilTimeout>
 8003a7c:	4603      	mov	r3, r0
 8003a7e:	2b00      	cmp	r3, #0
 8003a80:	d008      	beq.n	8003a94 <HAL_I2C_Mem_Read+0x250>
          {
            return HAL_ERROR;
 8003a82:	2301      	movs	r3, #1
 8003a84:	e13c      	b.n	8003d00 <HAL_I2C_Mem_Read+0x4bc>
 8003a86:	bf00      	nop
 8003a88:	00100002 	.word	0x00100002
 8003a8c:	ffff0000 	.word	0xffff0000
 8003a90:	00010004 	.word	0x00010004
  __ASM volatile ("cpsid i" : : : "memory");
 8003a94:	b672      	cpsid	i
}
 8003a96:	bf00      	nop
          /* Disable all active IRQs around ADDR clearing and STOP programming because the EV6_3
             software sequence must complete before the current byte end of transfer */
          __disable_irq();

          /* Generate Stop */
          SET_BIT(hi2c->Instance->CR1, I2C_CR1_STOP);
 8003a98:	68fb      	ldr	r3, [r7, #12]
 8003a9a:	681b      	ldr	r3, [r3, #0]
 8003a9c:	681a      	ldr	r2, [r3, #0]
 8003a9e:	68fb      	ldr	r3, [r7, #12]
 8003aa0:	681b      	ldr	r3, [r3, #0]
 8003aa2:	f442 7200 	orr.w	r2, r2, #512	@ 0x200
 8003aa6:	601a      	str	r2, [r3, #0]

          /* Read data from DR */
          *hi2c->pBuffPtr = (uint8_t)hi2c->Instance->DR;
 8003aa8:	68fb      	ldr	r3, [r7, #12]
 8003aaa:	681b      	ldr	r3, [r3, #0]
 8003aac:	691a      	ldr	r2, [r3, #16]
 8003aae:	68fb      	ldr	r3, [r7, #12]
 8003ab0:	6a5b      	ldr	r3, [r3, #36]	@ 0x24
 8003ab2:	b2d2      	uxtb	r2, r2
 8003ab4:	701a      	strb	r2, [r3, #0]

          /* Increment Buffer pointer */
          hi2c->pBuffPtr++;
 8003ab6:	68fb      	ldr	r3, [r7, #12]
 8003ab8:	6a5b      	ldr	r3, [r3, #36]	@ 0x24
 8003aba:	1c5a      	adds	r2, r3, #1
 8003abc:	68fb      	ldr	r3, [r7, #12]
 8003abe:	625a      	str	r2, [r3, #36]	@ 0x24

          /* Update counter */
          hi2c->XferSize--;
 8003ac0:	68fb      	ldr	r3, [r7, #12]
 8003ac2:	8d1b      	ldrh	r3, [r3, #40]	@ 0x28
 8003ac4:	3b01      	subs	r3, #1
 8003ac6:	b29a      	uxth	r2, r3
 8003ac8:	68fb      	ldr	r3, [r7, #12]
 8003aca:	851a      	strh	r2, [r3, #40]	@ 0x28
          hi2c->XferCount--;
 8003acc:	68fb      	ldr	r3, [r7, #12]
 8003ace:	8d5b      	ldrh	r3, [r3, #42]	@ 0x2a
 8003ad0:	b29b      	uxth	r3, r3
 8003ad2:	3b01      	subs	r3, #1
 8003ad4:	b29a      	uxth	r2, r3
 8003ad6:	68fb      	ldr	r3, [r7, #12]
 8003ad8:	855a      	strh	r2, [r3, #42]	@ 0x2a
  __ASM volatile ("cpsie i" : : : "memory");
 8003ada:	b662      	cpsie	i
}
 8003adc:	bf00      	nop

          /* Re-enable IRQs */
          __enable_irq();

          /* Read data from DR */
          *hi2c->pBuffPtr = (uint8_t)hi2c->Instance->DR;
 8003ade:	68fb      	ldr	r3, [r7, #12]
 8003ae0:	681b      	ldr	r3, [r3, #0]
 8003ae2:	691a      	ldr	r2, [r3, #16]
 8003ae4:	68fb      	ldr	r3, [r7, #12]
 8003ae6:	6a5b      	ldr	r3, [r3, #36]	@ 0x24
 8003ae8:	b2d2      	uxtb	r2, r2
 8003aea:	701a      	strb	r2, [r3, #0]

          /* Increment Buffer pointer */
          hi2c->pBuffPtr++;
 8003aec:	68fb      	ldr	r3, [r7, #12]
 8003aee:	6a5b      	ldr	r3, [r3, #36]	@ 0x24
 8003af0:	1c5a      	adds	r2, r3, #1
 8003af2:	68fb      	ldr	r3, [r7, #12]
 8003af4:	625a      	str	r2, [r3, #36]	@ 0x24

          /* Update counter */
          hi2c->XferSize--;
 8003af6:	68fb      	ldr	r3, [r7, #12]
 8003af8:	8d1b      	ldrh	r3, [r3, #40]	@ 0x28
 8003afa:	3b01      	subs	r3, #1
 8003afc:	b29a      	uxth	r2, r3
 8003afe:	68fb      	ldr	r3, [r7, #12]
 8003b00:	851a      	strh	r2, [r3, #40]	@ 0x28
          hi2c->XferCount--;
 8003b02:	68fb      	ldr	r3, [r7, #12]
 8003b04:	8d5b      	ldrh	r3, [r3, #42]	@ 0x2a
 8003b06:	b29b      	uxth	r3, r3
 8003b08:	3b01      	subs	r3, #1
 8003b0a:	b29a      	uxth	r2, r3
 8003b0c:	68fb      	ldr	r3, [r7, #12]
 8003b0e:	855a      	strh	r2, [r3, #42]	@ 0x2a
 8003b10:	e0e2      	b.n	8003cd8 <HAL_I2C_Mem_Read+0x494>
        }
        /* 3 Last bytes */
        else
        {
          /* Wait until BTF flag is set */
          if (I2C_WaitOnFlagUntilTimeout(hi2c, I2C_FLAG_BTF, RESET, Timeout, tickstart) != HAL_OK)
 8003b12:	6a7b      	ldr	r3, [r7, #36]	@ 0x24
 8003b14:	9300      	str	r3, [sp, #0]
 8003b16:	6bbb      	ldr	r3, [r7, #56]	@ 0x38
 8003b18:	2200      	movs	r2, #0
 8003b1a:	497b      	ldr	r1, [pc, #492]	@ (8003d08 <HAL_I2C_Mem_Read+0x4c4>)
 8003b1c:	68f8      	ldr	r0, [r7, #12]
 8003b1e:	f000 fa77 	bl	8004010 <I2C_WaitOnFlagUntilTimeout>
 8003b22:	4603      	mov	r3, r0
 8003b24:	2b00      	cmp	r3, #0
 8003b26:	d001      	beq.n	8003b2c <HAL_I2C_Mem_Read+0x2e8>
          {
            return HAL_ERROR;
 8003b28:	2301      	movs	r3, #1
 8003b2a:	e0e9      	b.n	8003d00 <HAL_I2C_Mem_Read+0x4bc>
          }

          /* Disable Acknowledge */
          CLEAR_BIT(hi2c->Instance->CR1, I2C_CR1_ACK);
 8003b2c:	68fb      	ldr	r3, [r7, #12]
 8003b2e:	681b      	ldr	r3, [r3, #0]
 8003b30:	681a      	ldr	r2, [r3, #0]
 8003b32:	68fb      	ldr	r3, [r7, #12]
 8003b34:	681b      	ldr	r3, [r3, #0]
 8003b36:	f422 6280 	bic.w	r2, r2, #1024	@ 0x400
 8003b3a:	601a      	str	r2, [r3, #0]
  __ASM volatile ("cpsid i" : : : "memory");
 8003b3c:	b672      	cpsid	i
}
 8003b3e:	bf00      	nop
          /* Disable all active IRQs around ADDR clearing and STOP programming because the EV6_3
             software sequence must complete before the current byte end of transfer */
          __disable_irq();

          /* Read data from DR */
          *hi2c->pBuffPtr = (uint8_t)hi2c->Instance->DR;
 8003b40:	68fb      	ldr	r3, [r7, #12]
 8003b42:	681b      	ldr	r3, [r3, #0]
 8003b44:	691a      	ldr	r2, [r3, #16]
 8003b46:	68fb      	ldr	r3, [r7, #12]
 8003b48:	6a5b      	ldr	r3, [r3, #36]	@ 0x24
 8003b4a:	b2d2      	uxtb	r2, r2
 8003b4c:	701a      	strb	r2, [r3, #0]

          /* Increment Buffer pointer */
          hi2c->pBuffPtr++;
 8003b4e:	68fb      	ldr	r3, [r7, #12]
 8003b50:	6a5b      	ldr	r3, [r3, #36]	@ 0x24
 8003b52:	1c5a      	adds	r2, r3, #1
 8003b54:	68fb      	ldr	r3, [r7, #12]
 8003b56:	625a      	str	r2, [r3, #36]	@ 0x24

          /* Update counter */
          hi2c->XferSize--;
 8003b58:	68fb      	ldr	r3, [r7, #12]
 8003b5a:	8d1b      	ldrh	r3, [r3, #40]	@ 0x28
 8003b5c:	3b01      	subs	r3, #1
 8003b5e:	b29a      	uxth	r2, r3
 8003b60:	68fb      	ldr	r3, [r7, #12]
 8003b62:	851a      	strh	r2, [r3, #40]	@ 0x28
          hi2c->XferCount--;
 8003b64:	68fb      	ldr	r3, [r7, #12]
 8003b66:	8d5b      	ldrh	r3, [r3, #42]	@ 0x2a
 8003b68:	b29b      	uxth	r3, r3
 8003b6a:	3b01      	subs	r3, #1
 8003b6c:	b29a      	uxth	r2, r3
 8003b6e:	68fb      	ldr	r3, [r7, #12]
 8003b70:	855a      	strh	r2, [r3, #42]	@ 0x2a

          /* Wait until BTF flag is set */
          count = I2C_TIMEOUT_FLAG * (SystemCoreClock / 25U / 1000U);
 8003b72:	4b66      	ldr	r3, [pc, #408]	@ (8003d0c <HAL_I2C_Mem_Read+0x4c8>)
 8003b74:	681b      	ldr	r3, [r3, #0]
 8003b76:	08db      	lsrs	r3, r3, #3
 8003b78:	4a65      	ldr	r2, [pc, #404]	@ (8003d10 <HAL_I2C_Mem_Read+0x4cc>)
 8003b7a:	fba2 2303 	umull	r2, r3, r2, r3
 8003b7e:	0a1a      	lsrs	r2, r3, #8
 8003b80:	4613      	mov	r3, r2
 8003b82:	009b      	lsls	r3, r3, #2
 8003b84:	4413      	add	r3, r2
 8003b86:	00da      	lsls	r2, r3, #3
 8003b88:	1ad3      	subs	r3, r2, r3
 8003b8a:	623b      	str	r3, [r7, #32]
          do
          {
            count--;
 8003b8c:	6a3b      	ldr	r3, [r7, #32]
 8003b8e:	3b01      	subs	r3, #1
 8003b90:	623b      	str	r3, [r7, #32]
            if (count == 0U)
 8003b92:	6a3b      	ldr	r3, [r7, #32]
 8003b94:	2b00      	cmp	r3, #0
 8003b96:	d118      	bne.n	8003bca <HAL_I2C_Mem_Read+0x386>
            {
              hi2c->PreviousState       = I2C_STATE_NONE;
 8003b98:	68fb      	ldr	r3, [r7, #12]
 8003b9a:	2200      	movs	r2, #0
 8003b9c:	631a      	str	r2, [r3, #48]	@ 0x30
              hi2c->State               = HAL_I2C_STATE_READY;
 8003b9e:	68fb      	ldr	r3, [r7, #12]
 8003ba0:	2220      	movs	r2, #32
 8003ba2:	f883 203d 	strb.w	r2, [r3, #61]	@ 0x3d
              hi2c->Mode                = HAL_I2C_MODE_NONE;
 8003ba6:	68fb      	ldr	r3, [r7, #12]
 8003ba8:	2200      	movs	r2, #0
 8003baa:	f883 203e 	strb.w	r2, [r3, #62]	@ 0x3e
              hi2c->ErrorCode           |= HAL_I2C_ERROR_TIMEOUT;
 8003bae:	68fb      	ldr	r3, [r7, #12]
 8003bb0:	6c1b      	ldr	r3, [r3, #64]	@ 0x40
 8003bb2:	f043 0220 	orr.w	r2, r3, #32
 8003bb6:	68fb      	ldr	r3, [r7, #12]
 8003bb8:	641a      	str	r2, [r3, #64]	@ 0x40
  __ASM volatile ("cpsie i" : : : "memory");
 8003bba:	b662      	cpsie	i
}
 8003bbc:	bf00      	nop

              /* Re-enable IRQs */
              __enable_irq();

              /* Process Unlocked */
              __HAL_UNLOCK(hi2c);
 8003bbe:	68fb      	ldr	r3, [r7, #12]
 8003bc0:	2200      	movs	r2, #0
 8003bc2:	f883 203c 	strb.w	r2, [r3, #60]	@ 0x3c

              return HAL_ERROR;
 8003bc6:	2301      	movs	r3, #1
 8003bc8:	e09a      	b.n	8003d00 <HAL_I2C_Mem_Read+0x4bc>
            }
          }
          while (__HAL_I2C_GET_FLAG(hi2c, I2C_FLAG_BTF) == RESET);
 8003bca:	68fb      	ldr	r3, [r7, #12]
 8003bcc:	681b      	ldr	r3, [r3, #0]
 8003bce:	695b      	ldr	r3, [r3, #20]
 8003bd0:	f003 0304 	and.w	r3, r3, #4
 8003bd4:	2b04      	cmp	r3, #4
 8003bd6:	d1d9      	bne.n	8003b8c <HAL_I2C_Mem_Read+0x348>

          /* Generate Stop */
          SET_BIT(hi2c->Instance->CR1, I2C_CR1_STOP);
 8003bd8:	68fb      	ldr	r3, [r7, #12]
 8003bda:	681b      	ldr	r3, [r3, #0]
 8003bdc:	681a      	ldr	r2, [r3, #0]
 8003bde:	68fb      	ldr	r3, [r7, #12]
 8003be0:	681b      	ldr	r3, [r3, #0]
 8003be2:	f442 7200 	orr.w	r2, r2, #512	@ 0x200
 8003be6:	601a      	str	r2, [r3, #0]

          /* Read data from DR */
          *hi2c->pBuffPtr = (uint8_t)hi2c->Instance->DR;
 8003be8:	68fb      	ldr	r3, [r7, #12]
 8003bea:	681b      	ldr	r3, [r3, #0]
 8003bec:	691a      	ldr	r2, [r3, #16]
 8003bee:	68fb      	ldr	r3, [r7, #12]
 8003bf0:	6a5b      	ldr	r3, [r3, #36]	@ 0x24
 8003bf2:	b2d2      	uxtb	r2, r2
 8003bf4:	701a      	strb	r2, [r3, #0]

          /* Increment Buffer pointer */
          hi2c->pBuffPtr++;
 8003bf6:	68fb      	ldr	r3, [r7, #12]
 8003bf8:	6a5b      	ldr	r3, [r3, #36]	@ 0x24
 8003bfa:	1c5a      	adds	r2, r3, #1
 8003bfc:	68fb      	ldr	r3, [r7, #12]
 8003bfe:	625a      	str	r2, [r3, #36]	@ 0x24

          /* Update counter */
          hi2c->XferSize--;
 8003c00:	68fb      	ldr	r3, [r7, #12]
 8003c02:	8d1b      	ldrh	r3, [r3, #40]	@ 0x28
 8003c04:	3b01      	subs	r3, #1
 8003c06:	b29a      	uxth	r2, r3
 8003c08:	68fb      	ldr	r3, [r7, #12]
 8003c0a:	851a      	strh	r2, [r3, #40]	@ 0x28
          hi2c->XferCount--;
 8003c0c:	68fb      	ldr	r3, [r7, #12]
 8003c0e:	8d5b      	ldrh	r3, [r3, #42]	@ 0x2a
 8003c10:	b29b      	uxth	r3, r3
 8003c12:	3b01      	subs	r3, #1
 8003c14:	b29a      	uxth	r2, r3
 8003c16:	68fb      	ldr	r3, [r7, #12]
 8003c18:	855a      	strh	r2, [r3, #42]	@ 0x2a
  __ASM volatile ("cpsie i" : : : "memory");
 8003c1a:	b662      	cpsie	i
}
 8003c1c:	bf00      	nop

          /* Re-enable IRQs */
          __enable_irq();

          /* Read data from DR */
          *hi2c->pBuffPtr = (uint8_t)hi2c->Instance->DR;
 8003c1e:	68fb      	ldr	r3, [r7, #12]
 8003c20:	681b      	ldr	r3, [r3, #0]
 8003c22:	691a      	ldr	r2, [r3, #16]
 8003c24:	68fb      	ldr	r3, [r7, #12]
 8003c26:	6a5b      	ldr	r3, [r3, #36]	@ 0x24
 8003c28:	b2d2      	uxtb	r2, r2
 8003c2a:	701a      	strb	r2, [r3, #0]

          /* Increment Buffer pointer */
          hi2c->pBuffPtr++;
 8003c2c:	68fb      	ldr	r3, [r7, #12]
 8003c2e:	6a5b      	ldr	r3, [r3, #36]	@ 0x24
 8003c30:	1c5a      	adds	r2, r3, #1
 8003c32:	68fb      	ldr	r3, [r7, #12]
 8003c34:	625a      	str	r2, [r3, #36]	@ 0x24

          /* Update counter */
          hi2c->XferSize--;
 8003c36:	68fb      	ldr	r3, [r7, #12]
 8003c38:	8d1b      	ldrh	r3, [r3, #40]	@ 0x28
 8003c3a:	3b01      	subs	r3, #1
 8003c3c:	b29a      	uxth	r2, r3
 8003c3e:	68fb      	ldr	r3, [r7, #12]
 8003c40:	851a      	strh	r2, [r3, #40]	@ 0x28
          hi2c->XferCount--;
 8003c42:	68fb      	ldr	r3, [r7, #12]
 8003c44:	8d5b      	ldrh	r3, [r3, #42]	@ 0x2a
 8003c46:	b29b      	uxth	r3, r3
 8003c48:	3b01      	subs	r3, #1
 8003c4a:	b29a      	uxth	r2, r3
 8003c4c:	68fb      	ldr	r3, [r7, #12]
 8003c4e:	855a      	strh	r2, [r3, #42]	@ 0x2a
 8003c50:	e042      	b.n	8003cd8 <HAL_I2C_Mem_Read+0x494>
        }
      }
      else
      {
        /* Wait until RXNE flag is set */
        if (I2C_WaitOnRXNEFlagUntilTimeout(hi2c, Timeout, tickstart) != HAL_OK)
 8003c52:	6a7a      	ldr	r2, [r7, #36]	@ 0x24
 8003c54:	6bb9      	ldr	r1, [r7, #56]	@ 0x38
 8003c56:	68f8      	ldr	r0, [r7, #12]
 8003c58:	f000 fb84 	bl	8004364 <I2C_WaitOnRXNEFlagUntilTimeout>
 8003c5c:	4603      	mov	r3, r0
 8003c5e:	2b00      	cmp	r3, #0
 8003c60:	d001      	beq.n	8003c66 <HAL_I2C_Mem_Read+0x422>
        {
          return HAL_ERROR;
 8003c62:	2301      	movs	r3, #1
 8003c64:	e04c      	b.n	8003d00 <HAL_I2C_Mem_Read+0x4bc>
        }

        /* Read data from DR */
        *hi2c->pBuffPtr = (uint8_t)hi2c->Instance->DR;
 8003c66:	68fb      	ldr	r3, [r7, #12]
 8003c68:	681b      	ldr	r3, [r3, #0]
 8003c6a:	691a      	ldr	r2, [r3, #16]
 8003c6c:	68fb      	ldr	r3, [r7, #12]
 8003c6e:	6a5b      	ldr	r3, [r3, #36]	@ 0x24
 8003c70:	b2d2      	uxtb	r2, r2
 8003c72:	701a      	strb	r2, [r3, #0]

        /* Increment Buffer pointer */
        hi2c->pBuffPtr++;
 8003c74:	68fb      	ldr	r3, [r7, #12]
 8003c76:	6a5b      	ldr	r3, [r3, #36]	@ 0x24
 8003c78:	1c5a      	adds	r2, r3, #1
 8003c7a:	68fb      	ldr	r3, [r7, #12]
 8003c7c:	625a      	str	r2, [r3, #36]	@ 0x24

        /* Update counter */
        hi2c->XferSize--;
 8003c7e:	68fb      	ldr	r3, [r7, #12]
 8003c80:	8d1b      	ldrh	r3, [r3, #40]	@ 0x28
 8003c82:	3b01      	subs	r3, #1
 8003c84:	b29a      	uxth	r2, r3
 8003c86:	68fb      	ldr	r3, [r7, #12]
 8003c88:	851a      	strh	r2, [r3, #40]	@ 0x28
        hi2c->XferCount--;
 8003c8a:	68fb      	ldr	r3, [r7, #12]
 8003c8c:	8d5b      	ldrh	r3, [r3, #42]	@ 0x2a
 8003c8e:	b29b      	uxth	r3, r3
 8003c90:	3b01      	subs	r3, #1
 8003c92:	b29a      	uxth	r2, r3
 8003c94:	68fb      	ldr	r3, [r7, #12]
 8003c96:	855a      	strh	r2, [r3, #42]	@ 0x2a

        if (__HAL_I2C_GET_FLAG(hi2c, I2C_FLAG_BTF) == SET)
 8003c98:	68fb      	ldr	r3, [r7, #12]
 8003c9a:	681b      	ldr	r3, [r3, #0]
 8003c9c:	695b      	ldr	r3, [r3, #20]
 8003c9e:	f003 0304 	and.w	r3, r3, #4
 8003ca2:	2b04      	cmp	r3, #4
 8003ca4:	d118      	bne.n	8003cd8 <HAL_I2C_Mem_Read+0x494>
        {
          /* Read data from DR */
          *hi2c->pBuffPtr = (uint8_t)hi2c->Instance->DR;
 8003ca6:	68fb      	ldr	r3, [r7, #12]
 8003ca8:	681b      	ldr	r3, [r3, #0]
 8003caa:	691a      	ldr	r2, [r3, #16]
 8003cac:	68fb      	ldr	r3, [r7, #12]
 8003cae:	6a5b      	ldr	r3, [r3, #36]	@ 0x24
 8003cb0:	b2d2      	uxtb	r2, r2
 8003cb2:	701a      	strb	r2, [r3, #0]

          /* Increment Buffer pointer */
          hi2c->pBuffPtr++;
 8003cb4:	68fb      	ldr	r3, [r7, #12]
 8003cb6:	6a5b      	ldr	r3, [r3, #36]	@ 0x24
 8003cb8:	1c5a      	adds	r2, r3, #1
 8003cba:	68fb      	ldr	r3, [r7, #12]
 8003cbc:	625a      	str	r2, [r3, #36]	@ 0x24

          /* Update counter */
          hi2c->XferSize--;
 8003cbe:	68fb      	ldr	r3, [r7, #12]
 8003cc0:	8d1b      	ldrh	r3, [r3, #40]	@ 0x28
 8003cc2:	3b01      	subs	r3, #1
 8003cc4:	b29a      	uxth	r2, r3
 8003cc6:	68fb      	ldr	r3, [r7, #12]
 8003cc8:	851a      	strh	r2, [r3, #40]	@ 0x28
          hi2c->XferCount--;
 8003cca:	68fb      	ldr	r3, [r7, #12]
 8003ccc:	8d5b      	ldrh	r3, [r3, #42]	@ 0x2a
 8003cce:	b29b      	uxth	r3, r3
 8003cd0:	3b01      	subs	r3, #1
 8003cd2:	b29a      	uxth	r2, r3
 8003cd4:	68fb      	ldr	r3, [r7, #12]
 8003cd6:	855a      	strh	r2, [r3, #42]	@ 0x2a
    while (hi2c->XferSize > 0U)
 8003cd8:	68fb      	ldr	r3, [r7, #12]
 8003cda:	8d1b      	ldrh	r3, [r3, #40]	@ 0x28
 8003cdc:	2b00      	cmp	r3, #0
 8003cde:	f47f ae94 	bne.w	8003a0a <HAL_I2C_Mem_Read+0x1c6>
        }
      }
    }

    hi2c->State = HAL_I2C_STATE_READY;
 8003ce2:	68fb      	ldr	r3, [r7, #12]
 8003ce4:	2220      	movs	r2, #32
 8003ce6:	f883 203d 	strb.w	r2, [r3, #61]	@ 0x3d
    hi2c->Mode = HAL_I2C_MODE_NONE;
 8003cea:	68fb      	ldr	r3, [r7, #12]
 8003cec:	2200      	movs	r2, #0
 8003cee:	f883 203e 	strb.w	r2, [r3, #62]	@ 0x3e

    /* Process Unlocked */
    __HAL_UNLOCK(hi2c);
 8003cf2:	68fb      	ldr	r3, [r7, #12]
 8003cf4:	2200      	movs	r2, #0
 8003cf6:	f883 203c 	strb.w	r2, [r3, #60]	@ 0x3c

    return HAL_OK;
 8003cfa:	2300      	movs	r3, #0
 8003cfc:	e000      	b.n	8003d00 <HAL_I2C_Mem_Read+0x4bc>
  }
  else
  {
    return HAL_BUSY;
 8003cfe:	2302      	movs	r3, #2
  }
}
 8003d00:	4618      	mov	r0, r3
 8003d02:	3728      	adds	r7, #40	@ 0x28
 8003d04:	46bd      	mov	sp, r7
 8003d06:	bd80      	pop	{r7, pc}
 8003d08:	00010004 	.word	0x00010004
 8003d0c:	20000090 	.word	0x20000090
 8003d10:	14f8b589 	.word	0x14f8b589

08003d14 <I2C_RequestMemoryWrite>:
  * @param  Timeout Timeout duration
  * @param  Tickstart Tick start value
  * @retval HAL status
  */
static HAL_StatusTypeDef I2C_RequestMemoryWrite(I2C_HandleTypeDef *hi2c, uint16_t DevAddress, uint16_t MemAddress, uint16_t MemAddSize, uint32_t Timeout, uint32_t Tickstart)
{
 8003d14:	b580      	push	{r7, lr}
 8003d16:	b088      	sub	sp, #32
 8003d18:	af02      	add	r7, sp, #8
 8003d1a:	60f8      	str	r0, [r7, #12]
 8003d1c:	4608      	mov	r0, r1
 8003d1e:	4611      	mov	r1, r2
 8003d20:	461a      	mov	r2, r3
 8003d22:	4603      	mov	r3, r0
 8003d24:	817b      	strh	r3, [r7, #10]
 8003d26:	460b      	mov	r3, r1
 8003d28:	813b      	strh	r3, [r7, #8]
 8003d2a:	4613      	mov	r3, r2
 8003d2c:	80fb      	strh	r3, [r7, #6]
  /* Generate Start */
  SET_BIT(hi2c->Instance->CR1, I2C_CR1_START);
 8003d2e:	68fb      	ldr	r3, [r7, #12]
 8003d30:	681b      	ldr	r3, [r3, #0]
 8003d32:	681a      	ldr	r2, [r3, #0]
 8003d34:	68fb      	ldr	r3, [r7, #12]
 8003d36:	681b      	ldr	r3, [r3, #0]
 8003d38:	f442 7280 	orr.w	r2, r2, #256	@ 0x100
 8003d3c:	601a      	str	r2, [r3, #0]

  /* Wait until SB flag is set */
  if (I2C_WaitOnFlagUntilTimeout(hi2c, I2C_FLAG_SB, RESET, Timeout, Tickstart) != HAL_OK)
 8003d3e:	6a7b      	ldr	r3, [r7, #36]	@ 0x24
 8003d40:	9300      	str	r3, [sp, #0]
 8003d42:	6a3b      	ldr	r3, [r7, #32]
 8003d44:	2200      	movs	r2, #0
 8003d46:	f04f 1101 	mov.w	r1, #65537	@ 0x10001
 8003d4a:	68f8      	ldr	r0, [r7, #12]
 8003d4c:	f000 f960 	bl	8004010 <I2C_WaitOnFlagUntilTimeout>
 8003d50:	4603      	mov	r3, r0
 8003d52:	2b00      	cmp	r3, #0
 8003d54:	d00d      	beq.n	8003d72 <I2C_RequestMemoryWrite+0x5e>
  {
    if (READ_BIT(hi2c->Instance->CR1, I2C_CR1_START) == I2C_CR1_START)
 8003d56:	68fb      	ldr	r3, [r7, #12]
 8003d58:	681b      	ldr	r3, [r3, #0]
 8003d5a:	681b      	ldr	r3, [r3, #0]
 8003d5c:	f403 7380 	and.w	r3, r3, #256	@ 0x100
 8003d60:	f5b3 7f80 	cmp.w	r3, #256	@ 0x100
 8003d64:	d103      	bne.n	8003d6e <I2C_RequestMemoryWrite+0x5a>
    {
      hi2c->ErrorCode = HAL_I2C_WRONG_START;
 8003d66:	68fb      	ldr	r3, [r7, #12]
 8003d68:	f44f 7200 	mov.w	r2, #512	@ 0x200
 8003d6c:	641a      	str	r2, [r3, #64]	@ 0x40
    }
    return HAL_TIMEOUT;
 8003d6e:	2303      	movs	r3, #3
 8003d70:	e05f      	b.n	8003e32 <I2C_RequestMemoryWrite+0x11e>
  }

  /* Send slave address */
  hi2c->Instance->DR = I2C_7BIT_ADD_WRITE(DevAddress);
 8003d72:	897b      	ldrh	r3, [r7, #10]
 8003d74:	b2db      	uxtb	r3, r3
 8003d76:	461a      	mov	r2, r3
 8003d78:	68fb      	ldr	r3, [r7, #12]
 8003d7a:	681b      	ldr	r3, [r3, #0]
 8003d7c:	f002 02fe 	and.w	r2, r2, #254	@ 0xfe
 8003d80:	611a      	str	r2, [r3, #16]

  /* Wait until ADDR flag is set */
  if (I2C_WaitOnMasterAddressFlagUntilTimeout(hi2c, I2C_FLAG_ADDR, Timeout, Tickstart) != HAL_OK)
 8003d82:	6a7b      	ldr	r3, [r7, #36]	@ 0x24
 8003d84:	6a3a      	ldr	r2, [r7, #32]
 8003d86:	492d      	ldr	r1, [pc, #180]	@ (8003e3c <I2C_RequestMemoryWrite+0x128>)
 8003d88:	68f8      	ldr	r0, [r7, #12]
 8003d8a:	f000 f9bb 	bl	8004104 <I2C_WaitOnMasterAddressFlagUntilTimeout>
 8003d8e:	4603      	mov	r3, r0
 8003d90:	2b00      	cmp	r3, #0
 8003d92:	d001      	beq.n	8003d98 <I2C_RequestMemoryWrite+0x84>
  {
    return HAL_ERROR;
 8003d94:	2301      	movs	r3, #1
 8003d96:	e04c      	b.n	8003e32 <I2C_RequestMemoryWrite+0x11e>
  }

  /* Clear ADDR flag */
  __HAL_I2C_CLEAR_ADDRFLAG(hi2c);
 8003d98:	2300      	movs	r3, #0
 8003d9a:	617b      	str	r3, [r7, #20]
 8003d9c:	68fb      	ldr	r3, [r7, #12]
 8003d9e:	681b      	ldr	r3, [r3, #0]
 8003da0:	695b      	ldr	r3, [r3, #20]
 8003da2:	617b      	str	r3, [r7, #20]
 8003da4:	68fb      	ldr	r3, [r7, #12]
 8003da6:	681b      	ldr	r3, [r3, #0]
 8003da8:	699b      	ldr	r3, [r3, #24]
 8003daa:	617b      	str	r3, [r7, #20]
 8003dac:	697b      	ldr	r3, [r7, #20]

  /* Wait until TXE flag is set */
  if (I2C_WaitOnTXEFlagUntilTimeout(hi2c, Timeout, Tickstart) != HAL_OK)
 8003dae:	6a7a      	ldr	r2, [r7, #36]	@ 0x24
 8003db0:	6a39      	ldr	r1, [r7, #32]
 8003db2:	68f8      	ldr	r0, [r7, #12]
 8003db4:	f000 fa46 	bl	8004244 <I2C_WaitOnTXEFlagUntilTimeout>
 8003db8:	4603      	mov	r3, r0
 8003dba:	2b00      	cmp	r3, #0
 8003dbc:	d00d      	beq.n	8003dda <I2C_RequestMemoryWrite+0xc6>
  {
    if (hi2c->ErrorCode == HAL_I2C_ERROR_AF)
 8003dbe:	68fb      	ldr	r3, [r7, #12]
 8003dc0:	6c1b      	ldr	r3, [r3, #64]	@ 0x40
 8003dc2:	2b04      	cmp	r3, #4
 8003dc4:	d107      	bne.n	8003dd6 <I2C_RequestMemoryWrite+0xc2>
    {
      /* Generate Stop */
      SET_BIT(hi2c->Instance->CR1, I2C_CR1_STOP);
 8003dc6:	68fb      	ldr	r3, [r7, #12]
 8003dc8:	681b      	ldr	r3, [r3, #0]
 8003dca:	681a      	ldr	r2, [r3, #0]
 8003dcc:	68fb      	ldr	r3, [r7, #12]
 8003dce:	681b      	ldr	r3, [r3, #0]
 8003dd0:	f442 7200 	orr.w	r2, r2, #512	@ 0x200
 8003dd4:	601a      	str	r2, [r3, #0]
    }
    return HAL_ERROR;
 8003dd6:	2301      	movs	r3, #1
 8003dd8:	e02b      	b.n	8003e32 <I2C_RequestMemoryWrite+0x11e>
  }

  /* If Memory address size is 8Bit */
  if (MemAddSize == I2C_MEMADD_SIZE_8BIT)
 8003dda:	88fb      	ldrh	r3, [r7, #6]
 8003ddc:	2b01      	cmp	r3, #1
 8003dde:	d105      	bne.n	8003dec <I2C_RequestMemoryWrite+0xd8>
  {
    /* Send Memory Address */
    hi2c->Instance->DR = I2C_MEM_ADD_LSB(MemAddress);
 8003de0:	893b      	ldrh	r3, [r7, #8]
 8003de2:	b2da      	uxtb	r2, r3
 8003de4:	68fb      	ldr	r3, [r7, #12]
 8003de6:	681b      	ldr	r3, [r3, #0]
 8003de8:	611a      	str	r2, [r3, #16]
 8003dea:	e021      	b.n	8003e30 <I2C_RequestMemoryWrite+0x11c>
  }
  /* If Memory address size is 16Bit */
  else
  {
    /* Send MSB of Memory Address */
    hi2c->Instance->DR = I2C_MEM_ADD_MSB(MemAddress);
 8003dec:	893b      	ldrh	r3, [r7, #8]
 8003dee:	0a1b      	lsrs	r3, r3, #8
 8003df0:	b29b      	uxth	r3, r3
 8003df2:	b2da      	uxtb	r2, r3
 8003df4:	68fb      	ldr	r3, [r7, #12]
 8003df6:	681b      	ldr	r3, [r3, #0]
 8003df8:	611a      	str	r2, [r3, #16]

    /* Wait until TXE flag is set */
    if (I2C_WaitOnTXEFlagUntilTimeout(hi2c, Timeout, Tickstart) != HAL_OK)
 8003dfa:	6a7a      	ldr	r2, [r7, #36]	@ 0x24
 8003dfc:	6a39      	ldr	r1, [r7, #32]
 8003dfe:	68f8      	ldr	r0, [r7, #12]
 8003e00:	f000 fa20 	bl	8004244 <I2C_WaitOnTXEFlagUntilTimeout>
 8003e04:	4603      	mov	r3, r0
 8003e06:	2b00      	cmp	r3, #0
 8003e08:	d00d      	beq.n	8003e26 <I2C_RequestMemoryWrite+0x112>
    {
      if (hi2c->ErrorCode == HAL_I2C_ERROR_AF)
 8003e0a:	68fb      	ldr	r3, [r7, #12]
 8003e0c:	6c1b      	ldr	r3, [r3, #64]	@ 0x40
 8003e0e:	2b04      	cmp	r3, #4
 8003e10:	d107      	bne.n	8003e22 <I2C_RequestMemoryWrite+0x10e>
      {
        /* Generate Stop */
        SET_BIT(hi2c->Instance->CR1, I2C_CR1_STOP);
 8003e12:	68fb      	ldr	r3, [r7, #12]
 8003e14:	681b      	ldr	r3, [r3, #0]
 8003e16:	681a      	ldr	r2, [r3, #0]
 8003e18:	68fb      	ldr	r3, [r7, #12]
 8003e1a:	681b      	ldr	r3, [r3, #0]
 8003e1c:	f442 7200 	orr.w	r2, r2, #512	@ 0x200
 8003e20:	601a      	str	r2, [r3, #0]
      }
      return HAL_ERROR;
 8003e22:	2301      	movs	r3, #1
 8003e24:	e005      	b.n	8003e32 <I2C_RequestMemoryWrite+0x11e>
    }

    /* Send LSB of Memory Address */
    hi2c->Instance->DR = I2C_MEM_ADD_LSB(MemAddress);
 8003e26:	893b      	ldrh	r3, [r7, #8]
 8003e28:	b2da      	uxtb	r2, r3
 8003e2a:	68fb      	ldr	r3, [r7, #12]
 8003e2c:	681b      	ldr	r3, [r3, #0]
 8003e2e:	611a      	str	r2, [r3, #16]
  }

  return HAL_OK;
 8003e30:	2300      	movs	r3, #0
}
 8003e32:	4618      	mov	r0, r3
 8003e34:	3718      	adds	r7, #24
 8003e36:	46bd      	mov	sp, r7
 8003e38:	bd80      	pop	{r7, pc}
 8003e3a:	bf00      	nop
 8003e3c:	00010002 	.word	0x00010002

08003e40 <I2C_RequestMemoryRead>:
  * @param  Timeout Timeout duration
  * @param  Tickstart Tick start value
  * @retval HAL status
  */
static HAL_StatusTypeDef I2C_RequestMemoryRead(I2C_HandleTypeDef *hi2c, uint16_t DevAddress, uint16_t MemAddress, uint16_t MemAddSize, uint32_t Timeout, uint32_t Tickstart)
{
 8003e40:	b580      	push	{r7, lr}
 8003e42:	b088      	sub	sp, #32
 8003e44:	af02      	add	r7, sp, #8
 8003e46:	60f8      	str	r0, [r7, #12]
 8003e48:	4608      	mov	r0, r1
 8003e4a:	4611      	mov	r1, r2
 8003e4c:	461a      	mov	r2, r3
 8003e4e:	4603      	mov	r3, r0
 8003e50:	817b      	strh	r3, [r7, #10]
 8003e52:	460b      	mov	r3, r1
 8003e54:	813b      	strh	r3, [r7, #8]
 8003e56:	4613      	mov	r3, r2
 8003e58:	80fb      	strh	r3, [r7, #6]
  /* Enable Acknowledge */
  SET_BIT(hi2c->Instance->CR1, I2C_CR1_ACK);
 8003e5a:	68fb      	ldr	r3, [r7, #12]
 8003e5c:	681b      	ldr	r3, [r3, #0]
 8003e5e:	681a      	ldr	r2, [r3, #0]
 8003e60:	68fb      	ldr	r3, [r7, #12]
 8003e62:	681b      	ldr	r3, [r3, #0]
 8003e64:	f442 6280 	orr.w	r2, r2, #1024	@ 0x400
 8003e68:	601a      	str	r2, [r3, #0]

  /* Generate Start */
  SET_BIT(hi2c->Instance->CR1, I2C_CR1_START);
 8003e6a:	68fb      	ldr	r3, [r7, #12]
 8003e6c:	681b      	ldr	r3, [r3, #0]
 8003e6e:	681a      	ldr	r2, [r3, #0]
 8003e70:	68fb      	ldr	r3, [r7, #12]
 8003e72:	681b      	ldr	r3, [r3, #0]
 8003e74:	f442 7280 	orr.w	r2, r2, #256	@ 0x100
 8003e78:	601a      	str	r2, [r3, #0]

  /* Wait until SB flag is set */
  if (I2C_WaitOnFlagUntilTimeout(hi2c, I2C_FLAG_SB, RESET, Timeout, Tickstart) != HAL_OK)
 8003e7a:	6a7b      	ldr	r3, [r7, #36]	@ 0x24
 8003e7c:	9300      	str	r3, [sp, #0]
 8003e7e:	6a3b      	ldr	r3, [r7, #32]
 8003e80:	2200      	movs	r2, #0
 8003e82:	f04f 1101 	mov.w	r1, #65537	@ 0x10001
 8003e86:	68f8      	ldr	r0, [r7, #12]
 8003e88:	f000 f8c2 	bl	8004010 <I2C_WaitOnFlagUntilTimeout>
 8003e8c:	4603      	mov	r3, r0
 8003e8e:	2b00      	cmp	r3, #0
 8003e90:	d00d      	beq.n	8003eae <I2C_RequestMemoryRead+0x6e>
  {
    if (READ_BIT(hi2c->Instance->CR1, I2C_CR1_START) == I2C_CR1_START)
 8003e92:	68fb      	ldr	r3, [r7, #12]
 8003e94:	681b      	ldr	r3, [r3, #0]
 8003e96:	681b      	ldr	r3, [r3, #0]
 8003e98:	f403 7380 	and.w	r3, r3, #256	@ 0x100
 8003e9c:	f5b3 7f80 	cmp.w	r3, #256	@ 0x100
 8003ea0:	d103      	bne.n	8003eaa <I2C_RequestMemoryRead+0x6a>
    {
      hi2c->ErrorCode = HAL_I2C_WRONG_START;
 8003ea2:	68fb      	ldr	r3, [r7, #12]
 8003ea4:	f44f 7200 	mov.w	r2, #512	@ 0x200
 8003ea8:	641a      	str	r2, [r3, #64]	@ 0x40
    }
    return HAL_TIMEOUT;
 8003eaa:	2303      	movs	r3, #3
 8003eac:	e0aa      	b.n	8004004 <I2C_RequestMemoryRead+0x1c4>
  }

  /* Send slave address */
  hi2c->Instance->DR = I2C_7BIT_ADD_WRITE(DevAddress);
 8003eae:	897b      	ldrh	r3, [r7, #10]
 8003eb0:	b2db      	uxtb	r3, r3
 8003eb2:	461a      	mov	r2, r3
 8003eb4:	68fb      	ldr	r3, [r7, #12]
 8003eb6:	681b      	ldr	r3, [r3, #0]
 8003eb8:	f002 02fe 	and.w	r2, r2, #254	@ 0xfe
 8003ebc:	611a      	str	r2, [r3, #16]

  /* Wait until ADDR flag is set */
  if (I2C_WaitOnMasterAddressFlagUntilTimeout(hi2c, I2C_FLAG_ADDR, Timeout, Tickstart) != HAL_OK)
 8003ebe:	6a7b      	ldr	r3, [r7, #36]	@ 0x24
 8003ec0:	6a3a      	ldr	r2, [r7, #32]
 8003ec2:	4952      	ldr	r1, [pc, #328]	@ (800400c <I2C_RequestMemoryRead+0x1cc>)
 8003ec4:	68f8      	ldr	r0, [r7, #12]
 8003ec6:	f000 f91d 	bl	8004104 <I2C_WaitOnMasterAddressFlagUntilTimeout>
 8003eca:	4603      	mov	r3, r0
 8003ecc:	2b00      	cmp	r3, #0
 8003ece:	d001      	beq.n	8003ed4 <I2C_RequestMemoryRead+0x94>
  {
    return HAL_ERROR;
 8003ed0:	2301      	movs	r3, #1
 8003ed2:	e097      	b.n	8004004 <I2C_RequestMemoryRead+0x1c4>
  }

  /* Clear ADDR flag */
  __HAL_I2C_CLEAR_ADDRFLAG(hi2c);
 8003ed4:	2300      	movs	r3, #0
 8003ed6:	617b      	str	r3, [r7, #20]
 8003ed8:	68fb      	ldr	r3, [r7, #12]
 8003eda:	681b      	ldr	r3, [r3, #0]
 8003edc:	695b      	ldr	r3, [r3, #20]
 8003ede:	617b      	str	r3, [r7, #20]
 8003ee0:	68fb      	ldr	r3, [r7, #12]
 8003ee2:	681b      	ldr	r3, [r3, #0]
 8003ee4:	699b      	ldr	r3, [r3, #24]
 8003ee6:	617b      	str	r3, [r7, #20]
 8003ee8:	697b      	ldr	r3, [r7, #20]

  /* Wait until TXE flag is set */
  if (I2C_WaitOnTXEFlagUntilTimeout(hi2c, Timeout, Tickstart) != HAL_OK)
 8003eea:	6a7a      	ldr	r2, [r7, #36]	@ 0x24
 8003eec:	6a39      	ldr	r1, [r7, #32]
 8003eee:	68f8      	ldr	r0, [r7, #12]
 8003ef0:	f000 f9a8 	bl	8004244 <I2C_WaitOnTXEFlagUntilTimeout>
 8003ef4:	4603      	mov	r3, r0
 8003ef6:	2b00      	cmp	r3, #0
 8003ef8:	d00d      	beq.n	8003f16 <I2C_RequestMemoryRead+0xd6>
  {
    if (hi2c->ErrorCode == HAL_I2C_ERROR_AF)
 8003efa:	68fb      	ldr	r3, [r7, #12]
 8003efc:	6c1b      	ldr	r3, [r3, #64]	@ 0x40
 8003efe:	2b04      	cmp	r3, #4
 8003f00:	d107      	bne.n	8003f12 <I2C_RequestMemoryRead+0xd2>
    {
      /* Generate Stop */
      SET_BIT(hi2c->Instance->CR1, I2C_CR1_STOP);
 8003f02:	68fb      	ldr	r3, [r7, #12]
 8003f04:	681b      	ldr	r3, [r3, #0]
 8003f06:	681a      	ldr	r2, [r3, #0]
 8003f08:	68fb      	ldr	r3, [r7, #12]
 8003f0a:	681b      	ldr	r3, [r3, #0]
 8003f0c:	f442 7200 	orr.w	r2, r2, #512	@ 0x200
 8003f10:	601a      	str	r2, [r3, #0]
    }
    return HAL_ERROR;
 8003f12:	2301      	movs	r3, #1
 8003f14:	e076      	b.n	8004004 <I2C_RequestMemoryRead+0x1c4>
  }

  /* If Memory address size is 8Bit */
  if (MemAddSize == I2C_MEMADD_SIZE_8BIT)
 8003f16:	88fb      	ldrh	r3, [r7, #6]
 8003f18:	2b01      	cmp	r3, #1
 8003f1a:	d105      	bne.n	8003f28 <I2C_RequestMemoryRead+0xe8>
  {
    /* Send Memory Address */
    hi2c->Instance->DR = I2C_MEM_ADD_LSB(MemAddress);
 8003f1c:	893b      	ldrh	r3, [r7, #8]
 8003f1e:	b2da      	uxtb	r2, r3
 8003f20:	68fb      	ldr	r3, [r7, #12]
 8003f22:	681b      	ldr	r3, [r3, #0]
 8003f24:	611a      	str	r2, [r3, #16]
 8003f26:	e021      	b.n	8003f6c <I2C_RequestMemoryRead+0x12c>
  }
  /* If Memory address size is 16Bit */
  else
  {
    /* Send MSB of Memory Address */
    hi2c->Instance->DR = I2C_MEM_ADD_MSB(MemAddress);
 8003f28:	893b      	ldrh	r3, [r7, #8]
 8003f2a:	0a1b      	lsrs	r3, r3, #8
 8003f2c:	b29b      	uxth	r3, r3
 8003f2e:	b2da      	uxtb	r2, r3
 8003f30:	68fb      	ldr	r3, [r7, #12]
 8003f32:	681b      	ldr	r3, [r3, #0]
 8003f34:	611a      	str	r2, [r3, #16]

    /* Wait until TXE flag is set */
    if (I2C_WaitOnTXEFlagUntilTimeout(hi2c, Timeout, Tickstart) != HAL_OK)
 8003f36:	6a7a      	ldr	r2, [r7, #36]	@ 0x24
 8003f38:	6a39      	ldr	r1, [r7, #32]
 8003f3a:	68f8      	ldr	r0, [r7, #12]
 8003f3c:	f000 f982 	bl	8004244 <I2C_WaitOnTXEFlagUntilTimeout>
 8003f40:	4603      	mov	r3, r0
 8003f42:	2b00      	cmp	r3, #0
 8003f44:	d00d      	beq.n	8003f62 <I2C_RequestMemoryRead+0x122>
    {
      if (hi2c->ErrorCode == HAL_I2C_ERROR_AF)
 8003f46:	68fb      	ldr	r3, [r7, #12]
 8003f48:	6c1b      	ldr	r3, [r3, #64]	@ 0x40
 8003f4a:	2b04      	cmp	r3, #4
 8003f4c:	d107      	bne.n	8003f5e <I2C_RequestMemoryRead+0x11e>
      {
        /* Generate Stop */
        SET_BIT(hi2c->Instance->CR1, I2C_CR1_STOP);
 8003f4e:	68fb      	ldr	r3, [r7, #12]
 8003f50:	681b      	ldr	r3, [r3, #0]
 8003f52:	681a      	ldr	r2, [r3, #0]
 8003f54:	68fb      	ldr	r3, [r7, #12]
 8003f56:	681b      	ldr	r3, [r3, #0]
 8003f58:	f442 7200 	orr.w	r2, r2, #512	@ 0x200
 8003f5c:	601a      	str	r2, [r3, #0]
      }
      return HAL_ERROR;
 8003f5e:	2301      	movs	r3, #1
 8003f60:	e050      	b.n	8004004 <I2C_RequestMemoryRead+0x1c4>
    }

    /* Send LSB of Memory Address */
    hi2c->Instance->DR = I2C_MEM_ADD_LSB(MemAddress);
 8003f62:	893b      	ldrh	r3, [r7, #8]
 8003f64:	b2da      	uxtb	r2, r3
 8003f66:	68fb      	ldr	r3, [r7, #12]
 8003f68:	681b      	ldr	r3, [r3, #0]
 8003f6a:	611a      	str	r2, [r3, #16]
  }

  /* Wait until TXE flag is set */
  if (I2C_WaitOnTXEFlagUntilTimeout(hi2c, Timeout, Tickstart) != HAL_OK)
 8003f6c:	6a7a      	ldr	r2, [r7, #36]	@ 0x24
 8003f6e:	6a39      	ldr	r1, [r7, #32]
 8003f70:	68f8      	ldr	r0, [r7, #12]
 8003f72:	f000 f967 	bl	8004244 <I2C_WaitOnTXEFlagUntilTimeout>
 8003f76:	4603      	mov	r3, r0
 8003f78:	2b00      	cmp	r3, #0
 8003f7a:	d00d      	beq.n	8003f98 <I2C_RequestMemoryRead+0x158>
  {
    if (hi2c->ErrorCode == HAL_I2C_ERROR_AF)
 8003f7c:	68fb      	ldr	r3, [r7, #12]
 8003f7e:	6c1b      	ldr	r3, [r3, #64]	@ 0x40
 8003f80:	2b04      	cmp	r3, #4
 8003f82:	d107      	bne.n	8003f94 <I2C_RequestMemoryRead+0x154>
    {
      /* Generate Stop */
      SET_BIT(hi2c->Instance->CR1, I2C_CR1_STOP);
 8003f84:	68fb      	ldr	r3, [r7, #12]
 8003f86:	681b      	ldr	r3, [r3, #0]
 8003f88:	681a      	ldr	r2, [r3, #0]
 8003f8a:	68fb      	ldr	r3, [r7, #12]
 8003f8c:	681b      	ldr	r3, [r3, #0]
 8003f8e:	f442 7200 	orr.w	r2, r2, #512	@ 0x200
 8003f92:	601a      	str	r2, [r3, #0]
    }
    return HAL_ERROR;
 8003f94:	2301      	movs	r3, #1
 8003f96:	e035      	b.n	8004004 <I2C_RequestMemoryRead+0x1c4>
  }

  /* Generate Restart */
  SET_BIT(hi2c->Instance->CR1, I2C_CR1_START);
 8003f98:	68fb      	ldr	r3, [r7, #12]
 8003f9a:	681b      	ldr	r3, [r3, #0]
 8003f9c:	681a      	ldr	r2, [r3, #0]
 8003f9e:	68fb      	ldr	r3, [r7, #12]
 8003fa0:	681b      	ldr	r3, [r3, #0]
 8003fa2:	f442 7280 	orr.w	r2, r2, #256	@ 0x100
 8003fa6:	601a      	str	r2, [r3, #0]

  /* Wait until SB flag is set */
  if (I2C_WaitOnFlagUntilTimeout(hi2c, I2C_FLAG_SB, RESET, Timeout, Tickstart) != HAL_OK)
 8003fa8:	6a7b      	ldr	r3, [r7, #36]	@ 0x24
 8003faa:	9300      	str	r3, [sp, #0]
 8003fac:	6a3b      	ldr	r3, [r7, #32]
 8003fae:	2200      	movs	r2, #0
 8003fb0:	f04f 1101 	mov.w	r1, #65537	@ 0x10001
 8003fb4:	68f8      	ldr	r0, [r7, #12]
 8003fb6:	f000 f82b 	bl	8004010 <I2C_WaitOnFlagUntilTimeout>
 8003fba:	4603      	mov	r3, r0
 8003fbc:	2b00      	cmp	r3, #0
 8003fbe:	d00d      	beq.n	8003fdc <I2C_RequestMemoryRead+0x19c>
  {
    if (READ_BIT(hi2c->Instance->CR1, I2C_CR1_START) == I2C_CR1_START)
 8003fc0:	68fb      	ldr	r3, [r7, #12]
 8003fc2:	681b      	ldr	r3, [r3, #0]
 8003fc4:	681b      	ldr	r3, [r3, #0]
 8003fc6:	f403 7380 	and.w	r3, r3, #256	@ 0x100
 8003fca:	f5b3 7f80 	cmp.w	r3, #256	@ 0x100
 8003fce:	d103      	bne.n	8003fd8 <I2C_RequestMemoryRead+0x198>
    {
      hi2c->ErrorCode = HAL_I2C_WRONG_START;
 8003fd0:	68fb      	ldr	r3, [r7, #12]
 8003fd2:	f44f 7200 	mov.w	r2, #512	@ 0x200
 8003fd6:	641a      	str	r2, [r3, #64]	@ 0x40
    }
    return HAL_TIMEOUT;
 8003fd8:	2303      	movs	r3, #3
 8003fda:	e013      	b.n	8004004 <I2C_RequestMemoryRead+0x1c4>
  }

  /* Send slave address */
  hi2c->Instance->DR = I2C_7BIT_ADD_READ(DevAddress);
 8003fdc:	897b      	ldrh	r3, [r7, #10]
 8003fde:	b2db      	uxtb	r3, r3
 8003fe0:	f043 0301 	orr.w	r3, r3, #1
 8003fe4:	b2da      	uxtb	r2, r3
 8003fe6:	68fb      	ldr	r3, [r7, #12]
 8003fe8:	681b      	ldr	r3, [r3, #0]
 8003fea:	611a      	str	r2, [r3, #16]

  /* Wait until ADDR flag is set */
  if (I2C_WaitOnMasterAddressFlagUntilTimeout(hi2c, I2C_FLAG_ADDR, Timeout, Tickstart) != HAL_OK)
 8003fec:	6a7b      	ldr	r3, [r7, #36]	@ 0x24
 8003fee:	6a3a      	ldr	r2, [r7, #32]
 8003ff0:	4906      	ldr	r1, [pc, #24]	@ (800400c <I2C_RequestMemoryRead+0x1cc>)
 8003ff2:	68f8      	ldr	r0, [r7, #12]
 8003ff4:	f000 f886 	bl	8004104 <I2C_WaitOnMasterAddressFlagUntilTimeout>
 8003ff8:	4603      	mov	r3, r0
 8003ffa:	2b00      	cmp	r3, #0
 8003ffc:	d001      	beq.n	8004002 <I2C_RequestMemoryRead+0x1c2>
  {
    return HAL_ERROR;
 8003ffe:	2301      	movs	r3, #1
 8004000:	e000      	b.n	8004004 <I2C_RequestMemoryRead+0x1c4>
  }

  return HAL_OK;
 8004002:	2300      	movs	r3, #0
}
 8004004:	4618      	mov	r0, r3
 8004006:	3718      	adds	r7, #24
 8004008:	46bd      	mov	sp, r7
 800400a:	bd80      	pop	{r7, pc}
 800400c:	00010002 	.word	0x00010002

08004010 <I2C_WaitOnFlagUntilTimeout>:
  * @param  Timeout Timeout duration
  * @param  Tickstart Tick start value
  * @retval HAL status
  */
static HAL_StatusTypeDef I2C_WaitOnFlagUntilTimeout(I2C_HandleTypeDef *hi2c, uint32_t Flag, FlagStatus Status, uint32_t Timeout, uint32_t Tickstart)
{
 8004010:	b580      	push	{r7, lr}
 8004012:	b084      	sub	sp, #16
 8004014:	af00      	add	r7, sp, #0
 8004016:	60f8      	str	r0, [r7, #12]
 8004018:	60b9      	str	r1, [r7, #8]
 800401a:	603b      	str	r3, [r7, #0]
 800401c:	4613      	mov	r3, r2
 800401e:	71fb      	strb	r3, [r7, #7]
  /* Wait until flag is set */
  while (__HAL_I2C_GET_FLAG(hi2c, Flag) == Status)
 8004020:	e048      	b.n	80040b4 <I2C_WaitOnFlagUntilTimeout+0xa4>
  {
    /* Check for the Timeout */
    if (Timeout != HAL_MAX_DELAY)
 8004022:	683b      	ldr	r3, [r7, #0]
 8004024:	f1b3 3fff 	cmp.w	r3, #4294967295
 8004028:	d044      	beq.n	80040b4 <I2C_WaitOnFlagUntilTimeout+0xa4>
    {
      if (((HAL_GetTick() - Tickstart) > Timeout) || (Timeout == 0U))
 800402a:	f7fe ff19 	bl	8002e60 <HAL_GetTick>
 800402e:	4602      	mov	r2, r0
 8004030:	69bb      	ldr	r3, [r7, #24]
 8004032:	1ad3      	subs	r3, r2, r3
 8004034:	683a      	ldr	r2, [r7, #0]
 8004036:	429a      	cmp	r2, r3
 8004038:	d302      	bcc.n	8004040 <I2C_WaitOnFlagUntilTimeout+0x30>
 800403a:	683b      	ldr	r3, [r7, #0]
 800403c:	2b00      	cmp	r3, #0
 800403e:	d139      	bne.n	80040b4 <I2C_WaitOnFlagUntilTimeout+0xa4>
      {
        if ((__HAL_I2C_GET_FLAG(hi2c, Flag) == Status))
 8004040:	68bb      	ldr	r3, [r7, #8]
 8004042:	0c1b      	lsrs	r3, r3, #16
 8004044:	b2db      	uxtb	r3, r3
 8004046:	2b01      	cmp	r3, #1
 8004048:	d10d      	bne.n	8004066 <I2C_WaitOnFlagUntilTimeout+0x56>
 800404a:	68fb      	ldr	r3, [r7, #12]
 800404c:	681b      	ldr	r3, [r3, #0]
 800404e:	695b      	ldr	r3, [r3, #20]
 8004050:	43da      	mvns	r2, r3
 8004052:	68bb      	ldr	r3, [r7, #8]
 8004054:	4013      	ands	r3, r2
 8004056:	b29b      	uxth	r3, r3
 8004058:	2b00      	cmp	r3, #0
 800405a:	bf0c      	ite	eq
 800405c:	2301      	moveq	r3, #1
 800405e:	2300      	movne	r3, #0
 8004060:	b2db      	uxtb	r3, r3
 8004062:	461a      	mov	r2, r3
 8004064:	e00c      	b.n	8004080 <I2C_WaitOnFlagUntilTimeout+0x70>
 8004066:	68fb      	ldr	r3, [r7, #12]
 8004068:	681b      	ldr	r3, [r3, #0]
 800406a:	699b      	ldr	r3, [r3, #24]
 800406c:	43da      	mvns	r2, r3
 800406e:	68bb      	ldr	r3, [r7, #8]
 8004070:	4013      	ands	r3, r2
 8004072:	b29b      	uxth	r3, r3
 8004074:	2b00      	cmp	r3, #0
 8004076:	bf0c      	ite	eq
 8004078:	2301      	moveq	r3, #1
 800407a:	2300      	movne	r3, #0
 800407c:	b2db      	uxtb	r3, r3
 800407e:	461a      	mov	r2, r3
 8004080:	79fb      	ldrb	r3, [r7, #7]
 8004082:	429a      	cmp	r2, r3
 8004084:	d116      	bne.n	80040b4 <I2C_WaitOnFlagUntilTimeout+0xa4>
        {
          hi2c->PreviousState     = I2C_STATE_NONE;
 8004086:	68fb      	ldr	r3, [r7, #12]
 8004088:	2200      	movs	r2, #0
 800408a:	631a      	str	r2, [r3, #48]	@ 0x30
          hi2c->State             = HAL_I2C_STATE_READY;
 800408c:	68fb      	ldr	r3, [r7, #12]
 800408e:	2220      	movs	r2, #32
 8004090:	f883 203d 	strb.w	r2, [r3, #61]	@ 0x3d
          hi2c->Mode              = HAL_I2C_MODE_NONE;
 8004094:	68fb      	ldr	r3, [r7, #12]
 8004096:	2200      	movs	r2, #0
 8004098:	f883 203e 	strb.w	r2, [r3, #62]	@ 0x3e
          hi2c->ErrorCode         |= HAL_I2C_ERROR_TIMEOUT;
 800409c:	68fb      	ldr	r3, [r7, #12]
 800409e:	6c1b      	ldr	r3, [r3, #64]	@ 0x40
 80040a0:	f043 0220 	orr.w	r2, r3, #32
 80040a4:	68fb      	ldr	r3, [r7, #12]
 80040a6:	641a      	str	r2, [r3, #64]	@ 0x40

          /* Process Unlocked */
          __HAL_UNLOCK(hi2c);
 80040a8:	68fb      	ldr	r3, [r7, #12]
 80040aa:	2200      	movs	r2, #0
 80040ac:	f883 203c 	strb.w	r2, [r3, #60]	@ 0x3c

          return HAL_ERROR;
 80040b0:	2301      	movs	r3, #1
 80040b2:	e023      	b.n	80040fc <I2C_WaitOnFlagUntilTimeout+0xec>
  while (__HAL_I2C_GET_FLAG(hi2c, Flag) == Status)
 80040b4:	68bb      	ldr	r3, [r7, #8]
 80040b6:	0c1b      	lsrs	r3, r3, #16
 80040b8:	b2db      	uxtb	r3, r3
 80040ba:	2b01      	cmp	r3, #1
 80040bc:	d10d      	bne.n	80040da <I2C_WaitOnFlagUntilTimeout+0xca>
 80040be:	68fb      	ldr	r3, [r7, #12]
 80040c0:	681b      	ldr	r3, [r3, #0]
 80040c2:	695b      	ldr	r3, [r3, #20]
 80040c4:	43da      	mvns	r2, r3
 80040c6:	68bb      	ldr	r3, [r7, #8]
 80040c8:	4013      	ands	r3, r2
 80040ca:	b29b      	uxth	r3, r3
 80040cc:	2b00      	cmp	r3, #0
 80040ce:	bf0c      	ite	eq
 80040d0:	2301      	moveq	r3, #1
 80040d2:	2300      	movne	r3, #0
 80040d4:	b2db      	uxtb	r3, r3
 80040d6:	461a      	mov	r2, r3
 80040d8:	e00c      	b.n	80040f4 <I2C_WaitOnFlagUntilTimeout+0xe4>
 80040da:	68fb      	ldr	r3, [r7, #12]
 80040dc:	681b      	ldr	r3, [r3, #0]
 80040de:	699b      	ldr	r3, [r3, #24]
 80040e0:	43da      	mvns	r2, r3
 80040e2:	68bb      	ldr	r3, [r7, #8]
 80040e4:	4013      	ands	r3, r2
 80040e6:	b29b      	uxth	r3, r3
 80040e8:	2b00      	cmp	r3, #0
 80040ea:	bf0c      	ite	eq
 80040ec:	2301      	moveq	r3, #1
 80040ee:	2300      	movne	r3, #0
 80040f0:	b2db      	uxtb	r3, r3
 80040f2:	461a      	mov	r2, r3
 80040f4:	79fb      	ldrb	r3, [r7, #7]
 80040f6:	429a      	cmp	r2, r3
 80040f8:	d093      	beq.n	8004022 <I2C_WaitOnFlagUntilTimeout+0x12>
        }
      }
    }
  }
  return HAL_OK;
 80040fa:	2300      	movs	r3, #0
}
 80040fc:	4618      	mov	r0, r3
 80040fe:	3710      	adds	r7, #16
 8004100:	46bd      	mov	sp, r7
 8004102:	bd80      	pop	{r7, pc}

08004104 <I2C_WaitOnMasterAddressFlagUntilTimeout>:
  * @param  Timeout Timeout duration
  * @param  Tickstart Tick start value
  * @retval HAL status
  */
static HAL_StatusTypeDef I2C_WaitOnMasterAddressFlagUntilTimeout(I2C_HandleTypeDef *hi2c, uint32_t Flag, uint32_t Timeout, uint32_t Tickstart)
{
 8004104:	b580      	push	{r7, lr}
 8004106:	b084      	sub	sp, #16
 8004108:	af00      	add	r7, sp, #0
 800410a:	60f8      	str	r0, [r7, #12]
 800410c:	60b9      	str	r1, [r7, #8]
 800410e:	607a      	str	r2, [r7, #4]
 8004110:	603b      	str	r3, [r7, #0]
  while (__HAL_I2C_GET_FLAG(hi2c, Flag) == RESET)
 8004112:	e071      	b.n	80041f8 <I2C_WaitOnMasterAddressFlagUntilTimeout+0xf4>
  {
    if (__HAL_I2C_GET_FLAG(hi2c, I2C_FLAG_AF) == SET)
 8004114:	68fb      	ldr	r3, [r7, #12]
 8004116:	681b      	ldr	r3, [r3, #0]
 8004118:	695b      	ldr	r3, [r3, #20]
 800411a:	f403 6380 	and.w	r3, r3, #1024	@ 0x400
 800411e:	f5b3 6f80 	cmp.w	r3, #1024	@ 0x400
 8004122:	d123      	bne.n	800416c <I2C_WaitOnMasterAddressFlagUntilTimeout+0x68>
    {
      /* Generate Stop */
      SET_BIT(hi2c->Instance->CR1, I2C_CR1_STOP);
 8004124:	68fb      	ldr	r3, [r7, #12]
 8004126:	681b      	ldr	r3, [r3, #0]
 8004128:	681a      	ldr	r2, [r3, #0]
 800412a:	68fb      	ldr	r3, [r7, #12]
 800412c:	681b      	ldr	r3, [r3, #0]
 800412e:	f442 7200 	orr.w	r2, r2, #512	@ 0x200
 8004132:	601a      	str	r2, [r3, #0]

      /* Clear AF Flag */
      __HAL_I2C_CLEAR_FLAG(hi2c, I2C_FLAG_AF);
 8004134:	68fb      	ldr	r3, [r7, #12]
 8004136:	681b      	ldr	r3, [r3, #0]
 8004138:	f46f 6280 	mvn.w	r2, #1024	@ 0x400
 800413c:	615a      	str	r2, [r3, #20]

      hi2c->PreviousState       = I2C_STATE_NONE;
 800413e:	68fb      	ldr	r3, [r7, #12]
 8004140:	2200      	movs	r2, #0
 8004142:	631a      	str	r2, [r3, #48]	@ 0x30
      hi2c->State               = HAL_I2C_STATE_READY;
 8004144:	68fb      	ldr	r3, [r7, #12]
 8004146:	2220      	movs	r2, #32
 8004148:	f883 203d 	strb.w	r2, [r3, #61]	@ 0x3d
      hi2c->Mode                = HAL_I2C_MODE_NONE;
 800414c:	68fb      	ldr	r3, [r7, #12]
 800414e:	2200      	movs	r2, #0
 8004150:	f883 203e 	strb.w	r2, [r3, #62]	@ 0x3e
      hi2c->ErrorCode           |= HAL_I2C_ERROR_AF;
 8004154:	68fb      	ldr	r3, [r7, #12]
 8004156:	6c1b      	ldr	r3, [r3, #64]	@ 0x40
 8004158:	f043 0204 	orr.w	r2, r3, #4
 800415c:	68fb      	ldr	r3, [r7, #12]
 800415e:	641a      	str	r2, [r3, #64]	@ 0x40

      /* Process Unlocked */
      __HAL_UNLOCK(hi2c);
 8004160:	68fb      	ldr	r3, [r7, #12]
 8004162:	2200      	movs	r2, #0
 8004164:	f883 203c 	strb.w	r2, [r3, #60]	@ 0x3c

      return HAL_ERROR;
 8004168:	2301      	movs	r3, #1
 800416a:	e067      	b.n	800423c <I2C_WaitOnMasterAddressFlagUntilTimeout+0x138>
    }

    /* Check for the Timeout */
    if (Timeout != HAL_MAX_DELAY)
 800416c:	687b      	ldr	r3, [r7, #4]
 800416e:	f1b3 3fff 	cmp.w	r3, #4294967295
 8004172:	d041      	beq.n	80041f8 <I2C_WaitOnMasterAddressFlagUntilTimeout+0xf4>
    {
      if (((HAL_GetTick() - Tickstart) > Timeout) || (Timeout == 0U))
 8004174:	f7fe fe74 	bl	8002e60 <HAL_GetTick>
 8004178:	4602      	mov	r2, r0
 800417a:	683b      	ldr	r3, [r7, #0]
 800417c:	1ad3      	subs	r3, r2, r3
 800417e:	687a      	ldr	r2, [r7, #4]
 8004180:	429a      	cmp	r2, r3
 8004182:	d302      	bcc.n	800418a <I2C_WaitOnMasterAddressFlagUntilTimeout+0x86>
 8004184:	687b      	ldr	r3, [r7, #4]
 8004186:	2b00      	cmp	r3, #0
 8004188:	d136      	bne.n	80041f8 <I2C_WaitOnMasterAddressFlagUntilTimeout+0xf4>
      {
        if ((__HAL_I2C_GET_FLAG(hi2c, Flag) == RESET))
 800418a:	68bb      	ldr	r3, [r7, #8]
 800418c:	0c1b      	lsrs	r3, r3, #16
 800418e:	b2db      	uxtb	r3, r3
 8004190:	2b01      	cmp	r3, #1
 8004192:	d10c      	bne.n	80041ae <I2C_WaitOnMasterAddressFlagUntilTimeout+0xaa>
 8004194:	68fb      	ldr	r3, [r7, #12]
 8004196:	681b      	ldr	r3, [r3, #0]
 8004198:	695b      	ldr	r3, [r3, #20]
 800419a:	43da      	mvns	r2, r3
 800419c:	68bb      	ldr	r3, [r7, #8]
 800419e:	4013      	ands	r3, r2
 80041a0:	b29b      	uxth	r3, r3
 80041a2:	2b00      	cmp	r3, #0
 80041a4:	bf14      	ite	ne
 80041a6:	2301      	movne	r3, #1
 80041a8:	2300      	moveq	r3, #0
 80041aa:	b2db      	uxtb	r3, r3
 80041ac:	e00b      	b.n	80041c6 <I2C_WaitOnMasterAddressFlagUntilTimeout+0xc2>
 80041ae:	68fb      	ldr	r3, [r7, #12]
 80041b0:	681b      	ldr	r3, [r3, #0]
 80041b2:	699b      	ldr	r3, [r3, #24]
 80041b4:	43da      	mvns	r2, r3
 80041b6:	68bb      	ldr	r3, [r7, #8]
 80041b8:	4013      	ands	r3, r2
 80041ba:	b29b      	uxth	r3, r3
 80041bc:	2b00      	cmp	r3, #0
 80041be:	bf14      	ite	ne
 80041c0:	2301      	movne	r3, #1
 80041c2:	2300      	moveq	r3, #0
 80041c4:	b2db      	uxtb	r3, r3
 80041c6:	2b00      	cmp	r3, #0
 80041c8:	d016      	beq.n	80041f8 <I2C_WaitOnMasterAddressFlagUntilTimeout+0xf4>
        {
          hi2c->PreviousState       = I2C_STATE_NONE;
 80041ca:	68fb      	ldr	r3, [r7, #12]
 80041cc:	2200      	movs	r2, #0
 80041ce:	631a      	str	r2, [r3, #48]	@ 0x30
          hi2c->State               = HAL_I2C_STATE_READY;
 80041d0:	68fb      	ldr	r3, [r7, #12]
 80041d2:	2220      	movs	r2, #32
 80041d4:	f883 203d 	strb.w	r2, [r3, #61]	@ 0x3d
          hi2c->Mode                = HAL_I2C_MODE_NONE;
 80041d8:	68fb      	ldr	r3, [r7, #12]
 80041da:	2200      	movs	r2, #0
 80041dc:	f883 203e 	strb.w	r2, [r3, #62]	@ 0x3e
          hi2c->ErrorCode           |= HAL_I2C_ERROR_TIMEOUT;
 80041e0:	68fb      	ldr	r3, [r7, #12]
 80041e2:	6c1b      	ldr	r3, [r3, #64]	@ 0x40
 80041e4:	f043 0220 	orr.w	r2, r3, #32
 80041e8:	68fb      	ldr	r3, [r7, #12]
 80041ea:	641a      	str	r2, [r3, #64]	@ 0x40

          /* Process Unlocked */
          __HAL_UNLOCK(hi2c);
 80041ec:	68fb      	ldr	r3, [r7, #12]
 80041ee:	2200      	movs	r2, #0
 80041f0:	f883 203c 	strb.w	r2, [r3, #60]	@ 0x3c

          return HAL_ERROR;
 80041f4:	2301      	movs	r3, #1
 80041f6:	e021      	b.n	800423c <I2C_WaitOnMasterAddressFlagUntilTimeout+0x138>
  while (__HAL_I2C_GET_FLAG(hi2c, Flag) == RESET)
 80041f8:	68bb      	ldr	r3, [r7, #8]
 80041fa:	0c1b      	lsrs	r3, r3, #16
 80041fc:	b2db      	uxtb	r3, r3
 80041fe:	2b01      	cmp	r3, #1
 8004200:	d10c      	bne.n	800421c <I2C_WaitOnMasterAddressFlagUntilTimeout+0x118>
 8004202:	68fb      	ldr	r3, [r7, #12]
 8004204:	681b      	ldr	r3, [r3, #0]
 8004206:	695b      	ldr	r3, [r3, #20]
 8004208:	43da      	mvns	r2, r3
 800420a:	68bb      	ldr	r3, [r7, #8]
 800420c:	4013      	ands	r3, r2
 800420e:	b29b      	uxth	r3, r3
 8004210:	2b00      	cmp	r3, #0
 8004212:	bf14      	ite	ne
 8004214:	2301      	movne	r3, #1
 8004216:	2300      	moveq	r3, #0
 8004218:	b2db      	uxtb	r3, r3
 800421a:	e00b      	b.n	8004234 <I2C_WaitOnMasterAddressFlagUntilTimeout+0x130>
 800421c:	68fb      	ldr	r3, [r7, #12]
 800421e:	681b      	ldr	r3, [r3, #0]
 8004220:	699b      	ldr	r3, [r3, #24]
 8004222:	43da      	mvns	r2, r3
 8004224:	68bb      	ldr	r3, [r7, #8]
 8004226:	4013      	ands	r3, r2
 8004228:	b29b      	uxth	r3, r3
 800422a:	2b00      	cmp	r3, #0
 800422c:	bf14      	ite	ne
 800422e:	2301      	movne	r3, #1
 8004230:	2300      	moveq	r3, #0
 8004232:	b2db      	uxtb	r3, r3
 8004234:	2b00      	cmp	r3, #0
 8004236:	f47f af6d 	bne.w	8004114 <I2C_WaitOnMasterAddressFlagUntilTimeout+0x10>
        }
      }
    }
  }
  return HAL_OK;
 800423a:	2300      	movs	r3, #0
}
 800423c:	4618      	mov	r0, r3
 800423e:	3710      	adds	r7, #16
 8004240:	46bd      	mov	sp, r7
 8004242:	bd80      	pop	{r7, pc}

08004244 <I2C_WaitOnTXEFlagUntilTimeout>:
  * @param  Timeout Timeout duration
  * @param  Tickstart Tick start value
  * @retval HAL status
  */
static HAL_StatusTypeDef I2C_WaitOnTXEFlagUntilTimeout(I2C_HandleTypeDef *hi2c, uint32_t Timeout, uint32_t Tickstart)
{
 8004244:	b580      	push	{r7, lr}
 8004246:	b084      	sub	sp, #16
 8004248:	af00      	add	r7, sp, #0
 800424a:	60f8      	str	r0, [r7, #12]
 800424c:	60b9      	str	r1, [r7, #8]
 800424e:	607a      	str	r2, [r7, #4]
  while (__HAL_I2C_GET_FLAG(hi2c, I2C_FLAG_TXE) == RESET)
 8004250:	e034      	b.n	80042bc <I2C_WaitOnTXEFlagUntilTimeout+0x78>
  {
    /* Check if a NACK is detected */
    if (I2C_IsAcknowledgeFailed(hi2c) != HAL_OK)
 8004252:	68f8      	ldr	r0, [r7, #12]
 8004254:	f000 f8e3 	bl	800441e <I2C_IsAcknowledgeFailed>
 8004258:	4603      	mov	r3, r0
 800425a:	2b00      	cmp	r3, #0
 800425c:	d001      	beq.n	8004262 <I2C_WaitOnTXEFlagUntilTimeout+0x1e>
    {
      return HAL_ERROR;
 800425e:	2301      	movs	r3, #1
 8004260:	e034      	b.n	80042cc <I2C_WaitOnTXEFlagUntilTimeout+0x88>
    }

    /* Check for the Timeout */
    if (Timeout != HAL_MAX_DELAY)
 8004262:	68bb      	ldr	r3, [r7, #8]
 8004264:	f1b3 3fff 	cmp.w	r3, #4294967295
 8004268:	d028      	beq.n	80042bc <I2C_WaitOnTXEFlagUntilTimeout+0x78>
    {
      if (((HAL_GetTick() - Tickstart) > Timeout) || (Timeout == 0U))
 800426a:	f7fe fdf9 	bl	8002e60 <HAL_GetTick>
 800426e:	4602      	mov	r2, r0
 8004270:	687b      	ldr	r3, [r7, #4]
 8004272:	1ad3      	subs	r3, r2, r3
 8004274:	68ba      	ldr	r2, [r7, #8]
 8004276:	429a      	cmp	r2, r3
 8004278:	d302      	bcc.n	8004280 <I2C_WaitOnTXEFlagUntilTimeout+0x3c>
 800427a:	68bb      	ldr	r3, [r7, #8]
 800427c:	2b00      	cmp	r3, #0
 800427e:	d11d      	bne.n	80042bc <I2C_WaitOnTXEFlagUntilTimeout+0x78>
      {
        if ((__HAL_I2C_GET_FLAG(hi2c, I2C_FLAG_TXE) == RESET))
 8004280:	68fb      	ldr	r3, [r7, #12]
 8004282:	681b      	ldr	r3, [r3, #0]
 8004284:	695b      	ldr	r3, [r3, #20]
 8004286:	f003 0380 	and.w	r3, r3, #128	@ 0x80
 800428a:	2b80      	cmp	r3, #128	@ 0x80
 800428c:	d016      	beq.n	80042bc <I2C_WaitOnTXEFlagUntilTimeout+0x78>
        {
          hi2c->PreviousState       = I2C_STATE_NONE;
 800428e:	68fb      	ldr	r3, [r7, #12]
 8004290:	2200      	movs	r2, #0
 8004292:	631a      	str	r2, [r3, #48]	@ 0x30
          hi2c->State               = HAL_I2C_STATE_READY;
 8004294:	68fb      	ldr	r3, [r7, #12]
 8004296:	2220      	movs	r2, #32
 8004298:	f883 203d 	strb.w	r2, [r3, #61]	@ 0x3d
          hi2c->Mode                = HAL_I2C_MODE_NONE;
 800429c:	68fb      	ldr	r3, [r7, #12]
 800429e:	2200      	movs	r2, #0
 80042a0:	f883 203e 	strb.w	r2, [r3, #62]	@ 0x3e
          hi2c->ErrorCode           |= HAL_I2C_ERROR_TIMEOUT;
 80042a4:	68fb      	ldr	r3, [r7, #12]
 80042a6:	6c1b      	ldr	r3, [r3, #64]	@ 0x40
 80042a8:	f043 0220 	orr.w	r2, r3, #32
 80042ac:	68fb      	ldr	r3, [r7, #12]
 80042ae:	641a      	str	r2, [r3, #64]	@ 0x40

          /* Process Unlocked */
          __HAL_UNLOCK(hi2c);
 80042b0:	68fb      	ldr	r3, [r7, #12]
 80042b2:	2200      	movs	r2, #0
 80042b4:	f883 203c 	strb.w	r2, [r3, #60]	@ 0x3c

          return HAL_ERROR;
 80042b8:	2301      	movs	r3, #1
 80042ba:	e007      	b.n	80042cc <I2C_WaitOnTXEFlagUntilTimeout+0x88>
  while (__HAL_I2C_GET_FLAG(hi2c, I2C_FLAG_TXE) == RESET)
 80042bc:	68fb      	ldr	r3, [r7, #12]
 80042be:	681b      	ldr	r3, [r3, #0]
 80042c0:	695b      	ldr	r3, [r3, #20]
 80042c2:	f003 0380 	and.w	r3, r3, #128	@ 0x80
 80042c6:	2b80      	cmp	r3, #128	@ 0x80
 80042c8:	d1c3      	bne.n	8004252 <I2C_WaitOnTXEFlagUntilTimeout+0xe>
        }
      }
    }
  }
  return HAL_OK;
 80042ca:	2300      	movs	r3, #0
}
 80042cc:	4618      	mov	r0, r3
 80042ce:	3710      	adds	r7, #16
 80042d0:	46bd      	mov	sp, r7
 80042d2:	bd80      	pop	{r7, pc}

080042d4 <I2C_WaitOnBTFFlagUntilTimeout>:
  * @param  Timeout Timeout duration
  * @param  Tickstart Tick start value
  * @retval HAL status
  */
static HAL_StatusTypeDef I2C_WaitOnBTFFlagUntilTimeout(I2C_HandleTypeDef *hi2c, uint32_t Timeout, uint32_t Tickstart)
{
 80042d4:	b580      	push	{r7, lr}
 80042d6:	b084      	sub	sp, #16
 80042d8:	af00      	add	r7, sp, #0
 80042da:	60f8      	str	r0, [r7, #12]
 80042dc:	60b9      	str	r1, [r7, #8]
 80042de:	607a      	str	r2, [r7, #4]
  while (__HAL_I2C_GET_FLAG(hi2c, I2C_FLAG_BTF) == RESET)
 80042e0:	e034      	b.n	800434c <I2C_WaitOnBTFFlagUntilTimeout+0x78>
  {
    /* Check if a NACK is detected */
    if (I2C_IsAcknowledgeFailed(hi2c) != HAL_OK)
 80042e2:	68f8      	ldr	r0, [r7, #12]
 80042e4:	f000 f89b 	bl	800441e <I2C_IsAcknowledgeFailed>
 80042e8:	4603      	mov	r3, r0
 80042ea:	2b00      	cmp	r3, #0
 80042ec:	d001      	beq.n	80042f2 <I2C_WaitOnBTFFlagUntilTimeout+0x1e>
    {
      return HAL_ERROR;
 80042ee:	2301      	movs	r3, #1
 80042f0:	e034      	b.n	800435c <I2C_WaitOnBTFFlagUntilTimeout+0x88>
    }

    /* Check for the Timeout */
    if (Timeout != HAL_MAX_DELAY)
 80042f2:	68bb      	ldr	r3, [r7, #8]
 80042f4:	f1b3 3fff 	cmp.w	r3, #4294967295
 80042f8:	d028      	beq.n	800434c <I2C_WaitOnBTFFlagUntilTimeout+0x78>
    {
      if (((HAL_GetTick() - Tickstart) > Timeout) || (Timeout == 0U))
 80042fa:	f7fe fdb1 	bl	8002e60 <HAL_GetTick>
 80042fe:	4602      	mov	r2, r0
 8004300:	687b      	ldr	r3, [r7, #4]
 8004302:	1ad3      	subs	r3, r2, r3
 8004304:	68ba      	ldr	r2, [r7, #8]
 8004306:	429a      	cmp	r2, r3
 8004308:	d302      	bcc.n	8004310 <I2C_WaitOnBTFFlagUntilTimeout+0x3c>
 800430a:	68bb      	ldr	r3, [r7, #8]
 800430c:	2b00      	cmp	r3, #0
 800430e:	d11d      	bne.n	800434c <I2C_WaitOnBTFFlagUntilTimeout+0x78>
      {
        if ((__HAL_I2C_GET_FLAG(hi2c, I2C_FLAG_BTF) == RESET))
 8004310:	68fb      	ldr	r3, [r7, #12]
 8004312:	681b      	ldr	r3, [r3, #0]
 8004314:	695b      	ldr	r3, [r3, #20]
 8004316:	f003 0304 	and.w	r3, r3, #4
 800431a:	2b04      	cmp	r3, #4
 800431c:	d016      	beq.n	800434c <I2C_WaitOnBTFFlagUntilTimeout+0x78>
        {
          hi2c->PreviousState       = I2C_STATE_NONE;
 800431e:	68fb      	ldr	r3, [r7, #12]
 8004320:	2200      	movs	r2, #0
 8004322:	631a      	str	r2, [r3, #48]	@ 0x30
          hi2c->State               = HAL_I2C_STATE_READY;
 8004324:	68fb      	ldr	r3, [r7, #12]
 8004326:	2220      	movs	r2, #32
 8004328:	f883 203d 	strb.w	r2, [r3, #61]	@ 0x3d
          hi2c->Mode                = HAL_I2C_MODE_NONE;
 800432c:	68fb      	ldr	r3, [r7, #12]
 800432e:	2200      	movs	r2, #0
 8004330:	f883 203e 	strb.w	r2, [r3, #62]	@ 0x3e
          hi2c->ErrorCode           |= HAL_I2C_ERROR_TIMEOUT;
 8004334:	68fb      	ldr	r3, [r7, #12]
 8004336:	6c1b      	ldr	r3, [r3, #64]	@ 0x40
 8004338:	f043 0220 	orr.w	r2, r3, #32
 800433c:	68fb      	ldr	r3, [r7, #12]
 800433e:	641a      	str	r2, [r3, #64]	@ 0x40

          /* Process Unlocked */
          __HAL_UNLOCK(hi2c);
 8004340:	68fb      	ldr	r3, [r7, #12]
 8004342:	2200      	movs	r2, #0
 8004344:	f883 203c 	strb.w	r2, [r3, #60]	@ 0x3c

          return HAL_ERROR;
 8004348:	2301      	movs	r3, #1
 800434a:	e007      	b.n	800435c <I2C_WaitOnBTFFlagUntilTimeout+0x88>
  while (__HAL_I2C_GET_FLAG(hi2c, I2C_FLAG_BTF) == RESET)
 800434c:	68fb      	ldr	r3, [r7, #12]
 800434e:	681b      	ldr	r3, [r3, #0]
 8004350:	695b      	ldr	r3, [r3, #20]
 8004352:	f003 0304 	and.w	r3, r3, #4
 8004356:	2b04      	cmp	r3, #4
 8004358:	d1c3      	bne.n	80042e2 <I2C_WaitOnBTFFlagUntilTimeout+0xe>
        }
      }
    }
  }
  return HAL_OK;
 800435a:	2300      	movs	r3, #0
}
 800435c:	4618      	mov	r0, r3
 800435e:	3710      	adds	r7, #16
 8004360:	46bd      	mov	sp, r7
 8004362:	bd80      	pop	{r7, pc}

08004364 <I2C_WaitOnRXNEFlagUntilTimeout>:
  * @param  Timeout Timeout duration
  * @param  Tickstart Tick start value
  * @retval HAL status
  */
static HAL_StatusTypeDef I2C_WaitOnRXNEFlagUntilTimeout(I2C_HandleTypeDef *hi2c, uint32_t Timeout, uint32_t Tickstart)
{
 8004364:	b580      	push	{r7, lr}
 8004366:	b084      	sub	sp, #16
 8004368:	af00      	add	r7, sp, #0
 800436a:	60f8      	str	r0, [r7, #12]
 800436c:	60b9      	str	r1, [r7, #8]
 800436e:	607a      	str	r2, [r7, #4]

  while (__HAL_I2C_GET_FLAG(hi2c, I2C_FLAG_RXNE) == RESET)
 8004370:	e049      	b.n	8004406 <I2C_WaitOnRXNEFlagUntilTimeout+0xa2>
  {
    /* Check if a STOPF is detected */
    if (__HAL_I2C_GET_FLAG(hi2c, I2C_FLAG_STOPF) == SET)
 8004372:	68fb      	ldr	r3, [r7, #12]
 8004374:	681b      	ldr	r3, [r3, #0]
 8004376:	695b      	ldr	r3, [r3, #20]
 8004378:	f003 0310 	and.w	r3, r3, #16
 800437c:	2b10      	cmp	r3, #16
 800437e:	d119      	bne.n	80043b4 <I2C_WaitOnRXNEFlagUntilTimeout+0x50>
    {
      /* Clear STOP Flag */
      __HAL_I2C_CLEAR_FLAG(hi2c, I2C_FLAG_STOPF);
 8004380:	68fb      	ldr	r3, [r7, #12]
 8004382:	681b      	ldr	r3, [r3, #0]
 8004384:	f06f 0210 	mvn.w	r2, #16
 8004388:	615a      	str	r2, [r3, #20]

      hi2c->PreviousState       = I2C_STATE_NONE;
 800438a:	68fb      	ldr	r3, [r7, #12]
 800438c:	2200      	movs	r2, #0
 800438e:	631a      	str	r2, [r3, #48]	@ 0x30
      hi2c->State               = HAL_I2C_STATE_READY;
 8004390:	68fb      	ldr	r3, [r7, #12]
 8004392:	2220      	movs	r2, #32
 8004394:	f883 203d 	strb.w	r2, [r3, #61]	@ 0x3d
      hi2c->Mode                = HAL_I2C_MODE_NONE;
 8004398:	68fb      	ldr	r3, [r7, #12]
 800439a:	2200      	movs	r2, #0
 800439c:	f883 203e 	strb.w	r2, [r3, #62]	@ 0x3e
      hi2c->ErrorCode           |= HAL_I2C_ERROR_NONE;
 80043a0:	68fb      	ldr	r3, [r7, #12]
 80043a2:	6c1a      	ldr	r2, [r3, #64]	@ 0x40
 80043a4:	68fb      	ldr	r3, [r7, #12]
 80043a6:	641a      	str	r2, [r3, #64]	@ 0x40

      /* Process Unlocked */
      __HAL_UNLOCK(hi2c);
 80043a8:	68fb      	ldr	r3, [r7, #12]
 80043aa:	2200      	movs	r2, #0
 80043ac:	f883 203c 	strb.w	r2, [r3, #60]	@ 0x3c

      return HAL_ERROR;
 80043b0:	2301      	movs	r3, #1
 80043b2:	e030      	b.n	8004416 <I2C_WaitOnRXNEFlagUntilTimeout+0xb2>
    }

    /* Check for the Timeout */
    if (((HAL_GetTick() - Tickstart) > Timeout) || (Timeout == 0U))
 80043b4:	f7fe fd54 	bl	8002e60 <HAL_GetTick>
 80043b8:	4602      	mov	r2, r0
 80043ba:	687b      	ldr	r3, [r7, #4]
 80043bc:	1ad3      	subs	r3, r2, r3
 80043be:	68ba      	ldr	r2, [r7, #8]
 80043c0:	429a      	cmp	r2, r3
 80043c2:	d302      	bcc.n	80043ca <I2C_WaitOnRXNEFlagUntilTimeout+0x66>
 80043c4:	68bb      	ldr	r3, [r7, #8]
 80043c6:	2b00      	cmp	r3, #0
 80043c8:	d11d      	bne.n	8004406 <I2C_WaitOnRXNEFlagUntilTimeout+0xa2>
    {
      if ((__HAL_I2C_GET_FLAG(hi2c, I2C_FLAG_RXNE) == RESET))
 80043ca:	68fb      	ldr	r3, [r7, #12]
 80043cc:	681b      	ldr	r3, [r3, #0]
 80043ce:	695b      	ldr	r3, [r3, #20]
 80043d0:	f003 0340 	and.w	r3, r3, #64	@ 0x40
 80043d4:	2b40      	cmp	r3, #64	@ 0x40
 80043d6:	d016      	beq.n	8004406 <I2C_WaitOnRXNEFlagUntilTimeout+0xa2>
      {
        hi2c->PreviousState       = I2C_STATE_NONE;
 80043d8:	68fb      	ldr	r3, [r7, #12]
 80043da:	2200      	movs	r2, #0
 80043dc:	631a      	str	r2, [r3, #48]	@ 0x30
        hi2c->State               = HAL_I2C_STATE_READY;
 80043de:	68fb      	ldr	r3, [r7, #12]
 80043e0:	2220      	movs	r2, #32
 80043e2:	f883 203d 	strb.w	r2, [r3, #61]	@ 0x3d
        hi2c->Mode                = HAL_I2C_MODE_NONE;
 80043e6:	68fb      	ldr	r3, [r7, #12]
 80043e8:	2200      	movs	r2, #0
 80043ea:	f883 203e 	strb.w	r2, [r3, #62]	@ 0x3e
        hi2c->ErrorCode           |= HAL_I2C_ERROR_TIMEOUT;
 80043ee:	68fb      	ldr	r3, [r7, #12]
 80043f0:	6c1b      	ldr	r3, [r3, #64]	@ 0x40
 80043f2:	f043 0220 	orr.w	r2, r3, #32
 80043f6:	68fb      	ldr	r3, [r7, #12]
 80043f8:	641a      	str	r2, [r3, #64]	@ 0x40

        /* Process Unlocked */
        __HAL_UNLOCK(hi2c);
 80043fa:	68fb      	ldr	r3, [r7, #12]
 80043fc:	2200      	movs	r2, #0
 80043fe:	f883 203c 	strb.w	r2, [r3, #60]	@ 0x3c

        return HAL_ERROR;
 8004402:	2301      	movs	r3, #1
 8004404:	e007      	b.n	8004416 <I2C_WaitOnRXNEFlagUntilTimeout+0xb2>
  while (__HAL_I2C_GET_FLAG(hi2c, I2C_FLAG_RXNE) == RESET)
 8004406:	68fb      	ldr	r3, [r7, #12]
 8004408:	681b      	ldr	r3, [r3, #0]
 800440a:	695b      	ldr	r3, [r3, #20]
 800440c:	f003 0340 	and.w	r3, r3, #64	@ 0x40
 8004410:	2b40      	cmp	r3, #64	@ 0x40
 8004412:	d1ae      	bne.n	8004372 <I2C_WaitOnRXNEFlagUntilTimeout+0xe>
      }
    }
  }
  return HAL_OK;
 8004414:	2300      	movs	r3, #0
}
 8004416:	4618      	mov	r0, r3
 8004418:	3710      	adds	r7, #16
 800441a:	46bd      	mov	sp, r7
 800441c:	bd80      	pop	{r7, pc}

0800441e <I2C_IsAcknowledgeFailed>:
  * @param  hi2c Pointer to a I2C_HandleTypeDef structure that contains
  *                the configuration information for the specified I2C.
  * @retval HAL status
  */
static HAL_StatusTypeDef I2C_IsAcknowledgeFailed(I2C_HandleTypeDef *hi2c)
{
 800441e:	b480      	push	{r7}
 8004420:	b083      	sub	sp, #12
 8004422:	af00      	add	r7, sp, #0
 8004424:	6078      	str	r0, [r7, #4]
  if (__HAL_I2C_GET_FLAG(hi2c, I2C_FLAG_AF) == SET)
 8004426:	687b      	ldr	r3, [r7, #4]
 8004428:	681b      	ldr	r3, [r3, #0]
 800442a:	695b      	ldr	r3, [r3, #20]
 800442c:	f403 6380 	and.w	r3, r3, #1024	@ 0x400
 8004430:	f5b3 6f80 	cmp.w	r3, #1024	@ 0x400
 8004434:	d11b      	bne.n	800446e <I2C_IsAcknowledgeFailed+0x50>
  {
    /* Clear NACKF Flag */
    __HAL_I2C_CLEAR_FLAG(hi2c, I2C_FLAG_AF);
 8004436:	687b      	ldr	r3, [r7, #4]
 8004438:	681b      	ldr	r3, [r3, #0]
 800443a:	f46f 6280 	mvn.w	r2, #1024	@ 0x400
 800443e:	615a      	str	r2, [r3, #20]

    hi2c->PreviousState       = I2C_STATE_NONE;
 8004440:	687b      	ldr	r3, [r7, #4]
 8004442:	2200      	movs	r2, #0
 8004444:	631a      	str	r2, [r3, #48]	@ 0x30
    hi2c->State               = HAL_I2C_STATE_READY;
 8004446:	687b      	ldr	r3, [r7, #4]
 8004448:	2220      	movs	r2, #32
 800444a:	f883 203d 	strb.w	r2, [r3, #61]	@ 0x3d
    hi2c->Mode                = HAL_I2C_MODE_NONE;
 800444e:	687b      	ldr	r3, [r7, #4]
 8004450:	2200      	movs	r2, #0
 8004452:	f883 203e 	strb.w	r2, [r3, #62]	@ 0x3e
    hi2c->ErrorCode           |= HAL_I2C_ERROR_AF;
 8004456:	687b      	ldr	r3, [r7, #4]
 8004458:	6c1b      	ldr	r3, [r3, #64]	@ 0x40
 800445a:	f043 0204 	orr.w	r2, r3, #4
 800445e:	687b      	ldr	r3, [r7, #4]
 8004460:	641a      	str	r2, [r3, #64]	@ 0x40

    /* Process Unlocked */
    __HAL_UNLOCK(hi2c);
 8004462:	687b      	ldr	r3, [r7, #4]
 8004464:	2200      	movs	r2, #0
 8004466:	f883 203c 	strb.w	r2, [r3, #60]	@ 0x3c

    return HAL_ERROR;
 800446a:	2301      	movs	r3, #1
 800446c:	e000      	b.n	8004470 <I2C_IsAcknowledgeFailed+0x52>
  }
  return HAL_OK;
 800446e:	2300      	movs	r3, #0
}
 8004470:	4618      	mov	r0, r3
 8004472:	370c      	adds	r7, #12
 8004474:	46bd      	mov	sp, r7
 8004476:	bc80      	pop	{r7}
 8004478:	4770      	bx	lr
	...

0800447c <HAL_RCC_OscConfig>:
  *         supported by this macro. User should request a transition to HSE Off
  *         first and then HSE On or HSE Bypass.
  * @retval HAL status
  */
HAL_StatusTypeDef HAL_RCC_OscConfig(RCC_OscInitTypeDef  *RCC_OscInitStruct)
{
 800447c:	b580      	push	{r7, lr}
 800447e:	b086      	sub	sp, #24
 8004480:	af00      	add	r7, sp, #0
 8004482:	6078      	str	r0, [r7, #4]
  uint32_t tickstart;
  uint32_t pll_config;

  /* Check Null pointer */
  if (RCC_OscInitStruct == NULL)
 8004484:	687b      	ldr	r3, [r7, #4]
 8004486:	2b00      	cmp	r3, #0
 8004488:	d101      	bne.n	800448e <HAL_RCC_OscConfig+0x12>
  {
    return HAL_ERROR;
 800448a:	2301      	movs	r3, #1
 800448c:	e272      	b.n	8004974 <HAL_RCC_OscConfig+0x4f8>

  /* Check the parameters */
  assert_param(IS_RCC_OSCILLATORTYPE(RCC_OscInitStruct->OscillatorType));

  /*------------------------------- HSE Configuration ------------------------*/
  if (((RCC_OscInitStruct->OscillatorType) & RCC_OSCILLATORTYPE_HSE) == RCC_OSCILLATORTYPE_HSE)
 800448e:	687b      	ldr	r3, [r7, #4]
 8004490:	681b      	ldr	r3, [r3, #0]
 8004492:	f003 0301 	and.w	r3, r3, #1
 8004496:	2b00      	cmp	r3, #0
 8004498:	f000 8087 	beq.w	80045aa <HAL_RCC_OscConfig+0x12e>
  {
    /* Check the parameters */
    assert_param(IS_RCC_HSE(RCC_OscInitStruct->HSEState));

    /* When the HSE is used as system clock or clock source for PLL in these cases it is not allowed to be disabled */
    if ((__HAL_RCC_GET_SYSCLK_SOURCE() == RCC_SYSCLKSOURCE_STATUS_HSE)
 800449c:	4b92      	ldr	r3, [pc, #584]	@ (80046e8 <HAL_RCC_OscConfig+0x26c>)
 800449e:	685b      	ldr	r3, [r3, #4]
 80044a0:	f003 030c 	and.w	r3, r3, #12
 80044a4:	2b04      	cmp	r3, #4
 80044a6:	d00c      	beq.n	80044c2 <HAL_RCC_OscConfig+0x46>
        || ((__HAL_RCC_GET_SYSCLK_SOURCE() == RCC_SYSCLKSOURCE_STATUS_PLLCLK) && (__HAL_RCC_GET_PLL_OSCSOURCE() == RCC_PLLSOURCE_HSE)))
 80044a8:	4b8f      	ldr	r3, [pc, #572]	@ (80046e8 <HAL_RCC_OscConfig+0x26c>)
 80044aa:	685b      	ldr	r3, [r3, #4]
 80044ac:	f003 030c 	and.w	r3, r3, #12
 80044b0:	2b08      	cmp	r3, #8
 80044b2:	d112      	bne.n	80044da <HAL_RCC_OscConfig+0x5e>
 80044b4:	4b8c      	ldr	r3, [pc, #560]	@ (80046e8 <HAL_RCC_OscConfig+0x26c>)
 80044b6:	685b      	ldr	r3, [r3, #4]
 80044b8:	f403 3380 	and.w	r3, r3, #65536	@ 0x10000
 80044bc:	f5b3 3f80 	cmp.w	r3, #65536	@ 0x10000
 80044c0:	d10b      	bne.n	80044da <HAL_RCC_OscConfig+0x5e>
    {
      if ((__HAL_RCC_GET_FLAG(RCC_FLAG_HSERDY) != RESET) && (RCC_OscInitStruct->HSEState == RCC_HSE_OFF))
 80044c2:	4b89      	ldr	r3, [pc, #548]	@ (80046e8 <HAL_RCC_OscConfig+0x26c>)
 80044c4:	681b      	ldr	r3, [r3, #0]
 80044c6:	f403 3300 	and.w	r3, r3, #131072	@ 0x20000
 80044ca:	2b00      	cmp	r3, #0
 80044cc:	d06c      	beq.n	80045a8 <HAL_RCC_OscConfig+0x12c>
 80044ce:	687b      	ldr	r3, [r7, #4]
 80044d0:	685b      	ldr	r3, [r3, #4]
 80044d2:	2b00      	cmp	r3, #0
 80044d4:	d168      	bne.n	80045a8 <HAL_RCC_OscConfig+0x12c>
      {
        return HAL_ERROR;
 80044d6:	2301      	movs	r3, #1
 80044d8:	e24c      	b.n	8004974 <HAL_RCC_OscConfig+0x4f8>
      }
    }
    else
    {
      /* Set the new HSE configuration ---------------------------------------*/
      __HAL_RCC_HSE_CONFIG(RCC_OscInitStruct->HSEState);
 80044da:	687b      	ldr	r3, [r7, #4]
 80044dc:	685b      	ldr	r3, [r3, #4]
 80044de:	f5b3 3f80 	cmp.w	r3, #65536	@ 0x10000
 80044e2:	d106      	bne.n	80044f2 <HAL_RCC_OscConfig+0x76>
 80044e4:	4b80      	ldr	r3, [pc, #512]	@ (80046e8 <HAL_RCC_OscConfig+0x26c>)
 80044e6:	681b      	ldr	r3, [r3, #0]
 80044e8:	4a7f      	ldr	r2, [pc, #508]	@ (80046e8 <HAL_RCC_OscConfig+0x26c>)
 80044ea:	f443 3380 	orr.w	r3, r3, #65536	@ 0x10000
 80044ee:	6013      	str	r3, [r2, #0]
 80044f0:	e02e      	b.n	8004550 <HAL_RCC_OscConfig+0xd4>
 80044f2:	687b      	ldr	r3, [r7, #4]
 80044f4:	685b      	ldr	r3, [r3, #4]
 80044f6:	2b00      	cmp	r3, #0
 80044f8:	d10c      	bne.n	8004514 <HAL_RCC_OscConfig+0x98>
 80044fa:	4b7b      	ldr	r3, [pc, #492]	@ (80046e8 <HAL_RCC_OscConfig+0x26c>)
 80044fc:	681b      	ldr	r3, [r3, #0]
 80044fe:	4a7a      	ldr	r2, [pc, #488]	@ (80046e8 <HAL_RCC_OscConfig+0x26c>)
 8004500:	f423 3380 	bic.w	r3, r3, #65536	@ 0x10000
 8004504:	6013      	str	r3, [r2, #0]
 8004506:	4b78      	ldr	r3, [pc, #480]	@ (80046e8 <HAL_RCC_OscConfig+0x26c>)
 8004508:	681b      	ldr	r3, [r3, #0]
 800450a:	4a77      	ldr	r2, [pc, #476]	@ (80046e8 <HAL_RCC_OscConfig+0x26c>)
 800450c:	f423 2380 	bic.w	r3, r3, #262144	@ 0x40000
 8004510:	6013      	str	r3, [r2, #0]
 8004512:	e01d      	b.n	8004550 <HAL_RCC_OscConfig+0xd4>
 8004514:	687b      	ldr	r3, [r7, #4]
 8004516:	685b      	ldr	r3, [r3, #4]
 8004518:	f5b3 2fa0 	cmp.w	r3, #327680	@ 0x50000
 800451c:	d10c      	bne.n	8004538 <HAL_RCC_OscConfig+0xbc>
 800451e:	4b72      	ldr	r3, [pc, #456]	@ (80046e8 <HAL_RCC_OscConfig+0x26c>)
 8004520:	681b      	ldr	r3, [r3, #0]
 8004522:	4a71      	ldr	r2, [pc, #452]	@ (80046e8 <HAL_RCC_OscConfig+0x26c>)
 8004524:	f443 2380 	orr.w	r3, r3, #262144	@ 0x40000
 8004528:	6013      	str	r3, [r2, #0]
 800452a:	4b6f      	ldr	r3, [pc, #444]	@ (80046e8 <HAL_RCC_OscConfig+0x26c>)
 800452c:	681b      	ldr	r3, [r3, #0]
 800452e:	4a6e      	ldr	r2, [pc, #440]	@ (80046e8 <HAL_RCC_OscConfig+0x26c>)
 8004530:	f443 3380 	orr.w	r3, r3, #65536	@ 0x10000
 8004534:	6013      	str	r3, [r2, #0]
 8004536:	e00b      	b.n	8004550 <HAL_RCC_OscConfig+0xd4>
 8004538:	4b6b      	ldr	r3, [pc, #428]	@ (80046e8 <HAL_RCC_OscConfig+0x26c>)
 800453a:	681b      	ldr	r3, [r3, #0]
 800453c:	4a6a      	ldr	r2, [pc, #424]	@ (80046e8 <HAL_RCC_OscConfig+0x26c>)
 800453e:	f423 3380 	bic.w	r3, r3, #65536	@ 0x10000
 8004542:	6013      	str	r3, [r2, #0]
 8004544:	4b68      	ldr	r3, [pc, #416]	@ (80046e8 <HAL_RCC_OscConfig+0x26c>)
 8004546:	681b      	ldr	r3, [r3, #0]
 8004548:	4a67      	ldr	r2, [pc, #412]	@ (80046e8 <HAL_RCC_OscConfig+0x26c>)
 800454a:	f423 2380 	bic.w	r3, r3, #262144	@ 0x40000
 800454e:	6013      	str	r3, [r2, #0]


      /* Check the HSE State */
      if (RCC_OscInitStruct->HSEState != RCC_HSE_OFF)
 8004550:	687b      	ldr	r3, [r7, #4]
 8004552:	685b      	ldr	r3, [r3, #4]
 8004554:	2b00      	cmp	r3, #0
 8004556:	d013      	beq.n	8004580 <HAL_RCC_OscConfig+0x104>
      {
        /* Get Start Tick */
        tickstart = HAL_GetTick();
 8004558:	f7fe fc82 	bl	8002e60 <HAL_GetTick>
 800455c:	6138      	str	r0, [r7, #16]

        /* Wait till HSE is ready */
        while (__HAL_RCC_GET_FLAG(RCC_FLAG_HSERDY) == RESET)
 800455e:	e008      	b.n	8004572 <HAL_RCC_OscConfig+0xf6>
        {
          if ((HAL_GetTick() - tickstart) > HSE_TIMEOUT_VALUE)
 8004560:	f7fe fc7e 	bl	8002e60 <HAL_GetTick>
 8004564:	4602      	mov	r2, r0
 8004566:	693b      	ldr	r3, [r7, #16]
 8004568:	1ad3      	subs	r3, r2, r3
 800456a:	2b64      	cmp	r3, #100	@ 0x64
 800456c:	d901      	bls.n	8004572 <HAL_RCC_OscConfig+0xf6>
          {
            return HAL_TIMEOUT;
 800456e:	2303      	movs	r3, #3
 8004570:	e200      	b.n	8004974 <HAL_RCC_OscConfig+0x4f8>
        while (__HAL_RCC_GET_FLAG(RCC_FLAG_HSERDY) == RESET)
 8004572:	4b5d      	ldr	r3, [pc, #372]	@ (80046e8 <HAL_RCC_OscConfig+0x26c>)
 8004574:	681b      	ldr	r3, [r3, #0]
 8004576:	f403 3300 	and.w	r3, r3, #131072	@ 0x20000
 800457a:	2b00      	cmp	r3, #0
 800457c:	d0f0      	beq.n	8004560 <HAL_RCC_OscConfig+0xe4>
 800457e:	e014      	b.n	80045aa <HAL_RCC_OscConfig+0x12e>
        }
      }
      else
      {
        /* Get Start Tick */
        tickstart = HAL_GetTick();
 8004580:	f7fe fc6e 	bl	8002e60 <HAL_GetTick>
 8004584:	6138      	str	r0, [r7, #16]

        /* Wait till HSE is disabled */
        while (__HAL_RCC_GET_FLAG(RCC_FLAG_HSERDY) != RESET)
 8004586:	e008      	b.n	800459a <HAL_RCC_OscConfig+0x11e>
        {
          if ((HAL_GetTick() - tickstart) > HSE_TIMEOUT_VALUE)
 8004588:	f7fe fc6a 	bl	8002e60 <HAL_GetTick>
 800458c:	4602      	mov	r2, r0
 800458e:	693b      	ldr	r3, [r7, #16]
 8004590:	1ad3      	subs	r3, r2, r3
 8004592:	2b64      	cmp	r3, #100	@ 0x64
 8004594:	d901      	bls.n	800459a <HAL_RCC_OscConfig+0x11e>
          {
            return HAL_TIMEOUT;
 8004596:	2303      	movs	r3, #3
 8004598:	e1ec      	b.n	8004974 <HAL_RCC_OscConfig+0x4f8>
        while (__HAL_RCC_GET_FLAG(RCC_FLAG_HSERDY) != RESET)
 800459a:	4b53      	ldr	r3, [pc, #332]	@ (80046e8 <HAL_RCC_OscConfig+0x26c>)
 800459c:	681b      	ldr	r3, [r3, #0]
 800459e:	f403 3300 	and.w	r3, r3, #131072	@ 0x20000
 80045a2:	2b00      	cmp	r3, #0
 80045a4:	d1f0      	bne.n	8004588 <HAL_RCC_OscConfig+0x10c>
 80045a6:	e000      	b.n	80045aa <HAL_RCC_OscConfig+0x12e>
      if ((__HAL_RCC_GET_FLAG(RCC_FLAG_HSERDY) != RESET) && (RCC_OscInitStruct->HSEState == RCC_HSE_OFF))
 80045a8:	bf00      	nop
        }
      }
    }
  }
  /*----------------------------- HSI Configuration --------------------------*/
  if (((RCC_OscInitStruct->OscillatorType) & RCC_OSCILLATORTYPE_HSI) == RCC_OSCILLATORTYPE_HSI)
 80045aa:	687b      	ldr	r3, [r7, #4]
 80045ac:	681b      	ldr	r3, [r3, #0]
 80045ae:	f003 0302 	and.w	r3, r3, #2
 80045b2:	2b00      	cmp	r3, #0
 80045b4:	d063      	beq.n	800467e <HAL_RCC_OscConfig+0x202>
    /* Check the parameters */
    assert_param(IS_RCC_HSI(RCC_OscInitStruct->HSIState));
    assert_param(IS_RCC_CALIBRATION_VALUE(RCC_OscInitStruct->HSICalibrationValue));

    /* Check if HSI is used as system clock or as PLL source when PLL is selected as system clock */
    if ((__HAL_RCC_GET_SYSCLK_SOURCE() == RCC_SYSCLKSOURCE_STATUS_HSI)
 80045b6:	4b4c      	ldr	r3, [pc, #304]	@ (80046e8 <HAL_RCC_OscConfig+0x26c>)
 80045b8:	685b      	ldr	r3, [r3, #4]
 80045ba:	f003 030c 	and.w	r3, r3, #12
 80045be:	2b00      	cmp	r3, #0
 80045c0:	d00b      	beq.n	80045da <HAL_RCC_OscConfig+0x15e>
        || ((__HAL_RCC_GET_SYSCLK_SOURCE() == RCC_SYSCLKSOURCE_STATUS_PLLCLK) && (__HAL_RCC_GET_PLL_OSCSOURCE() == RCC_PLLSOURCE_HSI_DIV2)))
 80045c2:	4b49      	ldr	r3, [pc, #292]	@ (80046e8 <HAL_RCC_OscConfig+0x26c>)
 80045c4:	685b      	ldr	r3, [r3, #4]
 80045c6:	f003 030c 	and.w	r3, r3, #12
 80045ca:	2b08      	cmp	r3, #8
 80045cc:	d11c      	bne.n	8004608 <HAL_RCC_OscConfig+0x18c>
 80045ce:	4b46      	ldr	r3, [pc, #280]	@ (80046e8 <HAL_RCC_OscConfig+0x26c>)
 80045d0:	685b      	ldr	r3, [r3, #4]
 80045d2:	f403 3380 	and.w	r3, r3, #65536	@ 0x10000
 80045d6:	2b00      	cmp	r3, #0
 80045d8:	d116      	bne.n	8004608 <HAL_RCC_OscConfig+0x18c>
    {
      /* When HSI is used as system clock it will not disabled */
      if ((__HAL_RCC_GET_FLAG(RCC_FLAG_HSIRDY) != RESET) && (RCC_OscInitStruct->HSIState != RCC_HSI_ON))
 80045da:	4b43      	ldr	r3, [pc, #268]	@ (80046e8 <HAL_RCC_OscConfig+0x26c>)
 80045dc:	681b      	ldr	r3, [r3, #0]
 80045de:	f003 0302 	and.w	r3, r3, #2
 80045e2:	2b00      	cmp	r3, #0
 80045e4:	d005      	beq.n	80045f2 <HAL_RCC_OscConfig+0x176>
 80045e6:	687b      	ldr	r3, [r7, #4]
 80045e8:	691b      	ldr	r3, [r3, #16]
 80045ea:	2b01      	cmp	r3, #1
 80045ec:	d001      	beq.n	80045f2 <HAL_RCC_OscConfig+0x176>
      {
        return HAL_ERROR;
 80045ee:	2301      	movs	r3, #1
 80045f0:	e1c0      	b.n	8004974 <HAL_RCC_OscConfig+0x4f8>
      }
      /* Otherwise, just the calibration is allowed */
      else
      {
        /* Adjusts the Internal High Speed oscillator (HSI) calibration value.*/
        __HAL_RCC_HSI_CALIBRATIONVALUE_ADJUST(RCC_OscInitStruct->HSICalibrationValue);
 80045f2:	4b3d      	ldr	r3, [pc, #244]	@ (80046e8 <HAL_RCC_OscConfig+0x26c>)
 80045f4:	681b      	ldr	r3, [r3, #0]
 80045f6:	f023 02f8 	bic.w	r2, r3, #248	@ 0xf8
 80045fa:	687b      	ldr	r3, [r7, #4]
 80045fc:	695b      	ldr	r3, [r3, #20]
 80045fe:	00db      	lsls	r3, r3, #3
 8004600:	4939      	ldr	r1, [pc, #228]	@ (80046e8 <HAL_RCC_OscConfig+0x26c>)
 8004602:	4313      	orrs	r3, r2
 8004604:	600b      	str	r3, [r1, #0]
      if ((__HAL_RCC_GET_FLAG(RCC_FLAG_HSIRDY) != RESET) && (RCC_OscInitStruct->HSIState != RCC_HSI_ON))
 8004606:	e03a      	b.n	800467e <HAL_RCC_OscConfig+0x202>
      }
    }
    else
    {
      /* Check the HSI State */
      if (RCC_OscInitStruct->HSIState != RCC_HSI_OFF)
 8004608:	687b      	ldr	r3, [r7, #4]
 800460a:	691b      	ldr	r3, [r3, #16]
 800460c:	2b00      	cmp	r3, #0
 800460e:	d020      	beq.n	8004652 <HAL_RCC_OscConfig+0x1d6>
      {
        /* Enable the Internal High Speed oscillator (HSI). */
        __HAL_RCC_HSI_ENABLE();
 8004610:	4b36      	ldr	r3, [pc, #216]	@ (80046ec <HAL_RCC_OscConfig+0x270>)
 8004612:	2201      	movs	r2, #1
 8004614:	601a      	str	r2, [r3, #0]

        /* Get Start Tick */
        tickstart = HAL_GetTick();
 8004616:	f7fe fc23 	bl	8002e60 <HAL_GetTick>
 800461a:	6138      	str	r0, [r7, #16]

        /* Wait till HSI is ready */
        while (__HAL_RCC_GET_FLAG(RCC_FLAG_HSIRDY) == RESET)
 800461c:	e008      	b.n	8004630 <HAL_RCC_OscConfig+0x1b4>
        {
          if ((HAL_GetTick() - tickstart) > HSI_TIMEOUT_VALUE)
 800461e:	f7fe fc1f 	bl	8002e60 <HAL_GetTick>
 8004622:	4602      	mov	r2, r0
 8004624:	693b      	ldr	r3, [r7, #16]
 8004626:	1ad3      	subs	r3, r2, r3
 8004628:	2b02      	cmp	r3, #2
 800462a:	d901      	bls.n	8004630 <HAL_RCC_OscConfig+0x1b4>
          {
            return HAL_TIMEOUT;
 800462c:	2303      	movs	r3, #3
 800462e:	e1a1      	b.n	8004974 <HAL_RCC_OscConfig+0x4f8>
        while (__HAL_RCC_GET_FLAG(RCC_FLAG_HSIRDY) == RESET)
 8004630:	4b2d      	ldr	r3, [pc, #180]	@ (80046e8 <HAL_RCC_OscConfig+0x26c>)
 8004632:	681b      	ldr	r3, [r3, #0]
 8004634:	f003 0302 	and.w	r3, r3, #2
 8004638:	2b00      	cmp	r3, #0
 800463a:	d0f0      	beq.n	800461e <HAL_RCC_OscConfig+0x1a2>
          }
        }

        /* Adjusts the Internal High Speed oscillator (HSI) calibration value.*/
        __HAL_RCC_HSI_CALIBRATIONVALUE_ADJUST(RCC_OscInitStruct->HSICalibrationValue);
 800463c:	4b2a      	ldr	r3, [pc, #168]	@ (80046e8 <HAL_RCC_OscConfig+0x26c>)
 800463e:	681b      	ldr	r3, [r3, #0]
 8004640:	f023 02f8 	bic.w	r2, r3, #248	@ 0xf8
 8004644:	687b      	ldr	r3, [r7, #4]
 8004646:	695b      	ldr	r3, [r3, #20]
 8004648:	00db      	lsls	r3, r3, #3
 800464a:	4927      	ldr	r1, [pc, #156]	@ (80046e8 <HAL_RCC_OscConfig+0x26c>)
 800464c:	4313      	orrs	r3, r2
 800464e:	600b      	str	r3, [r1, #0]
 8004650:	e015      	b.n	800467e <HAL_RCC_OscConfig+0x202>
      }
      else
      {
        /* Disable the Internal High Speed oscillator (HSI). */
        __HAL_RCC_HSI_DISABLE();
 8004652:	4b26      	ldr	r3, [pc, #152]	@ (80046ec <HAL_RCC_OscConfig+0x270>)
 8004654:	2200      	movs	r2, #0
 8004656:	601a      	str	r2, [r3, #0]

        /* Get Start Tick */
        tickstart = HAL_GetTick();
 8004658:	f7fe fc02 	bl	8002e60 <HAL_GetTick>
 800465c:	6138      	str	r0, [r7, #16]

        /* Wait till HSI is disabled */
        while (__HAL_RCC_GET_FLAG(RCC_FLAG_HSIRDY) != RESET)
 800465e:	e008      	b.n	8004672 <HAL_RCC_OscConfig+0x1f6>
        {
          if ((HAL_GetTick() - tickstart) > HSI_TIMEOUT_VALUE)
 8004660:	f7fe fbfe 	bl	8002e60 <HAL_GetTick>
 8004664:	4602      	mov	r2, r0
 8004666:	693b      	ldr	r3, [r7, #16]
 8004668:	1ad3      	subs	r3, r2, r3
 800466a:	2b02      	cmp	r3, #2
 800466c:	d901      	bls.n	8004672 <HAL_RCC_OscConfig+0x1f6>
          {
            return HAL_TIMEOUT;
 800466e:	2303      	movs	r3, #3
 8004670:	e180      	b.n	8004974 <HAL_RCC_OscConfig+0x4f8>
        while (__HAL_RCC_GET_FLAG(RCC_FLAG_HSIRDY) != RESET)
 8004672:	4b1d      	ldr	r3, [pc, #116]	@ (80046e8 <HAL_RCC_OscConfig+0x26c>)
 8004674:	681b      	ldr	r3, [r3, #0]
 8004676:	f003 0302 	and.w	r3, r3, #2
 800467a:	2b00      	cmp	r3, #0
 800467c:	d1f0      	bne.n	8004660 <HAL_RCC_OscConfig+0x1e4>
        }
      }
    }
  }
  /*------------------------------ LSI Configuration -------------------------*/
  if (((RCC_OscInitStruct->OscillatorType) & RCC_OSCILLATORTYPE_LSI) == RCC_OSCILLATORTYPE_LSI)
 800467e:	687b      	ldr	r3, [r7, #4]
 8004680:	681b      	ldr	r3, [r3, #0]
 8004682:	f003 0308 	and.w	r3, r3, #8
 8004686:	2b00      	cmp	r3, #0
 8004688:	d03a      	beq.n	8004700 <HAL_RCC_OscConfig+0x284>
  {
    /* Check the parameters */
    assert_param(IS_RCC_LSI(RCC_OscInitStruct->LSIState));

    /* Check the LSI State */
    if (RCC_OscInitStruct->LSIState != RCC_LSI_OFF)
 800468a:	687b      	ldr	r3, [r7, #4]
 800468c:	699b      	ldr	r3, [r3, #24]
 800468e:	2b00      	cmp	r3, #0
 8004690:	d019      	beq.n	80046c6 <HAL_RCC_OscConfig+0x24a>
    {
      /* Enable the Internal Low Speed oscillator (LSI). */
      __HAL_RCC_LSI_ENABLE();
 8004692:	4b17      	ldr	r3, [pc, #92]	@ (80046f0 <HAL_RCC_OscConfig+0x274>)
 8004694:	2201      	movs	r2, #1
 8004696:	601a      	str	r2, [r3, #0]

      /* Get Start Tick */
      tickstart = HAL_GetTick();
 8004698:	f7fe fbe2 	bl	8002e60 <HAL_GetTick>
 800469c:	6138      	str	r0, [r7, #16]

      /* Wait till LSI is ready */
      while (__HAL_RCC_GET_FLAG(RCC_FLAG_LSIRDY) == RESET)
 800469e:	e008      	b.n	80046b2 <HAL_RCC_OscConfig+0x236>
      {
        if ((HAL_GetTick() - tickstart) > LSI_TIMEOUT_VALUE)
 80046a0:	f7fe fbde 	bl	8002e60 <HAL_GetTick>
 80046a4:	4602      	mov	r2, r0
 80046a6:	693b      	ldr	r3, [r7, #16]
 80046a8:	1ad3      	subs	r3, r2, r3
 80046aa:	2b02      	cmp	r3, #2
 80046ac:	d901      	bls.n	80046b2 <HAL_RCC_OscConfig+0x236>
        {
          return HAL_TIMEOUT;
 80046ae:	2303      	movs	r3, #3
 80046b0:	e160      	b.n	8004974 <HAL_RCC_OscConfig+0x4f8>
      while (__HAL_RCC_GET_FLAG(RCC_FLAG_LSIRDY) == RESET)
 80046b2:	4b0d      	ldr	r3, [pc, #52]	@ (80046e8 <HAL_RCC_OscConfig+0x26c>)
 80046b4:	6a5b      	ldr	r3, [r3, #36]	@ 0x24
 80046b6:	f003 0302 	and.w	r3, r3, #2
 80046ba:	2b00      	cmp	r3, #0
 80046bc:	d0f0      	beq.n	80046a0 <HAL_RCC_OscConfig+0x224>
        }
      }
      /*  To have a fully stabilized clock in the specified range, a software delay of 1ms
          should be added.*/
      RCC_Delay(1);
 80046be:	2001      	movs	r0, #1
 80046c0:	f000 face 	bl	8004c60 <RCC_Delay>
 80046c4:	e01c      	b.n	8004700 <HAL_RCC_OscConfig+0x284>
    }
    else
    {
      /* Disable the Internal Low Speed oscillator (LSI). */
      __HAL_RCC_LSI_DISABLE();
 80046c6:	4b0a      	ldr	r3, [pc, #40]	@ (80046f0 <HAL_RCC_OscConfig+0x274>)
 80046c8:	2200      	movs	r2, #0
 80046ca:	601a      	str	r2, [r3, #0]

      /* Get Start Tick */
      tickstart = HAL_GetTick();
 80046cc:	f7fe fbc8 	bl	8002e60 <HAL_GetTick>
 80046d0:	6138      	str	r0, [r7, #16]

      /* Wait till LSI is disabled */
      while (__HAL_RCC_GET_FLAG(RCC_FLAG_LSIRDY) != RESET)
 80046d2:	e00f      	b.n	80046f4 <HAL_RCC_OscConfig+0x278>
      {
        if ((HAL_GetTick() - tickstart) > LSI_TIMEOUT_VALUE)
 80046d4:	f7fe fbc4 	bl	8002e60 <HAL_GetTick>
 80046d8:	4602      	mov	r2, r0
 80046da:	693b      	ldr	r3, [r7, #16]
 80046dc:	1ad3      	subs	r3, r2, r3
 80046de:	2b02      	cmp	r3, #2
 80046e0:	d908      	bls.n	80046f4 <HAL_RCC_OscConfig+0x278>
        {
          return HAL_TIMEOUT;
 80046e2:	2303      	movs	r3, #3
 80046e4:	e146      	b.n	8004974 <HAL_RCC_OscConfig+0x4f8>
 80046e6:	bf00      	nop
 80046e8:	40021000 	.word	0x40021000
 80046ec:	42420000 	.word	0x42420000
 80046f0:	42420480 	.word	0x42420480
      while (__HAL_RCC_GET_FLAG(RCC_FLAG_LSIRDY) != RESET)
 80046f4:	4b92      	ldr	r3, [pc, #584]	@ (8004940 <HAL_RCC_OscConfig+0x4c4>)
 80046f6:	6a5b      	ldr	r3, [r3, #36]	@ 0x24
 80046f8:	f003 0302 	and.w	r3, r3, #2
 80046fc:	2b00      	cmp	r3, #0
 80046fe:	d1e9      	bne.n	80046d4 <HAL_RCC_OscConfig+0x258>
        }
      }
    }
  }
  /*------------------------------ LSE Configuration -------------------------*/
  if (((RCC_OscInitStruct->OscillatorType) & RCC_OSCILLATORTYPE_LSE) == RCC_OSCILLATORTYPE_LSE)
 8004700:	687b      	ldr	r3, [r7, #4]
 8004702:	681b      	ldr	r3, [r3, #0]
 8004704:	f003 0304 	and.w	r3, r3, #4
 8004708:	2b00      	cmp	r3, #0
 800470a:	f000 80a6 	beq.w	800485a <HAL_RCC_OscConfig+0x3de>
  {
    FlagStatus       pwrclkchanged = RESET;
 800470e:	2300      	movs	r3, #0
 8004710:	75fb      	strb	r3, [r7, #23]
    /* Check the parameters */
    assert_param(IS_RCC_LSE(RCC_OscInitStruct->LSEState));

    /* Update LSE configuration in Backup Domain control register    */
    /* Requires to enable write access to Backup Domain of necessary */
    if (__HAL_RCC_PWR_IS_CLK_DISABLED())
 8004712:	4b8b      	ldr	r3, [pc, #556]	@ (8004940 <HAL_RCC_OscConfig+0x4c4>)
 8004714:	69db      	ldr	r3, [r3, #28]
 8004716:	f003 5380 	and.w	r3, r3, #268435456	@ 0x10000000
 800471a:	2b00      	cmp	r3, #0
 800471c:	d10d      	bne.n	800473a <HAL_RCC_OscConfig+0x2be>
    {
      __HAL_RCC_PWR_CLK_ENABLE();
 800471e:	4b88      	ldr	r3, [pc, #544]	@ (8004940 <HAL_RCC_OscConfig+0x4c4>)
 8004720:	69db      	ldr	r3, [r3, #28]
 8004722:	4a87      	ldr	r2, [pc, #540]	@ (8004940 <HAL_RCC_OscConfig+0x4c4>)
 8004724:	f043 5380 	orr.w	r3, r3, #268435456	@ 0x10000000
 8004728:	61d3      	str	r3, [r2, #28]
 800472a:	4b85      	ldr	r3, [pc, #532]	@ (8004940 <HAL_RCC_OscConfig+0x4c4>)
 800472c:	69db      	ldr	r3, [r3, #28]
 800472e:	f003 5380 	and.w	r3, r3, #268435456	@ 0x10000000
 8004732:	60bb      	str	r3, [r7, #8]
 8004734:	68bb      	ldr	r3, [r7, #8]
      pwrclkchanged = SET;
 8004736:	2301      	movs	r3, #1
 8004738:	75fb      	strb	r3, [r7, #23]
    }

    if (HAL_IS_BIT_CLR(PWR->CR, PWR_CR_DBP))
 800473a:	4b82      	ldr	r3, [pc, #520]	@ (8004944 <HAL_RCC_OscConfig+0x4c8>)
 800473c:	681b      	ldr	r3, [r3, #0]
 800473e:	f403 7380 	and.w	r3, r3, #256	@ 0x100
 8004742:	2b00      	cmp	r3, #0
 8004744:	d118      	bne.n	8004778 <HAL_RCC_OscConfig+0x2fc>
    {
      /* Enable write access to Backup domain */
      SET_BIT(PWR->CR, PWR_CR_DBP);
 8004746:	4b7f      	ldr	r3, [pc, #508]	@ (8004944 <HAL_RCC_OscConfig+0x4c8>)
 8004748:	681b      	ldr	r3, [r3, #0]
 800474a:	4a7e      	ldr	r2, [pc, #504]	@ (8004944 <HAL_RCC_OscConfig+0x4c8>)
 800474c:	f443 7380 	orr.w	r3, r3, #256	@ 0x100
 8004750:	6013      	str	r3, [r2, #0]

      /* Wait for Backup domain Write protection disable */
      tickstart = HAL_GetTick();
 8004752:	f7fe fb85 	bl	8002e60 <HAL_GetTick>
 8004756:	6138      	str	r0, [r7, #16]

      while (HAL_IS_BIT_CLR(PWR->CR, PWR_CR_DBP))
 8004758:	e008      	b.n	800476c <HAL_RCC_OscConfig+0x2f0>
      {
        if ((HAL_GetTick() - tickstart) > RCC_DBP_TIMEOUT_VALUE)
 800475a:	f7fe fb81 	bl	8002e60 <HAL_GetTick>
 800475e:	4602      	mov	r2, r0
 8004760:	693b      	ldr	r3, [r7, #16]
 8004762:	1ad3      	subs	r3, r2, r3
 8004764:	2b64      	cmp	r3, #100	@ 0x64
 8004766:	d901      	bls.n	800476c <HAL_RCC_OscConfig+0x2f0>
        {
          return HAL_TIMEOUT;
 8004768:	2303      	movs	r3, #3
 800476a:	e103      	b.n	8004974 <HAL_RCC_OscConfig+0x4f8>
      while (HAL_IS_BIT_CLR(PWR->CR, PWR_CR_DBP))
 800476c:	4b75      	ldr	r3, [pc, #468]	@ (8004944 <HAL_RCC_OscConfig+0x4c8>)
 800476e:	681b      	ldr	r3, [r3, #0]
 8004770:	f403 7380 	and.w	r3, r3, #256	@ 0x100
 8004774:	2b00      	cmp	r3, #0
 8004776:	d0f0      	beq.n	800475a <HAL_RCC_OscConfig+0x2de>
        }
      }
    }

    /* Set the new LSE configuration -----------------------------------------*/
    __HAL_RCC_LSE_CONFIG(RCC_OscInitStruct->LSEState);
 8004778:	687b      	ldr	r3, [r7, #4]
 800477a:	68db      	ldr	r3, [r3, #12]
 800477c:	2b01      	cmp	r3, #1
 800477e:	d106      	bne.n	800478e <HAL_RCC_OscConfig+0x312>
 8004780:	4b6f      	ldr	r3, [pc, #444]	@ (8004940 <HAL_RCC_OscConfig+0x4c4>)
 8004782:	6a1b      	ldr	r3, [r3, #32]
 8004784:	4a6e      	ldr	r2, [pc, #440]	@ (8004940 <HAL_RCC_OscConfig+0x4c4>)
 8004786:	f043 0301 	orr.w	r3, r3, #1
 800478a:	6213      	str	r3, [r2, #32]
 800478c:	e02d      	b.n	80047ea <HAL_RCC_OscConfig+0x36e>
 800478e:	687b      	ldr	r3, [r7, #4]
 8004790:	68db      	ldr	r3, [r3, #12]
 8004792:	2b00      	cmp	r3, #0
 8004794:	d10c      	bne.n	80047b0 <HAL_RCC_OscConfig+0x334>
 8004796:	4b6a      	ldr	r3, [pc, #424]	@ (8004940 <HAL_RCC_OscConfig+0x4c4>)
 8004798:	6a1b      	ldr	r3, [r3, #32]
 800479a:	4a69      	ldr	r2, [pc, #420]	@ (8004940 <HAL_RCC_OscConfig+0x4c4>)
 800479c:	f023 0301 	bic.w	r3, r3, #1
 80047a0:	6213      	str	r3, [r2, #32]
 80047a2:	4b67      	ldr	r3, [pc, #412]	@ (8004940 <HAL_RCC_OscConfig+0x4c4>)
 80047a4:	6a1b      	ldr	r3, [r3, #32]
 80047a6:	4a66      	ldr	r2, [pc, #408]	@ (8004940 <HAL_RCC_OscConfig+0x4c4>)
 80047a8:	f023 0304 	bic.w	r3, r3, #4
 80047ac:	6213      	str	r3, [r2, #32]
 80047ae:	e01c      	b.n	80047ea <HAL_RCC_OscConfig+0x36e>
 80047b0:	687b      	ldr	r3, [r7, #4]
 80047b2:	68db      	ldr	r3, [r3, #12]
 80047b4:	2b05      	cmp	r3, #5
 80047b6:	d10c      	bne.n	80047d2 <HAL_RCC_OscConfig+0x356>
 80047b8:	4b61      	ldr	r3, [pc, #388]	@ (8004940 <HAL_RCC_OscConfig+0x4c4>)
 80047ba:	6a1b      	ldr	r3, [r3, #32]
 80047bc:	4a60      	ldr	r2, [pc, #384]	@ (8004940 <HAL_RCC_OscConfig+0x4c4>)
 80047be:	f043 0304 	orr.w	r3, r3, #4
 80047c2:	6213      	str	r3, [r2, #32]
 80047c4:	4b5e      	ldr	r3, [pc, #376]	@ (8004940 <HAL_RCC_OscConfig+0x4c4>)
 80047c6:	6a1b      	ldr	r3, [r3, #32]
 80047c8:	4a5d      	ldr	r2, [pc, #372]	@ (8004940 <HAL_RCC_OscConfig+0x4c4>)
 80047ca:	f043 0301 	orr.w	r3, r3, #1
 80047ce:	6213      	str	r3, [r2, #32]
 80047d0:	e00b      	b.n	80047ea <HAL_RCC_OscConfig+0x36e>
 80047d2:	4b5b      	ldr	r3, [pc, #364]	@ (8004940 <HAL_RCC_OscConfig+0x4c4>)
 80047d4:	6a1b      	ldr	r3, [r3, #32]
 80047d6:	4a5a      	ldr	r2, [pc, #360]	@ (8004940 <HAL_RCC_OscConfig+0x4c4>)
 80047d8:	f023 0301 	bic.w	r3, r3, #1
 80047dc:	6213      	str	r3, [r2, #32]
 80047de:	4b58      	ldr	r3, [pc, #352]	@ (8004940 <HAL_RCC_OscConfig+0x4c4>)
 80047e0:	6a1b      	ldr	r3, [r3, #32]
 80047e2:	4a57      	ldr	r2, [pc, #348]	@ (8004940 <HAL_RCC_OscConfig+0x4c4>)
 80047e4:	f023 0304 	bic.w	r3, r3, #4
 80047e8:	6213      	str	r3, [r2, #32]
    /* Check the LSE State */
    if (RCC_OscInitStruct->LSEState != RCC_LSE_OFF)
 80047ea:	687b      	ldr	r3, [r7, #4]
 80047ec:	68db      	ldr	r3, [r3, #12]
 80047ee:	2b00      	cmp	r3, #0
 80047f0:	d015      	beq.n	800481e <HAL_RCC_OscConfig+0x3a2>
    {
      /* Get Start Tick */
      tickstart = HAL_GetTick();
 80047f2:	f7fe fb35 	bl	8002e60 <HAL_GetTick>
 80047f6:	6138      	str	r0, [r7, #16]

      /* Wait till LSE is ready */
      while (__HAL_RCC_GET_FLAG(RCC_FLAG_LSERDY) == RESET)
 80047f8:	e00a      	b.n	8004810 <HAL_RCC_OscConfig+0x394>
      {
        if ((HAL_GetTick() - tickstart) > RCC_LSE_TIMEOUT_VALUE)
 80047fa:	f7fe fb31 	bl	8002e60 <HAL_GetTick>
 80047fe:	4602      	mov	r2, r0
 8004800:	693b      	ldr	r3, [r7, #16]
 8004802:	1ad3      	subs	r3, r2, r3
 8004804:	f241 3288 	movw	r2, #5000	@ 0x1388
 8004808:	4293      	cmp	r3, r2
 800480a:	d901      	bls.n	8004810 <HAL_RCC_OscConfig+0x394>
        {
          return HAL_TIMEOUT;
 800480c:	2303      	movs	r3, #3
 800480e:	e0b1      	b.n	8004974 <HAL_RCC_OscConfig+0x4f8>
      while (__HAL_RCC_GET_FLAG(RCC_FLAG_LSERDY) == RESET)
 8004810:	4b4b      	ldr	r3, [pc, #300]	@ (8004940 <HAL_RCC_OscConfig+0x4c4>)
 8004812:	6a1b      	ldr	r3, [r3, #32]
 8004814:	f003 0302 	and.w	r3, r3, #2
 8004818:	2b00      	cmp	r3, #0
 800481a:	d0ee      	beq.n	80047fa <HAL_RCC_OscConfig+0x37e>
 800481c:	e014      	b.n	8004848 <HAL_RCC_OscConfig+0x3cc>
      }
    }
    else
    {
      /* Get Start Tick */
      tickstart = HAL_GetTick();
 800481e:	f7fe fb1f 	bl	8002e60 <HAL_GetTick>
 8004822:	6138      	str	r0, [r7, #16]

      /* Wait till LSE is disabled */
      while (__HAL_RCC_GET_FLAG(RCC_FLAG_LSERDY) != RESET)
 8004824:	e00a      	b.n	800483c <HAL_RCC_OscConfig+0x3c0>
      {
        if ((HAL_GetTick() - tickstart) > RCC_LSE_TIMEOUT_VALUE)
 8004826:	f7fe fb1b 	bl	8002e60 <HAL_GetTick>
 800482a:	4602      	mov	r2, r0
 800482c:	693b      	ldr	r3, [r7, #16]
 800482e:	1ad3      	subs	r3, r2, r3
 8004830:	f241 3288 	movw	r2, #5000	@ 0x1388
 8004834:	4293      	cmp	r3, r2
 8004836:	d901      	bls.n	800483c <HAL_RCC_OscConfig+0x3c0>
        {
          return HAL_TIMEOUT;
 8004838:	2303      	movs	r3, #3
 800483a:	e09b      	b.n	8004974 <HAL_RCC_OscConfig+0x4f8>
      while (__HAL_RCC_GET_FLAG(RCC_FLAG_LSERDY) != RESET)
 800483c:	4b40      	ldr	r3, [pc, #256]	@ (8004940 <HAL_RCC_OscConfig+0x4c4>)
 800483e:	6a1b      	ldr	r3, [r3, #32]
 8004840:	f003 0302 	and.w	r3, r3, #2
 8004844:	2b00      	cmp	r3, #0
 8004846:	d1ee      	bne.n	8004826 <HAL_RCC_OscConfig+0x3aa>
        }
      }
    }

    /* Require to disable power clock if necessary */
    if (pwrclkchanged == SET)
 8004848:	7dfb      	ldrb	r3, [r7, #23]
 800484a:	2b01      	cmp	r3, #1
 800484c:	d105      	bne.n	800485a <HAL_RCC_OscConfig+0x3de>
    {
      __HAL_RCC_PWR_CLK_DISABLE();
 800484e:	4b3c      	ldr	r3, [pc, #240]	@ (8004940 <HAL_RCC_OscConfig+0x4c4>)
 8004850:	69db      	ldr	r3, [r3, #28]
 8004852:	4a3b      	ldr	r2, [pc, #236]	@ (8004940 <HAL_RCC_OscConfig+0x4c4>)
 8004854:	f023 5380 	bic.w	r3, r3, #268435456	@ 0x10000000
 8004858:	61d3      	str	r3, [r2, #28]

#endif /* RCC_CR_PLL2ON */
  /*-------------------------------- PLL Configuration -----------------------*/
  /* Check the parameters */
  assert_param(IS_RCC_PLL(RCC_OscInitStruct->PLL.PLLState));
  if ((RCC_OscInitStruct->PLL.PLLState) != RCC_PLL_NONE)
 800485a:	687b      	ldr	r3, [r7, #4]
 800485c:	69db      	ldr	r3, [r3, #28]
 800485e:	2b00      	cmp	r3, #0
 8004860:	f000 8087 	beq.w	8004972 <HAL_RCC_OscConfig+0x4f6>
  {
    /* Check if the PLL is used as system clock or not */
    if (__HAL_RCC_GET_SYSCLK_SOURCE() != RCC_SYSCLKSOURCE_STATUS_PLLCLK)
 8004864:	4b36      	ldr	r3, [pc, #216]	@ (8004940 <HAL_RCC_OscConfig+0x4c4>)
 8004866:	685b      	ldr	r3, [r3, #4]
 8004868:	f003 030c 	and.w	r3, r3, #12
 800486c:	2b08      	cmp	r3, #8
 800486e:	d061      	beq.n	8004934 <HAL_RCC_OscConfig+0x4b8>
    {
      if ((RCC_OscInitStruct->PLL.PLLState) == RCC_PLL_ON)
 8004870:	687b      	ldr	r3, [r7, #4]
 8004872:	69db      	ldr	r3, [r3, #28]
 8004874:	2b02      	cmp	r3, #2
 8004876:	d146      	bne.n	8004906 <HAL_RCC_OscConfig+0x48a>
        /* Check the parameters */
        assert_param(IS_RCC_PLLSOURCE(RCC_OscInitStruct->PLL.PLLSource));
        assert_param(IS_RCC_PLL_MUL(RCC_OscInitStruct->PLL.PLLMUL));

        /* Disable the main PLL. */
        __HAL_RCC_PLL_DISABLE();
 8004878:	4b33      	ldr	r3, [pc, #204]	@ (8004948 <HAL_RCC_OscConfig+0x4cc>)
 800487a:	2200      	movs	r2, #0
 800487c:	601a      	str	r2, [r3, #0]

        /* Get Start Tick */
        tickstart = HAL_GetTick();
 800487e:	f7fe faef 	bl	8002e60 <HAL_GetTick>
 8004882:	6138      	str	r0, [r7, #16]

        /* Wait till PLL is disabled */
        while (__HAL_RCC_GET_FLAG(RCC_FLAG_PLLRDY)  != RESET)
 8004884:	e008      	b.n	8004898 <HAL_RCC_OscConfig+0x41c>
        {
          if ((HAL_GetTick() - tickstart) > PLL_TIMEOUT_VALUE)
 8004886:	f7fe faeb 	bl	8002e60 <HAL_GetTick>
 800488a:	4602      	mov	r2, r0
 800488c:	693b      	ldr	r3, [r7, #16]
 800488e:	1ad3      	subs	r3, r2, r3
 8004890:	2b02      	cmp	r3, #2
 8004892:	d901      	bls.n	8004898 <HAL_RCC_OscConfig+0x41c>
          {
            return HAL_TIMEOUT;
 8004894:	2303      	movs	r3, #3
 8004896:	e06d      	b.n	8004974 <HAL_RCC_OscConfig+0x4f8>
        while (__HAL_RCC_GET_FLAG(RCC_FLAG_PLLRDY)  != RESET)
 8004898:	4b29      	ldr	r3, [pc, #164]	@ (8004940 <HAL_RCC_OscConfig+0x4c4>)
 800489a:	681b      	ldr	r3, [r3, #0]
 800489c:	f003 7300 	and.w	r3, r3, #33554432	@ 0x2000000
 80048a0:	2b00      	cmp	r3, #0
 80048a2:	d1f0      	bne.n	8004886 <HAL_RCC_OscConfig+0x40a>
          }
        }

        /* Configure the HSE prediv factor --------------------------------*/
        /* It can be written only when the PLL is disabled. Not used in PLL source is different than HSE */
        if (RCC_OscInitStruct->PLL.PLLSource == RCC_PLLSOURCE_HSE)
 80048a4:	687b      	ldr	r3, [r7, #4]
 80048a6:	6a1b      	ldr	r3, [r3, #32]
 80048a8:	f5b3 3f80 	cmp.w	r3, #65536	@ 0x10000
 80048ac:	d108      	bne.n	80048c0 <HAL_RCC_OscConfig+0x444>
          /* Set PREDIV1 source */
          SET_BIT(RCC->CFGR2, RCC_OscInitStruct->Prediv1Source);
#endif /* RCC_CFGR2_PREDIV1SRC */

          /* Set PREDIV1 Value */
          __HAL_RCC_HSE_PREDIV_CONFIG(RCC_OscInitStruct->HSEPredivValue);
 80048ae:	4b24      	ldr	r3, [pc, #144]	@ (8004940 <HAL_RCC_OscConfig+0x4c4>)
 80048b0:	685b      	ldr	r3, [r3, #4]
 80048b2:	f423 3200 	bic.w	r2, r3, #131072	@ 0x20000
 80048b6:	687b      	ldr	r3, [r7, #4]
 80048b8:	689b      	ldr	r3, [r3, #8]
 80048ba:	4921      	ldr	r1, [pc, #132]	@ (8004940 <HAL_RCC_OscConfig+0x4c4>)
 80048bc:	4313      	orrs	r3, r2
 80048be:	604b      	str	r3, [r1, #4]
        }

        /* Configure the main PLL clock source and multiplication factors. */
        __HAL_RCC_PLL_CONFIG(RCC_OscInitStruct->PLL.PLLSource,
 80048c0:	4b1f      	ldr	r3, [pc, #124]	@ (8004940 <HAL_RCC_OscConfig+0x4c4>)
 80048c2:	685b      	ldr	r3, [r3, #4]
 80048c4:	f423 1274 	bic.w	r2, r3, #3997696	@ 0x3d0000
 80048c8:	687b      	ldr	r3, [r7, #4]
 80048ca:	6a19      	ldr	r1, [r3, #32]
 80048cc:	687b      	ldr	r3, [r7, #4]
 80048ce:	6a5b      	ldr	r3, [r3, #36]	@ 0x24
 80048d0:	430b      	orrs	r3, r1
 80048d2:	491b      	ldr	r1, [pc, #108]	@ (8004940 <HAL_RCC_OscConfig+0x4c4>)
 80048d4:	4313      	orrs	r3, r2
 80048d6:	604b      	str	r3, [r1, #4]
                             RCC_OscInitStruct->PLL.PLLMUL);
        /* Enable the main PLL. */
        __HAL_RCC_PLL_ENABLE();
 80048d8:	4b1b      	ldr	r3, [pc, #108]	@ (8004948 <HAL_RCC_OscConfig+0x4cc>)
 80048da:	2201      	movs	r2, #1
 80048dc:	601a      	str	r2, [r3, #0]

        /* Get Start Tick */
        tickstart = HAL_GetTick();
 80048de:	f7fe fabf 	bl	8002e60 <HAL_GetTick>
 80048e2:	6138      	str	r0, [r7, #16]

        /* Wait till PLL is ready */
        while (__HAL_RCC_GET_FLAG(RCC_FLAG_PLLRDY)  == RESET)
 80048e4:	e008      	b.n	80048f8 <HAL_RCC_OscConfig+0x47c>
        {
          if ((HAL_GetTick() - tickstart) > PLL_TIMEOUT_VALUE)
 80048e6:	f7fe fabb 	bl	8002e60 <HAL_GetTick>
 80048ea:	4602      	mov	r2, r0
 80048ec:	693b      	ldr	r3, [r7, #16]
 80048ee:	1ad3      	subs	r3, r2, r3
 80048f0:	2b02      	cmp	r3, #2
 80048f2:	d901      	bls.n	80048f8 <HAL_RCC_OscConfig+0x47c>
          {
            return HAL_TIMEOUT;
 80048f4:	2303      	movs	r3, #3
 80048f6:	e03d      	b.n	8004974 <HAL_RCC_OscConfig+0x4f8>
        while (__HAL_RCC_GET_FLAG(RCC_FLAG_PLLRDY)  == RESET)
 80048f8:	4b11      	ldr	r3, [pc, #68]	@ (8004940 <HAL_RCC_OscConfig+0x4c4>)
 80048fa:	681b      	ldr	r3, [r3, #0]
 80048fc:	f003 7300 	and.w	r3, r3, #33554432	@ 0x2000000
 8004900:	2b00      	cmp	r3, #0
 8004902:	d0f0      	beq.n	80048e6 <HAL_RCC_OscConfig+0x46a>
 8004904:	e035      	b.n	8004972 <HAL_RCC_OscConfig+0x4f6>
        }
      }
      else
      {
        /* Disable the main PLL. */
        __HAL_RCC_PLL_DISABLE();
 8004906:	4b10      	ldr	r3, [pc, #64]	@ (8004948 <HAL_RCC_OscConfig+0x4cc>)
 8004908:	2200      	movs	r2, #0
 800490a:	601a      	str	r2, [r3, #0]

        /* Get Start Tick */
        tickstart = HAL_GetTick();
 800490c:	f7fe faa8 	bl	8002e60 <HAL_GetTick>
 8004910:	6138      	str	r0, [r7, #16]

        /* Wait till PLL is disabled */
        while (__HAL_RCC_GET_FLAG(RCC_FLAG_PLLRDY)  != RESET)
 8004912:	e008      	b.n	8004926 <HAL_RCC_OscConfig+0x4aa>
        {
          if ((HAL_GetTick() - tickstart) > PLL_TIMEOUT_VALUE)
 8004914:	f7fe faa4 	bl	8002e60 <HAL_GetTick>
 8004918:	4602      	mov	r2, r0
 800491a:	693b      	ldr	r3, [r7, #16]
 800491c:	1ad3      	subs	r3, r2, r3
 800491e:	2b02      	cmp	r3, #2
 8004920:	d901      	bls.n	8004926 <HAL_RCC_OscConfig+0x4aa>
          {
            return HAL_TIMEOUT;
 8004922:	2303      	movs	r3, #3
 8004924:	e026      	b.n	8004974 <HAL_RCC_OscConfig+0x4f8>
        while (__HAL_RCC_GET_FLAG(RCC_FLAG_PLLRDY)  != RESET)
 8004926:	4b06      	ldr	r3, [pc, #24]	@ (8004940 <HAL_RCC_OscConfig+0x4c4>)
 8004928:	681b      	ldr	r3, [r3, #0]
 800492a:	f003 7300 	and.w	r3, r3, #33554432	@ 0x2000000
 800492e:	2b00      	cmp	r3, #0
 8004930:	d1f0      	bne.n	8004914 <HAL_RCC_OscConfig+0x498>
 8004932:	e01e      	b.n	8004972 <HAL_RCC_OscConfig+0x4f6>
      }
    }
    else
    {
      /* Check if there is a request to disable the PLL used as System clock source */
      if ((RCC_OscInitStruct->PLL.PLLState) == RCC_PLL_OFF)
 8004934:	687b      	ldr	r3, [r7, #4]
 8004936:	69db      	ldr	r3, [r3, #28]
 8004938:	2b01      	cmp	r3, #1
 800493a:	d107      	bne.n	800494c <HAL_RCC_OscConfig+0x4d0>
      {
        return HAL_ERROR;
 800493c:	2301      	movs	r3, #1
 800493e:	e019      	b.n	8004974 <HAL_RCC_OscConfig+0x4f8>
 8004940:	40021000 	.word	0x40021000
 8004944:	40007000 	.word	0x40007000
 8004948:	42420060 	.word	0x42420060
      }
      else
      {
        /* Do not return HAL_ERROR if request repeats the current configuration */
        pll_config = RCC->CFGR;
 800494c:	4b0b      	ldr	r3, [pc, #44]	@ (800497c <HAL_RCC_OscConfig+0x500>)
 800494e:	685b      	ldr	r3, [r3, #4]
 8004950:	60fb      	str	r3, [r7, #12]
        if ((READ_BIT(pll_config, RCC_CFGR_PLLSRC) != RCC_OscInitStruct->PLL.PLLSource) ||
 8004952:	68fb      	ldr	r3, [r7, #12]
 8004954:	f403 3280 	and.w	r2, r3, #65536	@ 0x10000
 8004958:	687b      	ldr	r3, [r7, #4]
 800495a:	6a1b      	ldr	r3, [r3, #32]
 800495c:	429a      	cmp	r2, r3
 800495e:	d106      	bne.n	800496e <HAL_RCC_OscConfig+0x4f2>
            (READ_BIT(pll_config, RCC_CFGR_PLLMULL) != RCC_OscInitStruct->PLL.PLLMUL))
 8004960:	68fb      	ldr	r3, [r7, #12]
 8004962:	f403 1270 	and.w	r2, r3, #3932160	@ 0x3c0000
 8004966:	687b      	ldr	r3, [r7, #4]
 8004968:	6a5b      	ldr	r3, [r3, #36]	@ 0x24
        if ((READ_BIT(pll_config, RCC_CFGR_PLLSRC) != RCC_OscInitStruct->PLL.PLLSource) ||
 800496a:	429a      	cmp	r2, r3
 800496c:	d001      	beq.n	8004972 <HAL_RCC_OscConfig+0x4f6>
        {
          return HAL_ERROR;
 800496e:	2301      	movs	r3, #1
 8004970:	e000      	b.n	8004974 <HAL_RCC_OscConfig+0x4f8>
        }
      }
    }
  }

  return HAL_OK;
 8004972:	2300      	movs	r3, #0
}
 8004974:	4618      	mov	r0, r3
 8004976:	3718      	adds	r7, #24
 8004978:	46bd      	mov	sp, r7
 800497a:	bd80      	pop	{r7, pc}
 800497c:	40021000 	.word	0x40021000

08004980 <HAL_RCC_ClockConfig>:
  *         You can use @ref HAL_RCC_GetClockConfig() function to know which clock is
  *         currently used as system clock source.
  * @retval HAL status
  */
HAL_StatusTypeDef HAL_RCC_ClockConfig(RCC_ClkInitTypeDef  *RCC_ClkInitStruct, uint32_t FLatency)
{
 8004980:	b580      	push	{r7, lr}
 8004982:	b084      	sub	sp, #16
 8004984:	af00      	add	r7, sp, #0
 8004986:	6078      	str	r0, [r7, #4]
 8004988:	6039      	str	r1, [r7, #0]
  uint32_t tickstart;

  /* Check Null pointer */
  if (RCC_ClkInitStruct == NULL)
 800498a:	687b      	ldr	r3, [r7, #4]
 800498c:	2b00      	cmp	r3, #0
 800498e:	d101      	bne.n	8004994 <HAL_RCC_ClockConfig+0x14>
  {
    return HAL_ERROR;
 8004990:	2301      	movs	r3, #1
 8004992:	e0d0      	b.n	8004b36 <HAL_RCC_ClockConfig+0x1b6>
  must be correctly programmed according to the frequency of the CPU clock
    (HCLK) of the device. */

#if defined(FLASH_ACR_LATENCY)
  /* Increasing the number of wait states because of higher CPU frequency */
  if (FLatency > __HAL_FLASH_GET_LATENCY())
 8004994:	4b6a      	ldr	r3, [pc, #424]	@ (8004b40 <HAL_RCC_ClockConfig+0x1c0>)
 8004996:	681b      	ldr	r3, [r3, #0]
 8004998:	f003 0307 	and.w	r3, r3, #7
 800499c:	683a      	ldr	r2, [r7, #0]
 800499e:	429a      	cmp	r2, r3
 80049a0:	d910      	bls.n	80049c4 <HAL_RCC_ClockConfig+0x44>
  {
    /* Program the new number of wait states to the LATENCY bits in the FLASH_ACR register */
    __HAL_FLASH_SET_LATENCY(FLatency);
 80049a2:	4b67      	ldr	r3, [pc, #412]	@ (8004b40 <HAL_RCC_ClockConfig+0x1c0>)
 80049a4:	681b      	ldr	r3, [r3, #0]
 80049a6:	f023 0207 	bic.w	r2, r3, #7
 80049aa:	4965      	ldr	r1, [pc, #404]	@ (8004b40 <HAL_RCC_ClockConfig+0x1c0>)
 80049ac:	683b      	ldr	r3, [r7, #0]
 80049ae:	4313      	orrs	r3, r2
 80049b0:	600b      	str	r3, [r1, #0]

    /* Check that the new number of wait states is taken into account to access the Flash
    memory by reading the FLASH_ACR register */
    if (__HAL_FLASH_GET_LATENCY() != FLatency)
 80049b2:	4b63      	ldr	r3, [pc, #396]	@ (8004b40 <HAL_RCC_ClockConfig+0x1c0>)
 80049b4:	681b      	ldr	r3, [r3, #0]
 80049b6:	f003 0307 	and.w	r3, r3, #7
 80049ba:	683a      	ldr	r2, [r7, #0]
 80049bc:	429a      	cmp	r2, r3
 80049be:	d001      	beq.n	80049c4 <HAL_RCC_ClockConfig+0x44>
  {
    return HAL_ERROR;
 80049c0:	2301      	movs	r3, #1
 80049c2:	e0b8      	b.n	8004b36 <HAL_RCC_ClockConfig+0x1b6>
  }
}

#endif /* FLASH_ACR_LATENCY */
/*-------------------------- HCLK Configuration --------------------------*/
if (((RCC_ClkInitStruct->ClockType) & RCC_CLOCKTYPE_HCLK) == RCC_CLOCKTYPE_HCLK)
 80049c4:	687b      	ldr	r3, [r7, #4]
 80049c6:	681b      	ldr	r3, [r3, #0]
 80049c8:	f003 0302 	and.w	r3, r3, #2
 80049cc:	2b00      	cmp	r3, #0
 80049ce:	d020      	beq.n	8004a12 <HAL_RCC_ClockConfig+0x92>
  {
    /* Set the highest APBx dividers in order to ensure that we do not go through
    a non-spec phase whatever we decrease or increase HCLK. */
    if (((RCC_ClkInitStruct->ClockType) & RCC_CLOCKTYPE_PCLK1) == RCC_CLOCKTYPE_PCLK1)
 80049d0:	687b      	ldr	r3, [r7, #4]
 80049d2:	681b      	ldr	r3, [r3, #0]
 80049d4:	f003 0304 	and.w	r3, r3, #4
 80049d8:	2b00      	cmp	r3, #0
 80049da:	d005      	beq.n	80049e8 <HAL_RCC_ClockConfig+0x68>
    {
      MODIFY_REG(RCC->CFGR, RCC_CFGR_PPRE1, RCC_HCLK_DIV16);
 80049dc:	4b59      	ldr	r3, [pc, #356]	@ (8004b44 <HAL_RCC_ClockConfig+0x1c4>)
 80049de:	685b      	ldr	r3, [r3, #4]
 80049e0:	4a58      	ldr	r2, [pc, #352]	@ (8004b44 <HAL_RCC_ClockConfig+0x1c4>)
 80049e2:	f443 63e0 	orr.w	r3, r3, #1792	@ 0x700
 80049e6:	6053      	str	r3, [r2, #4]
    }

    if (((RCC_ClkInitStruct->ClockType) & RCC_CLOCKTYPE_PCLK2) == RCC_CLOCKTYPE_PCLK2)
 80049e8:	687b      	ldr	r3, [r7, #4]
 80049ea:	681b      	ldr	r3, [r3, #0]
 80049ec:	f003 0308 	and.w	r3, r3, #8
 80049f0:	2b00      	cmp	r3, #0
 80049f2:	d005      	beq.n	8004a00 <HAL_RCC_ClockConfig+0x80>
    {
      MODIFY_REG(RCC->CFGR, RCC_CFGR_PPRE2, (RCC_HCLK_DIV16 << 3));
 80049f4:	4b53      	ldr	r3, [pc, #332]	@ (8004b44 <HAL_RCC_ClockConfig+0x1c4>)
 80049f6:	685b      	ldr	r3, [r3, #4]
 80049f8:	4a52      	ldr	r2, [pc, #328]	@ (8004b44 <HAL_RCC_ClockConfig+0x1c4>)
 80049fa:	f443 5360 	orr.w	r3, r3, #14336	@ 0x3800
 80049fe:	6053      	str	r3, [r2, #4]
    }

    /* Set the new HCLK clock divider */
    assert_param(IS_RCC_HCLK(RCC_ClkInitStruct->AHBCLKDivider));
    MODIFY_REG(RCC->CFGR, RCC_CFGR_HPRE, RCC_ClkInitStruct->AHBCLKDivider);
 8004a00:	4b50      	ldr	r3, [pc, #320]	@ (8004b44 <HAL_RCC_ClockConfig+0x1c4>)
 8004a02:	685b      	ldr	r3, [r3, #4]
 8004a04:	f023 02f0 	bic.w	r2, r3, #240	@ 0xf0
 8004a08:	687b      	ldr	r3, [r7, #4]
 8004a0a:	689b      	ldr	r3, [r3, #8]
 8004a0c:	494d      	ldr	r1, [pc, #308]	@ (8004b44 <HAL_RCC_ClockConfig+0x1c4>)
 8004a0e:	4313      	orrs	r3, r2
 8004a10:	604b      	str	r3, [r1, #4]
  }

  /*------------------------- SYSCLK Configuration ---------------------------*/
  if (((RCC_ClkInitStruct->ClockType) & RCC_CLOCKTYPE_SYSCLK) == RCC_CLOCKTYPE_SYSCLK)
 8004a12:	687b      	ldr	r3, [r7, #4]
 8004a14:	681b      	ldr	r3, [r3, #0]
 8004a16:	f003 0301 	and.w	r3, r3, #1
 8004a1a:	2b00      	cmp	r3, #0
 8004a1c:	d040      	beq.n	8004aa0 <HAL_RCC_ClockConfig+0x120>
  {
    assert_param(IS_RCC_SYSCLKSOURCE(RCC_ClkInitStruct->SYSCLKSource));

    /* HSE is selected as System Clock Source */
    if (RCC_ClkInitStruct->SYSCLKSource == RCC_SYSCLKSOURCE_HSE)
 8004a1e:	687b      	ldr	r3, [r7, #4]
 8004a20:	685b      	ldr	r3, [r3, #4]
 8004a22:	2b01      	cmp	r3, #1
 8004a24:	d107      	bne.n	8004a36 <HAL_RCC_ClockConfig+0xb6>
    {
      /* Check the HSE ready flag */
      if (__HAL_RCC_GET_FLAG(RCC_FLAG_HSERDY) == RESET)
 8004a26:	4b47      	ldr	r3, [pc, #284]	@ (8004b44 <HAL_RCC_ClockConfig+0x1c4>)
 8004a28:	681b      	ldr	r3, [r3, #0]
 8004a2a:	f403 3300 	and.w	r3, r3, #131072	@ 0x20000
 8004a2e:	2b00      	cmp	r3, #0
 8004a30:	d115      	bne.n	8004a5e <HAL_RCC_ClockConfig+0xde>
      {
        return HAL_ERROR;
 8004a32:	2301      	movs	r3, #1
 8004a34:	e07f      	b.n	8004b36 <HAL_RCC_ClockConfig+0x1b6>
      }
    }
    /* PLL is selected as System Clock Source */
    else if (RCC_ClkInitStruct->SYSCLKSource == RCC_SYSCLKSOURCE_PLLCLK)
 8004a36:	687b      	ldr	r3, [r7, #4]
 8004a38:	685b      	ldr	r3, [r3, #4]
 8004a3a:	2b02      	cmp	r3, #2
 8004a3c:	d107      	bne.n	8004a4e <HAL_RCC_ClockConfig+0xce>
    {
      /* Check the PLL ready flag */
      if (__HAL_RCC_GET_FLAG(RCC_FLAG_PLLRDY) == RESET)
 8004a3e:	4b41      	ldr	r3, [pc, #260]	@ (8004b44 <HAL_RCC_ClockConfig+0x1c4>)
 8004a40:	681b      	ldr	r3, [r3, #0]
 8004a42:	f003 7300 	and.w	r3, r3, #33554432	@ 0x2000000
 8004a46:	2b00      	cmp	r3, #0
 8004a48:	d109      	bne.n	8004a5e <HAL_RCC_ClockConfig+0xde>
      {
        return HAL_ERROR;
 8004a4a:	2301      	movs	r3, #1
 8004a4c:	e073      	b.n	8004b36 <HAL_RCC_ClockConfig+0x1b6>
    }
    /* HSI is selected as System Clock Source */
    else
    {
      /* Check the HSI ready flag */
      if (__HAL_RCC_GET_FLAG(RCC_FLAG_HSIRDY) == RESET)
 8004a4e:	4b3d      	ldr	r3, [pc, #244]	@ (8004b44 <HAL_RCC_ClockConfig+0x1c4>)
 8004a50:	681b      	ldr	r3, [r3, #0]
 8004a52:	f003 0302 	and.w	r3, r3, #2
 8004a56:	2b00      	cmp	r3, #0
 8004a58:	d101      	bne.n	8004a5e <HAL_RCC_ClockConfig+0xde>
      {
        return HAL_ERROR;
 8004a5a:	2301      	movs	r3, #1
 8004a5c:	e06b      	b.n	8004b36 <HAL_RCC_ClockConfig+0x1b6>
      }
    }
    __HAL_RCC_SYSCLK_CONFIG(RCC_ClkInitStruct->SYSCLKSource);
 8004a5e:	4b39      	ldr	r3, [pc, #228]	@ (8004b44 <HAL_RCC_ClockConfig+0x1c4>)
 8004a60:	685b      	ldr	r3, [r3, #4]
 8004a62:	f023 0203 	bic.w	r2, r3, #3
 8004a66:	687b      	ldr	r3, [r7, #4]
 8004a68:	685b      	ldr	r3, [r3, #4]
 8004a6a:	4936      	ldr	r1, [pc, #216]	@ (8004b44 <HAL_RCC_ClockConfig+0x1c4>)
 8004a6c:	4313      	orrs	r3, r2
 8004a6e:	604b      	str	r3, [r1, #4]

    /* Get Start Tick */
    tickstart = HAL_GetTick();
 8004a70:	f7fe f9f6 	bl	8002e60 <HAL_GetTick>
 8004a74:	60f8      	str	r0, [r7, #12]

    while (__HAL_RCC_GET_SYSCLK_SOURCE() != (RCC_ClkInitStruct->SYSCLKSource << RCC_CFGR_SWS_Pos))
 8004a76:	e00a      	b.n	8004a8e <HAL_RCC_ClockConfig+0x10e>
    {
      if ((HAL_GetTick() - tickstart) > CLOCKSWITCH_TIMEOUT_VALUE)
 8004a78:	f7fe f9f2 	bl	8002e60 <HAL_GetTick>
 8004a7c:	4602      	mov	r2, r0
 8004a7e:	68fb      	ldr	r3, [r7, #12]
 8004a80:	1ad3      	subs	r3, r2, r3
 8004a82:	f241 3288 	movw	r2, #5000	@ 0x1388
 8004a86:	4293      	cmp	r3, r2
 8004a88:	d901      	bls.n	8004a8e <HAL_RCC_ClockConfig+0x10e>
      {
        return HAL_TIMEOUT;
 8004a8a:	2303      	movs	r3, #3
 8004a8c:	e053      	b.n	8004b36 <HAL_RCC_ClockConfig+0x1b6>
    while (__HAL_RCC_GET_SYSCLK_SOURCE() != (RCC_ClkInitStruct->SYSCLKSource << RCC_CFGR_SWS_Pos))
 8004a8e:	4b2d      	ldr	r3, [pc, #180]	@ (8004b44 <HAL_RCC_ClockConfig+0x1c4>)
 8004a90:	685b      	ldr	r3, [r3, #4]
 8004a92:	f003 020c 	and.w	r2, r3, #12
 8004a96:	687b      	ldr	r3, [r7, #4]
 8004a98:	685b      	ldr	r3, [r3, #4]
 8004a9a:	009b      	lsls	r3, r3, #2
 8004a9c:	429a      	cmp	r2, r3
 8004a9e:	d1eb      	bne.n	8004a78 <HAL_RCC_ClockConfig+0xf8>
    }
  }

#if defined(FLASH_ACR_LATENCY)
  /* Decreasing the number of wait states because of lower CPU frequency */
  if (FLatency < __HAL_FLASH_GET_LATENCY())
 8004aa0:	4b27      	ldr	r3, [pc, #156]	@ (8004b40 <HAL_RCC_ClockConfig+0x1c0>)
 8004aa2:	681b      	ldr	r3, [r3, #0]
 8004aa4:	f003 0307 	and.w	r3, r3, #7
 8004aa8:	683a      	ldr	r2, [r7, #0]
 8004aaa:	429a      	cmp	r2, r3
 8004aac:	d210      	bcs.n	8004ad0 <HAL_RCC_ClockConfig+0x150>
  {
    /* Program the new number of wait states to the LATENCY bits in the FLASH_ACR register */
    __HAL_FLASH_SET_LATENCY(FLatency);
 8004aae:	4b24      	ldr	r3, [pc, #144]	@ (8004b40 <HAL_RCC_ClockConfig+0x1c0>)
 8004ab0:	681b      	ldr	r3, [r3, #0]
 8004ab2:	f023 0207 	bic.w	r2, r3, #7
 8004ab6:	4922      	ldr	r1, [pc, #136]	@ (8004b40 <HAL_RCC_ClockConfig+0x1c0>)
 8004ab8:	683b      	ldr	r3, [r7, #0]
 8004aba:	4313      	orrs	r3, r2
 8004abc:	600b      	str	r3, [r1, #0]

    /* Check that the new number of wait states is taken into account to access the Flash
    memory by reading the FLASH_ACR register */
    if (__HAL_FLASH_GET_LATENCY() != FLatency)
 8004abe:	4b20      	ldr	r3, [pc, #128]	@ (8004b40 <HAL_RCC_ClockConfig+0x1c0>)
 8004ac0:	681b      	ldr	r3, [r3, #0]
 8004ac2:	f003 0307 	and.w	r3, r3, #7
 8004ac6:	683a      	ldr	r2, [r7, #0]
 8004ac8:	429a      	cmp	r2, r3
 8004aca:	d001      	beq.n	8004ad0 <HAL_RCC_ClockConfig+0x150>
  {
    return HAL_ERROR;
 8004acc:	2301      	movs	r3, #1
 8004ace:	e032      	b.n	8004b36 <HAL_RCC_ClockConfig+0x1b6>
  }
}
#endif /* FLASH_ACR_LATENCY */

/*-------------------------- PCLK1 Configuration ---------------------------*/
if (((RCC_ClkInitStruct->ClockType) & RCC_CLOCKTYPE_PCLK1) == RCC_CLOCKTYPE_PCLK1)
 8004ad0:	687b      	ldr	r3, [r7, #4]
 8004ad2:	681b      	ldr	r3, [r3, #0]
 8004ad4:	f003 0304 	and.w	r3, r3, #4
 8004ad8:	2b00      	cmp	r3, #0
 8004ada:	d008      	beq.n	8004aee <HAL_RCC_ClockConfig+0x16e>
  {
    assert_param(IS_RCC_PCLK(RCC_ClkInitStruct->APB1CLKDivider));
    MODIFY_REG(RCC->CFGR, RCC_CFGR_PPRE1, RCC_ClkInitStruct->APB1CLKDivider);
 8004adc:	4b19      	ldr	r3, [pc, #100]	@ (8004b44 <HAL_RCC_ClockConfig+0x1c4>)
 8004ade:	685b      	ldr	r3, [r3, #4]
 8004ae0:	f423 62e0 	bic.w	r2, r3, #1792	@ 0x700
 8004ae4:	687b      	ldr	r3, [r7, #4]
 8004ae6:	68db      	ldr	r3, [r3, #12]
 8004ae8:	4916      	ldr	r1, [pc, #88]	@ (8004b44 <HAL_RCC_ClockConfig+0x1c4>)
 8004aea:	4313      	orrs	r3, r2
 8004aec:	604b      	str	r3, [r1, #4]
  }

  /*-------------------------- PCLK2 Configuration ---------------------------*/
  if (((RCC_ClkInitStruct->ClockType) & RCC_CLOCKTYPE_PCLK2) == RCC_CLOCKTYPE_PCLK2)
 8004aee:	687b      	ldr	r3, [r7, #4]
 8004af0:	681b      	ldr	r3, [r3, #0]
 8004af2:	f003 0308 	and.w	r3, r3, #8
 8004af6:	2b00      	cmp	r3, #0
 8004af8:	d009      	beq.n	8004b0e <HAL_RCC_ClockConfig+0x18e>
  {
    assert_param(IS_RCC_PCLK(RCC_ClkInitStruct->APB2CLKDivider));
    MODIFY_REG(RCC->CFGR, RCC_CFGR_PPRE2, ((RCC_ClkInitStruct->APB2CLKDivider) << 3));
 8004afa:	4b12      	ldr	r3, [pc, #72]	@ (8004b44 <HAL_RCC_ClockConfig+0x1c4>)
 8004afc:	685b      	ldr	r3, [r3, #4]
 8004afe:	f423 5260 	bic.w	r2, r3, #14336	@ 0x3800
 8004b02:	687b      	ldr	r3, [r7, #4]
 8004b04:	691b      	ldr	r3, [r3, #16]
 8004b06:	00db      	lsls	r3, r3, #3
 8004b08:	490e      	ldr	r1, [pc, #56]	@ (8004b44 <HAL_RCC_ClockConfig+0x1c4>)
 8004b0a:	4313      	orrs	r3, r2
 8004b0c:	604b      	str	r3, [r1, #4]
  }

  /* Update the SystemCoreClock global variable */
  SystemCoreClock = HAL_RCC_GetSysClockFreq() >> AHBPrescTable[(RCC->CFGR & RCC_CFGR_HPRE) >> RCC_CFGR_HPRE_Pos];
 8004b0e:	f000 f821 	bl	8004b54 <HAL_RCC_GetSysClockFreq>
 8004b12:	4602      	mov	r2, r0
 8004b14:	4b0b      	ldr	r3, [pc, #44]	@ (8004b44 <HAL_RCC_ClockConfig+0x1c4>)
 8004b16:	685b      	ldr	r3, [r3, #4]
 8004b18:	091b      	lsrs	r3, r3, #4
 8004b1a:	f003 030f 	and.w	r3, r3, #15
 8004b1e:	490a      	ldr	r1, [pc, #40]	@ (8004b48 <HAL_RCC_ClockConfig+0x1c8>)
 8004b20:	5ccb      	ldrb	r3, [r1, r3]
 8004b22:	fa22 f303 	lsr.w	r3, r2, r3
 8004b26:	4a09      	ldr	r2, [pc, #36]	@ (8004b4c <HAL_RCC_ClockConfig+0x1cc>)
 8004b28:	6013      	str	r3, [r2, #0]

  /* Configure the source of time base considering new system clocks settings*/
  HAL_InitTick(uwTickPrio);
 8004b2a:	4b09      	ldr	r3, [pc, #36]	@ (8004b50 <HAL_RCC_ClockConfig+0x1d0>)
 8004b2c:	681b      	ldr	r3, [r3, #0]
 8004b2e:	4618      	mov	r0, r3
 8004b30:	f7fe f954 	bl	8002ddc <HAL_InitTick>

  return HAL_OK;
 8004b34:	2300      	movs	r3, #0
}
 8004b36:	4618      	mov	r0, r3
 8004b38:	3710      	adds	r7, #16
 8004b3a:	46bd      	mov	sp, r7
 8004b3c:	bd80      	pop	{r7, pc}
 8004b3e:	bf00      	nop
 8004b40:	40022000 	.word	0x40022000
 8004b44:	40021000 	.word	0x40021000
 8004b48:	08006460 	.word	0x08006460
 8004b4c:	20000090 	.word	0x20000090
 8004b50:	20000094 	.word	0x20000094

08004b54 <HAL_RCC_GetSysClockFreq>:
  *         right SYSCLK value. Otherwise, any configuration based on this function will be incorrect.
  *
  * @retval SYSCLK frequency
  */
uint32_t HAL_RCC_GetSysClockFreq(void)
{
 8004b54:	b480      	push	{r7}
 8004b56:	b087      	sub	sp, #28
 8004b58:	af00      	add	r7, sp, #0
#else
  static const uint8_t aPredivFactorTable[2U] = {1, 2};
#endif /*RCC_CFGR2_PREDIV1*/

#endif
  uint32_t tmpreg = 0U, prediv = 0U, pllclk = 0U, pllmul = 0U;
 8004b5a:	2300      	movs	r3, #0
 8004b5c:	60fb      	str	r3, [r7, #12]
 8004b5e:	2300      	movs	r3, #0
 8004b60:	60bb      	str	r3, [r7, #8]
 8004b62:	2300      	movs	r3, #0
 8004b64:	617b      	str	r3, [r7, #20]
 8004b66:	2300      	movs	r3, #0
 8004b68:	607b      	str	r3, [r7, #4]
  uint32_t sysclockfreq = 0U;
 8004b6a:	2300      	movs	r3, #0
 8004b6c:	613b      	str	r3, [r7, #16]
#if defined(RCC_CFGR2_PREDIV1SRC)
  uint32_t prediv2 = 0U, pll2mul = 0U;
#endif /*RCC_CFGR2_PREDIV1SRC*/

  tmpreg = RCC->CFGR;
 8004b6e:	4b1e      	ldr	r3, [pc, #120]	@ (8004be8 <HAL_RCC_GetSysClockFreq+0x94>)
 8004b70:	685b      	ldr	r3, [r3, #4]
 8004b72:	60fb      	str	r3, [r7, #12]

  /* Get SYSCLK source -------------------------------------------------------*/
  switch (tmpreg & RCC_CFGR_SWS)
 8004b74:	68fb      	ldr	r3, [r7, #12]
 8004b76:	f003 030c 	and.w	r3, r3, #12
 8004b7a:	2b04      	cmp	r3, #4
 8004b7c:	d002      	beq.n	8004b84 <HAL_RCC_GetSysClockFreq+0x30>
 8004b7e:	2b08      	cmp	r3, #8
 8004b80:	d003      	beq.n	8004b8a <HAL_RCC_GetSysClockFreq+0x36>
 8004b82:	e027      	b.n	8004bd4 <HAL_RCC_GetSysClockFreq+0x80>
  {
    case RCC_SYSCLKSOURCE_STATUS_HSE:  /* HSE used as system clock */
    {
      sysclockfreq = HSE_VALUE;
 8004b84:	4b19      	ldr	r3, [pc, #100]	@ (8004bec <HAL_RCC_GetSysClockFreq+0x98>)
 8004b86:	613b      	str	r3, [r7, #16]
      break;
 8004b88:	e027      	b.n	8004bda <HAL_RCC_GetSysClockFreq+0x86>
    }
    case RCC_SYSCLKSOURCE_STATUS_PLLCLK:  /* PLL used as system clock */
    {
      pllmul = aPLLMULFactorTable[(uint32_t)(tmpreg & RCC_CFGR_PLLMULL) >> RCC_CFGR_PLLMULL_Pos];
 8004b8a:	68fb      	ldr	r3, [r7, #12]
 8004b8c:	0c9b      	lsrs	r3, r3, #18
 8004b8e:	f003 030f 	and.w	r3, r3, #15
 8004b92:	4a17      	ldr	r2, [pc, #92]	@ (8004bf0 <HAL_RCC_GetSysClockFreq+0x9c>)
 8004b94:	5cd3      	ldrb	r3, [r2, r3]
 8004b96:	607b      	str	r3, [r7, #4]
      if ((tmpreg & RCC_CFGR_PLLSRC) != RCC_PLLSOURCE_HSI_DIV2)
 8004b98:	68fb      	ldr	r3, [r7, #12]
 8004b9a:	f403 3380 	and.w	r3, r3, #65536	@ 0x10000
 8004b9e:	2b00      	cmp	r3, #0
 8004ba0:	d010      	beq.n	8004bc4 <HAL_RCC_GetSysClockFreq+0x70>
      {
#if defined(RCC_CFGR2_PREDIV1)
        prediv = aPredivFactorTable[(uint32_t)(RCC->CFGR2 & RCC_CFGR2_PREDIV1) >> RCC_CFGR2_PREDIV1_Pos];
#else
        prediv = aPredivFactorTable[(uint32_t)(RCC->CFGR & RCC_CFGR_PLLXTPRE) >> RCC_CFGR_PLLXTPRE_Pos];
 8004ba2:	4b11      	ldr	r3, [pc, #68]	@ (8004be8 <HAL_RCC_GetSysClockFreq+0x94>)
 8004ba4:	685b      	ldr	r3, [r3, #4]
 8004ba6:	0c5b      	lsrs	r3, r3, #17
 8004ba8:	f003 0301 	and.w	r3, r3, #1
 8004bac:	4a11      	ldr	r2, [pc, #68]	@ (8004bf4 <HAL_RCC_GetSysClockFreq+0xa0>)
 8004bae:	5cd3      	ldrb	r3, [r2, r3]
 8004bb0:	60bb      	str	r3, [r7, #8]
        {
          pllclk = pllclk / 2;
        }
#else
        /* HSE used as PLL clock source : PLLCLK = HSE/PREDIV1 * PLLMUL */
        pllclk = (uint32_t)((HSE_VALUE  * pllmul) / prediv);
 8004bb2:	687b      	ldr	r3, [r7, #4]
 8004bb4:	4a0d      	ldr	r2, [pc, #52]	@ (8004bec <HAL_RCC_GetSysClockFreq+0x98>)
 8004bb6:	fb03 f202 	mul.w	r2, r3, r2
 8004bba:	68bb      	ldr	r3, [r7, #8]
 8004bbc:	fbb2 f3f3 	udiv	r3, r2, r3
 8004bc0:	617b      	str	r3, [r7, #20]
 8004bc2:	e004      	b.n	8004bce <HAL_RCC_GetSysClockFreq+0x7a>
#endif /*RCC_CFGR2_PREDIV1SRC*/
      }
      else
      {
        /* HSI used as PLL clock source : PLLCLK = HSI/2 * PLLMUL */
        pllclk = (uint32_t)((HSI_VALUE >> 1) * pllmul);
 8004bc4:	687b      	ldr	r3, [r7, #4]
 8004bc6:	4a0c      	ldr	r2, [pc, #48]	@ (8004bf8 <HAL_RCC_GetSysClockFreq+0xa4>)
 8004bc8:	fb02 f303 	mul.w	r3, r2, r3
 8004bcc:	617b      	str	r3, [r7, #20]
      }
      sysclockfreq = pllclk;
 8004bce:	697b      	ldr	r3, [r7, #20]
 8004bd0:	613b      	str	r3, [r7, #16]
      break;
 8004bd2:	e002      	b.n	8004bda <HAL_RCC_GetSysClockFreq+0x86>
    }
    case RCC_SYSCLKSOURCE_STATUS_HSI:  /* HSI used as system clock source */
    default: /* HSI used as system clock */
    {
      sysclockfreq = HSI_VALUE;
 8004bd4:	4b05      	ldr	r3, [pc, #20]	@ (8004bec <HAL_RCC_GetSysClockFreq+0x98>)
 8004bd6:	613b      	str	r3, [r7, #16]
      break;
 8004bd8:	bf00      	nop
    }
  }
  return sysclockfreq;
 8004bda:	693b      	ldr	r3, [r7, #16]
}
 8004bdc:	4618      	mov	r0, r3
 8004bde:	371c      	adds	r7, #28
 8004be0:	46bd      	mov	sp, r7
 8004be2:	bc80      	pop	{r7}
 8004be4:	4770      	bx	lr
 8004be6:	bf00      	nop
 8004be8:	40021000 	.word	0x40021000
 8004bec:	007a1200 	.word	0x007a1200
 8004bf0:	08006478 	.word	0x08006478
 8004bf4:	08006488 	.word	0x08006488
 8004bf8:	003d0900 	.word	0x003d0900

08004bfc <HAL_RCC_GetHCLKFreq>:
  * @note   The SystemCoreClock CMSIS variable is used to store System Clock Frequency
  *         and updated within this function
  * @retval HCLK frequency
  */
uint32_t HAL_RCC_GetHCLKFreq(void)
{
 8004bfc:	b480      	push	{r7}
 8004bfe:	af00      	add	r7, sp, #0
  return SystemCoreClock;
 8004c00:	4b02      	ldr	r3, [pc, #8]	@ (8004c0c <HAL_RCC_GetHCLKFreq+0x10>)
 8004c02:	681b      	ldr	r3, [r3, #0]
}
 8004c04:	4618      	mov	r0, r3
 8004c06:	46bd      	mov	sp, r7
 8004c08:	bc80      	pop	{r7}
 8004c0a:	4770      	bx	lr
 8004c0c:	20000090 	.word	0x20000090

08004c10 <HAL_RCC_GetPCLK1Freq>:
  * @note   Each time PCLK1 changes, this function must be called to update the
  *         right PCLK1 value. Otherwise, any configuration based on this function will be incorrect.
  * @retval PCLK1 frequency
  */
uint32_t HAL_RCC_GetPCLK1Freq(void)
{
 8004c10:	b580      	push	{r7, lr}
 8004c12:	af00      	add	r7, sp, #0
  /* Get HCLK source and Compute PCLK1 frequency ---------------------------*/
  return (HAL_RCC_GetHCLKFreq() >> APBPrescTable[(RCC->CFGR & RCC_CFGR_PPRE1) >> RCC_CFGR_PPRE1_Pos]);
 8004c14:	f7ff fff2 	bl	8004bfc <HAL_RCC_GetHCLKFreq>
 8004c18:	4602      	mov	r2, r0
 8004c1a:	4b05      	ldr	r3, [pc, #20]	@ (8004c30 <HAL_RCC_GetPCLK1Freq+0x20>)
 8004c1c:	685b      	ldr	r3, [r3, #4]
 8004c1e:	0a1b      	lsrs	r3, r3, #8
 8004c20:	f003 0307 	and.w	r3, r3, #7
 8004c24:	4903      	ldr	r1, [pc, #12]	@ (8004c34 <HAL_RCC_GetPCLK1Freq+0x24>)
 8004c26:	5ccb      	ldrb	r3, [r1, r3]
 8004c28:	fa22 f303 	lsr.w	r3, r2, r3
}
 8004c2c:	4618      	mov	r0, r3
 8004c2e:	bd80      	pop	{r7, pc}
 8004c30:	40021000 	.word	0x40021000
 8004c34:	08006470 	.word	0x08006470

08004c38 <HAL_RCC_GetPCLK2Freq>:
  * @note   Each time PCLK2 changes, this function must be called to update the
  *         right PCLK2 value. Otherwise, any configuration based on this function will be incorrect.
  * @retval PCLK2 frequency
  */
uint32_t HAL_RCC_GetPCLK2Freq(void)
{
 8004c38:	b580      	push	{r7, lr}
 8004c3a:	af00      	add	r7, sp, #0
  /* Get HCLK source and Compute PCLK2 frequency ---------------------------*/
  return (HAL_RCC_GetHCLKFreq() >> APBPrescTable[(RCC->CFGR & RCC_CFGR_PPRE2) >> RCC_CFGR_PPRE2_Pos]);
 8004c3c:	f7ff ffde 	bl	8004bfc <HAL_RCC_GetHCLKFreq>
 8004c40:	4602      	mov	r2, r0
 8004c42:	4b05      	ldr	r3, [pc, #20]	@ (8004c58 <HAL_RCC_GetPCLK2Freq+0x20>)
 8004c44:	685b      	ldr	r3, [r3, #4]
 8004c46:	0adb      	lsrs	r3, r3, #11
 8004c48:	f003 0307 	and.w	r3, r3, #7
 8004c4c:	4903      	ldr	r1, [pc, #12]	@ (8004c5c <HAL_RCC_GetPCLK2Freq+0x24>)
 8004c4e:	5ccb      	ldrb	r3, [r1, r3]
 8004c50:	fa22 f303 	lsr.w	r3, r2, r3
}
 8004c54:	4618      	mov	r0, r3
 8004c56:	bd80      	pop	{r7, pc}
 8004c58:	40021000 	.word	0x40021000
 8004c5c:	08006470 	.word	0x08006470

08004c60 <RCC_Delay>:
  * @brief  This function provides delay (in milliseconds) based on CPU cycles method.
  * @param  mdelay: specifies the delay time length, in milliseconds.
  * @retval None
  */
static void RCC_Delay(uint32_t mdelay)
{
 8004c60:	b480      	push	{r7}
 8004c62:	b085      	sub	sp, #20
 8004c64:	af00      	add	r7, sp, #0
 8004c66:	6078      	str	r0, [r7, #4]
  __IO uint32_t Delay = mdelay * (SystemCoreClock / 8U / 1000U);
 8004c68:	4b0a      	ldr	r3, [pc, #40]	@ (8004c94 <RCC_Delay+0x34>)
 8004c6a:	681b      	ldr	r3, [r3, #0]
 8004c6c:	4a0a      	ldr	r2, [pc, #40]	@ (8004c98 <RCC_Delay+0x38>)
 8004c6e:	fba2 2303 	umull	r2, r3, r2, r3
 8004c72:	0a5b      	lsrs	r3, r3, #9
 8004c74:	687a      	ldr	r2, [r7, #4]
 8004c76:	fb02 f303 	mul.w	r3, r2, r3
 8004c7a:	60fb      	str	r3, [r7, #12]
  do
  {
    __NOP();
 8004c7c:	bf00      	nop
  }
  while (Delay --);
 8004c7e:	68fb      	ldr	r3, [r7, #12]
 8004c80:	1e5a      	subs	r2, r3, #1
 8004c82:	60fa      	str	r2, [r7, #12]
 8004c84:	2b00      	cmp	r3, #0
 8004c86:	d1f9      	bne.n	8004c7c <RCC_Delay+0x1c>
}
 8004c88:	bf00      	nop
 8004c8a:	bf00      	nop
 8004c8c:	3714      	adds	r7, #20
 8004c8e:	46bd      	mov	sp, r7
 8004c90:	bc80      	pop	{r7}
 8004c92:	4770      	bx	lr
 8004c94:	20000090 	.word	0x20000090
 8004c98:	10624dd3 	.word	0x10624dd3

08004c9c <HAL_TIM_Base_Init>:
  *         Ex: call @ref HAL_TIM_Base_DeInit() before HAL_TIM_Base_Init()
  * @param  htim TIM Base handle
  * @retval HAL status
  */
HAL_StatusTypeDef HAL_TIM_Base_Init(TIM_HandleTypeDef *htim)
{
 8004c9c:	b580      	push	{r7, lr}
 8004c9e:	b082      	sub	sp, #8
 8004ca0:	af00      	add	r7, sp, #0
 8004ca2:	6078      	str	r0, [r7, #4]
  /* Check the TIM handle allocation */
  if (htim == NULL)
 8004ca4:	687b      	ldr	r3, [r7, #4]
 8004ca6:	2b00      	cmp	r3, #0
 8004ca8:	d101      	bne.n	8004cae <HAL_TIM_Base_Init+0x12>
  {
    return HAL_ERROR;
 8004caa:	2301      	movs	r3, #1
 8004cac:	e041      	b.n	8004d32 <HAL_TIM_Base_Init+0x96>
  assert_param(IS_TIM_COUNTER_MODE(htim->Init.CounterMode));
  assert_param(IS_TIM_CLOCKDIVISION_DIV(htim->Init.ClockDivision));
  assert_param(IS_TIM_PERIOD(htim->Init.Period));
  assert_param(IS_TIM_AUTORELOAD_PRELOAD(htim->Init.AutoReloadPreload));

  if (htim->State == HAL_TIM_STATE_RESET)
 8004cae:	687b      	ldr	r3, [r7, #4]
 8004cb0:	f893 303d 	ldrb.w	r3, [r3, #61]	@ 0x3d
 8004cb4:	b2db      	uxtb	r3, r3
 8004cb6:	2b00      	cmp	r3, #0
 8004cb8:	d106      	bne.n	8004cc8 <HAL_TIM_Base_Init+0x2c>
  {
    /* Allocate lock resource and initialize it */
    htim->Lock = HAL_UNLOCKED;
 8004cba:	687b      	ldr	r3, [r7, #4]
 8004cbc:	2200      	movs	r2, #0
 8004cbe:	f883 203c 	strb.w	r2, [r3, #60]	@ 0x3c
    }
    /* Init the low level hardware : GPIO, CLOCK, NVIC */
    htim->Base_MspInitCallback(htim);
#else
    /* Init the low level hardware : GPIO, CLOCK, NVIC */
    HAL_TIM_Base_MspInit(htim);
 8004cc2:	6878      	ldr	r0, [r7, #4]
 8004cc4:	f7fd ff08 	bl	8002ad8 <HAL_TIM_Base_MspInit>
#endif /* USE_HAL_TIM_REGISTER_CALLBACKS */
  }

  /* Set the TIM state */
  htim->State = HAL_TIM_STATE_BUSY;
 8004cc8:	687b      	ldr	r3, [r7, #4]
 8004cca:	2202      	movs	r2, #2
 8004ccc:	f883 203d 	strb.w	r2, [r3, #61]	@ 0x3d

  /* Set the Time Base configuration */
  TIM_Base_SetConfig(htim->Instance, &htim->Init);
 8004cd0:	687b      	ldr	r3, [r7, #4]
 8004cd2:	681a      	ldr	r2, [r3, #0]
 8004cd4:	687b      	ldr	r3, [r7, #4]
 8004cd6:	3304      	adds	r3, #4
 8004cd8:	4619      	mov	r1, r3
 8004cda:	4610      	mov	r0, r2
 8004cdc:	f000 fc28 	bl	8005530 <TIM_Base_SetConfig>

  /* Initialize the DMA burst operation state */
  htim->DMABurstState = HAL_DMA_BURST_STATE_READY;
 8004ce0:	687b      	ldr	r3, [r7, #4]
 8004ce2:	2201      	movs	r2, #1
 8004ce4:	f883 2046 	strb.w	r2, [r3, #70]	@ 0x46

  /* Initialize the TIM channels state */
  TIM_CHANNEL_STATE_SET_ALL(htim, HAL_TIM_CHANNEL_STATE_READY);
 8004ce8:	687b      	ldr	r3, [r7, #4]
 8004cea:	2201      	movs	r2, #1
 8004cec:	f883 203e 	strb.w	r2, [r3, #62]	@ 0x3e
 8004cf0:	687b      	ldr	r3, [r7, #4]
 8004cf2:	2201      	movs	r2, #1
 8004cf4:	f883 203f 	strb.w	r2, [r3, #63]	@ 0x3f
 8004cf8:	687b      	ldr	r3, [r7, #4]
 8004cfa:	2201      	movs	r2, #1
 8004cfc:	f883 2040 	strb.w	r2, [r3, #64]	@ 0x40
 8004d00:	687b      	ldr	r3, [r7, #4]
 8004d02:	2201      	movs	r2, #1
 8004d04:	f883 2041 	strb.w	r2, [r3, #65]	@ 0x41
  TIM_CHANNEL_N_STATE_SET_ALL(htim, HAL_TIM_CHANNEL_STATE_READY);
 8004d08:	687b      	ldr	r3, [r7, #4]
 8004d0a:	2201      	movs	r2, #1
 8004d0c:	f883 2042 	strb.w	r2, [r3, #66]	@ 0x42
 8004d10:	687b      	ldr	r3, [r7, #4]
 8004d12:	2201      	movs	r2, #1
 8004d14:	f883 2043 	strb.w	r2, [r3, #67]	@ 0x43
 8004d18:	687b      	ldr	r3, [r7, #4]
 8004d1a:	2201      	movs	r2, #1
 8004d1c:	f883 2044 	strb.w	r2, [r3, #68]	@ 0x44
 8004d20:	687b      	ldr	r3, [r7, #4]
 8004d22:	2201      	movs	r2, #1
 8004d24:	f883 2045 	strb.w	r2, [r3, #69]	@ 0x45

  /* Initialize the TIM state*/
  htim->State = HAL_TIM_STATE_READY;
 8004d28:	687b      	ldr	r3, [r7, #4]
 8004d2a:	2201      	movs	r2, #1
 8004d2c:	f883 203d 	strb.w	r2, [r3, #61]	@ 0x3d

  return HAL_OK;
 8004d30:	2300      	movs	r3, #0
}
 8004d32:	4618      	mov	r0, r3
 8004d34:	3708      	adds	r7, #8
 8004d36:	46bd      	mov	sp, r7
 8004d38:	bd80      	pop	{r7, pc}
	...

08004d3c <HAL_TIM_Base_Start_IT>:
  * @brief  Starts the TIM Base generation in interrupt mode.
  * @param  htim TIM Base handle
  * @retval HAL status
  */
HAL_StatusTypeDef HAL_TIM_Base_Start_IT(TIM_HandleTypeDef *htim)
{
 8004d3c:	b480      	push	{r7}
 8004d3e:	b085      	sub	sp, #20
 8004d40:	af00      	add	r7, sp, #0
 8004d42:	6078      	str	r0, [r7, #4]

  /* Check the parameters */
  assert_param(IS_TIM_INSTANCE(htim->Instance));

  /* Check the TIM state */
  if (htim->State != HAL_TIM_STATE_READY)
 8004d44:	687b      	ldr	r3, [r7, #4]
 8004d46:	f893 303d 	ldrb.w	r3, [r3, #61]	@ 0x3d
 8004d4a:	b2db      	uxtb	r3, r3
 8004d4c:	2b01      	cmp	r3, #1
 8004d4e:	d001      	beq.n	8004d54 <HAL_TIM_Base_Start_IT+0x18>
  {
    return HAL_ERROR;
 8004d50:	2301      	movs	r3, #1
 8004d52:	e03a      	b.n	8004dca <HAL_TIM_Base_Start_IT+0x8e>
  }

  /* Set the TIM state */
  htim->State = HAL_TIM_STATE_BUSY;
 8004d54:	687b      	ldr	r3, [r7, #4]
 8004d56:	2202      	movs	r2, #2
 8004d58:	f883 203d 	strb.w	r2, [r3, #61]	@ 0x3d

  /* Enable the TIM Update interrupt */
  __HAL_TIM_ENABLE_IT(htim, TIM_IT_UPDATE);
 8004d5c:	687b      	ldr	r3, [r7, #4]
 8004d5e:	681b      	ldr	r3, [r3, #0]
 8004d60:	68da      	ldr	r2, [r3, #12]
 8004d62:	687b      	ldr	r3, [r7, #4]
 8004d64:	681b      	ldr	r3, [r3, #0]
 8004d66:	f042 0201 	orr.w	r2, r2, #1
 8004d6a:	60da      	str	r2, [r3, #12]

  /* Enable the Peripheral, except in trigger mode where enable is automatically done with trigger */
  if (IS_TIM_SLAVE_INSTANCE(htim->Instance))
 8004d6c:	687b      	ldr	r3, [r7, #4]
 8004d6e:	681b      	ldr	r3, [r3, #0]
 8004d70:	4a18      	ldr	r2, [pc, #96]	@ (8004dd4 <HAL_TIM_Base_Start_IT+0x98>)
 8004d72:	4293      	cmp	r3, r2
 8004d74:	d00e      	beq.n	8004d94 <HAL_TIM_Base_Start_IT+0x58>
 8004d76:	687b      	ldr	r3, [r7, #4]
 8004d78:	681b      	ldr	r3, [r3, #0]
 8004d7a:	f1b3 4f80 	cmp.w	r3, #1073741824	@ 0x40000000
 8004d7e:	d009      	beq.n	8004d94 <HAL_TIM_Base_Start_IT+0x58>
 8004d80:	687b      	ldr	r3, [r7, #4]
 8004d82:	681b      	ldr	r3, [r3, #0]
 8004d84:	4a14      	ldr	r2, [pc, #80]	@ (8004dd8 <HAL_TIM_Base_Start_IT+0x9c>)
 8004d86:	4293      	cmp	r3, r2
 8004d88:	d004      	beq.n	8004d94 <HAL_TIM_Base_Start_IT+0x58>
 8004d8a:	687b      	ldr	r3, [r7, #4]
 8004d8c:	681b      	ldr	r3, [r3, #0]
 8004d8e:	4a13      	ldr	r2, [pc, #76]	@ (8004ddc <HAL_TIM_Base_Start_IT+0xa0>)
 8004d90:	4293      	cmp	r3, r2
 8004d92:	d111      	bne.n	8004db8 <HAL_TIM_Base_Start_IT+0x7c>
  {
    tmpsmcr = htim->Instance->SMCR & TIM_SMCR_SMS;
 8004d94:	687b      	ldr	r3, [r7, #4]
 8004d96:	681b      	ldr	r3, [r3, #0]
 8004d98:	689b      	ldr	r3, [r3, #8]
 8004d9a:	f003 0307 	and.w	r3, r3, #7
 8004d9e:	60fb      	str	r3, [r7, #12]
    if (!IS_TIM_SLAVEMODE_TRIGGER_ENABLED(tmpsmcr))
 8004da0:	68fb      	ldr	r3, [r7, #12]
 8004da2:	2b06      	cmp	r3, #6
 8004da4:	d010      	beq.n	8004dc8 <HAL_TIM_Base_Start_IT+0x8c>
    {
      __HAL_TIM_ENABLE(htim);
 8004da6:	687b      	ldr	r3, [r7, #4]
 8004da8:	681b      	ldr	r3, [r3, #0]
 8004daa:	681a      	ldr	r2, [r3, #0]
 8004dac:	687b      	ldr	r3, [r7, #4]
 8004dae:	681b      	ldr	r3, [r3, #0]
 8004db0:	f042 0201 	orr.w	r2, r2, #1
 8004db4:	601a      	str	r2, [r3, #0]
    if (!IS_TIM_SLAVEMODE_TRIGGER_ENABLED(tmpsmcr))
 8004db6:	e007      	b.n	8004dc8 <HAL_TIM_Base_Start_IT+0x8c>
    }
  }
  else
  {
    __HAL_TIM_ENABLE(htim);
 8004db8:	687b      	ldr	r3, [r7, #4]
 8004dba:	681b      	ldr	r3, [r3, #0]
 8004dbc:	681a      	ldr	r2, [r3, #0]
 8004dbe:	687b      	ldr	r3, [r7, #4]
 8004dc0:	681b      	ldr	r3, [r3, #0]
 8004dc2:	f042 0201 	orr.w	r2, r2, #1
 8004dc6:	601a      	str	r2, [r3, #0]
  }

  /* Return function status */
  return HAL_OK;
 8004dc8:	2300      	movs	r3, #0
}
 8004dca:	4618      	mov	r0, r3
 8004dcc:	3714      	adds	r7, #20
 8004dce:	46bd      	mov	sp, r7
 8004dd0:	bc80      	pop	{r7}
 8004dd2:	4770      	bx	lr
 8004dd4:	40012c00 	.word	0x40012c00
 8004dd8:	40000400 	.word	0x40000400
 8004ddc:	40000800 	.word	0x40000800

08004de0 <HAL_TIM_PWM_Init>:
  *         Ex: call @ref HAL_TIM_PWM_DeInit() before HAL_TIM_PWM_Init()
  * @param  htim TIM PWM handle
  * @retval HAL status
  */
HAL_StatusTypeDef HAL_TIM_PWM_Init(TIM_HandleTypeDef *htim)
{
 8004de0:	b580      	push	{r7, lr}
 8004de2:	b082      	sub	sp, #8
 8004de4:	af00      	add	r7, sp, #0
 8004de6:	6078      	str	r0, [r7, #4]
  /* Check the TIM handle allocation */
  if (htim == NULL)
 8004de8:	687b      	ldr	r3, [r7, #4]
 8004dea:	2b00      	cmp	r3, #0
 8004dec:	d101      	bne.n	8004df2 <HAL_TIM_PWM_Init+0x12>
  {
    return HAL_ERROR;
 8004dee:	2301      	movs	r3, #1
 8004df0:	e041      	b.n	8004e76 <HAL_TIM_PWM_Init+0x96>
  assert_param(IS_TIM_COUNTER_MODE(htim->Init.CounterMode));
  assert_param(IS_TIM_CLOCKDIVISION_DIV(htim->Init.ClockDivision));
  assert_param(IS_TIM_PERIOD(htim->Init.Period));
  assert_param(IS_TIM_AUTORELOAD_PRELOAD(htim->Init.AutoReloadPreload));

  if (htim->State == HAL_TIM_STATE_RESET)
 8004df2:	687b      	ldr	r3, [r7, #4]
 8004df4:	f893 303d 	ldrb.w	r3, [r3, #61]	@ 0x3d
 8004df8:	b2db      	uxtb	r3, r3
 8004dfa:	2b00      	cmp	r3, #0
 8004dfc:	d106      	bne.n	8004e0c <HAL_TIM_PWM_Init+0x2c>
  {
    /* Allocate lock resource and initialize it */
    htim->Lock = HAL_UNLOCKED;
 8004dfe:	687b      	ldr	r3, [r7, #4]
 8004e00:	2200      	movs	r2, #0
 8004e02:	f883 203c 	strb.w	r2, [r3, #60]	@ 0x3c
    }
    /* Init the low level hardware : GPIO, CLOCK, NVIC */
    htim->PWM_MspInitCallback(htim);
#else
    /* Init the low level hardware : GPIO, CLOCK, NVIC and DMA */
    HAL_TIM_PWM_MspInit(htim);
 8004e06:	6878      	ldr	r0, [r7, #4]
 8004e08:	f7fd fe8c 	bl	8002b24 <HAL_TIM_PWM_MspInit>
#endif /* USE_HAL_TIM_REGISTER_CALLBACKS */
  }

  /* Set the TIM state */
  htim->State = HAL_TIM_STATE_BUSY;
 8004e0c:	687b      	ldr	r3, [r7, #4]
 8004e0e:	2202      	movs	r2, #2
 8004e10:	f883 203d 	strb.w	r2, [r3, #61]	@ 0x3d

  /* Init the base time for the PWM */
  TIM_Base_SetConfig(htim->Instance, &htim->Init);
 8004e14:	687b      	ldr	r3, [r7, #4]
 8004e16:	681a      	ldr	r2, [r3, #0]
 8004e18:	687b      	ldr	r3, [r7, #4]
 8004e1a:	3304      	adds	r3, #4
 8004e1c:	4619      	mov	r1, r3
 8004e1e:	4610      	mov	r0, r2
 8004e20:	f000 fb86 	bl	8005530 <TIM_Base_SetConfig>

  /* Initialize the DMA burst operation state */
  htim->DMABurstState = HAL_DMA_BURST_STATE_READY;
 8004e24:	687b      	ldr	r3, [r7, #4]
 8004e26:	2201      	movs	r2, #1
 8004e28:	f883 2046 	strb.w	r2, [r3, #70]	@ 0x46

  /* Initialize the TIM channels state */
  TIM_CHANNEL_STATE_SET_ALL(htim, HAL_TIM_CHANNEL_STATE_READY);
 8004e2c:	687b      	ldr	r3, [r7, #4]
 8004e2e:	2201      	movs	r2, #1
 8004e30:	f883 203e 	strb.w	r2, [r3, #62]	@ 0x3e
 8004e34:	687b      	ldr	r3, [r7, #4]
 8004e36:	2201      	movs	r2, #1
 8004e38:	f883 203f 	strb.w	r2, [r3, #63]	@ 0x3f
 8004e3c:	687b      	ldr	r3, [r7, #4]
 8004e3e:	2201      	movs	r2, #1
 8004e40:	f883 2040 	strb.w	r2, [r3, #64]	@ 0x40
 8004e44:	687b      	ldr	r3, [r7, #4]
 8004e46:	2201      	movs	r2, #1
 8004e48:	f883 2041 	strb.w	r2, [r3, #65]	@ 0x41
  TIM_CHANNEL_N_STATE_SET_ALL(htim, HAL_TIM_CHANNEL_STATE_READY);
 8004e4c:	687b      	ldr	r3, [r7, #4]
 8004e4e:	2201      	movs	r2, #1
 8004e50:	f883 2042 	strb.w	r2, [r3, #66]	@ 0x42
 8004e54:	687b      	ldr	r3, [r7, #4]
 8004e56:	2201      	movs	r2, #1
 8004e58:	f883 2043 	strb.w	r2, [r3, #67]	@ 0x43
 8004e5c:	687b      	ldr	r3, [r7, #4]
 8004e5e:	2201      	movs	r2, #1
 8004e60:	f883 2044 	strb.w	r2, [r3, #68]	@ 0x44
 8004e64:	687b      	ldr	r3, [r7, #4]
 8004e66:	2201      	movs	r2, #1
 8004e68:	f883 2045 	strb.w	r2, [r3, #69]	@ 0x45

  /* Initialize the TIM state*/
  htim->State = HAL_TIM_STATE_READY;
 8004e6c:	687b      	ldr	r3, [r7, #4]
 8004e6e:	2201      	movs	r2, #1
 8004e70:	f883 203d 	strb.w	r2, [r3, #61]	@ 0x3d

  return HAL_OK;
 8004e74:	2300      	movs	r3, #0
}
 8004e76:	4618      	mov	r0, r3
 8004e78:	3708      	adds	r7, #8
 8004e7a:	46bd      	mov	sp, r7
 8004e7c:	bd80      	pop	{r7, pc}
	...

08004e80 <HAL_TIM_PWM_Start>:
  *            @arg TIM_CHANNEL_3: TIM Channel 3 selected
  *            @arg TIM_CHANNEL_4: TIM Channel 4 selected
  * @retval HAL status
  */
HAL_StatusTypeDef HAL_TIM_PWM_Start(TIM_HandleTypeDef *htim, uint32_t Channel)
{
 8004e80:	b580      	push	{r7, lr}
 8004e82:	b084      	sub	sp, #16
 8004e84:	af00      	add	r7, sp, #0
 8004e86:	6078      	str	r0, [r7, #4]
 8004e88:	6039      	str	r1, [r7, #0]

  /* Check the parameters */
  assert_param(IS_TIM_CCX_INSTANCE(htim->Instance, Channel));

  /* Check the TIM channel state */
  if (TIM_CHANNEL_STATE_GET(htim, Channel) != HAL_TIM_CHANNEL_STATE_READY)
 8004e8a:	683b      	ldr	r3, [r7, #0]
 8004e8c:	2b00      	cmp	r3, #0
 8004e8e:	d109      	bne.n	8004ea4 <HAL_TIM_PWM_Start+0x24>
 8004e90:	687b      	ldr	r3, [r7, #4]
 8004e92:	f893 303e 	ldrb.w	r3, [r3, #62]	@ 0x3e
 8004e96:	b2db      	uxtb	r3, r3
 8004e98:	2b01      	cmp	r3, #1
 8004e9a:	bf14      	ite	ne
 8004e9c:	2301      	movne	r3, #1
 8004e9e:	2300      	moveq	r3, #0
 8004ea0:	b2db      	uxtb	r3, r3
 8004ea2:	e022      	b.n	8004eea <HAL_TIM_PWM_Start+0x6a>
 8004ea4:	683b      	ldr	r3, [r7, #0]
 8004ea6:	2b04      	cmp	r3, #4
 8004ea8:	d109      	bne.n	8004ebe <HAL_TIM_PWM_Start+0x3e>
 8004eaa:	687b      	ldr	r3, [r7, #4]
 8004eac:	f893 303f 	ldrb.w	r3, [r3, #63]	@ 0x3f
 8004eb0:	b2db      	uxtb	r3, r3
 8004eb2:	2b01      	cmp	r3, #1
 8004eb4:	bf14      	ite	ne
 8004eb6:	2301      	movne	r3, #1
 8004eb8:	2300      	moveq	r3, #0
 8004eba:	b2db      	uxtb	r3, r3
 8004ebc:	e015      	b.n	8004eea <HAL_TIM_PWM_Start+0x6a>
 8004ebe:	683b      	ldr	r3, [r7, #0]
 8004ec0:	2b08      	cmp	r3, #8
 8004ec2:	d109      	bne.n	8004ed8 <HAL_TIM_PWM_Start+0x58>
 8004ec4:	687b      	ldr	r3, [r7, #4]
 8004ec6:	f893 3040 	ldrb.w	r3, [r3, #64]	@ 0x40
 8004eca:	b2db      	uxtb	r3, r3
 8004ecc:	2b01      	cmp	r3, #1
 8004ece:	bf14      	ite	ne
 8004ed0:	2301      	movne	r3, #1
 8004ed2:	2300      	moveq	r3, #0
 8004ed4:	b2db      	uxtb	r3, r3
 8004ed6:	e008      	b.n	8004eea <HAL_TIM_PWM_Start+0x6a>
 8004ed8:	687b      	ldr	r3, [r7, #4]
 8004eda:	f893 3041 	ldrb.w	r3, [r3, #65]	@ 0x41
 8004ede:	b2db      	uxtb	r3, r3
 8004ee0:	2b01      	cmp	r3, #1
 8004ee2:	bf14      	ite	ne
 8004ee4:	2301      	movne	r3, #1
 8004ee6:	2300      	moveq	r3, #0
 8004ee8:	b2db      	uxtb	r3, r3
 8004eea:	2b00      	cmp	r3, #0
 8004eec:	d001      	beq.n	8004ef2 <HAL_TIM_PWM_Start+0x72>
  {
    return HAL_ERROR;
 8004eee:	2301      	movs	r3, #1
 8004ef0:	e05e      	b.n	8004fb0 <HAL_TIM_PWM_Start+0x130>
  }

  /* Set the TIM channel state */
  TIM_CHANNEL_STATE_SET(htim, Channel, HAL_TIM_CHANNEL_STATE_BUSY);
 8004ef2:	683b      	ldr	r3, [r7, #0]
 8004ef4:	2b00      	cmp	r3, #0
 8004ef6:	d104      	bne.n	8004f02 <HAL_TIM_PWM_Start+0x82>
 8004ef8:	687b      	ldr	r3, [r7, #4]
 8004efa:	2202      	movs	r2, #2
 8004efc:	f883 203e 	strb.w	r2, [r3, #62]	@ 0x3e
 8004f00:	e013      	b.n	8004f2a <HAL_TIM_PWM_Start+0xaa>
 8004f02:	683b      	ldr	r3, [r7, #0]
 8004f04:	2b04      	cmp	r3, #4
 8004f06:	d104      	bne.n	8004f12 <HAL_TIM_PWM_Start+0x92>
 8004f08:	687b      	ldr	r3, [r7, #4]
 8004f0a:	2202      	movs	r2, #2
 8004f0c:	f883 203f 	strb.w	r2, [r3, #63]	@ 0x3f
 8004f10:	e00b      	b.n	8004f2a <HAL_TIM_PWM_Start+0xaa>
 8004f12:	683b      	ldr	r3, [r7, #0]
 8004f14:	2b08      	cmp	r3, #8
 8004f16:	d104      	bne.n	8004f22 <HAL_TIM_PWM_Start+0xa2>
 8004f18:	687b      	ldr	r3, [r7, #4]
 8004f1a:	2202      	movs	r2, #2
 8004f1c:	f883 2040 	strb.w	r2, [r3, #64]	@ 0x40
 8004f20:	e003      	b.n	8004f2a <HAL_TIM_PWM_Start+0xaa>
 8004f22:	687b      	ldr	r3, [r7, #4]
 8004f24:	2202      	movs	r2, #2
 8004f26:	f883 2041 	strb.w	r2, [r3, #65]	@ 0x41

  /* Enable the Capture compare channel */
  TIM_CCxChannelCmd(htim->Instance, Channel, TIM_CCx_ENABLE);
 8004f2a:	687b      	ldr	r3, [r7, #4]
 8004f2c:	681b      	ldr	r3, [r3, #0]
 8004f2e:	2201      	movs	r2, #1
 8004f30:	6839      	ldr	r1, [r7, #0]
 8004f32:	4618      	mov	r0, r3
 8004f34:	f000 fd7c 	bl	8005a30 <TIM_CCxChannelCmd>

  if (IS_TIM_BREAK_INSTANCE(htim->Instance) != RESET)
 8004f38:	687b      	ldr	r3, [r7, #4]
 8004f3a:	681b      	ldr	r3, [r3, #0]
 8004f3c:	4a1e      	ldr	r2, [pc, #120]	@ (8004fb8 <HAL_TIM_PWM_Start+0x138>)
 8004f3e:	4293      	cmp	r3, r2
 8004f40:	d107      	bne.n	8004f52 <HAL_TIM_PWM_Start+0xd2>
  {
    /* Enable the main output */
    __HAL_TIM_MOE_ENABLE(htim);
 8004f42:	687b      	ldr	r3, [r7, #4]
 8004f44:	681b      	ldr	r3, [r3, #0]
 8004f46:	6c5a      	ldr	r2, [r3, #68]	@ 0x44
 8004f48:	687b      	ldr	r3, [r7, #4]
 8004f4a:	681b      	ldr	r3, [r3, #0]
 8004f4c:	f442 4200 	orr.w	r2, r2, #32768	@ 0x8000
 8004f50:	645a      	str	r2, [r3, #68]	@ 0x44
  }

  /* Enable the Peripheral, except in trigger mode where enable is automatically done with trigger */
  if (IS_TIM_SLAVE_INSTANCE(htim->Instance))
 8004f52:	687b      	ldr	r3, [r7, #4]
 8004f54:	681b      	ldr	r3, [r3, #0]
 8004f56:	4a18      	ldr	r2, [pc, #96]	@ (8004fb8 <HAL_TIM_PWM_Start+0x138>)
 8004f58:	4293      	cmp	r3, r2
 8004f5a:	d00e      	beq.n	8004f7a <HAL_TIM_PWM_Start+0xfa>
 8004f5c:	687b      	ldr	r3, [r7, #4]
 8004f5e:	681b      	ldr	r3, [r3, #0]
 8004f60:	f1b3 4f80 	cmp.w	r3, #1073741824	@ 0x40000000
 8004f64:	d009      	beq.n	8004f7a <HAL_TIM_PWM_Start+0xfa>
 8004f66:	687b      	ldr	r3, [r7, #4]
 8004f68:	681b      	ldr	r3, [r3, #0]
 8004f6a:	4a14      	ldr	r2, [pc, #80]	@ (8004fbc <HAL_TIM_PWM_Start+0x13c>)
 8004f6c:	4293      	cmp	r3, r2
 8004f6e:	d004      	beq.n	8004f7a <HAL_TIM_PWM_Start+0xfa>
 8004f70:	687b      	ldr	r3, [r7, #4]
 8004f72:	681b      	ldr	r3, [r3, #0]
 8004f74:	4a12      	ldr	r2, [pc, #72]	@ (8004fc0 <HAL_TIM_PWM_Start+0x140>)
 8004f76:	4293      	cmp	r3, r2
 8004f78:	d111      	bne.n	8004f9e <HAL_TIM_PWM_Start+0x11e>
  {
    tmpsmcr = htim->Instance->SMCR & TIM_SMCR_SMS;
 8004f7a:	687b      	ldr	r3, [r7, #4]
 8004f7c:	681b      	ldr	r3, [r3, #0]
 8004f7e:	689b      	ldr	r3, [r3, #8]
 8004f80:	f003 0307 	and.w	r3, r3, #7
 8004f84:	60fb      	str	r3, [r7, #12]
    if (!IS_TIM_SLAVEMODE_TRIGGER_ENABLED(tmpsmcr))
 8004f86:	68fb      	ldr	r3, [r7, #12]
 8004f88:	2b06      	cmp	r3, #6
 8004f8a:	d010      	beq.n	8004fae <HAL_TIM_PWM_Start+0x12e>
    {
      __HAL_TIM_ENABLE(htim);
 8004f8c:	687b      	ldr	r3, [r7, #4]
 8004f8e:	681b      	ldr	r3, [r3, #0]
 8004f90:	681a      	ldr	r2, [r3, #0]
 8004f92:	687b      	ldr	r3, [r7, #4]
 8004f94:	681b      	ldr	r3, [r3, #0]
 8004f96:	f042 0201 	orr.w	r2, r2, #1
 8004f9a:	601a      	str	r2, [r3, #0]
    if (!IS_TIM_SLAVEMODE_TRIGGER_ENABLED(tmpsmcr))
 8004f9c:	e007      	b.n	8004fae <HAL_TIM_PWM_Start+0x12e>
    }
  }
  else
  {
    __HAL_TIM_ENABLE(htim);
 8004f9e:	687b      	ldr	r3, [r7, #4]
 8004fa0:	681b      	ldr	r3, [r3, #0]
 8004fa2:	681a      	ldr	r2, [r3, #0]
 8004fa4:	687b      	ldr	r3, [r7, #4]
 8004fa6:	681b      	ldr	r3, [r3, #0]
 8004fa8:	f042 0201 	orr.w	r2, r2, #1
 8004fac:	601a      	str	r2, [r3, #0]
  }

  /* Return function status */
  return HAL_OK;
 8004fae:	2300      	movs	r3, #0
}
 8004fb0:	4618      	mov	r0, r3
 8004fb2:	3710      	adds	r7, #16
 8004fb4:	46bd      	mov	sp, r7
 8004fb6:	bd80      	pop	{r7, pc}
 8004fb8:	40012c00 	.word	0x40012c00
 8004fbc:	40000400 	.word	0x40000400
 8004fc0:	40000800 	.word	0x40000800

08004fc4 <HAL_TIM_IRQHandler>:
  * @brief  This function handles TIM interrupts requests.
  * @param  htim TIM  handle
  * @retval None
  */
void HAL_TIM_IRQHandler(TIM_HandleTypeDef *htim)
{
 8004fc4:	b580      	push	{r7, lr}
 8004fc6:	b082      	sub	sp, #8
 8004fc8:	af00      	add	r7, sp, #0
 8004fca:	6078      	str	r0, [r7, #4]
  /* Capture compare 1 event */
  if (__HAL_TIM_GET_FLAG(htim, TIM_FLAG_CC1) != RESET)
 8004fcc:	687b      	ldr	r3, [r7, #4]
 8004fce:	681b      	ldr	r3, [r3, #0]
 8004fd0:	691b      	ldr	r3, [r3, #16]
 8004fd2:	f003 0302 	and.w	r3, r3, #2
 8004fd6:	2b02      	cmp	r3, #2
 8004fd8:	d122      	bne.n	8005020 <HAL_TIM_IRQHandler+0x5c>
  {
    if (__HAL_TIM_GET_IT_SOURCE(htim, TIM_IT_CC1) != RESET)
 8004fda:	687b      	ldr	r3, [r7, #4]
 8004fdc:	681b      	ldr	r3, [r3, #0]
 8004fde:	68db      	ldr	r3, [r3, #12]
 8004fe0:	f003 0302 	and.w	r3, r3, #2
 8004fe4:	2b02      	cmp	r3, #2
 8004fe6:	d11b      	bne.n	8005020 <HAL_TIM_IRQHandler+0x5c>
    {
      {
        __HAL_TIM_CLEAR_IT(htim, TIM_IT_CC1);
 8004fe8:	687b      	ldr	r3, [r7, #4]
 8004fea:	681b      	ldr	r3, [r3, #0]
 8004fec:	f06f 0202 	mvn.w	r2, #2
 8004ff0:	611a      	str	r2, [r3, #16]
        htim->Channel = HAL_TIM_ACTIVE_CHANNEL_1;
 8004ff2:	687b      	ldr	r3, [r7, #4]
 8004ff4:	2201      	movs	r2, #1
 8004ff6:	771a      	strb	r2, [r3, #28]

        /* Input capture event */
        if ((htim->Instance->CCMR1 & TIM_CCMR1_CC1S) != 0x00U)
 8004ff8:	687b      	ldr	r3, [r7, #4]
 8004ffa:	681b      	ldr	r3, [r3, #0]
 8004ffc:	699b      	ldr	r3, [r3, #24]
 8004ffe:	f003 0303 	and.w	r3, r3, #3
 8005002:	2b00      	cmp	r3, #0
 8005004:	d003      	beq.n	800500e <HAL_TIM_IRQHandler+0x4a>
        {
#if (USE_HAL_TIM_REGISTER_CALLBACKS == 1)
          htim->IC_CaptureCallback(htim);
#else
          HAL_TIM_IC_CaptureCallback(htim);
 8005006:	6878      	ldr	r0, [r7, #4]
 8005008:	f000 fa76 	bl	80054f8 <HAL_TIM_IC_CaptureCallback>
 800500c:	e005      	b.n	800501a <HAL_TIM_IRQHandler+0x56>
        {
#if (USE_HAL_TIM_REGISTER_CALLBACKS == 1)
          htim->OC_DelayElapsedCallback(htim);
          htim->PWM_PulseFinishedCallback(htim);
#else
          HAL_TIM_OC_DelayElapsedCallback(htim);
 800500e:	6878      	ldr	r0, [r7, #4]
 8005010:	f000 fa69 	bl	80054e6 <HAL_TIM_OC_DelayElapsedCallback>
          HAL_TIM_PWM_PulseFinishedCallback(htim);
 8005014:	6878      	ldr	r0, [r7, #4]
 8005016:	f000 fa78 	bl	800550a <HAL_TIM_PWM_PulseFinishedCallback>
#endif /* USE_HAL_TIM_REGISTER_CALLBACKS */
        }
        htim->Channel = HAL_TIM_ACTIVE_CHANNEL_CLEARED;
 800501a:	687b      	ldr	r3, [r7, #4]
 800501c:	2200      	movs	r2, #0
 800501e:	771a      	strb	r2, [r3, #28]
      }
    }
  }
  /* Capture compare 2 event */
  if (__HAL_TIM_GET_FLAG(htim, TIM_FLAG_CC2) != RESET)
 8005020:	687b      	ldr	r3, [r7, #4]
 8005022:	681b      	ldr	r3, [r3, #0]
 8005024:	691b      	ldr	r3, [r3, #16]
 8005026:	f003 0304 	and.w	r3, r3, #4
 800502a:	2b04      	cmp	r3, #4
 800502c:	d122      	bne.n	8005074 <HAL_TIM_IRQHandler+0xb0>
  {
    if (__HAL_TIM_GET_IT_SOURCE(htim, TIM_IT_CC2) != RESET)
 800502e:	687b      	ldr	r3, [r7, #4]
 8005030:	681b      	ldr	r3, [r3, #0]
 8005032:	68db      	ldr	r3, [r3, #12]
 8005034:	f003 0304 	and.w	r3, r3, #4
 8005038:	2b04      	cmp	r3, #4
 800503a:	d11b      	bne.n	8005074 <HAL_TIM_IRQHandler+0xb0>
    {
      __HAL_TIM_CLEAR_IT(htim, TIM_IT_CC2);
 800503c:	687b      	ldr	r3, [r7, #4]
 800503e:	681b      	ldr	r3, [r3, #0]
 8005040:	f06f 0204 	mvn.w	r2, #4
 8005044:	611a      	str	r2, [r3, #16]
      htim->Channel = HAL_TIM_ACTIVE_CHANNEL_2;
 8005046:	687b      	ldr	r3, [r7, #4]
 8005048:	2202      	movs	r2, #2
 800504a:	771a      	strb	r2, [r3, #28]
      /* Input capture event */
      if ((htim->Instance->CCMR1 & TIM_CCMR1_CC2S) != 0x00U)
 800504c:	687b      	ldr	r3, [r7, #4]
 800504e:	681b      	ldr	r3, [r3, #0]
 8005050:	699b      	ldr	r3, [r3, #24]
 8005052:	f403 7340 	and.w	r3, r3, #768	@ 0x300
 8005056:	2b00      	cmp	r3, #0
 8005058:	d003      	beq.n	8005062 <HAL_TIM_IRQHandler+0x9e>
      {
#if (USE_HAL_TIM_REGISTER_CALLBACKS == 1)
        htim->IC_CaptureCallback(htim);
#else
        HAL_TIM_IC_CaptureCallback(htim);
 800505a:	6878      	ldr	r0, [r7, #4]
 800505c:	f000 fa4c 	bl	80054f8 <HAL_TIM_IC_CaptureCallback>
 8005060:	e005      	b.n	800506e <HAL_TIM_IRQHandler+0xaa>
      {
#if (USE_HAL_TIM_REGISTER_CALLBACKS == 1)
        htim->OC_DelayElapsedCallback(htim);
        htim->PWM_PulseFinishedCallback(htim);
#else
        HAL_TIM_OC_DelayElapsedCallback(htim);
 8005062:	6878      	ldr	r0, [r7, #4]
 8005064:	f000 fa3f 	bl	80054e6 <HAL_TIM_OC_DelayElapsedCallback>
        HAL_TIM_PWM_PulseFinishedCallback(htim);
 8005068:	6878      	ldr	r0, [r7, #4]
 800506a:	f000 fa4e 	bl	800550a <HAL_TIM_PWM_PulseFinishedCallback>
#endif /* USE_HAL_TIM_REGISTER_CALLBACKS */
      }
      htim->Channel = HAL_TIM_ACTIVE_CHANNEL_CLEARED;
 800506e:	687b      	ldr	r3, [r7, #4]
 8005070:	2200      	movs	r2, #0
 8005072:	771a      	strb	r2, [r3, #28]
    }
  }
  /* Capture compare 3 event */
  if (__HAL_TIM_GET_FLAG(htim, TIM_FLAG_CC3) != RESET)
 8005074:	687b      	ldr	r3, [r7, #4]
 8005076:	681b      	ldr	r3, [r3, #0]
 8005078:	691b      	ldr	r3, [r3, #16]
 800507a:	f003 0308 	and.w	r3, r3, #8
 800507e:	2b08      	cmp	r3, #8
 8005080:	d122      	bne.n	80050c8 <HAL_TIM_IRQHandler+0x104>
  {
    if (__HAL_TIM_GET_IT_SOURCE(htim, TIM_IT_CC3) != RESET)
 8005082:	687b      	ldr	r3, [r7, #4]
 8005084:	681b      	ldr	r3, [r3, #0]
 8005086:	68db      	ldr	r3, [r3, #12]
 8005088:	f003 0308 	and.w	r3, r3, #8
 800508c:	2b08      	cmp	r3, #8
 800508e:	d11b      	bne.n	80050c8 <HAL_TIM_IRQHandler+0x104>
    {
      __HAL_TIM_CLEAR_IT(htim, TIM_IT_CC3);
 8005090:	687b      	ldr	r3, [r7, #4]
 8005092:	681b      	ldr	r3, [r3, #0]
 8005094:	f06f 0208 	mvn.w	r2, #8
 8005098:	611a      	str	r2, [r3, #16]
      htim->Channel = HAL_TIM_ACTIVE_CHANNEL_3;
 800509a:	687b      	ldr	r3, [r7, #4]
 800509c:	2204      	movs	r2, #4
 800509e:	771a      	strb	r2, [r3, #28]
      /* Input capture event */
      if ((htim->Instance->CCMR2 & TIM_CCMR2_CC3S) != 0x00U)
 80050a0:	687b      	ldr	r3, [r7, #4]
 80050a2:	681b      	ldr	r3, [r3, #0]
 80050a4:	69db      	ldr	r3, [r3, #28]
 80050a6:	f003 0303 	and.w	r3, r3, #3
 80050aa:	2b00      	cmp	r3, #0
 80050ac:	d003      	beq.n	80050b6 <HAL_TIM_IRQHandler+0xf2>
      {
#if (USE_HAL_TIM_REGISTER_CALLBACKS == 1)
        htim->IC_CaptureCallback(htim);
#else
        HAL_TIM_IC_CaptureCallback(htim);
 80050ae:	6878      	ldr	r0, [r7, #4]
 80050b0:	f000 fa22 	bl	80054f8 <HAL_TIM_IC_CaptureCallback>
 80050b4:	e005      	b.n	80050c2 <HAL_TIM_IRQHandler+0xfe>
      {
#if (USE_HAL_TIM_REGISTER_CALLBACKS == 1)
        htim->OC_DelayElapsedCallback(htim);
        htim->PWM_PulseFinishedCallback(htim);
#else
        HAL_TIM_OC_DelayElapsedCallback(htim);
 80050b6:	6878      	ldr	r0, [r7, #4]
 80050b8:	f000 fa15 	bl	80054e6 <HAL_TIM_OC_DelayElapsedCallback>
        HAL_TIM_PWM_PulseFinishedCallback(htim);
 80050bc:	6878      	ldr	r0, [r7, #4]
 80050be:	f000 fa24 	bl	800550a <HAL_TIM_PWM_PulseFinishedCallback>
#endif /* USE_HAL_TIM_REGISTER_CALLBACKS */
      }
      htim->Channel = HAL_TIM_ACTIVE_CHANNEL_CLEARED;
 80050c2:	687b      	ldr	r3, [r7, #4]
 80050c4:	2200      	movs	r2, #0
 80050c6:	771a      	strb	r2, [r3, #28]
    }
  }
  /* Capture compare 4 event */
  if (__HAL_TIM_GET_FLAG(htim, TIM_FLAG_CC4) != RESET)
 80050c8:	687b      	ldr	r3, [r7, #4]
 80050ca:	681b      	ldr	r3, [r3, #0]
 80050cc:	691b      	ldr	r3, [r3, #16]
 80050ce:	f003 0310 	and.w	r3, r3, #16
 80050d2:	2b10      	cmp	r3, #16
 80050d4:	d122      	bne.n	800511c <HAL_TIM_IRQHandler+0x158>
  {
    if (__HAL_TIM_GET_IT_SOURCE(htim, TIM_IT_CC4) != RESET)
 80050d6:	687b      	ldr	r3, [r7, #4]
 80050d8:	681b      	ldr	r3, [r3, #0]
 80050da:	68db      	ldr	r3, [r3, #12]
 80050dc:	f003 0310 	and.w	r3, r3, #16
 80050e0:	2b10      	cmp	r3, #16
 80050e2:	d11b      	bne.n	800511c <HAL_TIM_IRQHandler+0x158>
    {
      __HAL_TIM_CLEAR_IT(htim, TIM_IT_CC4);
 80050e4:	687b      	ldr	r3, [r7, #4]
 80050e6:	681b      	ldr	r3, [r3, #0]
 80050e8:	f06f 0210 	mvn.w	r2, #16
 80050ec:	611a      	str	r2, [r3, #16]
      htim->Channel = HAL_TIM_ACTIVE_CHANNEL_4;
 80050ee:	687b      	ldr	r3, [r7, #4]
 80050f0:	2208      	movs	r2, #8
 80050f2:	771a      	strb	r2, [r3, #28]
      /* Input capture event */
      if ((htim->Instance->CCMR2 & TIM_CCMR2_CC4S) != 0x00U)
 80050f4:	687b      	ldr	r3, [r7, #4]
 80050f6:	681b      	ldr	r3, [r3, #0]
 80050f8:	69db      	ldr	r3, [r3, #28]
 80050fa:	f403 7340 	and.w	r3, r3, #768	@ 0x300
 80050fe:	2b00      	cmp	r3, #0
 8005100:	d003      	beq.n	800510a <HAL_TIM_IRQHandler+0x146>
      {
#if (USE_HAL_TIM_REGISTER_CALLBACKS == 1)
        htim->IC_CaptureCallback(htim);
#else
        HAL_TIM_IC_CaptureCallback(htim);
 8005102:	6878      	ldr	r0, [r7, #4]
 8005104:	f000 f9f8 	bl	80054f8 <HAL_TIM_IC_CaptureCallback>
 8005108:	e005      	b.n	8005116 <HAL_TIM_IRQHandler+0x152>
      {
#if (USE_HAL_TIM_REGISTER_CALLBACKS == 1)
        htim->OC_DelayElapsedCallback(htim);
        htim->PWM_PulseFinishedCallback(htim);
#else
        HAL_TIM_OC_DelayElapsedCallback(htim);
 800510a:	6878      	ldr	r0, [r7, #4]
 800510c:	f000 f9eb 	bl	80054e6 <HAL_TIM_OC_DelayElapsedCallback>
        HAL_TIM_PWM_PulseFinishedCallback(htim);
 8005110:	6878      	ldr	r0, [r7, #4]
 8005112:	f000 f9fa 	bl	800550a <HAL_TIM_PWM_PulseFinishedCallback>
#endif /* USE_HAL_TIM_REGISTER_CALLBACKS */
      }
      htim->Channel = HAL_TIM_ACTIVE_CHANNEL_CLEARED;
 8005116:	687b      	ldr	r3, [r7, #4]
 8005118:	2200      	movs	r2, #0
 800511a:	771a      	strb	r2, [r3, #28]
    }
  }
  /* TIM Update event */
  if (__HAL_TIM_GET_FLAG(htim, TIM_FLAG_UPDATE) != RESET)
 800511c:	687b      	ldr	r3, [r7, #4]
 800511e:	681b      	ldr	r3, [r3, #0]
 8005120:	691b      	ldr	r3, [r3, #16]
 8005122:	f003 0301 	and.w	r3, r3, #1
 8005126:	2b01      	cmp	r3, #1
 8005128:	d10e      	bne.n	8005148 <HAL_TIM_IRQHandler+0x184>
  {
    if (__HAL_TIM_GET_IT_SOURCE(htim, TIM_IT_UPDATE) != RESET)
 800512a:	687b      	ldr	r3, [r7, #4]
 800512c:	681b      	ldr	r3, [r3, #0]
 800512e:	68db      	ldr	r3, [r3, #12]
 8005130:	f003 0301 	and.w	r3, r3, #1
 8005134:	2b01      	cmp	r3, #1
 8005136:	d107      	bne.n	8005148 <HAL_TIM_IRQHandler+0x184>
    {
      __HAL_TIM_CLEAR_IT(htim, TIM_IT_UPDATE);
 8005138:	687b      	ldr	r3, [r7, #4]
 800513a:	681b      	ldr	r3, [r3, #0]
 800513c:	f06f 0201 	mvn.w	r2, #1
 8005140:	611a      	str	r2, [r3, #16]
#if (USE_HAL_TIM_REGISTER_CALLBACKS == 1)
      htim->PeriodElapsedCallback(htim);
#else
      HAL_TIM_PeriodElapsedCallback(htim);
 8005142:	6878      	ldr	r0, [r7, #4]
 8005144:	f7fc ff26 	bl	8001f94 <HAL_TIM_PeriodElapsedCallback>
#endif /* USE_HAL_TIM_REGISTER_CALLBACKS */
    }
  }
  /* TIM Break input event */
  if (__HAL_TIM_GET_FLAG(htim, TIM_FLAG_BREAK) != RESET)
 8005148:	687b      	ldr	r3, [r7, #4]
 800514a:	681b      	ldr	r3, [r3, #0]
 800514c:	691b      	ldr	r3, [r3, #16]
 800514e:	f003 0380 	and.w	r3, r3, #128	@ 0x80
 8005152:	2b80      	cmp	r3, #128	@ 0x80
 8005154:	d10e      	bne.n	8005174 <HAL_TIM_IRQHandler+0x1b0>
  {
    if (__HAL_TIM_GET_IT_SOURCE(htim, TIM_IT_BREAK) != RESET)
 8005156:	687b      	ldr	r3, [r7, #4]
 8005158:	681b      	ldr	r3, [r3, #0]
 800515a:	68db      	ldr	r3, [r3, #12]
 800515c:	f003 0380 	and.w	r3, r3, #128	@ 0x80
 8005160:	2b80      	cmp	r3, #128	@ 0x80
 8005162:	d107      	bne.n	8005174 <HAL_TIM_IRQHandler+0x1b0>
    {
      __HAL_TIM_CLEAR_IT(htim, TIM_IT_BREAK);
 8005164:	687b      	ldr	r3, [r7, #4]
 8005166:	681b      	ldr	r3, [r3, #0]
 8005168:	f06f 0280 	mvn.w	r2, #128	@ 0x80
 800516c:	611a      	str	r2, [r3, #16]
#if (USE_HAL_TIM_REGISTER_CALLBACKS == 1)
      htim->BreakCallback(htim);
#else
      HAL_TIMEx_BreakCallback(htim);
 800516e:	6878      	ldr	r0, [r7, #4]
 8005170:	f000 fce9 	bl	8005b46 <HAL_TIMEx_BreakCallback>
#endif /* USE_HAL_TIM_REGISTER_CALLBACKS */
    }
  }
  /* TIM Trigger detection event */
  if (__HAL_TIM_GET_FLAG(htim, TIM_FLAG_TRIGGER) != RESET)
 8005174:	687b      	ldr	r3, [r7, #4]
 8005176:	681b      	ldr	r3, [r3, #0]
 8005178:	691b      	ldr	r3, [r3, #16]
 800517a:	f003 0340 	and.w	r3, r3, #64	@ 0x40
 800517e:	2b40      	cmp	r3, #64	@ 0x40
 8005180:	d10e      	bne.n	80051a0 <HAL_TIM_IRQHandler+0x1dc>
  {
    if (__HAL_TIM_GET_IT_SOURCE(htim, TIM_IT_TRIGGER) != RESET)
 8005182:	687b      	ldr	r3, [r7, #4]
 8005184:	681b      	ldr	r3, [r3, #0]
 8005186:	68db      	ldr	r3, [r3, #12]
 8005188:	f003 0340 	and.w	r3, r3, #64	@ 0x40
 800518c:	2b40      	cmp	r3, #64	@ 0x40
 800518e:	d107      	bne.n	80051a0 <HAL_TIM_IRQHandler+0x1dc>
    {
      __HAL_TIM_CLEAR_IT(htim, TIM_IT_TRIGGER);
 8005190:	687b      	ldr	r3, [r7, #4]
 8005192:	681b      	ldr	r3, [r3, #0]
 8005194:	f06f 0240 	mvn.w	r2, #64	@ 0x40
 8005198:	611a      	str	r2, [r3, #16]
#if (USE_HAL_TIM_REGISTER_CALLBACKS == 1)
      htim->TriggerCallback(htim);
#else
      HAL_TIM_TriggerCallback(htim);
 800519a:	6878      	ldr	r0, [r7, #4]
 800519c:	f000 f9be 	bl	800551c <HAL_TIM_TriggerCallback>
#endif /* USE_HAL_TIM_REGISTER_CALLBACKS */
    }
  }
  /* TIM commutation event */
  if (__HAL_TIM_GET_FLAG(htim, TIM_FLAG_COM) != RESET)
 80051a0:	687b      	ldr	r3, [r7, #4]
 80051a2:	681b      	ldr	r3, [r3, #0]
 80051a4:	691b      	ldr	r3, [r3, #16]
 80051a6:	f003 0320 	and.w	r3, r3, #32
 80051aa:	2b20      	cmp	r3, #32
 80051ac:	d10e      	bne.n	80051cc <HAL_TIM_IRQHandler+0x208>
  {
    if (__HAL_TIM_GET_IT_SOURCE(htim, TIM_IT_COM) != RESET)
 80051ae:	687b      	ldr	r3, [r7, #4]
 80051b0:	681b      	ldr	r3, [r3, #0]
 80051b2:	68db      	ldr	r3, [r3, #12]
 80051b4:	f003 0320 	and.w	r3, r3, #32
 80051b8:	2b20      	cmp	r3, #32
 80051ba:	d107      	bne.n	80051cc <HAL_TIM_IRQHandler+0x208>
    {
      __HAL_TIM_CLEAR_IT(htim, TIM_FLAG_COM);
 80051bc:	687b      	ldr	r3, [r7, #4]
 80051be:	681b      	ldr	r3, [r3, #0]
 80051c0:	f06f 0220 	mvn.w	r2, #32
 80051c4:	611a      	str	r2, [r3, #16]
#if (USE_HAL_TIM_REGISTER_CALLBACKS == 1)
      htim->CommutationCallback(htim);
#else
      HAL_TIMEx_CommutCallback(htim);
 80051c6:	6878      	ldr	r0, [r7, #4]
 80051c8:	f000 fcb4 	bl	8005b34 <HAL_TIMEx_CommutCallback>
#endif /* USE_HAL_TIM_REGISTER_CALLBACKS */
    }
  }
}
 80051cc:	bf00      	nop
 80051ce:	3708      	adds	r7, #8
 80051d0:	46bd      	mov	sp, r7
 80051d2:	bd80      	pop	{r7, pc}

080051d4 <HAL_TIM_PWM_ConfigChannel>:
  * @retval HAL status
  */
HAL_StatusTypeDef HAL_TIM_PWM_ConfigChannel(TIM_HandleTypeDef *htim,
                                            const TIM_OC_InitTypeDef *sConfig,
                                            uint32_t Channel)
{
 80051d4:	b580      	push	{r7, lr}
 80051d6:	b086      	sub	sp, #24
 80051d8:	af00      	add	r7, sp, #0
 80051da:	60f8      	str	r0, [r7, #12]
 80051dc:	60b9      	str	r1, [r7, #8]
 80051de:	607a      	str	r2, [r7, #4]
  HAL_StatusTypeDef status = HAL_OK;
 80051e0:	2300      	movs	r3, #0
 80051e2:	75fb      	strb	r3, [r7, #23]
  assert_param(IS_TIM_PWM_MODE(sConfig->OCMode));
  assert_param(IS_TIM_OC_POLARITY(sConfig->OCPolarity));
  assert_param(IS_TIM_FAST_STATE(sConfig->OCFastMode));

  /* Process Locked */
  __HAL_LOCK(htim);
 80051e4:	68fb      	ldr	r3, [r7, #12]
 80051e6:	f893 303c 	ldrb.w	r3, [r3, #60]	@ 0x3c
 80051ea:	2b01      	cmp	r3, #1
 80051ec:	d101      	bne.n	80051f2 <HAL_TIM_PWM_ConfigChannel+0x1e>
 80051ee:	2302      	movs	r3, #2
 80051f0:	e0ae      	b.n	8005350 <HAL_TIM_PWM_ConfigChannel+0x17c>
 80051f2:	68fb      	ldr	r3, [r7, #12]
 80051f4:	2201      	movs	r2, #1
 80051f6:	f883 203c 	strb.w	r2, [r3, #60]	@ 0x3c

  switch (Channel)
 80051fa:	687b      	ldr	r3, [r7, #4]
 80051fc:	2b0c      	cmp	r3, #12
 80051fe:	f200 809f 	bhi.w	8005340 <HAL_TIM_PWM_ConfigChannel+0x16c>
 8005202:	a201      	add	r2, pc, #4	@ (adr r2, 8005208 <HAL_TIM_PWM_ConfigChannel+0x34>)
 8005204:	f852 f023 	ldr.w	pc, [r2, r3, lsl #2]
 8005208:	0800523d 	.word	0x0800523d
 800520c:	08005341 	.word	0x08005341
 8005210:	08005341 	.word	0x08005341
 8005214:	08005341 	.word	0x08005341
 8005218:	0800527d 	.word	0x0800527d
 800521c:	08005341 	.word	0x08005341
 8005220:	08005341 	.word	0x08005341
 8005224:	08005341 	.word	0x08005341
 8005228:	080052bf 	.word	0x080052bf
 800522c:	08005341 	.word	0x08005341
 8005230:	08005341 	.word	0x08005341
 8005234:	08005341 	.word	0x08005341
 8005238:	080052ff 	.word	0x080052ff
    {
      /* Check the parameters */
      assert_param(IS_TIM_CC1_INSTANCE(htim->Instance));

      /* Configure the Channel 1 in PWM mode */
      TIM_OC1_SetConfig(htim->Instance, sConfig);
 800523c:	68fb      	ldr	r3, [r7, #12]
 800523e:	681b      	ldr	r3, [r3, #0]
 8005240:	68b9      	ldr	r1, [r7, #8]
 8005242:	4618      	mov	r0, r3
 8005244:	f000 f9d6 	bl	80055f4 <TIM_OC1_SetConfig>

      /* Set the Preload enable bit for channel1 */
      htim->Instance->CCMR1 |= TIM_CCMR1_OC1PE;
 8005248:	68fb      	ldr	r3, [r7, #12]
 800524a:	681b      	ldr	r3, [r3, #0]
 800524c:	699a      	ldr	r2, [r3, #24]
 800524e:	68fb      	ldr	r3, [r7, #12]
 8005250:	681b      	ldr	r3, [r3, #0]
 8005252:	f042 0208 	orr.w	r2, r2, #8
 8005256:	619a      	str	r2, [r3, #24]

      /* Configure the Output Fast mode */
      htim->Instance->CCMR1 &= ~TIM_CCMR1_OC1FE;
 8005258:	68fb      	ldr	r3, [r7, #12]
 800525a:	681b      	ldr	r3, [r3, #0]
 800525c:	699a      	ldr	r2, [r3, #24]
 800525e:	68fb      	ldr	r3, [r7, #12]
 8005260:	681b      	ldr	r3, [r3, #0]
 8005262:	f022 0204 	bic.w	r2, r2, #4
 8005266:	619a      	str	r2, [r3, #24]
      htim->Instance->CCMR1 |= sConfig->OCFastMode;
 8005268:	68fb      	ldr	r3, [r7, #12]
 800526a:	681b      	ldr	r3, [r3, #0]
 800526c:	6999      	ldr	r1, [r3, #24]
 800526e:	68bb      	ldr	r3, [r7, #8]
 8005270:	691a      	ldr	r2, [r3, #16]
 8005272:	68fb      	ldr	r3, [r7, #12]
 8005274:	681b      	ldr	r3, [r3, #0]
 8005276:	430a      	orrs	r2, r1
 8005278:	619a      	str	r2, [r3, #24]
      break;
 800527a:	e064      	b.n	8005346 <HAL_TIM_PWM_ConfigChannel+0x172>
    {
      /* Check the parameters */
      assert_param(IS_TIM_CC2_INSTANCE(htim->Instance));

      /* Configure the Channel 2 in PWM mode */
      TIM_OC2_SetConfig(htim->Instance, sConfig);
 800527c:	68fb      	ldr	r3, [r7, #12]
 800527e:	681b      	ldr	r3, [r3, #0]
 8005280:	68b9      	ldr	r1, [r7, #8]
 8005282:	4618      	mov	r0, r3
 8005284:	f000 fa1c 	bl	80056c0 <TIM_OC2_SetConfig>

      /* Set the Preload enable bit for channel2 */
      htim->Instance->CCMR1 |= TIM_CCMR1_OC2PE;
 8005288:	68fb      	ldr	r3, [r7, #12]
 800528a:	681b      	ldr	r3, [r3, #0]
 800528c:	699a      	ldr	r2, [r3, #24]
 800528e:	68fb      	ldr	r3, [r7, #12]
 8005290:	681b      	ldr	r3, [r3, #0]
 8005292:	f442 6200 	orr.w	r2, r2, #2048	@ 0x800
 8005296:	619a      	str	r2, [r3, #24]

      /* Configure the Output Fast mode */
      htim->Instance->CCMR1 &= ~TIM_CCMR1_OC2FE;
 8005298:	68fb      	ldr	r3, [r7, #12]
 800529a:	681b      	ldr	r3, [r3, #0]
 800529c:	699a      	ldr	r2, [r3, #24]
 800529e:	68fb      	ldr	r3, [r7, #12]
 80052a0:	681b      	ldr	r3, [r3, #0]
 80052a2:	f422 6280 	bic.w	r2, r2, #1024	@ 0x400
 80052a6:	619a      	str	r2, [r3, #24]
      htim->Instance->CCMR1 |= sConfig->OCFastMode << 8U;
 80052a8:	68fb      	ldr	r3, [r7, #12]
 80052aa:	681b      	ldr	r3, [r3, #0]
 80052ac:	6999      	ldr	r1, [r3, #24]
 80052ae:	68bb      	ldr	r3, [r7, #8]
 80052b0:	691b      	ldr	r3, [r3, #16]
 80052b2:	021a      	lsls	r2, r3, #8
 80052b4:	68fb      	ldr	r3, [r7, #12]
 80052b6:	681b      	ldr	r3, [r3, #0]
 80052b8:	430a      	orrs	r2, r1
 80052ba:	619a      	str	r2, [r3, #24]
      break;
 80052bc:	e043      	b.n	8005346 <HAL_TIM_PWM_ConfigChannel+0x172>
    {
      /* Check the parameters */
      assert_param(IS_TIM_CC3_INSTANCE(htim->Instance));

      /* Configure the Channel 3 in PWM mode */
      TIM_OC3_SetConfig(htim->Instance, sConfig);
 80052be:	68fb      	ldr	r3, [r7, #12]
 80052c0:	681b      	ldr	r3, [r3, #0]
 80052c2:	68b9      	ldr	r1, [r7, #8]
 80052c4:	4618      	mov	r0, r3
 80052c6:	f000 fa65 	bl	8005794 <TIM_OC3_SetConfig>

      /* Set the Preload enable bit for channel3 */
      htim->Instance->CCMR2 |= TIM_CCMR2_OC3PE;
 80052ca:	68fb      	ldr	r3, [r7, #12]
 80052cc:	681b      	ldr	r3, [r3, #0]
 80052ce:	69da      	ldr	r2, [r3, #28]
 80052d0:	68fb      	ldr	r3, [r7, #12]
 80052d2:	681b      	ldr	r3, [r3, #0]
 80052d4:	f042 0208 	orr.w	r2, r2, #8
 80052d8:	61da      	str	r2, [r3, #28]

      /* Configure the Output Fast mode */
      htim->Instance->CCMR2 &= ~TIM_CCMR2_OC3FE;
 80052da:	68fb      	ldr	r3, [r7, #12]
 80052dc:	681b      	ldr	r3, [r3, #0]
 80052de:	69da      	ldr	r2, [r3, #28]
 80052e0:	68fb      	ldr	r3, [r7, #12]
 80052e2:	681b      	ldr	r3, [r3, #0]
 80052e4:	f022 0204 	bic.w	r2, r2, #4
 80052e8:	61da      	str	r2, [r3, #28]
      htim->Instance->CCMR2 |= sConfig->OCFastMode;
 80052ea:	68fb      	ldr	r3, [r7, #12]
 80052ec:	681b      	ldr	r3, [r3, #0]
 80052ee:	69d9      	ldr	r1, [r3, #28]
 80052f0:	68bb      	ldr	r3, [r7, #8]
 80052f2:	691a      	ldr	r2, [r3, #16]
 80052f4:	68fb      	ldr	r3, [r7, #12]
 80052f6:	681b      	ldr	r3, [r3, #0]
 80052f8:	430a      	orrs	r2, r1
 80052fa:	61da      	str	r2, [r3, #28]
      break;
 80052fc:	e023      	b.n	8005346 <HAL_TIM_PWM_ConfigChannel+0x172>
    {
      /* Check the parameters */
      assert_param(IS_TIM_CC4_INSTANCE(htim->Instance));

      /* Configure the Channel 4 in PWM mode */
      TIM_OC4_SetConfig(htim->Instance, sConfig);
 80052fe:	68fb      	ldr	r3, [r7, #12]
 8005300:	681b      	ldr	r3, [r3, #0]
 8005302:	68b9      	ldr	r1, [r7, #8]
 8005304:	4618      	mov	r0, r3
 8005306:	f000 faaf 	bl	8005868 <TIM_OC4_SetConfig>

      /* Set the Preload enable bit for channel4 */
      htim->Instance->CCMR2 |= TIM_CCMR2_OC4PE;
 800530a:	68fb      	ldr	r3, [r7, #12]
 800530c:	681b      	ldr	r3, [r3, #0]
 800530e:	69da      	ldr	r2, [r3, #28]
 8005310:	68fb      	ldr	r3, [r7, #12]
 8005312:	681b      	ldr	r3, [r3, #0]
 8005314:	f442 6200 	orr.w	r2, r2, #2048	@ 0x800
 8005318:	61da      	str	r2, [r3, #28]

      /* Configure the Output Fast mode */
      htim->Instance->CCMR2 &= ~TIM_CCMR2_OC4FE;
 800531a:	68fb      	ldr	r3, [r7, #12]
 800531c:	681b      	ldr	r3, [r3, #0]
 800531e:	69da      	ldr	r2, [r3, #28]
 8005320:	68fb      	ldr	r3, [r7, #12]
 8005322:	681b      	ldr	r3, [r3, #0]
 8005324:	f422 6280 	bic.w	r2, r2, #1024	@ 0x400
 8005328:	61da      	str	r2, [r3, #28]
      htim->Instance->CCMR2 |= sConfig->OCFastMode << 8U;
 800532a:	68fb      	ldr	r3, [r7, #12]
 800532c:	681b      	ldr	r3, [r3, #0]
 800532e:	69d9      	ldr	r1, [r3, #28]
 8005330:	68bb      	ldr	r3, [r7, #8]
 8005332:	691b      	ldr	r3, [r3, #16]
 8005334:	021a      	lsls	r2, r3, #8
 8005336:	68fb      	ldr	r3, [r7, #12]
 8005338:	681b      	ldr	r3, [r3, #0]
 800533a:	430a      	orrs	r2, r1
 800533c:	61da      	str	r2, [r3, #28]
      break;
 800533e:	e002      	b.n	8005346 <HAL_TIM_PWM_ConfigChannel+0x172>
    }

    default:
      status = HAL_ERROR;
 8005340:	2301      	movs	r3, #1
 8005342:	75fb      	strb	r3, [r7, #23]
      break;
 8005344:	bf00      	nop
  }

  __HAL_UNLOCK(htim);
 8005346:	68fb      	ldr	r3, [r7, #12]
 8005348:	2200      	movs	r2, #0
 800534a:	f883 203c 	strb.w	r2, [r3, #60]	@ 0x3c

  return status;
 800534e:	7dfb      	ldrb	r3, [r7, #23]
}
 8005350:	4618      	mov	r0, r3
 8005352:	3718      	adds	r7, #24
 8005354:	46bd      	mov	sp, r7
 8005356:	bd80      	pop	{r7, pc}

08005358 <HAL_TIM_ConfigClockSource>:
  * @param  sClockSourceConfig pointer to a TIM_ClockConfigTypeDef structure that
  *         contains the clock source information for the TIM peripheral.
  * @retval HAL status
  */
HAL_StatusTypeDef HAL_TIM_ConfigClockSource(TIM_HandleTypeDef *htim, const TIM_ClockConfigTypeDef *sClockSourceConfig)
{
 8005358:	b580      	push	{r7, lr}
 800535a:	b084      	sub	sp, #16
 800535c:	af00      	add	r7, sp, #0
 800535e:	6078      	str	r0, [r7, #4]
 8005360:	6039      	str	r1, [r7, #0]
  HAL_StatusTypeDef status = HAL_OK;
 8005362:	2300      	movs	r3, #0
 8005364:	73fb      	strb	r3, [r7, #15]
  uint32_t tmpsmcr;

  /* Process Locked */
  __HAL_LOCK(htim);
 8005366:	687b      	ldr	r3, [r7, #4]
 8005368:	f893 303c 	ldrb.w	r3, [r3, #60]	@ 0x3c
 800536c:	2b01      	cmp	r3, #1
 800536e:	d101      	bne.n	8005374 <HAL_TIM_ConfigClockSource+0x1c>
 8005370:	2302      	movs	r3, #2
 8005372:	e0b4      	b.n	80054de <HAL_TIM_ConfigClockSource+0x186>
 8005374:	687b      	ldr	r3, [r7, #4]
 8005376:	2201      	movs	r2, #1
 8005378:	f883 203c 	strb.w	r2, [r3, #60]	@ 0x3c

  htim->State = HAL_TIM_STATE_BUSY;
 800537c:	687b      	ldr	r3, [r7, #4]
 800537e:	2202      	movs	r2, #2
 8005380:	f883 203d 	strb.w	r2, [r3, #61]	@ 0x3d

  /* Check the parameters */
  assert_param(IS_TIM_CLOCKSOURCE(sClockSourceConfig->ClockSource));

  /* Reset the SMS, TS, ECE, ETPS and ETRF bits */
  tmpsmcr = htim->Instance->SMCR;
 8005384:	687b      	ldr	r3, [r7, #4]
 8005386:	681b      	ldr	r3, [r3, #0]
 8005388:	689b      	ldr	r3, [r3, #8]
 800538a:	60bb      	str	r3, [r7, #8]
  tmpsmcr &= ~(TIM_SMCR_SMS | TIM_SMCR_TS);
 800538c:	68bb      	ldr	r3, [r7, #8]
 800538e:	f023 0377 	bic.w	r3, r3, #119	@ 0x77
 8005392:	60bb      	str	r3, [r7, #8]
  tmpsmcr &= ~(TIM_SMCR_ETF | TIM_SMCR_ETPS | TIM_SMCR_ECE | TIM_SMCR_ETP);
 8005394:	68bb      	ldr	r3, [r7, #8]
 8005396:	f423 437f 	bic.w	r3, r3, #65280	@ 0xff00
 800539a:	60bb      	str	r3, [r7, #8]
  htim->Instance->SMCR = tmpsmcr;
 800539c:	687b      	ldr	r3, [r7, #4]
 800539e:	681b      	ldr	r3, [r3, #0]
 80053a0:	68ba      	ldr	r2, [r7, #8]
 80053a2:	609a      	str	r2, [r3, #8]

  switch (sClockSourceConfig->ClockSource)
 80053a4:	683b      	ldr	r3, [r7, #0]
 80053a6:	681b      	ldr	r3, [r3, #0]
 80053a8:	f5b3 5f00 	cmp.w	r3, #8192	@ 0x2000
 80053ac:	d03e      	beq.n	800542c <HAL_TIM_ConfigClockSource+0xd4>
 80053ae:	f5b3 5f00 	cmp.w	r3, #8192	@ 0x2000
 80053b2:	f200 8087 	bhi.w	80054c4 <HAL_TIM_ConfigClockSource+0x16c>
 80053b6:	f5b3 5f80 	cmp.w	r3, #4096	@ 0x1000
 80053ba:	f000 8086 	beq.w	80054ca <HAL_TIM_ConfigClockSource+0x172>
 80053be:	f5b3 5f80 	cmp.w	r3, #4096	@ 0x1000
 80053c2:	d87f      	bhi.n	80054c4 <HAL_TIM_ConfigClockSource+0x16c>
 80053c4:	2b70      	cmp	r3, #112	@ 0x70
 80053c6:	d01a      	beq.n	80053fe <HAL_TIM_ConfigClockSource+0xa6>
 80053c8:	2b70      	cmp	r3, #112	@ 0x70
 80053ca:	d87b      	bhi.n	80054c4 <HAL_TIM_ConfigClockSource+0x16c>
 80053cc:	2b60      	cmp	r3, #96	@ 0x60
 80053ce:	d050      	beq.n	8005472 <HAL_TIM_ConfigClockSource+0x11a>
 80053d0:	2b60      	cmp	r3, #96	@ 0x60
 80053d2:	d877      	bhi.n	80054c4 <HAL_TIM_ConfigClockSource+0x16c>
 80053d4:	2b50      	cmp	r3, #80	@ 0x50
 80053d6:	d03c      	beq.n	8005452 <HAL_TIM_ConfigClockSource+0xfa>
 80053d8:	2b50      	cmp	r3, #80	@ 0x50
 80053da:	d873      	bhi.n	80054c4 <HAL_TIM_ConfigClockSource+0x16c>
 80053dc:	2b40      	cmp	r3, #64	@ 0x40
 80053de:	d058      	beq.n	8005492 <HAL_TIM_ConfigClockSource+0x13a>
 80053e0:	2b40      	cmp	r3, #64	@ 0x40
 80053e2:	d86f      	bhi.n	80054c4 <HAL_TIM_ConfigClockSource+0x16c>
 80053e4:	2b30      	cmp	r3, #48	@ 0x30
 80053e6:	d064      	beq.n	80054b2 <HAL_TIM_ConfigClockSource+0x15a>
 80053e8:	2b30      	cmp	r3, #48	@ 0x30
 80053ea:	d86b      	bhi.n	80054c4 <HAL_TIM_ConfigClockSource+0x16c>
 80053ec:	2b20      	cmp	r3, #32
 80053ee:	d060      	beq.n	80054b2 <HAL_TIM_ConfigClockSource+0x15a>
 80053f0:	2b20      	cmp	r3, #32
 80053f2:	d867      	bhi.n	80054c4 <HAL_TIM_ConfigClockSource+0x16c>
 80053f4:	2b00      	cmp	r3, #0
 80053f6:	d05c      	beq.n	80054b2 <HAL_TIM_ConfigClockSource+0x15a>
 80053f8:	2b10      	cmp	r3, #16
 80053fa:	d05a      	beq.n	80054b2 <HAL_TIM_ConfigClockSource+0x15a>
 80053fc:	e062      	b.n	80054c4 <HAL_TIM_ConfigClockSource+0x16c>
      assert_param(IS_TIM_CLOCKPRESCALER(sClockSourceConfig->ClockPrescaler));
      assert_param(IS_TIM_CLOCKPOLARITY(sClockSourceConfig->ClockPolarity));
      assert_param(IS_TIM_CLOCKFILTER(sClockSourceConfig->ClockFilter));

      /* Configure the ETR Clock source */
      TIM_ETR_SetConfig(htim->Instance,
 80053fe:	687b      	ldr	r3, [r7, #4]
 8005400:	6818      	ldr	r0, [r3, #0]
                        sClockSourceConfig->ClockPrescaler,
 8005402:	683b      	ldr	r3, [r7, #0]
 8005404:	6899      	ldr	r1, [r3, #8]
                        sClockSourceConfig->ClockPolarity,
 8005406:	683b      	ldr	r3, [r7, #0]
 8005408:	685a      	ldr	r2, [r3, #4]
                        sClockSourceConfig->ClockFilter);
 800540a:	683b      	ldr	r3, [r7, #0]
 800540c:	68db      	ldr	r3, [r3, #12]
      TIM_ETR_SetConfig(htim->Instance,
 800540e:	f000 faf0 	bl	80059f2 <TIM_ETR_SetConfig>

      /* Select the External clock mode1 and the ETRF trigger */
      tmpsmcr = htim->Instance->SMCR;
 8005412:	687b      	ldr	r3, [r7, #4]
 8005414:	681b      	ldr	r3, [r3, #0]
 8005416:	689b      	ldr	r3, [r3, #8]
 8005418:	60bb      	str	r3, [r7, #8]
      tmpsmcr |= (TIM_SLAVEMODE_EXTERNAL1 | TIM_CLOCKSOURCE_ETRMODE1);
 800541a:	68bb      	ldr	r3, [r7, #8]
 800541c:	f043 0377 	orr.w	r3, r3, #119	@ 0x77
 8005420:	60bb      	str	r3, [r7, #8]
      /* Write to TIMx SMCR */
      htim->Instance->SMCR = tmpsmcr;
 8005422:	687b      	ldr	r3, [r7, #4]
 8005424:	681b      	ldr	r3, [r3, #0]
 8005426:	68ba      	ldr	r2, [r7, #8]
 8005428:	609a      	str	r2, [r3, #8]
      break;
 800542a:	e04f      	b.n	80054cc <HAL_TIM_ConfigClockSource+0x174>
      assert_param(IS_TIM_CLOCKPRESCALER(sClockSourceConfig->ClockPrescaler));
      assert_param(IS_TIM_CLOCKPOLARITY(sClockSourceConfig->ClockPolarity));
      assert_param(IS_TIM_CLOCKFILTER(sClockSourceConfig->ClockFilter));

      /* Configure the ETR Clock source */
      TIM_ETR_SetConfig(htim->Instance,
 800542c:	687b      	ldr	r3, [r7, #4]
 800542e:	6818      	ldr	r0, [r3, #0]
                        sClockSourceConfig->ClockPrescaler,
 8005430:	683b      	ldr	r3, [r7, #0]
 8005432:	6899      	ldr	r1, [r3, #8]
                        sClockSourceConfig->ClockPolarity,
 8005434:	683b      	ldr	r3, [r7, #0]
 8005436:	685a      	ldr	r2, [r3, #4]
                        sClockSourceConfig->ClockFilter);
 8005438:	683b      	ldr	r3, [r7, #0]
 800543a:	68db      	ldr	r3, [r3, #12]
      TIM_ETR_SetConfig(htim->Instance,
 800543c:	f000 fad9 	bl	80059f2 <TIM_ETR_SetConfig>
      /* Enable the External clock mode2 */
      htim->Instance->SMCR |= TIM_SMCR_ECE;
 8005440:	687b      	ldr	r3, [r7, #4]
 8005442:	681b      	ldr	r3, [r3, #0]
 8005444:	689a      	ldr	r2, [r3, #8]
 8005446:	687b      	ldr	r3, [r7, #4]
 8005448:	681b      	ldr	r3, [r3, #0]
 800544a:	f442 4280 	orr.w	r2, r2, #16384	@ 0x4000
 800544e:	609a      	str	r2, [r3, #8]
      break;
 8005450:	e03c      	b.n	80054cc <HAL_TIM_ConfigClockSource+0x174>

      /* Check TI1 input conditioning related parameters */
      assert_param(IS_TIM_CLOCKPOLARITY(sClockSourceConfig->ClockPolarity));
      assert_param(IS_TIM_CLOCKFILTER(sClockSourceConfig->ClockFilter));

      TIM_TI1_ConfigInputStage(htim->Instance,
 8005452:	687b      	ldr	r3, [r7, #4]
 8005454:	6818      	ldr	r0, [r3, #0]
                               sClockSourceConfig->ClockPolarity,
 8005456:	683b      	ldr	r3, [r7, #0]
 8005458:	6859      	ldr	r1, [r3, #4]
                               sClockSourceConfig->ClockFilter);
 800545a:	683b      	ldr	r3, [r7, #0]
 800545c:	68db      	ldr	r3, [r3, #12]
      TIM_TI1_ConfigInputStage(htim->Instance,
 800545e:	461a      	mov	r2, r3
 8005460:	f000 fa50 	bl	8005904 <TIM_TI1_ConfigInputStage>
      TIM_ITRx_SetConfig(htim->Instance, TIM_CLOCKSOURCE_TI1);
 8005464:	687b      	ldr	r3, [r7, #4]
 8005466:	681b      	ldr	r3, [r3, #0]
 8005468:	2150      	movs	r1, #80	@ 0x50
 800546a:	4618      	mov	r0, r3
 800546c:	f000 faa7 	bl	80059be <TIM_ITRx_SetConfig>
      break;
 8005470:	e02c      	b.n	80054cc <HAL_TIM_ConfigClockSource+0x174>

      /* Check TI2 input conditioning related parameters */
      assert_param(IS_TIM_CLOCKPOLARITY(sClockSourceConfig->ClockPolarity));
      assert_param(IS_TIM_CLOCKFILTER(sClockSourceConfig->ClockFilter));

      TIM_TI2_ConfigInputStage(htim->Instance,
 8005472:	687b      	ldr	r3, [r7, #4]
 8005474:	6818      	ldr	r0, [r3, #0]
                               sClockSourceConfig->ClockPolarity,
 8005476:	683b      	ldr	r3, [r7, #0]
 8005478:	6859      	ldr	r1, [r3, #4]
                               sClockSourceConfig->ClockFilter);
 800547a:	683b      	ldr	r3, [r7, #0]
 800547c:	68db      	ldr	r3, [r3, #12]
      TIM_TI2_ConfigInputStage(htim->Instance,
 800547e:	461a      	mov	r2, r3
 8005480:	f000 fa6e 	bl	8005960 <TIM_TI2_ConfigInputStage>
      TIM_ITRx_SetConfig(htim->Instance, TIM_CLOCKSOURCE_TI2);
 8005484:	687b      	ldr	r3, [r7, #4]
 8005486:	681b      	ldr	r3, [r3, #0]
 8005488:	2160      	movs	r1, #96	@ 0x60
 800548a:	4618      	mov	r0, r3
 800548c:	f000 fa97 	bl	80059be <TIM_ITRx_SetConfig>
      break;
 8005490:	e01c      	b.n	80054cc <HAL_TIM_ConfigClockSource+0x174>

      /* Check TI1 input conditioning related parameters */
      assert_param(IS_TIM_CLOCKPOLARITY(sClockSourceConfig->ClockPolarity));
      assert_param(IS_TIM_CLOCKFILTER(sClockSourceConfig->ClockFilter));

      TIM_TI1_ConfigInputStage(htim->Instance,
 8005492:	687b      	ldr	r3, [r7, #4]
 8005494:	6818      	ldr	r0, [r3, #0]
                               sClockSourceConfig->ClockPolarity,
 8005496:	683b      	ldr	r3, [r7, #0]
 8005498:	6859      	ldr	r1, [r3, #4]
                               sClockSourceConfig->ClockFilter);
 800549a:	683b      	ldr	r3, [r7, #0]
 800549c:	68db      	ldr	r3, [r3, #12]
      TIM_TI1_ConfigInputStage(htim->Instance,
 800549e:	461a      	mov	r2, r3
 80054a0:	f000 fa30 	bl	8005904 <TIM_TI1_ConfigInputStage>
      TIM_ITRx_SetConfig(htim->Instance, TIM_CLOCKSOURCE_TI1ED);
 80054a4:	687b      	ldr	r3, [r7, #4]
 80054a6:	681b      	ldr	r3, [r3, #0]
 80054a8:	2140      	movs	r1, #64	@ 0x40
 80054aa:	4618      	mov	r0, r3
 80054ac:	f000 fa87 	bl	80059be <TIM_ITRx_SetConfig>
      break;
 80054b0:	e00c      	b.n	80054cc <HAL_TIM_ConfigClockSource+0x174>
    case TIM_CLOCKSOURCE_ITR3:
    {
      /* Check whether or not the timer instance supports internal trigger input */
      assert_param(IS_TIM_CLOCKSOURCE_ITRX_INSTANCE(htim->Instance));

      TIM_ITRx_SetConfig(htim->Instance, sClockSourceConfig->ClockSource);
 80054b2:	687b      	ldr	r3, [r7, #4]
 80054b4:	681a      	ldr	r2, [r3, #0]
 80054b6:	683b      	ldr	r3, [r7, #0]
 80054b8:	681b      	ldr	r3, [r3, #0]
 80054ba:	4619      	mov	r1, r3
 80054bc:	4610      	mov	r0, r2
 80054be:	f000 fa7e 	bl	80059be <TIM_ITRx_SetConfig>
      break;
 80054c2:	e003      	b.n	80054cc <HAL_TIM_ConfigClockSource+0x174>
    }

    default:
      status = HAL_ERROR;
 80054c4:	2301      	movs	r3, #1
 80054c6:	73fb      	strb	r3, [r7, #15]
      break;
 80054c8:	e000      	b.n	80054cc <HAL_TIM_ConfigClockSource+0x174>
      break;
 80054ca:	bf00      	nop
  }
  htim->State = HAL_TIM_STATE_READY;
 80054cc:	687b      	ldr	r3, [r7, #4]
 80054ce:	2201      	movs	r2, #1
 80054d0:	f883 203d 	strb.w	r2, [r3, #61]	@ 0x3d

  __HAL_UNLOCK(htim);
 80054d4:	687b      	ldr	r3, [r7, #4]
 80054d6:	2200      	movs	r2, #0
 80054d8:	f883 203c 	strb.w	r2, [r3, #60]	@ 0x3c

  return status;
 80054dc:	7bfb      	ldrb	r3, [r7, #15]
}
 80054de:	4618      	mov	r0, r3
 80054e0:	3710      	adds	r7, #16
 80054e2:	46bd      	mov	sp, r7
 80054e4:	bd80      	pop	{r7, pc}

080054e6 <HAL_TIM_OC_DelayElapsedCallback>:
  * @brief  Output Compare callback in non-blocking mode
  * @param  htim TIM OC handle
  * @retval None
  */
__weak void HAL_TIM_OC_DelayElapsedCallback(TIM_HandleTypeDef *htim)
{
 80054e6:	b480      	push	{r7}
 80054e8:	b083      	sub	sp, #12
 80054ea:	af00      	add	r7, sp, #0
 80054ec:	6078      	str	r0, [r7, #4]
  UNUSED(htim);

  /* NOTE : This function should not be modified, when the callback is needed,
            the HAL_TIM_OC_DelayElapsedCallback could be implemented in the user file
   */
}
 80054ee:	bf00      	nop
 80054f0:	370c      	adds	r7, #12
 80054f2:	46bd      	mov	sp, r7
 80054f4:	bc80      	pop	{r7}
 80054f6:	4770      	bx	lr

080054f8 <HAL_TIM_IC_CaptureCallback>:
  * @brief  Input Capture callback in non-blocking mode
  * @param  htim TIM IC handle
  * @retval None
  */
__weak void HAL_TIM_IC_CaptureCallback(TIM_HandleTypeDef *htim)
{
 80054f8:	b480      	push	{r7}
 80054fa:	b083      	sub	sp, #12
 80054fc:	af00      	add	r7, sp, #0
 80054fe:	6078      	str	r0, [r7, #4]
  UNUSED(htim);

  /* NOTE : This function should not be modified, when the callback is needed,
            the HAL_TIM_IC_CaptureCallback could be implemented in the user file
   */
}
 8005500:	bf00      	nop
 8005502:	370c      	adds	r7, #12
 8005504:	46bd      	mov	sp, r7
 8005506:	bc80      	pop	{r7}
 8005508:	4770      	bx	lr

0800550a <HAL_TIM_PWM_PulseFinishedCallback>:
  * @brief  PWM Pulse finished callback in non-blocking mode
  * @param  htim TIM handle
  * @retval None
  */
__weak void HAL_TIM_PWM_PulseFinishedCallback(TIM_HandleTypeDef *htim)
{
 800550a:	b480      	push	{r7}
 800550c:	b083      	sub	sp, #12
 800550e:	af00      	add	r7, sp, #0
 8005510:	6078      	str	r0, [r7, #4]
  UNUSED(htim);

  /* NOTE : This function should not be modified, when the callback is needed,
            the HAL_TIM_PWM_PulseFinishedCallback could be implemented in the user file
   */
}
 8005512:	bf00      	nop
 8005514:	370c      	adds	r7, #12
 8005516:	46bd      	mov	sp, r7
 8005518:	bc80      	pop	{r7}
 800551a:	4770      	bx	lr

0800551c <HAL_TIM_TriggerCallback>:
  * @brief  Hall Trigger detection callback in non-blocking mode
  * @param  htim TIM handle
  * @retval None
  */
__weak void HAL_TIM_TriggerCallback(TIM_HandleTypeDef *htim)
{
 800551c:	b480      	push	{r7}
 800551e:	b083      	sub	sp, #12
 8005520:	af00      	add	r7, sp, #0
 8005522:	6078      	str	r0, [r7, #4]
  UNUSED(htim);

  /* NOTE : This function should not be modified, when the callback is needed,
            the HAL_TIM_TriggerCallback could be implemented in the user file
   */
}
 8005524:	bf00      	nop
 8005526:	370c      	adds	r7, #12
 8005528:	46bd      	mov	sp, r7
 800552a:	bc80      	pop	{r7}
 800552c:	4770      	bx	lr
	...

08005530 <TIM_Base_SetConfig>:
  * @param  TIMx TIM peripheral
  * @param  Structure TIM Base configuration structure
  * @retval None
  */
void TIM_Base_SetConfig(TIM_TypeDef *TIMx, const TIM_Base_InitTypeDef *Structure)
{
 8005530:	b480      	push	{r7}
 8005532:	b085      	sub	sp, #20
 8005534:	af00      	add	r7, sp, #0
 8005536:	6078      	str	r0, [r7, #4]
 8005538:	6039      	str	r1, [r7, #0]
  uint32_t tmpcr1;
  tmpcr1 = TIMx->CR1;
 800553a:	687b      	ldr	r3, [r7, #4]
 800553c:	681b      	ldr	r3, [r3, #0]
 800553e:	60fb      	str	r3, [r7, #12]

  /* Set TIM Time Base Unit parameters ---------------------------------------*/
  if (IS_TIM_COUNTER_MODE_SELECT_INSTANCE(TIMx))
 8005540:	687b      	ldr	r3, [r7, #4]
 8005542:	4a29      	ldr	r2, [pc, #164]	@ (80055e8 <TIM_Base_SetConfig+0xb8>)
 8005544:	4293      	cmp	r3, r2
 8005546:	d00b      	beq.n	8005560 <TIM_Base_SetConfig+0x30>
 8005548:	687b      	ldr	r3, [r7, #4]
 800554a:	f1b3 4f80 	cmp.w	r3, #1073741824	@ 0x40000000
 800554e:	d007      	beq.n	8005560 <TIM_Base_SetConfig+0x30>
 8005550:	687b      	ldr	r3, [r7, #4]
 8005552:	4a26      	ldr	r2, [pc, #152]	@ (80055ec <TIM_Base_SetConfig+0xbc>)
 8005554:	4293      	cmp	r3, r2
 8005556:	d003      	beq.n	8005560 <TIM_Base_SetConfig+0x30>
 8005558:	687b      	ldr	r3, [r7, #4]
 800555a:	4a25      	ldr	r2, [pc, #148]	@ (80055f0 <TIM_Base_SetConfig+0xc0>)
 800555c:	4293      	cmp	r3, r2
 800555e:	d108      	bne.n	8005572 <TIM_Base_SetConfig+0x42>
  {
    /* Select the Counter Mode */
    tmpcr1 &= ~(TIM_CR1_DIR | TIM_CR1_CMS);
 8005560:	68fb      	ldr	r3, [r7, #12]
 8005562:	f023 0370 	bic.w	r3, r3, #112	@ 0x70
 8005566:	60fb      	str	r3, [r7, #12]
    tmpcr1 |= Structure->CounterMode;
 8005568:	683b      	ldr	r3, [r7, #0]
 800556a:	685b      	ldr	r3, [r3, #4]
 800556c:	68fa      	ldr	r2, [r7, #12]
 800556e:	4313      	orrs	r3, r2
 8005570:	60fb      	str	r3, [r7, #12]
  }

  if (IS_TIM_CLOCK_DIVISION_INSTANCE(TIMx))
 8005572:	687b      	ldr	r3, [r7, #4]
 8005574:	4a1c      	ldr	r2, [pc, #112]	@ (80055e8 <TIM_Base_SetConfig+0xb8>)
 8005576:	4293      	cmp	r3, r2
 8005578:	d00b      	beq.n	8005592 <TIM_Base_SetConfig+0x62>
 800557a:	687b      	ldr	r3, [r7, #4]
 800557c:	f1b3 4f80 	cmp.w	r3, #1073741824	@ 0x40000000
 8005580:	d007      	beq.n	8005592 <TIM_Base_SetConfig+0x62>
 8005582:	687b      	ldr	r3, [r7, #4]
 8005584:	4a19      	ldr	r2, [pc, #100]	@ (80055ec <TIM_Base_SetConfig+0xbc>)
 8005586:	4293      	cmp	r3, r2
 8005588:	d003      	beq.n	8005592 <TIM_Base_SetConfig+0x62>
 800558a:	687b      	ldr	r3, [r7, #4]
 800558c:	4a18      	ldr	r2, [pc, #96]	@ (80055f0 <TIM_Base_SetConfig+0xc0>)
 800558e:	4293      	cmp	r3, r2
 8005590:	d108      	bne.n	80055a4 <TIM_Base_SetConfig+0x74>
  {
    /* Set the clock division */
    tmpcr1 &= ~TIM_CR1_CKD;
 8005592:	68fb      	ldr	r3, [r7, #12]
 8005594:	f423 7340 	bic.w	r3, r3, #768	@ 0x300
 8005598:	60fb      	str	r3, [r7, #12]
    tmpcr1 |= (uint32_t)Structure->ClockDivision;
 800559a:	683b      	ldr	r3, [r7, #0]
 800559c:	68db      	ldr	r3, [r3, #12]
 800559e:	68fa      	ldr	r2, [r7, #12]
 80055a0:	4313      	orrs	r3, r2
 80055a2:	60fb      	str	r3, [r7, #12]
  }

  /* Set the auto-reload preload */
  MODIFY_REG(tmpcr1, TIM_CR1_ARPE, Structure->AutoReloadPreload);
 80055a4:	68fb      	ldr	r3, [r7, #12]
 80055a6:	f023 0280 	bic.w	r2, r3, #128	@ 0x80
 80055aa:	683b      	ldr	r3, [r7, #0]
 80055ac:	695b      	ldr	r3, [r3, #20]
 80055ae:	4313      	orrs	r3, r2
 80055b0:	60fb      	str	r3, [r7, #12]

  TIMx->CR1 = tmpcr1;
 80055b2:	687b      	ldr	r3, [r7, #4]
 80055b4:	68fa      	ldr	r2, [r7, #12]
 80055b6:	601a      	str	r2, [r3, #0]

  /* Set the Autoreload value */
  TIMx->ARR = (uint32_t)Structure->Period ;
 80055b8:	683b      	ldr	r3, [r7, #0]
 80055ba:	689a      	ldr	r2, [r3, #8]
 80055bc:	687b      	ldr	r3, [r7, #4]
 80055be:	62da      	str	r2, [r3, #44]	@ 0x2c

  /* Set the Prescaler value */
  TIMx->PSC = Structure->Prescaler;
 80055c0:	683b      	ldr	r3, [r7, #0]
 80055c2:	681a      	ldr	r2, [r3, #0]
 80055c4:	687b      	ldr	r3, [r7, #4]
 80055c6:	629a      	str	r2, [r3, #40]	@ 0x28

  if (IS_TIM_REPETITION_COUNTER_INSTANCE(TIMx))
 80055c8:	687b      	ldr	r3, [r7, #4]
 80055ca:	4a07      	ldr	r2, [pc, #28]	@ (80055e8 <TIM_Base_SetConfig+0xb8>)
 80055cc:	4293      	cmp	r3, r2
 80055ce:	d103      	bne.n	80055d8 <TIM_Base_SetConfig+0xa8>
  {
    /* Set the Repetition Counter value */
    TIMx->RCR = Structure->RepetitionCounter;
 80055d0:	683b      	ldr	r3, [r7, #0]
 80055d2:	691a      	ldr	r2, [r3, #16]
 80055d4:	687b      	ldr	r3, [r7, #4]
 80055d6:	631a      	str	r2, [r3, #48]	@ 0x30
  }

  /* Generate an update event to reload the Prescaler
     and the repetition counter (only for advanced timer) value immediately */
  TIMx->EGR = TIM_EGR_UG;
 80055d8:	687b      	ldr	r3, [r7, #4]
 80055da:	2201      	movs	r2, #1
 80055dc:	615a      	str	r2, [r3, #20]
}
 80055de:	bf00      	nop
 80055e0:	3714      	adds	r7, #20
 80055e2:	46bd      	mov	sp, r7
 80055e4:	bc80      	pop	{r7}
 80055e6:	4770      	bx	lr
 80055e8:	40012c00 	.word	0x40012c00
 80055ec:	40000400 	.word	0x40000400
 80055f0:	40000800 	.word	0x40000800

080055f4 <TIM_OC1_SetConfig>:
  * @param  TIMx to select the TIM peripheral
  * @param  OC_Config The output configuration structure
  * @retval None
  */
static void TIM_OC1_SetConfig(TIM_TypeDef *TIMx, const TIM_OC_InitTypeDef *OC_Config)
{
 80055f4:	b480      	push	{r7}
 80055f6:	b087      	sub	sp, #28
 80055f8:	af00      	add	r7, sp, #0
 80055fa:	6078      	str	r0, [r7, #4]
 80055fc:	6039      	str	r1, [r7, #0]
  uint32_t tmpccmrx;
  uint32_t tmpccer;
  uint32_t tmpcr2;

  /* Get the TIMx CCER register value */
  tmpccer = TIMx->CCER;
 80055fe:	687b      	ldr	r3, [r7, #4]
 8005600:	6a1b      	ldr	r3, [r3, #32]
 8005602:	617b      	str	r3, [r7, #20]

  /* Disable the Channel 1: Reset the CC1E Bit */
  TIMx->CCER &= ~TIM_CCER_CC1E;
 8005604:	687b      	ldr	r3, [r7, #4]
 8005606:	6a1b      	ldr	r3, [r3, #32]
 8005608:	f023 0201 	bic.w	r2, r3, #1
 800560c:	687b      	ldr	r3, [r7, #4]
 800560e:	621a      	str	r2, [r3, #32]

  /* Get the TIMx CR2 register value */
  tmpcr2 =  TIMx->CR2;
 8005610:	687b      	ldr	r3, [r7, #4]
 8005612:	685b      	ldr	r3, [r3, #4]
 8005614:	613b      	str	r3, [r7, #16]

  /* Get the TIMx CCMR1 register value */
  tmpccmrx = TIMx->CCMR1;
 8005616:	687b      	ldr	r3, [r7, #4]
 8005618:	699b      	ldr	r3, [r3, #24]
 800561a:	60fb      	str	r3, [r7, #12]

  /* Reset the Output Compare Mode Bits */
  tmpccmrx &= ~TIM_CCMR1_OC1M;
 800561c:	68fb      	ldr	r3, [r7, #12]
 800561e:	f023 0370 	bic.w	r3, r3, #112	@ 0x70
 8005622:	60fb      	str	r3, [r7, #12]
  tmpccmrx &= ~TIM_CCMR1_CC1S;
 8005624:	68fb      	ldr	r3, [r7, #12]
 8005626:	f023 0303 	bic.w	r3, r3, #3
 800562a:	60fb      	str	r3, [r7, #12]
  /* Select the Output Compare Mode */
  tmpccmrx |= OC_Config->OCMode;
 800562c:	683b      	ldr	r3, [r7, #0]
 800562e:	681b      	ldr	r3, [r3, #0]
 8005630:	68fa      	ldr	r2, [r7, #12]
 8005632:	4313      	orrs	r3, r2
 8005634:	60fb      	str	r3, [r7, #12]

  /* Reset the Output Polarity level */
  tmpccer &= ~TIM_CCER_CC1P;
 8005636:	697b      	ldr	r3, [r7, #20]
 8005638:	f023 0302 	bic.w	r3, r3, #2
 800563c:	617b      	str	r3, [r7, #20]
  /* Set the Output Compare Polarity */
  tmpccer |= OC_Config->OCPolarity;
 800563e:	683b      	ldr	r3, [r7, #0]
 8005640:	689b      	ldr	r3, [r3, #8]
 8005642:	697a      	ldr	r2, [r7, #20]
 8005644:	4313      	orrs	r3, r2
 8005646:	617b      	str	r3, [r7, #20]

  if (IS_TIM_CCXN_INSTANCE(TIMx, TIM_CHANNEL_1))
 8005648:	687b      	ldr	r3, [r7, #4]
 800564a:	4a1c      	ldr	r2, [pc, #112]	@ (80056bc <TIM_OC1_SetConfig+0xc8>)
 800564c:	4293      	cmp	r3, r2
 800564e:	d10c      	bne.n	800566a <TIM_OC1_SetConfig+0x76>
  {
    /* Check parameters */
    assert_param(IS_TIM_OCN_POLARITY(OC_Config->OCNPolarity));

    /* Reset the Output N Polarity level */
    tmpccer &= ~TIM_CCER_CC1NP;
 8005650:	697b      	ldr	r3, [r7, #20]
 8005652:	f023 0308 	bic.w	r3, r3, #8
 8005656:	617b      	str	r3, [r7, #20]
    /* Set the Output N Polarity */
    tmpccer |= OC_Config->OCNPolarity;
 8005658:	683b      	ldr	r3, [r7, #0]
 800565a:	68db      	ldr	r3, [r3, #12]
 800565c:	697a      	ldr	r2, [r7, #20]
 800565e:	4313      	orrs	r3, r2
 8005660:	617b      	str	r3, [r7, #20]
    /* Reset the Output N State */
    tmpccer &= ~TIM_CCER_CC1NE;
 8005662:	697b      	ldr	r3, [r7, #20]
 8005664:	f023 0304 	bic.w	r3, r3, #4
 8005668:	617b      	str	r3, [r7, #20]
  }

  if (IS_TIM_BREAK_INSTANCE(TIMx))
 800566a:	687b      	ldr	r3, [r7, #4]
 800566c:	4a13      	ldr	r2, [pc, #76]	@ (80056bc <TIM_OC1_SetConfig+0xc8>)
 800566e:	4293      	cmp	r3, r2
 8005670:	d111      	bne.n	8005696 <TIM_OC1_SetConfig+0xa2>
    /* Check parameters */
    assert_param(IS_TIM_OCNIDLE_STATE(OC_Config->OCNIdleState));
    assert_param(IS_TIM_OCIDLE_STATE(OC_Config->OCIdleState));

    /* Reset the Output Compare and Output Compare N IDLE State */
    tmpcr2 &= ~TIM_CR2_OIS1;
 8005672:	693b      	ldr	r3, [r7, #16]
 8005674:	f423 7380 	bic.w	r3, r3, #256	@ 0x100
 8005678:	613b      	str	r3, [r7, #16]
    tmpcr2 &= ~TIM_CR2_OIS1N;
 800567a:	693b      	ldr	r3, [r7, #16]
 800567c:	f423 7300 	bic.w	r3, r3, #512	@ 0x200
 8005680:	613b      	str	r3, [r7, #16]
    /* Set the Output Idle state */
    tmpcr2 |= OC_Config->OCIdleState;
 8005682:	683b      	ldr	r3, [r7, #0]
 8005684:	695b      	ldr	r3, [r3, #20]
 8005686:	693a      	ldr	r2, [r7, #16]
 8005688:	4313      	orrs	r3, r2
 800568a:	613b      	str	r3, [r7, #16]
    /* Set the Output N Idle state */
    tmpcr2 |= OC_Config->OCNIdleState;
 800568c:	683b      	ldr	r3, [r7, #0]
 800568e:	699b      	ldr	r3, [r3, #24]
 8005690:	693a      	ldr	r2, [r7, #16]
 8005692:	4313      	orrs	r3, r2
 8005694:	613b      	str	r3, [r7, #16]
  }

  /* Write to TIMx CR2 */
  TIMx->CR2 = tmpcr2;
 8005696:	687b      	ldr	r3, [r7, #4]
 8005698:	693a      	ldr	r2, [r7, #16]
 800569a:	605a      	str	r2, [r3, #4]

  /* Write to TIMx CCMR1 */
  TIMx->CCMR1 = tmpccmrx;
 800569c:	687b      	ldr	r3, [r7, #4]
 800569e:	68fa      	ldr	r2, [r7, #12]
 80056a0:	619a      	str	r2, [r3, #24]

  /* Set the Capture Compare Register value */
  TIMx->CCR1 = OC_Config->Pulse;
 80056a2:	683b      	ldr	r3, [r7, #0]
 80056a4:	685a      	ldr	r2, [r3, #4]
 80056a6:	687b      	ldr	r3, [r7, #4]
 80056a8:	635a      	str	r2, [r3, #52]	@ 0x34

  /* Write to TIMx CCER */
  TIMx->CCER = tmpccer;
 80056aa:	687b      	ldr	r3, [r7, #4]
 80056ac:	697a      	ldr	r2, [r7, #20]
 80056ae:	621a      	str	r2, [r3, #32]
}
 80056b0:	bf00      	nop
 80056b2:	371c      	adds	r7, #28
 80056b4:	46bd      	mov	sp, r7
 80056b6:	bc80      	pop	{r7}
 80056b8:	4770      	bx	lr
 80056ba:	bf00      	nop
 80056bc:	40012c00 	.word	0x40012c00

080056c0 <TIM_OC2_SetConfig>:
  * @param  TIMx to select the TIM peripheral
  * @param  OC_Config The output configuration structure
  * @retval None
  */
void TIM_OC2_SetConfig(TIM_TypeDef *TIMx, const TIM_OC_InitTypeDef *OC_Config)
{
 80056c0:	b480      	push	{r7}
 80056c2:	b087      	sub	sp, #28
 80056c4:	af00      	add	r7, sp, #0
 80056c6:	6078      	str	r0, [r7, #4]
 80056c8:	6039      	str	r1, [r7, #0]
  uint32_t tmpccmrx;
  uint32_t tmpccer;
  uint32_t tmpcr2;

  /* Get the TIMx CCER register value */
  tmpccer = TIMx->CCER;
 80056ca:	687b      	ldr	r3, [r7, #4]
 80056cc:	6a1b      	ldr	r3, [r3, #32]
 80056ce:	617b      	str	r3, [r7, #20]

  /* Disable the Channel 2: Reset the CC2E Bit */
  TIMx->CCER &= ~TIM_CCER_CC2E;
 80056d0:	687b      	ldr	r3, [r7, #4]
 80056d2:	6a1b      	ldr	r3, [r3, #32]
 80056d4:	f023 0210 	bic.w	r2, r3, #16
 80056d8:	687b      	ldr	r3, [r7, #4]
 80056da:	621a      	str	r2, [r3, #32]

  /* Get the TIMx CR2 register value */
  tmpcr2 =  TIMx->CR2;
 80056dc:	687b      	ldr	r3, [r7, #4]
 80056de:	685b      	ldr	r3, [r3, #4]
 80056e0:	613b      	str	r3, [r7, #16]

  /* Get the TIMx CCMR1 register value */
  tmpccmrx = TIMx->CCMR1;
 80056e2:	687b      	ldr	r3, [r7, #4]
 80056e4:	699b      	ldr	r3, [r3, #24]
 80056e6:	60fb      	str	r3, [r7, #12]

  /* Reset the Output Compare mode and Capture/Compare selection Bits */
  tmpccmrx &= ~TIM_CCMR1_OC2M;
 80056e8:	68fb      	ldr	r3, [r7, #12]
 80056ea:	f423 43e0 	bic.w	r3, r3, #28672	@ 0x7000
 80056ee:	60fb      	str	r3, [r7, #12]
  tmpccmrx &= ~TIM_CCMR1_CC2S;
 80056f0:	68fb      	ldr	r3, [r7, #12]
 80056f2:	f423 7340 	bic.w	r3, r3, #768	@ 0x300
 80056f6:	60fb      	str	r3, [r7, #12]

  /* Select the Output Compare Mode */
  tmpccmrx |= (OC_Config->OCMode << 8U);
 80056f8:	683b      	ldr	r3, [r7, #0]
 80056fa:	681b      	ldr	r3, [r3, #0]
 80056fc:	021b      	lsls	r3, r3, #8
 80056fe:	68fa      	ldr	r2, [r7, #12]
 8005700:	4313      	orrs	r3, r2
 8005702:	60fb      	str	r3, [r7, #12]

  /* Reset the Output Polarity level */
  tmpccer &= ~TIM_CCER_CC2P;
 8005704:	697b      	ldr	r3, [r7, #20]
 8005706:	f023 0320 	bic.w	r3, r3, #32
 800570a:	617b      	str	r3, [r7, #20]
  /* Set the Output Compare Polarity */
  tmpccer |= (OC_Config->OCPolarity << 4U);
 800570c:	683b      	ldr	r3, [r7, #0]
 800570e:	689b      	ldr	r3, [r3, #8]
 8005710:	011b      	lsls	r3, r3, #4
 8005712:	697a      	ldr	r2, [r7, #20]
 8005714:	4313      	orrs	r3, r2
 8005716:	617b      	str	r3, [r7, #20]

  if (IS_TIM_CCXN_INSTANCE(TIMx, TIM_CHANNEL_2))
 8005718:	687b      	ldr	r3, [r7, #4]
 800571a:	4a1d      	ldr	r2, [pc, #116]	@ (8005790 <TIM_OC2_SetConfig+0xd0>)
 800571c:	4293      	cmp	r3, r2
 800571e:	d10d      	bne.n	800573c <TIM_OC2_SetConfig+0x7c>
  {
    assert_param(IS_TIM_OCN_POLARITY(OC_Config->OCNPolarity));

    /* Reset the Output N Polarity level */
    tmpccer &= ~TIM_CCER_CC2NP;
 8005720:	697b      	ldr	r3, [r7, #20]
 8005722:	f023 0380 	bic.w	r3, r3, #128	@ 0x80
 8005726:	617b      	str	r3, [r7, #20]
    /* Set the Output N Polarity */
    tmpccer |= (OC_Config->OCNPolarity << 4U);
 8005728:	683b      	ldr	r3, [r7, #0]
 800572a:	68db      	ldr	r3, [r3, #12]
 800572c:	011b      	lsls	r3, r3, #4
 800572e:	697a      	ldr	r2, [r7, #20]
 8005730:	4313      	orrs	r3, r2
 8005732:	617b      	str	r3, [r7, #20]
    /* Reset the Output N State */
    tmpccer &= ~TIM_CCER_CC2NE;
 8005734:	697b      	ldr	r3, [r7, #20]
 8005736:	f023 0340 	bic.w	r3, r3, #64	@ 0x40
 800573a:	617b      	str	r3, [r7, #20]

  }

  if (IS_TIM_BREAK_INSTANCE(TIMx))
 800573c:	687b      	ldr	r3, [r7, #4]
 800573e:	4a14      	ldr	r2, [pc, #80]	@ (8005790 <TIM_OC2_SetConfig+0xd0>)
 8005740:	4293      	cmp	r3, r2
 8005742:	d113      	bne.n	800576c <TIM_OC2_SetConfig+0xac>
    /* Check parameters */
    assert_param(IS_TIM_OCNIDLE_STATE(OC_Config->OCNIdleState));
    assert_param(IS_TIM_OCIDLE_STATE(OC_Config->OCIdleState));

    /* Reset the Output Compare and Output Compare N IDLE State */
    tmpcr2 &= ~TIM_CR2_OIS2;
 8005744:	693b      	ldr	r3, [r7, #16]
 8005746:	f423 6380 	bic.w	r3, r3, #1024	@ 0x400
 800574a:	613b      	str	r3, [r7, #16]
    tmpcr2 &= ~TIM_CR2_OIS2N;
 800574c:	693b      	ldr	r3, [r7, #16]
 800574e:	f423 6300 	bic.w	r3, r3, #2048	@ 0x800
 8005752:	613b      	str	r3, [r7, #16]
    /* Set the Output Idle state */
    tmpcr2 |= (OC_Config->OCIdleState << 2U);
 8005754:	683b      	ldr	r3, [r7, #0]
 8005756:	695b      	ldr	r3, [r3, #20]
 8005758:	009b      	lsls	r3, r3, #2
 800575a:	693a      	ldr	r2, [r7, #16]
 800575c:	4313      	orrs	r3, r2
 800575e:	613b      	str	r3, [r7, #16]
    /* Set the Output N Idle state */
    tmpcr2 |= (OC_Config->OCNIdleState << 2U);
 8005760:	683b      	ldr	r3, [r7, #0]
 8005762:	699b      	ldr	r3, [r3, #24]
 8005764:	009b      	lsls	r3, r3, #2
 8005766:	693a      	ldr	r2, [r7, #16]
 8005768:	4313      	orrs	r3, r2
 800576a:	613b      	str	r3, [r7, #16]
  }

  /* Write to TIMx CR2 */
  TIMx->CR2 = tmpcr2;
 800576c:	687b      	ldr	r3, [r7, #4]
 800576e:	693a      	ldr	r2, [r7, #16]
 8005770:	605a      	str	r2, [r3, #4]

  /* Write to TIMx CCMR1 */
  TIMx->CCMR1 = tmpccmrx;
 8005772:	687b      	ldr	r3, [r7, #4]
 8005774:	68fa      	ldr	r2, [r7, #12]
 8005776:	619a      	str	r2, [r3, #24]

  /* Set the Capture Compare Register value */
  TIMx->CCR2 = OC_Config->Pulse;
 8005778:	683b      	ldr	r3, [r7, #0]
 800577a:	685a      	ldr	r2, [r3, #4]
 800577c:	687b      	ldr	r3, [r7, #4]
 800577e:	639a      	str	r2, [r3, #56]	@ 0x38

  /* Write to TIMx CCER */
  TIMx->CCER = tmpccer;
 8005780:	687b      	ldr	r3, [r7, #4]
 8005782:	697a      	ldr	r2, [r7, #20]
 8005784:	621a      	str	r2, [r3, #32]
}
 8005786:	bf00      	nop
 8005788:	371c      	adds	r7, #28
 800578a:	46bd      	mov	sp, r7
 800578c:	bc80      	pop	{r7}
 800578e:	4770      	bx	lr
 8005790:	40012c00 	.word	0x40012c00

08005794 <TIM_OC3_SetConfig>:
  * @param  TIMx to select the TIM peripheral
  * @param  OC_Config The output configuration structure
  * @retval None
  */
static void TIM_OC3_SetConfig(TIM_TypeDef *TIMx, const TIM_OC_InitTypeDef *OC_Config)
{
 8005794:	b480      	push	{r7}
 8005796:	b087      	sub	sp, #28
 8005798:	af00      	add	r7, sp, #0
 800579a:	6078      	str	r0, [r7, #4]
 800579c:	6039      	str	r1, [r7, #0]
  uint32_t tmpccmrx;
  uint32_t tmpccer;
  uint32_t tmpcr2;

  /* Get the TIMx CCER register value */
  tmpccer = TIMx->CCER;
 800579e:	687b      	ldr	r3, [r7, #4]
 80057a0:	6a1b      	ldr	r3, [r3, #32]
 80057a2:	617b      	str	r3, [r7, #20]

  /* Disable the Channel 3: Reset the CC2E Bit */
  TIMx->CCER &= ~TIM_CCER_CC3E;
 80057a4:	687b      	ldr	r3, [r7, #4]
 80057a6:	6a1b      	ldr	r3, [r3, #32]
 80057a8:	f423 7280 	bic.w	r2, r3, #256	@ 0x100
 80057ac:	687b      	ldr	r3, [r7, #4]
 80057ae:	621a      	str	r2, [r3, #32]

  /* Get the TIMx CR2 register value */
  tmpcr2 =  TIMx->CR2;
 80057b0:	687b      	ldr	r3, [r7, #4]
 80057b2:	685b      	ldr	r3, [r3, #4]
 80057b4:	613b      	str	r3, [r7, #16]

  /* Get the TIMx CCMR2 register value */
  tmpccmrx = TIMx->CCMR2;
 80057b6:	687b      	ldr	r3, [r7, #4]
 80057b8:	69db      	ldr	r3, [r3, #28]
 80057ba:	60fb      	str	r3, [r7, #12]

  /* Reset the Output Compare mode and Capture/Compare selection Bits */
  tmpccmrx &= ~TIM_CCMR2_OC3M;
 80057bc:	68fb      	ldr	r3, [r7, #12]
 80057be:	f023 0370 	bic.w	r3, r3, #112	@ 0x70
 80057c2:	60fb      	str	r3, [r7, #12]
  tmpccmrx &= ~TIM_CCMR2_CC3S;
 80057c4:	68fb      	ldr	r3, [r7, #12]
 80057c6:	f023 0303 	bic.w	r3, r3, #3
 80057ca:	60fb      	str	r3, [r7, #12]
  /* Select the Output Compare Mode */
  tmpccmrx |= OC_Config->OCMode;
 80057cc:	683b      	ldr	r3, [r7, #0]
 80057ce:	681b      	ldr	r3, [r3, #0]
 80057d0:	68fa      	ldr	r2, [r7, #12]
 80057d2:	4313      	orrs	r3, r2
 80057d4:	60fb      	str	r3, [r7, #12]

  /* Reset the Output Polarity level */
  tmpccer &= ~TIM_CCER_CC3P;
 80057d6:	697b      	ldr	r3, [r7, #20]
 80057d8:	f423 7300 	bic.w	r3, r3, #512	@ 0x200
 80057dc:	617b      	str	r3, [r7, #20]
  /* Set the Output Compare Polarity */
  tmpccer |= (OC_Config->OCPolarity << 8U);
 80057de:	683b      	ldr	r3, [r7, #0]
 80057e0:	689b      	ldr	r3, [r3, #8]
 80057e2:	021b      	lsls	r3, r3, #8
 80057e4:	697a      	ldr	r2, [r7, #20]
 80057e6:	4313      	orrs	r3, r2
 80057e8:	617b      	str	r3, [r7, #20]

  if (IS_TIM_CCXN_INSTANCE(TIMx, TIM_CHANNEL_3))
 80057ea:	687b      	ldr	r3, [r7, #4]
 80057ec:	4a1d      	ldr	r2, [pc, #116]	@ (8005864 <TIM_OC3_SetConfig+0xd0>)
 80057ee:	4293      	cmp	r3, r2
 80057f0:	d10d      	bne.n	800580e <TIM_OC3_SetConfig+0x7a>
  {
    assert_param(IS_TIM_OCN_POLARITY(OC_Config->OCNPolarity));

    /* Reset the Output N Polarity level */
    tmpccer &= ~TIM_CCER_CC3NP;
 80057f2:	697b      	ldr	r3, [r7, #20]
 80057f4:	f423 6300 	bic.w	r3, r3, #2048	@ 0x800
 80057f8:	617b      	str	r3, [r7, #20]
    /* Set the Output N Polarity */
    tmpccer |= (OC_Config->OCNPolarity << 8U);
 80057fa:	683b      	ldr	r3, [r7, #0]
 80057fc:	68db      	ldr	r3, [r3, #12]
 80057fe:	021b      	lsls	r3, r3, #8
 8005800:	697a      	ldr	r2, [r7, #20]
 8005802:	4313      	orrs	r3, r2
 8005804:	617b      	str	r3, [r7, #20]
    /* Reset the Output N State */
    tmpccer &= ~TIM_CCER_CC3NE;
 8005806:	697b      	ldr	r3, [r7, #20]
 8005808:	f423 6380 	bic.w	r3, r3, #1024	@ 0x400
 800580c:	617b      	str	r3, [r7, #20]
  }

  if (IS_TIM_BREAK_INSTANCE(TIMx))
 800580e:	687b      	ldr	r3, [r7, #4]
 8005810:	4a14      	ldr	r2, [pc, #80]	@ (8005864 <TIM_OC3_SetConfig+0xd0>)
 8005812:	4293      	cmp	r3, r2
 8005814:	d113      	bne.n	800583e <TIM_OC3_SetConfig+0xaa>
    /* Check parameters */
    assert_param(IS_TIM_OCNIDLE_STATE(OC_Config->OCNIdleState));
    assert_param(IS_TIM_OCIDLE_STATE(OC_Config->OCIdleState));

    /* Reset the Output Compare and Output Compare N IDLE State */
    tmpcr2 &= ~TIM_CR2_OIS3;
 8005816:	693b      	ldr	r3, [r7, #16]
 8005818:	f423 5380 	bic.w	r3, r3, #4096	@ 0x1000
 800581c:	613b      	str	r3, [r7, #16]
    tmpcr2 &= ~TIM_CR2_OIS3N;
 800581e:	693b      	ldr	r3, [r7, #16]
 8005820:	f423 5300 	bic.w	r3, r3, #8192	@ 0x2000
 8005824:	613b      	str	r3, [r7, #16]
    /* Set the Output Idle state */
    tmpcr2 |= (OC_Config->OCIdleState << 4U);
 8005826:	683b      	ldr	r3, [r7, #0]
 8005828:	695b      	ldr	r3, [r3, #20]
 800582a:	011b      	lsls	r3, r3, #4
 800582c:	693a      	ldr	r2, [r7, #16]
 800582e:	4313      	orrs	r3, r2
 8005830:	613b      	str	r3, [r7, #16]
    /* Set the Output N Idle state */
    tmpcr2 |= (OC_Config->OCNIdleState << 4U);
 8005832:	683b      	ldr	r3, [r7, #0]
 8005834:	699b      	ldr	r3, [r3, #24]
 8005836:	011b      	lsls	r3, r3, #4
 8005838:	693a      	ldr	r2, [r7, #16]
 800583a:	4313      	orrs	r3, r2
 800583c:	613b      	str	r3, [r7, #16]
  }

  /* Write to TIMx CR2 */
  TIMx->CR2 = tmpcr2;
 800583e:	687b      	ldr	r3, [r7, #4]
 8005840:	693a      	ldr	r2, [r7, #16]
 8005842:	605a      	str	r2, [r3, #4]

  /* Write to TIMx CCMR2 */
  TIMx->CCMR2 = tmpccmrx;
 8005844:	687b      	ldr	r3, [r7, #4]
 8005846:	68fa      	ldr	r2, [r7, #12]
 8005848:	61da      	str	r2, [r3, #28]

  /* Set the Capture Compare Register value */
  TIMx->CCR3 = OC_Config->Pulse;
 800584a:	683b      	ldr	r3, [r7, #0]
 800584c:	685a      	ldr	r2, [r3, #4]
 800584e:	687b      	ldr	r3, [r7, #4]
 8005850:	63da      	str	r2, [r3, #60]	@ 0x3c

  /* Write to TIMx CCER */
  TIMx->CCER = tmpccer;
 8005852:	687b      	ldr	r3, [r7, #4]
 8005854:	697a      	ldr	r2, [r7, #20]
 8005856:	621a      	str	r2, [r3, #32]
}
 8005858:	bf00      	nop
 800585a:	371c      	adds	r7, #28
 800585c:	46bd      	mov	sp, r7
 800585e:	bc80      	pop	{r7}
 8005860:	4770      	bx	lr
 8005862:	bf00      	nop
 8005864:	40012c00 	.word	0x40012c00

08005868 <TIM_OC4_SetConfig>:
  * @param  TIMx to select the TIM peripheral
  * @param  OC_Config The output configuration structure
  * @retval None
  */
static void TIM_OC4_SetConfig(TIM_TypeDef *TIMx, const TIM_OC_InitTypeDef *OC_Config)
{
 8005868:	b480      	push	{r7}
 800586a:	b087      	sub	sp, #28
 800586c:	af00      	add	r7, sp, #0
 800586e:	6078      	str	r0, [r7, #4]
 8005870:	6039      	str	r1, [r7, #0]
  uint32_t tmpccmrx;
  uint32_t tmpccer;
  uint32_t tmpcr2;

  /* Get the TIMx CCER register value */
  tmpccer = TIMx->CCER;
 8005872:	687b      	ldr	r3, [r7, #4]
 8005874:	6a1b      	ldr	r3, [r3, #32]
 8005876:	613b      	str	r3, [r7, #16]

  /* Disable the Channel 4: Reset the CC4E Bit */
  TIMx->CCER &= ~TIM_CCER_CC4E;
 8005878:	687b      	ldr	r3, [r7, #4]
 800587a:	6a1b      	ldr	r3, [r3, #32]
 800587c:	f423 5280 	bic.w	r2, r3, #4096	@ 0x1000
 8005880:	687b      	ldr	r3, [r7, #4]
 8005882:	621a      	str	r2, [r3, #32]

  /* Get the TIMx CR2 register value */
  tmpcr2 =  TIMx->CR2;
 8005884:	687b      	ldr	r3, [r7, #4]
 8005886:	685b      	ldr	r3, [r3, #4]
 8005888:	617b      	str	r3, [r7, #20]

  /* Get the TIMx CCMR2 register value */
  tmpccmrx = TIMx->CCMR2;
 800588a:	687b      	ldr	r3, [r7, #4]
 800588c:	69db      	ldr	r3, [r3, #28]
 800588e:	60fb      	str	r3, [r7, #12]

  /* Reset the Output Compare mode and Capture/Compare selection Bits */
  tmpccmrx &= ~TIM_CCMR2_OC4M;
 8005890:	68fb      	ldr	r3, [r7, #12]
 8005892:	f423 43e0 	bic.w	r3, r3, #28672	@ 0x7000
 8005896:	60fb      	str	r3, [r7, #12]
  tmpccmrx &= ~TIM_CCMR2_CC4S;
 8005898:	68fb      	ldr	r3, [r7, #12]
 800589a:	f423 7340 	bic.w	r3, r3, #768	@ 0x300
 800589e:	60fb      	str	r3, [r7, #12]

  /* Select the Output Compare Mode */
  tmpccmrx |= (OC_Config->OCMode << 8U);
 80058a0:	683b      	ldr	r3, [r7, #0]
 80058a2:	681b      	ldr	r3, [r3, #0]
 80058a4:	021b      	lsls	r3, r3, #8
 80058a6:	68fa      	ldr	r2, [r7, #12]
 80058a8:	4313      	orrs	r3, r2
 80058aa:	60fb      	str	r3, [r7, #12]

  /* Reset the Output Polarity level */
  tmpccer &= ~TIM_CCER_CC4P;
 80058ac:	693b      	ldr	r3, [r7, #16]
 80058ae:	f423 5300 	bic.w	r3, r3, #8192	@ 0x2000
 80058b2:	613b      	str	r3, [r7, #16]
  /* Set the Output Compare Polarity */
  tmpccer |= (OC_Config->OCPolarity << 12U);
 80058b4:	683b      	ldr	r3, [r7, #0]
 80058b6:	689b      	ldr	r3, [r3, #8]
 80058b8:	031b      	lsls	r3, r3, #12
 80058ba:	693a      	ldr	r2, [r7, #16]
 80058bc:	4313      	orrs	r3, r2
 80058be:	613b      	str	r3, [r7, #16]

  if (IS_TIM_BREAK_INSTANCE(TIMx))
 80058c0:	687b      	ldr	r3, [r7, #4]
 80058c2:	4a0f      	ldr	r2, [pc, #60]	@ (8005900 <TIM_OC4_SetConfig+0x98>)
 80058c4:	4293      	cmp	r3, r2
 80058c6:	d109      	bne.n	80058dc <TIM_OC4_SetConfig+0x74>
  {
    /* Check parameters */
    assert_param(IS_TIM_OCIDLE_STATE(OC_Config->OCIdleState));

    /* Reset the Output Compare IDLE State */
    tmpcr2 &= ~TIM_CR2_OIS4;
 80058c8:	697b      	ldr	r3, [r7, #20]
 80058ca:	f423 4380 	bic.w	r3, r3, #16384	@ 0x4000
 80058ce:	617b      	str	r3, [r7, #20]

    /* Set the Output Idle state */
    tmpcr2 |= (OC_Config->OCIdleState << 6U);
 80058d0:	683b      	ldr	r3, [r7, #0]
 80058d2:	695b      	ldr	r3, [r3, #20]
 80058d4:	019b      	lsls	r3, r3, #6
 80058d6:	697a      	ldr	r2, [r7, #20]
 80058d8:	4313      	orrs	r3, r2
 80058da:	617b      	str	r3, [r7, #20]
  }

  /* Write to TIMx CR2 */
  TIMx->CR2 = tmpcr2;
 80058dc:	687b      	ldr	r3, [r7, #4]
 80058de:	697a      	ldr	r2, [r7, #20]
 80058e0:	605a      	str	r2, [r3, #4]

  /* Write to TIMx CCMR2 */
  TIMx->CCMR2 = tmpccmrx;
 80058e2:	687b      	ldr	r3, [r7, #4]
 80058e4:	68fa      	ldr	r2, [r7, #12]
 80058e6:	61da      	str	r2, [r3, #28]

  /* Set the Capture Compare Register value */
  TIMx->CCR4 = OC_Config->Pulse;
 80058e8:	683b      	ldr	r3, [r7, #0]
 80058ea:	685a      	ldr	r2, [r3, #4]
 80058ec:	687b      	ldr	r3, [r7, #4]
 80058ee:	641a      	str	r2, [r3, #64]	@ 0x40

  /* Write to TIMx CCER */
  TIMx->CCER = tmpccer;
 80058f0:	687b      	ldr	r3, [r7, #4]
 80058f2:	693a      	ldr	r2, [r7, #16]
 80058f4:	621a      	str	r2, [r3, #32]
}
 80058f6:	bf00      	nop
 80058f8:	371c      	adds	r7, #28
 80058fa:	46bd      	mov	sp, r7
 80058fc:	bc80      	pop	{r7}
 80058fe:	4770      	bx	lr
 8005900:	40012c00 	.word	0x40012c00

08005904 <TIM_TI1_ConfigInputStage>:
  * @param  TIM_ICFilter Specifies the Input Capture Filter.
  *          This parameter must be a value between 0x00 and 0x0F.
  * @retval None
  */
static void TIM_TI1_ConfigInputStage(TIM_TypeDef *TIMx, uint32_t TIM_ICPolarity, uint32_t TIM_ICFilter)
{
 8005904:	b480      	push	{r7}
 8005906:	b087      	sub	sp, #28
 8005908:	af00      	add	r7, sp, #0
 800590a:	60f8      	str	r0, [r7, #12]
 800590c:	60b9      	str	r1, [r7, #8]
 800590e:	607a      	str	r2, [r7, #4]
  uint32_t tmpccmr1;
  uint32_t tmpccer;

  /* Disable the Channel 1: Reset the CC1E Bit */
  tmpccer = TIMx->CCER;
 8005910:	68fb      	ldr	r3, [r7, #12]
 8005912:	6a1b      	ldr	r3, [r3, #32]
 8005914:	617b      	str	r3, [r7, #20]
  TIMx->CCER &= ~TIM_CCER_CC1E;
 8005916:	68fb      	ldr	r3, [r7, #12]
 8005918:	6a1b      	ldr	r3, [r3, #32]
 800591a:	f023 0201 	bic.w	r2, r3, #1
 800591e:	68fb      	ldr	r3, [r7, #12]
 8005920:	621a      	str	r2, [r3, #32]
  tmpccmr1 = TIMx->CCMR1;
 8005922:	68fb      	ldr	r3, [r7, #12]
 8005924:	699b      	ldr	r3, [r3, #24]
 8005926:	613b      	str	r3, [r7, #16]

  /* Set the filter */
  tmpccmr1 &= ~TIM_CCMR1_IC1F;
 8005928:	693b      	ldr	r3, [r7, #16]
 800592a:	f023 03f0 	bic.w	r3, r3, #240	@ 0xf0
 800592e:	613b      	str	r3, [r7, #16]
  tmpccmr1 |= (TIM_ICFilter << 4U);
 8005930:	687b      	ldr	r3, [r7, #4]
 8005932:	011b      	lsls	r3, r3, #4
 8005934:	693a      	ldr	r2, [r7, #16]
 8005936:	4313      	orrs	r3, r2
 8005938:	613b      	str	r3, [r7, #16]

  /* Select the Polarity and set the CC1E Bit */
  tmpccer &= ~(TIM_CCER_CC1P | TIM_CCER_CC1NP);
 800593a:	697b      	ldr	r3, [r7, #20]
 800593c:	f023 030a 	bic.w	r3, r3, #10
 8005940:	617b      	str	r3, [r7, #20]
  tmpccer |= TIM_ICPolarity;
 8005942:	697a      	ldr	r2, [r7, #20]
 8005944:	68bb      	ldr	r3, [r7, #8]
 8005946:	4313      	orrs	r3, r2
 8005948:	617b      	str	r3, [r7, #20]

  /* Write to TIMx CCMR1 and CCER registers */
  TIMx->CCMR1 = tmpccmr1;
 800594a:	68fb      	ldr	r3, [r7, #12]
 800594c:	693a      	ldr	r2, [r7, #16]
 800594e:	619a      	str	r2, [r3, #24]
  TIMx->CCER = tmpccer;
 8005950:	68fb      	ldr	r3, [r7, #12]
 8005952:	697a      	ldr	r2, [r7, #20]
 8005954:	621a      	str	r2, [r3, #32]
}
 8005956:	bf00      	nop
 8005958:	371c      	adds	r7, #28
 800595a:	46bd      	mov	sp, r7
 800595c:	bc80      	pop	{r7}
 800595e:	4770      	bx	lr

08005960 <TIM_TI2_ConfigInputStage>:
  * @param  TIM_ICFilter Specifies the Input Capture Filter.
  *          This parameter must be a value between 0x00 and 0x0F.
  * @retval None
  */
static void TIM_TI2_ConfigInputStage(TIM_TypeDef *TIMx, uint32_t TIM_ICPolarity, uint32_t TIM_ICFilter)
{
 8005960:	b480      	push	{r7}
 8005962:	b087      	sub	sp, #28
 8005964:	af00      	add	r7, sp, #0
 8005966:	60f8      	str	r0, [r7, #12]
 8005968:	60b9      	str	r1, [r7, #8]
 800596a:	607a      	str	r2, [r7, #4]
  uint32_t tmpccmr1;
  uint32_t tmpccer;

  /* Disable the Channel 2: Reset the CC2E Bit */
  tmpccer = TIMx->CCER;
 800596c:	68fb      	ldr	r3, [r7, #12]
 800596e:	6a1b      	ldr	r3, [r3, #32]
 8005970:	617b      	str	r3, [r7, #20]
  TIMx->CCER &= ~TIM_CCER_CC2E;
 8005972:	68fb      	ldr	r3, [r7, #12]
 8005974:	6a1b      	ldr	r3, [r3, #32]
 8005976:	f023 0210 	bic.w	r2, r3, #16
 800597a:	68fb      	ldr	r3, [r7, #12]
 800597c:	621a      	str	r2, [r3, #32]
  tmpccmr1 = TIMx->CCMR1;
 800597e:	68fb      	ldr	r3, [r7, #12]
 8005980:	699b      	ldr	r3, [r3, #24]
 8005982:	613b      	str	r3, [r7, #16]

  /* Set the filter */
  tmpccmr1 &= ~TIM_CCMR1_IC2F;
 8005984:	693b      	ldr	r3, [r7, #16]
 8005986:	f423 4370 	bic.w	r3, r3, #61440	@ 0xf000
 800598a:	613b      	str	r3, [r7, #16]
  tmpccmr1 |= (TIM_ICFilter << 12U);
 800598c:	687b      	ldr	r3, [r7, #4]
 800598e:	031b      	lsls	r3, r3, #12
 8005990:	693a      	ldr	r2, [r7, #16]
 8005992:	4313      	orrs	r3, r2
 8005994:	613b      	str	r3, [r7, #16]

  /* Select the Polarity and set the CC2E Bit */
  tmpccer &= ~(TIM_CCER_CC2P | TIM_CCER_CC2NP);
 8005996:	697b      	ldr	r3, [r7, #20]
 8005998:	f023 03a0 	bic.w	r3, r3, #160	@ 0xa0
 800599c:	617b      	str	r3, [r7, #20]
  tmpccer |= (TIM_ICPolarity << 4U);
 800599e:	68bb      	ldr	r3, [r7, #8]
 80059a0:	011b      	lsls	r3, r3, #4
 80059a2:	697a      	ldr	r2, [r7, #20]
 80059a4:	4313      	orrs	r3, r2
 80059a6:	617b      	str	r3, [r7, #20]

  /* Write to TIMx CCMR1 and CCER registers */
  TIMx->CCMR1 = tmpccmr1 ;
 80059a8:	68fb      	ldr	r3, [r7, #12]
 80059aa:	693a      	ldr	r2, [r7, #16]
 80059ac:	619a      	str	r2, [r3, #24]
  TIMx->CCER = tmpccer;
 80059ae:	68fb      	ldr	r3, [r7, #12]
 80059b0:	697a      	ldr	r2, [r7, #20]
 80059b2:	621a      	str	r2, [r3, #32]
}
 80059b4:	bf00      	nop
 80059b6:	371c      	adds	r7, #28
 80059b8:	46bd      	mov	sp, r7
 80059ba:	bc80      	pop	{r7}
 80059bc:	4770      	bx	lr

080059be <TIM_ITRx_SetConfig>:
  *            @arg TIM_TS_TI2FP2: Filtered Timer Input 2
  *            @arg TIM_TS_ETRF: External Trigger input
  * @retval None
  */
static void TIM_ITRx_SetConfig(TIM_TypeDef *TIMx, uint32_t InputTriggerSource)
{
 80059be:	b480      	push	{r7}
 80059c0:	b085      	sub	sp, #20
 80059c2:	af00      	add	r7, sp, #0
 80059c4:	6078      	str	r0, [r7, #4]
 80059c6:	6039      	str	r1, [r7, #0]
  uint32_t tmpsmcr;

  /* Get the TIMx SMCR register value */
  tmpsmcr = TIMx->SMCR;
 80059c8:	687b      	ldr	r3, [r7, #4]
 80059ca:	689b      	ldr	r3, [r3, #8]
 80059cc:	60fb      	str	r3, [r7, #12]
  /* Reset the TS Bits */
  tmpsmcr &= ~TIM_SMCR_TS;
 80059ce:	68fb      	ldr	r3, [r7, #12]
 80059d0:	f023 0370 	bic.w	r3, r3, #112	@ 0x70
 80059d4:	60fb      	str	r3, [r7, #12]
  /* Set the Input Trigger source and the slave mode*/
  tmpsmcr |= (InputTriggerSource | TIM_SLAVEMODE_EXTERNAL1);
 80059d6:	683a      	ldr	r2, [r7, #0]
 80059d8:	68fb      	ldr	r3, [r7, #12]
 80059da:	4313      	orrs	r3, r2
 80059dc:	f043 0307 	orr.w	r3, r3, #7
 80059e0:	60fb      	str	r3, [r7, #12]
  /* Write to TIMx SMCR */
  TIMx->SMCR = tmpsmcr;
 80059e2:	687b      	ldr	r3, [r7, #4]
 80059e4:	68fa      	ldr	r2, [r7, #12]
 80059e6:	609a      	str	r2, [r3, #8]
}
 80059e8:	bf00      	nop
 80059ea:	3714      	adds	r7, #20
 80059ec:	46bd      	mov	sp, r7
 80059ee:	bc80      	pop	{r7}
 80059f0:	4770      	bx	lr

080059f2 <TIM_ETR_SetConfig>:
  *          This parameter must be a value between 0x00 and 0x0F
  * @retval None
  */
void TIM_ETR_SetConfig(TIM_TypeDef *TIMx, uint32_t TIM_ExtTRGPrescaler,
                       uint32_t TIM_ExtTRGPolarity, uint32_t ExtTRGFilter)
{
 80059f2:	b480      	push	{r7}
 80059f4:	b087      	sub	sp, #28
 80059f6:	af00      	add	r7, sp, #0
 80059f8:	60f8      	str	r0, [r7, #12]
 80059fa:	60b9      	str	r1, [r7, #8]
 80059fc:	607a      	str	r2, [r7, #4]
 80059fe:	603b      	str	r3, [r7, #0]
  uint32_t tmpsmcr;

  tmpsmcr = TIMx->SMCR;
 8005a00:	68fb      	ldr	r3, [r7, #12]
 8005a02:	689b      	ldr	r3, [r3, #8]
 8005a04:	617b      	str	r3, [r7, #20]

  /* Reset the ETR Bits */
  tmpsmcr &= ~(TIM_SMCR_ETF | TIM_SMCR_ETPS | TIM_SMCR_ECE | TIM_SMCR_ETP);
 8005a06:	697b      	ldr	r3, [r7, #20]
 8005a08:	f423 437f 	bic.w	r3, r3, #65280	@ 0xff00
 8005a0c:	617b      	str	r3, [r7, #20]

  /* Set the Prescaler, the Filter value and the Polarity */
  tmpsmcr |= (uint32_t)(TIM_ExtTRGPrescaler | (TIM_ExtTRGPolarity | (ExtTRGFilter << 8U)));
 8005a0e:	683b      	ldr	r3, [r7, #0]
 8005a10:	021a      	lsls	r2, r3, #8
 8005a12:	687b      	ldr	r3, [r7, #4]
 8005a14:	431a      	orrs	r2, r3
 8005a16:	68bb      	ldr	r3, [r7, #8]
 8005a18:	4313      	orrs	r3, r2
 8005a1a:	697a      	ldr	r2, [r7, #20]
 8005a1c:	4313      	orrs	r3, r2
 8005a1e:	617b      	str	r3, [r7, #20]

  /* Write to TIMx SMCR */
  TIMx->SMCR = tmpsmcr;
 8005a20:	68fb      	ldr	r3, [r7, #12]
 8005a22:	697a      	ldr	r2, [r7, #20]
 8005a24:	609a      	str	r2, [r3, #8]
}
 8005a26:	bf00      	nop
 8005a28:	371c      	adds	r7, #28
 8005a2a:	46bd      	mov	sp, r7
 8005a2c:	bc80      	pop	{r7}
 8005a2e:	4770      	bx	lr

08005a30 <TIM_CCxChannelCmd>:
  * @param  ChannelState specifies the TIM Channel CCxE bit new state.
  *          This parameter can be: TIM_CCx_ENABLE or TIM_CCx_DISABLE.
  * @retval None
  */
void TIM_CCxChannelCmd(TIM_TypeDef *TIMx, uint32_t Channel, uint32_t ChannelState)
{
 8005a30:	b480      	push	{r7}
 8005a32:	b087      	sub	sp, #28
 8005a34:	af00      	add	r7, sp, #0
 8005a36:	60f8      	str	r0, [r7, #12]
 8005a38:	60b9      	str	r1, [r7, #8]
 8005a3a:	607a      	str	r2, [r7, #4]

  /* Check the parameters */
  assert_param(IS_TIM_CC1_INSTANCE(TIMx));
  assert_param(IS_TIM_CHANNELS(Channel));

  tmp = TIM_CCER_CC1E << (Channel & 0x1FU); /* 0x1FU = 31 bits max shift */
 8005a3c:	68bb      	ldr	r3, [r7, #8]
 8005a3e:	f003 031f 	and.w	r3, r3, #31
 8005a42:	2201      	movs	r2, #1
 8005a44:	fa02 f303 	lsl.w	r3, r2, r3
 8005a48:	617b      	str	r3, [r7, #20]

  /* Reset the CCxE Bit */
  TIMx->CCER &= ~tmp;
 8005a4a:	68fb      	ldr	r3, [r7, #12]
 8005a4c:	6a1a      	ldr	r2, [r3, #32]
 8005a4e:	697b      	ldr	r3, [r7, #20]
 8005a50:	43db      	mvns	r3, r3
 8005a52:	401a      	ands	r2, r3
 8005a54:	68fb      	ldr	r3, [r7, #12]
 8005a56:	621a      	str	r2, [r3, #32]

  /* Set or reset the CCxE Bit */
  TIMx->CCER |= (uint32_t)(ChannelState << (Channel & 0x1FU)); /* 0x1FU = 31 bits max shift */
 8005a58:	68fb      	ldr	r3, [r7, #12]
 8005a5a:	6a1a      	ldr	r2, [r3, #32]
 8005a5c:	68bb      	ldr	r3, [r7, #8]
 8005a5e:	f003 031f 	and.w	r3, r3, #31
 8005a62:	6879      	ldr	r1, [r7, #4]
 8005a64:	fa01 f303 	lsl.w	r3, r1, r3
 8005a68:	431a      	orrs	r2, r3
 8005a6a:	68fb      	ldr	r3, [r7, #12]
 8005a6c:	621a      	str	r2, [r3, #32]
}
 8005a6e:	bf00      	nop
 8005a70:	371c      	adds	r7, #28
 8005a72:	46bd      	mov	sp, r7
 8005a74:	bc80      	pop	{r7}
 8005a76:	4770      	bx	lr

08005a78 <HAL_TIMEx_MasterConfigSynchronization>:
  *         mode.
  * @retval HAL status
  */
HAL_StatusTypeDef HAL_TIMEx_MasterConfigSynchronization(TIM_HandleTypeDef *htim,
                                                        const TIM_MasterConfigTypeDef *sMasterConfig)
{
 8005a78:	b480      	push	{r7}
 8005a7a:	b085      	sub	sp, #20
 8005a7c:	af00      	add	r7, sp, #0
 8005a7e:	6078      	str	r0, [r7, #4]
 8005a80:	6039      	str	r1, [r7, #0]
  assert_param(IS_TIM_MASTER_INSTANCE(htim->Instance));
  assert_param(IS_TIM_TRGO_SOURCE(sMasterConfig->MasterOutputTrigger));
  assert_param(IS_TIM_MSM_STATE(sMasterConfig->MasterSlaveMode));

  /* Check input state */
  __HAL_LOCK(htim);
 8005a82:	687b      	ldr	r3, [r7, #4]
 8005a84:	f893 303c 	ldrb.w	r3, [r3, #60]	@ 0x3c
 8005a88:	2b01      	cmp	r3, #1
 8005a8a:	d101      	bne.n	8005a90 <HAL_TIMEx_MasterConfigSynchronization+0x18>
 8005a8c:	2302      	movs	r3, #2
 8005a8e:	e046      	b.n	8005b1e <HAL_TIMEx_MasterConfigSynchronization+0xa6>
 8005a90:	687b      	ldr	r3, [r7, #4]
 8005a92:	2201      	movs	r2, #1
 8005a94:	f883 203c 	strb.w	r2, [r3, #60]	@ 0x3c

  /* Change the handler state */
  htim->State = HAL_TIM_STATE_BUSY;
 8005a98:	687b      	ldr	r3, [r7, #4]
 8005a9a:	2202      	movs	r2, #2
 8005a9c:	f883 203d 	strb.w	r2, [r3, #61]	@ 0x3d

  /* Get the TIMx CR2 register value */
  tmpcr2 = htim->Instance->CR2;
 8005aa0:	687b      	ldr	r3, [r7, #4]
 8005aa2:	681b      	ldr	r3, [r3, #0]
 8005aa4:	685b      	ldr	r3, [r3, #4]
 8005aa6:	60fb      	str	r3, [r7, #12]

  /* Get the TIMx SMCR register value */
  tmpsmcr = htim->Instance->SMCR;
 8005aa8:	687b      	ldr	r3, [r7, #4]
 8005aaa:	681b      	ldr	r3, [r3, #0]
 8005aac:	689b      	ldr	r3, [r3, #8]
 8005aae:	60bb      	str	r3, [r7, #8]

  /* Reset the MMS Bits */
  tmpcr2 &= ~TIM_CR2_MMS;
 8005ab0:	68fb      	ldr	r3, [r7, #12]
 8005ab2:	f023 0370 	bic.w	r3, r3, #112	@ 0x70
 8005ab6:	60fb      	str	r3, [r7, #12]
  /* Select the TRGO source */
  tmpcr2 |=  sMasterConfig->MasterOutputTrigger;
 8005ab8:	683b      	ldr	r3, [r7, #0]
 8005aba:	681b      	ldr	r3, [r3, #0]
 8005abc:	68fa      	ldr	r2, [r7, #12]
 8005abe:	4313      	orrs	r3, r2
 8005ac0:	60fb      	str	r3, [r7, #12]

  /* Update TIMx CR2 */
  htim->Instance->CR2 = tmpcr2;
 8005ac2:	687b      	ldr	r3, [r7, #4]
 8005ac4:	681b      	ldr	r3, [r3, #0]
 8005ac6:	68fa      	ldr	r2, [r7, #12]
 8005ac8:	605a      	str	r2, [r3, #4]

  if (IS_TIM_SLAVE_INSTANCE(htim->Instance))
 8005aca:	687b      	ldr	r3, [r7, #4]
 8005acc:	681b      	ldr	r3, [r3, #0]
 8005ace:	4a16      	ldr	r2, [pc, #88]	@ (8005b28 <HAL_TIMEx_MasterConfigSynchronization+0xb0>)
 8005ad0:	4293      	cmp	r3, r2
 8005ad2:	d00e      	beq.n	8005af2 <HAL_TIMEx_MasterConfigSynchronization+0x7a>
 8005ad4:	687b      	ldr	r3, [r7, #4]
 8005ad6:	681b      	ldr	r3, [r3, #0]
 8005ad8:	f1b3 4f80 	cmp.w	r3, #1073741824	@ 0x40000000
 8005adc:	d009      	beq.n	8005af2 <HAL_TIMEx_MasterConfigSynchronization+0x7a>
 8005ade:	687b      	ldr	r3, [r7, #4]
 8005ae0:	681b      	ldr	r3, [r3, #0]
 8005ae2:	4a12      	ldr	r2, [pc, #72]	@ (8005b2c <HAL_TIMEx_MasterConfigSynchronization+0xb4>)
 8005ae4:	4293      	cmp	r3, r2
 8005ae6:	d004      	beq.n	8005af2 <HAL_TIMEx_MasterConfigSynchronization+0x7a>
 8005ae8:	687b      	ldr	r3, [r7, #4]
 8005aea:	681b      	ldr	r3, [r3, #0]
 8005aec:	4a10      	ldr	r2, [pc, #64]	@ (8005b30 <HAL_TIMEx_MasterConfigSynchronization+0xb8>)
 8005aee:	4293      	cmp	r3, r2
 8005af0:	d10c      	bne.n	8005b0c <HAL_TIMEx_MasterConfigSynchronization+0x94>
  {
    /* Reset the MSM Bit */
    tmpsmcr &= ~TIM_SMCR_MSM;
 8005af2:	68bb      	ldr	r3, [r7, #8]
 8005af4:	f023 0380 	bic.w	r3, r3, #128	@ 0x80
 8005af8:	60bb      	str	r3, [r7, #8]
    /* Set master mode */
    tmpsmcr |= sMasterConfig->MasterSlaveMode;
 8005afa:	683b      	ldr	r3, [r7, #0]
 8005afc:	685b      	ldr	r3, [r3, #4]
 8005afe:	68ba      	ldr	r2, [r7, #8]
 8005b00:	4313      	orrs	r3, r2
 8005b02:	60bb      	str	r3, [r7, #8]

    /* Update TIMx SMCR */
    htim->Instance->SMCR = tmpsmcr;
 8005b04:	687b      	ldr	r3, [r7, #4]
 8005b06:	681b      	ldr	r3, [r3, #0]
 8005b08:	68ba      	ldr	r2, [r7, #8]
 8005b0a:	609a      	str	r2, [r3, #8]
  }

  /* Change the htim state */
  htim->State = HAL_TIM_STATE_READY;
 8005b0c:	687b      	ldr	r3, [r7, #4]
 8005b0e:	2201      	movs	r2, #1
 8005b10:	f883 203d 	strb.w	r2, [r3, #61]	@ 0x3d

  __HAL_UNLOCK(htim);
 8005b14:	687b      	ldr	r3, [r7, #4]
 8005b16:	2200      	movs	r2, #0
 8005b18:	f883 203c 	strb.w	r2, [r3, #60]	@ 0x3c

  return HAL_OK;
 8005b1c:	2300      	movs	r3, #0
}
 8005b1e:	4618      	mov	r0, r3
 8005b20:	3714      	adds	r7, #20
 8005b22:	46bd      	mov	sp, r7
 8005b24:	bc80      	pop	{r7}
 8005b26:	4770      	bx	lr
 8005b28:	40012c00 	.word	0x40012c00
 8005b2c:	40000400 	.word	0x40000400
 8005b30:	40000800 	.word	0x40000800

08005b34 <HAL_TIMEx_CommutCallback>:
  * @brief  Hall commutation changed callback in non-blocking mode
  * @param  htim TIM handle
  * @retval None
  */
__weak void HAL_TIMEx_CommutCallback(TIM_HandleTypeDef *htim)
{
 8005b34:	b480      	push	{r7}
 8005b36:	b083      	sub	sp, #12
 8005b38:	af00      	add	r7, sp, #0
 8005b3a:	6078      	str	r0, [r7, #4]
  UNUSED(htim);

  /* NOTE : This function should not be modified, when the callback is needed,
            the HAL_TIMEx_CommutCallback could be implemented in the user file
   */
}
 8005b3c:	bf00      	nop
 8005b3e:	370c      	adds	r7, #12
 8005b40:	46bd      	mov	sp, r7
 8005b42:	bc80      	pop	{r7}
 8005b44:	4770      	bx	lr

08005b46 <HAL_TIMEx_BreakCallback>:
  * @brief  Hall Break detection callback in non-blocking mode
  * @param  htim TIM handle
  * @retval None
  */
__weak void HAL_TIMEx_BreakCallback(TIM_HandleTypeDef *htim)
{
 8005b46:	b480      	push	{r7}
 8005b48:	b083      	sub	sp, #12
 8005b4a:	af00      	add	r7, sp, #0
 8005b4c:	6078      	str	r0, [r7, #4]
  UNUSED(htim);

  /* NOTE : This function should not be modified, when the callback is needed,
            the HAL_TIMEx_BreakCallback could be implemented in the user file
   */
}
 8005b4e:	bf00      	nop
 8005b50:	370c      	adds	r7, #12
 8005b52:	46bd      	mov	sp, r7
 8005b54:	bc80      	pop	{r7}
 8005b56:	4770      	bx	lr

08005b58 <HAL_UART_Init>:
  * @param  huart  Pointer to a UART_HandleTypeDef structure that contains
  *                the configuration information for the specified UART module.
  * @retval HAL status
  */
HAL_StatusTypeDef HAL_UART_Init(UART_HandleTypeDef *huart)
{
 8005b58:	b580      	push	{r7, lr}
 8005b5a:	b082      	sub	sp, #8
 8005b5c:	af00      	add	r7, sp, #0
 8005b5e:	6078      	str	r0, [r7, #4]
  /* Check the UART handle allocation */
  if (huart == NULL)
 8005b60:	687b      	ldr	r3, [r7, #4]
 8005b62:	2b00      	cmp	r3, #0
 8005b64:	d101      	bne.n	8005b6a <HAL_UART_Init+0x12>
  {
    return HAL_ERROR;
 8005b66:	2301      	movs	r3, #1
 8005b68:	e042      	b.n	8005bf0 <HAL_UART_Init+0x98>
  assert_param(IS_UART_WORD_LENGTH(huart->Init.WordLength));
#if defined(USART_CR1_OVER8)
  assert_param(IS_UART_OVERSAMPLING(huart->Init.OverSampling));
#endif /* USART_CR1_OVER8 */

  if (huart->gState == HAL_UART_STATE_RESET)
 8005b6a:	687b      	ldr	r3, [r7, #4]
 8005b6c:	f893 3041 	ldrb.w	r3, [r3, #65]	@ 0x41
 8005b70:	b2db      	uxtb	r3, r3
 8005b72:	2b00      	cmp	r3, #0
 8005b74:	d106      	bne.n	8005b84 <HAL_UART_Init+0x2c>
  {
    /* Allocate lock resource and initialize it */
    huart->Lock = HAL_UNLOCKED;
 8005b76:	687b      	ldr	r3, [r7, #4]
 8005b78:	2200      	movs	r2, #0
 8005b7a:	f883 2040 	strb.w	r2, [r3, #64]	@ 0x40

    /* Init the low level hardware */
    huart->MspInitCallback(huart);
#else
    /* Init the low level hardware : GPIO, CLOCK */
    HAL_UART_MspInit(huart);
 8005b7e:	6878      	ldr	r0, [r7, #4]
 8005b80:	f7fd f868 	bl	8002c54 <HAL_UART_MspInit>
#endif /* (USE_HAL_UART_REGISTER_CALLBACKS) */
  }

  huart->gState = HAL_UART_STATE_BUSY;
 8005b84:	687b      	ldr	r3, [r7, #4]
 8005b86:	2224      	movs	r2, #36	@ 0x24
 8005b88:	f883 2041 	strb.w	r2, [r3, #65]	@ 0x41

  /* Disable the peripheral */
  __HAL_UART_DISABLE(huart);
 8005b8c:	687b      	ldr	r3, [r7, #4]
 8005b8e:	681b      	ldr	r3, [r3, #0]
 8005b90:	68da      	ldr	r2, [r3, #12]
 8005b92:	687b      	ldr	r3, [r7, #4]
 8005b94:	681b      	ldr	r3, [r3, #0]
 8005b96:	f422 5200 	bic.w	r2, r2, #8192	@ 0x2000
 8005b9a:	60da      	str	r2, [r3, #12]

  /* Set the UART Communication parameters */
  UART_SetConfig(huart);
 8005b9c:	6878      	ldr	r0, [r7, #4]
 8005b9e:	f000 f82b 	bl	8005bf8 <UART_SetConfig>

  /* In asynchronous mode, the following bits must be kept cleared:
     - LINEN and CLKEN bits in the USART_CR2 register,
     - SCEN, HDSEL and IREN  bits in the USART_CR3 register.*/
  CLEAR_BIT(huart->Instance->CR2, (USART_CR2_LINEN | USART_CR2_CLKEN));
 8005ba2:	687b      	ldr	r3, [r7, #4]
 8005ba4:	681b      	ldr	r3, [r3, #0]
 8005ba6:	691a      	ldr	r2, [r3, #16]
 8005ba8:	687b      	ldr	r3, [r7, #4]
 8005baa:	681b      	ldr	r3, [r3, #0]
 8005bac:	f422 4290 	bic.w	r2, r2, #18432	@ 0x4800
 8005bb0:	611a      	str	r2, [r3, #16]
  CLEAR_BIT(huart->Instance->CR3, (USART_CR3_SCEN | USART_CR3_HDSEL | USART_CR3_IREN));
 8005bb2:	687b      	ldr	r3, [r7, #4]
 8005bb4:	681b      	ldr	r3, [r3, #0]
 8005bb6:	695a      	ldr	r2, [r3, #20]
 8005bb8:	687b      	ldr	r3, [r7, #4]
 8005bba:	681b      	ldr	r3, [r3, #0]
 8005bbc:	f022 022a 	bic.w	r2, r2, #42	@ 0x2a
 8005bc0:	615a      	str	r2, [r3, #20]

  /* Enable the peripheral */
  __HAL_UART_ENABLE(huart);
 8005bc2:	687b      	ldr	r3, [r7, #4]
 8005bc4:	681b      	ldr	r3, [r3, #0]
 8005bc6:	68da      	ldr	r2, [r3, #12]
 8005bc8:	687b      	ldr	r3, [r7, #4]
 8005bca:	681b      	ldr	r3, [r3, #0]
 8005bcc:	f442 5200 	orr.w	r2, r2, #8192	@ 0x2000
 8005bd0:	60da      	str	r2, [r3, #12]

  /* Initialize the UART state */
  huart->ErrorCode = HAL_UART_ERROR_NONE;
 8005bd2:	687b      	ldr	r3, [r7, #4]
 8005bd4:	2200      	movs	r2, #0
 8005bd6:	645a      	str	r2, [r3, #68]	@ 0x44
  huart->gState = HAL_UART_STATE_READY;
 8005bd8:	687b      	ldr	r3, [r7, #4]
 8005bda:	2220      	movs	r2, #32
 8005bdc:	f883 2041 	strb.w	r2, [r3, #65]	@ 0x41
  huart->RxState = HAL_UART_STATE_READY;
 8005be0:	687b      	ldr	r3, [r7, #4]
 8005be2:	2220      	movs	r2, #32
 8005be4:	f883 2042 	strb.w	r2, [r3, #66]	@ 0x42
  huart->RxEventType = HAL_UART_RXEVENT_TC;
 8005be8:	687b      	ldr	r3, [r7, #4]
 8005bea:	2200      	movs	r2, #0
 8005bec:	635a      	str	r2, [r3, #52]	@ 0x34

  return HAL_OK;
 8005bee:	2300      	movs	r3, #0
}
 8005bf0:	4618      	mov	r0, r3
 8005bf2:	3708      	adds	r7, #8
 8005bf4:	46bd      	mov	sp, r7
 8005bf6:	bd80      	pop	{r7, pc}

08005bf8 <UART_SetConfig>:
  * @param  huart  Pointer to a UART_HandleTypeDef structure that contains
  *                the configuration information for the specified UART module.
  * @retval None
  */
static void UART_SetConfig(UART_HandleTypeDef *huart)
{
 8005bf8:	b580      	push	{r7, lr}
 8005bfa:	b084      	sub	sp, #16
 8005bfc:	af00      	add	r7, sp, #0
 8005bfe:	6078      	str	r0, [r7, #4]
  assert_param(IS_UART_MODE(huart->Init.Mode));

  /*-------------------------- USART CR2 Configuration -----------------------*/
  /* Configure the UART Stop Bits: Set STOP[13:12] bits
     according to huart->Init.StopBits value */
  MODIFY_REG(huart->Instance->CR2, USART_CR2_STOP, huart->Init.StopBits);
 8005c00:	687b      	ldr	r3, [r7, #4]
 8005c02:	681b      	ldr	r3, [r3, #0]
 8005c04:	691b      	ldr	r3, [r3, #16]
 8005c06:	f423 5140 	bic.w	r1, r3, #12288	@ 0x3000
 8005c0a:	687b      	ldr	r3, [r7, #4]
 8005c0c:	68da      	ldr	r2, [r3, #12]
 8005c0e:	687b      	ldr	r3, [r7, #4]
 8005c10:	681b      	ldr	r3, [r3, #0]
 8005c12:	430a      	orrs	r2, r1
 8005c14:	611a      	str	r2, [r3, #16]
  tmpreg = (uint32_t)huart->Init.WordLength | huart->Init.Parity | huart->Init.Mode | huart->Init.OverSampling;
  MODIFY_REG(huart->Instance->CR1,
             (uint32_t)(USART_CR1_M | USART_CR1_PCE | USART_CR1_PS | USART_CR1_TE | USART_CR1_RE | USART_CR1_OVER8),
             tmpreg);
#else
  tmpreg = (uint32_t)huart->Init.WordLength | huart->Init.Parity | huart->Init.Mode;
 8005c16:	687b      	ldr	r3, [r7, #4]
 8005c18:	689a      	ldr	r2, [r3, #8]
 8005c1a:	687b      	ldr	r3, [r7, #4]
 8005c1c:	691b      	ldr	r3, [r3, #16]
 8005c1e:	431a      	orrs	r2, r3
 8005c20:	687b      	ldr	r3, [r7, #4]
 8005c22:	695b      	ldr	r3, [r3, #20]
 8005c24:	4313      	orrs	r3, r2
 8005c26:	60bb      	str	r3, [r7, #8]
  MODIFY_REG(huart->Instance->CR1,
 8005c28:	687b      	ldr	r3, [r7, #4]
 8005c2a:	681b      	ldr	r3, [r3, #0]
 8005c2c:	68db      	ldr	r3, [r3, #12]
 8005c2e:	f423 53b0 	bic.w	r3, r3, #5632	@ 0x1600
 8005c32:	f023 030c 	bic.w	r3, r3, #12
 8005c36:	687a      	ldr	r2, [r7, #4]
 8005c38:	6812      	ldr	r2, [r2, #0]
 8005c3a:	68b9      	ldr	r1, [r7, #8]
 8005c3c:	430b      	orrs	r3, r1
 8005c3e:	60d3      	str	r3, [r2, #12]
             tmpreg);
#endif /* USART_CR1_OVER8 */

  /*-------------------------- USART CR3 Configuration -----------------------*/
  /* Configure the UART HFC: Set CTSE and RTSE bits according to huart->Init.HwFlowCtl value */
  MODIFY_REG(huart->Instance->CR3, (USART_CR3_RTSE | USART_CR3_CTSE), huart->Init.HwFlowCtl);
 8005c40:	687b      	ldr	r3, [r7, #4]
 8005c42:	681b      	ldr	r3, [r3, #0]
 8005c44:	695b      	ldr	r3, [r3, #20]
 8005c46:	f423 7140 	bic.w	r1, r3, #768	@ 0x300
 8005c4a:	687b      	ldr	r3, [r7, #4]
 8005c4c:	699a      	ldr	r2, [r3, #24]
 8005c4e:	687b      	ldr	r3, [r7, #4]
 8005c50:	681b      	ldr	r3, [r3, #0]
 8005c52:	430a      	orrs	r2, r1
 8005c54:	615a      	str	r2, [r3, #20]


  if(huart->Instance == USART1)
 8005c56:	687b      	ldr	r3, [r7, #4]
 8005c58:	681b      	ldr	r3, [r3, #0]
 8005c5a:	4a2c      	ldr	r2, [pc, #176]	@ (8005d0c <UART_SetConfig+0x114>)
 8005c5c:	4293      	cmp	r3, r2
 8005c5e:	d103      	bne.n	8005c68 <UART_SetConfig+0x70>
  {
    pclk = HAL_RCC_GetPCLK2Freq();
 8005c60:	f7fe ffea 	bl	8004c38 <HAL_RCC_GetPCLK2Freq>
 8005c64:	60f8      	str	r0, [r7, #12]
 8005c66:	e002      	b.n	8005c6e <UART_SetConfig+0x76>
  }
  else
  {
    pclk = HAL_RCC_GetPCLK1Freq();
 8005c68:	f7fe ffd2 	bl	8004c10 <HAL_RCC_GetPCLK1Freq>
 8005c6c:	60f8      	str	r0, [r7, #12]
  else
  {
    huart->Instance->BRR = UART_BRR_SAMPLING16(pclk, huart->Init.BaudRate);
  }
#else
  huart->Instance->BRR = UART_BRR_SAMPLING16(pclk, huart->Init.BaudRate);
 8005c6e:	68fa      	ldr	r2, [r7, #12]
 8005c70:	4613      	mov	r3, r2
 8005c72:	009b      	lsls	r3, r3, #2
 8005c74:	4413      	add	r3, r2
 8005c76:	009a      	lsls	r2, r3, #2
 8005c78:	441a      	add	r2, r3
 8005c7a:	687b      	ldr	r3, [r7, #4]
 8005c7c:	685b      	ldr	r3, [r3, #4]
 8005c7e:	009b      	lsls	r3, r3, #2
 8005c80:	fbb2 f3f3 	udiv	r3, r2, r3
 8005c84:	4a22      	ldr	r2, [pc, #136]	@ (8005d10 <UART_SetConfig+0x118>)
 8005c86:	fba2 2303 	umull	r2, r3, r2, r3
 8005c8a:	095b      	lsrs	r3, r3, #5
 8005c8c:	0119      	lsls	r1, r3, #4
 8005c8e:	68fa      	ldr	r2, [r7, #12]
 8005c90:	4613      	mov	r3, r2
 8005c92:	009b      	lsls	r3, r3, #2
 8005c94:	4413      	add	r3, r2
 8005c96:	009a      	lsls	r2, r3, #2
 8005c98:	441a      	add	r2, r3
 8005c9a:	687b      	ldr	r3, [r7, #4]
 8005c9c:	685b      	ldr	r3, [r3, #4]
 8005c9e:	009b      	lsls	r3, r3, #2
 8005ca0:	fbb2 f2f3 	udiv	r2, r2, r3
 8005ca4:	4b1a      	ldr	r3, [pc, #104]	@ (8005d10 <UART_SetConfig+0x118>)
 8005ca6:	fba3 0302 	umull	r0, r3, r3, r2
 8005caa:	095b      	lsrs	r3, r3, #5
 8005cac:	2064      	movs	r0, #100	@ 0x64
 8005cae:	fb00 f303 	mul.w	r3, r0, r3
 8005cb2:	1ad3      	subs	r3, r2, r3
 8005cb4:	011b      	lsls	r3, r3, #4
 8005cb6:	3332      	adds	r3, #50	@ 0x32
 8005cb8:	4a15      	ldr	r2, [pc, #84]	@ (8005d10 <UART_SetConfig+0x118>)
 8005cba:	fba2 2303 	umull	r2, r3, r2, r3
 8005cbe:	095b      	lsrs	r3, r3, #5
 8005cc0:	f003 03f0 	and.w	r3, r3, #240	@ 0xf0
 8005cc4:	4419      	add	r1, r3
 8005cc6:	68fa      	ldr	r2, [r7, #12]
 8005cc8:	4613      	mov	r3, r2
 8005cca:	009b      	lsls	r3, r3, #2
 8005ccc:	4413      	add	r3, r2
 8005cce:	009a      	lsls	r2, r3, #2
 8005cd0:	441a      	add	r2, r3
 8005cd2:	687b      	ldr	r3, [r7, #4]
 8005cd4:	685b      	ldr	r3, [r3, #4]
 8005cd6:	009b      	lsls	r3, r3, #2
 8005cd8:	fbb2 f2f3 	udiv	r2, r2, r3
 8005cdc:	4b0c      	ldr	r3, [pc, #48]	@ (8005d10 <UART_SetConfig+0x118>)
 8005cde:	fba3 0302 	umull	r0, r3, r3, r2
 8005ce2:	095b      	lsrs	r3, r3, #5
 8005ce4:	2064      	movs	r0, #100	@ 0x64
 8005ce6:	fb00 f303 	mul.w	r3, r0, r3
 8005cea:	1ad3      	subs	r3, r2, r3
 8005cec:	011b      	lsls	r3, r3, #4
 8005cee:	3332      	adds	r3, #50	@ 0x32
 8005cf0:	4a07      	ldr	r2, [pc, #28]	@ (8005d10 <UART_SetConfig+0x118>)
 8005cf2:	fba2 2303 	umull	r2, r3, r2, r3
 8005cf6:	095b      	lsrs	r3, r3, #5
 8005cf8:	f003 020f 	and.w	r2, r3, #15
 8005cfc:	687b      	ldr	r3, [r7, #4]
 8005cfe:	681b      	ldr	r3, [r3, #0]
 8005d00:	440a      	add	r2, r1
 8005d02:	609a      	str	r2, [r3, #8]
#endif /* USART_CR1_OVER8 */
}
 8005d04:	bf00      	nop
 8005d06:	3710      	adds	r7, #16
 8005d08:	46bd      	mov	sp, r7
 8005d0a:	bd80      	pop	{r7, pc}
 8005d0c:	40013800 	.word	0x40013800
 8005d10:	51eb851f 	.word	0x51eb851f

08005d14 <memset>:
 8005d14:	4603      	mov	r3, r0
 8005d16:	4402      	add	r2, r0
 8005d18:	4293      	cmp	r3, r2
 8005d1a:	d100      	bne.n	8005d1e <memset+0xa>
 8005d1c:	4770      	bx	lr
 8005d1e:	f803 1b01 	strb.w	r1, [r3], #1
 8005d22:	e7f9      	b.n	8005d18 <memset+0x4>

08005d24 <__errno>:
 8005d24:	4b01      	ldr	r3, [pc, #4]	@ (8005d2c <__errno+0x8>)
 8005d26:	6818      	ldr	r0, [r3, #0]
 8005d28:	4770      	bx	lr
 8005d2a:	bf00      	nop
 8005d2c:	2000009c 	.word	0x2000009c

08005d30 <__libc_init_array>:
 8005d30:	b570      	push	{r4, r5, r6, lr}
 8005d32:	2600      	movs	r6, #0
 8005d34:	4d0c      	ldr	r5, [pc, #48]	@ (8005d68 <__libc_init_array+0x38>)
 8005d36:	4c0d      	ldr	r4, [pc, #52]	@ (8005d6c <__libc_init_array+0x3c>)
 8005d38:	1b64      	subs	r4, r4, r5
 8005d3a:	10a4      	asrs	r4, r4, #2
 8005d3c:	42a6      	cmp	r6, r4
 8005d3e:	d109      	bne.n	8005d54 <__libc_init_array+0x24>
 8005d40:	f000 fb80 	bl	8006444 <_init>
 8005d44:	2600      	movs	r6, #0
 8005d46:	4d0a      	ldr	r5, [pc, #40]	@ (8005d70 <__libc_init_array+0x40>)
 8005d48:	4c0a      	ldr	r4, [pc, #40]	@ (8005d74 <__libc_init_array+0x44>)
 8005d4a:	1b64      	subs	r4, r4, r5
 8005d4c:	10a4      	asrs	r4, r4, #2
 8005d4e:	42a6      	cmp	r6, r4
 8005d50:	d105      	bne.n	8005d5e <__libc_init_array+0x2e>
 8005d52:	bd70      	pop	{r4, r5, r6, pc}
 8005d54:	f855 3b04 	ldr.w	r3, [r5], #4
 8005d58:	4798      	blx	r3
 8005d5a:	3601      	adds	r6, #1
 8005d5c:	e7ee      	b.n	8005d3c <__libc_init_array+0xc>
 8005d5e:	f855 3b04 	ldr.w	r3, [r5], #4
 8005d62:	4798      	blx	r3
 8005d64:	3601      	adds	r6, #1
 8005d66:	e7f2      	b.n	8005d4e <__libc_init_array+0x1e>
 8005d68:	08006500 	.word	0x08006500
 8005d6c:	08006500 	.word	0x08006500
 8005d70:	08006500 	.word	0x08006500
 8005d74:	08006504 	.word	0x08006504

08005d78 <atan2>:
 8005d78:	f000 ba92 	b.w	80062a0 <__ieee754_atan2>

08005d7c <sqrt>:
 8005d7c:	b5f8      	push	{r3, r4, r5, r6, r7, lr}
 8005d7e:	4606      	mov	r6, r0
 8005d80:	460f      	mov	r7, r1
 8005d82:	f000 f9b5 	bl	80060f0 <__ieee754_sqrt>
 8005d86:	4632      	mov	r2, r6
 8005d88:	4604      	mov	r4, r0
 8005d8a:	460d      	mov	r5, r1
 8005d8c:	463b      	mov	r3, r7
 8005d8e:	4630      	mov	r0, r6
 8005d90:	4639      	mov	r1, r7
 8005d92:	f7fa fe33 	bl	80009fc <__aeabi_dcmpun>
 8005d96:	b990      	cbnz	r0, 8005dbe <sqrt+0x42>
 8005d98:	2200      	movs	r2, #0
 8005d9a:	2300      	movs	r3, #0
 8005d9c:	4630      	mov	r0, r6
 8005d9e:	4639      	mov	r1, r7
 8005da0:	f7fa fe04 	bl	80009ac <__aeabi_dcmplt>
 8005da4:	b158      	cbz	r0, 8005dbe <sqrt+0x42>
 8005da6:	f7ff ffbd 	bl	8005d24 <__errno>
 8005daa:	2321      	movs	r3, #33	@ 0x21
 8005dac:	2200      	movs	r2, #0
 8005dae:	6003      	str	r3, [r0, #0]
 8005db0:	2300      	movs	r3, #0
 8005db2:	4610      	mov	r0, r2
 8005db4:	4619      	mov	r1, r3
 8005db6:	f7fa fcb1 	bl	800071c <__aeabi_ddiv>
 8005dba:	4604      	mov	r4, r0
 8005dbc:	460d      	mov	r5, r1
 8005dbe:	4620      	mov	r0, r4
 8005dc0:	4629      	mov	r1, r5
 8005dc2:	bdf8      	pop	{r3, r4, r5, r6, r7, pc}
 8005dc4:	0000      	movs	r0, r0
	...

08005dc8 <atan>:
 8005dc8:	e92d 4ff8 	stmdb	sp!, {r3, r4, r5, r6, r7, r8, r9, sl, fp, lr}
 8005dcc:	4bbc      	ldr	r3, [pc, #752]	@ (80060c0 <atan+0x2f8>)
 8005dce:	f021 4600 	bic.w	r6, r1, #2147483648	@ 0x80000000
 8005dd2:	429e      	cmp	r6, r3
 8005dd4:	4604      	mov	r4, r0
 8005dd6:	460d      	mov	r5, r1
 8005dd8:	468b      	mov	fp, r1
 8005dda:	d918      	bls.n	8005e0e <atan+0x46>
 8005ddc:	4bb9      	ldr	r3, [pc, #740]	@ (80060c4 <atan+0x2fc>)
 8005dde:	429e      	cmp	r6, r3
 8005de0:	d801      	bhi.n	8005de6 <atan+0x1e>
 8005de2:	d109      	bne.n	8005df8 <atan+0x30>
 8005de4:	b140      	cbz	r0, 8005df8 <atan+0x30>
 8005de6:	4622      	mov	r2, r4
 8005de8:	462b      	mov	r3, r5
 8005dea:	4620      	mov	r0, r4
 8005dec:	4629      	mov	r1, r5
 8005dee:	f7fa f9b5 	bl	800015c <__adddf3>
 8005df2:	4604      	mov	r4, r0
 8005df4:	460d      	mov	r5, r1
 8005df6:	e006      	b.n	8005e06 <atan+0x3e>
 8005df8:	f1bb 0f00 	cmp.w	fp, #0
 8005dfc:	f340 8123 	ble.w	8006046 <atan+0x27e>
 8005e00:	a593      	add	r5, pc, #588	@ (adr r5, 8006050 <atan+0x288>)
 8005e02:	e9d5 4500 	ldrd	r4, r5, [r5]
 8005e06:	4620      	mov	r0, r4
 8005e08:	4629      	mov	r1, r5
 8005e0a:	e8bd 8ff8 	ldmia.w	sp!, {r3, r4, r5, r6, r7, r8, r9, sl, fp, pc}
 8005e0e:	4bae      	ldr	r3, [pc, #696]	@ (80060c8 <atan+0x300>)
 8005e10:	429e      	cmp	r6, r3
 8005e12:	d811      	bhi.n	8005e38 <atan+0x70>
 8005e14:	f1a3 73de 	sub.w	r3, r3, #29097984	@ 0x1bc0000
 8005e18:	429e      	cmp	r6, r3
 8005e1a:	d80a      	bhi.n	8005e32 <atan+0x6a>
 8005e1c:	a38e      	add	r3, pc, #568	@ (adr r3, 8006058 <atan+0x290>)
 8005e1e:	e9d3 2300 	ldrd	r2, r3, [r3]
 8005e22:	f7fa f99b 	bl	800015c <__adddf3>
 8005e26:	2200      	movs	r2, #0
 8005e28:	4ba8      	ldr	r3, [pc, #672]	@ (80060cc <atan+0x304>)
 8005e2a:	f7fa fddd 	bl	80009e8 <__aeabi_dcmpgt>
 8005e2e:	2800      	cmp	r0, #0
 8005e30:	d1e9      	bne.n	8005e06 <atan+0x3e>
 8005e32:	f04f 3aff 	mov.w	sl, #4294967295
 8005e36:	e027      	b.n	8005e88 <atan+0xc0>
 8005e38:	f000 f956 	bl	80060e8 <fabs>
 8005e3c:	4ba4      	ldr	r3, [pc, #656]	@ (80060d0 <atan+0x308>)
 8005e3e:	4604      	mov	r4, r0
 8005e40:	429e      	cmp	r6, r3
 8005e42:	460d      	mov	r5, r1
 8005e44:	f200 80b8 	bhi.w	8005fb8 <atan+0x1f0>
 8005e48:	f5a3 2350 	sub.w	r3, r3, #851968	@ 0xd0000
 8005e4c:	429e      	cmp	r6, r3
 8005e4e:	f200 809c 	bhi.w	8005f8a <atan+0x1c2>
 8005e52:	4602      	mov	r2, r0
 8005e54:	460b      	mov	r3, r1
 8005e56:	f7fa f981 	bl	800015c <__adddf3>
 8005e5a:	2200      	movs	r2, #0
 8005e5c:	4b9b      	ldr	r3, [pc, #620]	@ (80060cc <atan+0x304>)
 8005e5e:	f7fa f97b 	bl	8000158 <__aeabi_dsub>
 8005e62:	2200      	movs	r2, #0
 8005e64:	4606      	mov	r6, r0
 8005e66:	460f      	mov	r7, r1
 8005e68:	f04f 4380 	mov.w	r3, #1073741824	@ 0x40000000
 8005e6c:	4620      	mov	r0, r4
 8005e6e:	4629      	mov	r1, r5
 8005e70:	f7fa f974 	bl	800015c <__adddf3>
 8005e74:	4602      	mov	r2, r0
 8005e76:	460b      	mov	r3, r1
 8005e78:	4630      	mov	r0, r6
 8005e7a:	4639      	mov	r1, r7
 8005e7c:	f7fa fc4e 	bl	800071c <__aeabi_ddiv>
 8005e80:	f04f 0a00 	mov.w	sl, #0
 8005e84:	4604      	mov	r4, r0
 8005e86:	460d      	mov	r5, r1
 8005e88:	4622      	mov	r2, r4
 8005e8a:	462b      	mov	r3, r5
 8005e8c:	4620      	mov	r0, r4
 8005e8e:	4629      	mov	r1, r5
 8005e90:	f7fa fb1a 	bl	80004c8 <__aeabi_dmul>
 8005e94:	4602      	mov	r2, r0
 8005e96:	460b      	mov	r3, r1
 8005e98:	4680      	mov	r8, r0
 8005e9a:	4689      	mov	r9, r1
 8005e9c:	f7fa fb14 	bl	80004c8 <__aeabi_dmul>
 8005ea0:	a36f      	add	r3, pc, #444	@ (adr r3, 8006060 <atan+0x298>)
 8005ea2:	e9d3 2300 	ldrd	r2, r3, [r3]
 8005ea6:	4606      	mov	r6, r0
 8005ea8:	460f      	mov	r7, r1
 8005eaa:	f7fa fb0d 	bl	80004c8 <__aeabi_dmul>
 8005eae:	a36e      	add	r3, pc, #440	@ (adr r3, 8006068 <atan+0x2a0>)
 8005eb0:	e9d3 2300 	ldrd	r2, r3, [r3]
 8005eb4:	f7fa f952 	bl	800015c <__adddf3>
 8005eb8:	4632      	mov	r2, r6
 8005eba:	463b      	mov	r3, r7
 8005ebc:	f7fa fb04 	bl	80004c8 <__aeabi_dmul>
 8005ec0:	a36b      	add	r3, pc, #428	@ (adr r3, 8006070 <atan+0x2a8>)
 8005ec2:	e9d3 2300 	ldrd	r2, r3, [r3]
 8005ec6:	f7fa f949 	bl	800015c <__adddf3>
 8005eca:	4632      	mov	r2, r6
 8005ecc:	463b      	mov	r3, r7
 8005ece:	f7fa fafb 	bl	80004c8 <__aeabi_dmul>
 8005ed2:	a369      	add	r3, pc, #420	@ (adr r3, 8006078 <atan+0x2b0>)
 8005ed4:	e9d3 2300 	ldrd	r2, r3, [r3]
 8005ed8:	f7fa f940 	bl	800015c <__adddf3>
 8005edc:	4632      	mov	r2, r6
 8005ede:	463b      	mov	r3, r7
 8005ee0:	f7fa faf2 	bl	80004c8 <__aeabi_dmul>
 8005ee4:	a366      	add	r3, pc, #408	@ (adr r3, 8006080 <atan+0x2b8>)
 8005ee6:	e9d3 2300 	ldrd	r2, r3, [r3]
 8005eea:	f7fa f937 	bl	800015c <__adddf3>
 8005eee:	4632      	mov	r2, r6
 8005ef0:	463b      	mov	r3, r7
 8005ef2:	f7fa fae9 	bl	80004c8 <__aeabi_dmul>
 8005ef6:	a364      	add	r3, pc, #400	@ (adr r3, 8006088 <atan+0x2c0>)
 8005ef8:	e9d3 2300 	ldrd	r2, r3, [r3]
 8005efc:	f7fa f92e 	bl	800015c <__adddf3>
 8005f00:	4642      	mov	r2, r8
 8005f02:	464b      	mov	r3, r9
 8005f04:	f7fa fae0 	bl	80004c8 <__aeabi_dmul>
 8005f08:	a361      	add	r3, pc, #388	@ (adr r3, 8006090 <atan+0x2c8>)
 8005f0a:	e9d3 2300 	ldrd	r2, r3, [r3]
 8005f0e:	4680      	mov	r8, r0
 8005f10:	4689      	mov	r9, r1
 8005f12:	4630      	mov	r0, r6
 8005f14:	4639      	mov	r1, r7
 8005f16:	f7fa fad7 	bl	80004c8 <__aeabi_dmul>
 8005f1a:	a35f      	add	r3, pc, #380	@ (adr r3, 8006098 <atan+0x2d0>)
 8005f1c:	e9d3 2300 	ldrd	r2, r3, [r3]
 8005f20:	f7fa f91a 	bl	8000158 <__aeabi_dsub>
 8005f24:	4632      	mov	r2, r6
 8005f26:	463b      	mov	r3, r7
 8005f28:	f7fa face 	bl	80004c8 <__aeabi_dmul>
 8005f2c:	a35c      	add	r3, pc, #368	@ (adr r3, 80060a0 <atan+0x2d8>)
 8005f2e:	e9d3 2300 	ldrd	r2, r3, [r3]
 8005f32:	f7fa f911 	bl	8000158 <__aeabi_dsub>
 8005f36:	4632      	mov	r2, r6
 8005f38:	463b      	mov	r3, r7
 8005f3a:	f7fa fac5 	bl	80004c8 <__aeabi_dmul>
 8005f3e:	a35a      	add	r3, pc, #360	@ (adr r3, 80060a8 <atan+0x2e0>)
 8005f40:	e9d3 2300 	ldrd	r2, r3, [r3]
 8005f44:	f7fa f908 	bl	8000158 <__aeabi_dsub>
 8005f48:	4632      	mov	r2, r6
 8005f4a:	463b      	mov	r3, r7
 8005f4c:	f7fa fabc 	bl	80004c8 <__aeabi_dmul>
 8005f50:	a357      	add	r3, pc, #348	@ (adr r3, 80060b0 <atan+0x2e8>)
 8005f52:	e9d3 2300 	ldrd	r2, r3, [r3]
 8005f56:	f7fa f8ff 	bl	8000158 <__aeabi_dsub>
 8005f5a:	4632      	mov	r2, r6
 8005f5c:	463b      	mov	r3, r7
 8005f5e:	f7fa fab3 	bl	80004c8 <__aeabi_dmul>
 8005f62:	4602      	mov	r2, r0
 8005f64:	460b      	mov	r3, r1
 8005f66:	4640      	mov	r0, r8
 8005f68:	4649      	mov	r1, r9
 8005f6a:	f7fa f8f7 	bl	800015c <__adddf3>
 8005f6e:	4622      	mov	r2, r4
 8005f70:	462b      	mov	r3, r5
 8005f72:	f7fa faa9 	bl	80004c8 <__aeabi_dmul>
 8005f76:	f1ba 3fff 	cmp.w	sl, #4294967295
 8005f7a:	4602      	mov	r2, r0
 8005f7c:	460b      	mov	r3, r1
 8005f7e:	d144      	bne.n	800600a <atan+0x242>
 8005f80:	4620      	mov	r0, r4
 8005f82:	4629      	mov	r1, r5
 8005f84:	f7fa f8e8 	bl	8000158 <__aeabi_dsub>
 8005f88:	e733      	b.n	8005df2 <atan+0x2a>
 8005f8a:	2200      	movs	r2, #0
 8005f8c:	4b4f      	ldr	r3, [pc, #316]	@ (80060cc <atan+0x304>)
 8005f8e:	f7fa f8e3 	bl	8000158 <__aeabi_dsub>
 8005f92:	2200      	movs	r2, #0
 8005f94:	4606      	mov	r6, r0
 8005f96:	460f      	mov	r7, r1
 8005f98:	4620      	mov	r0, r4
 8005f9a:	4629      	mov	r1, r5
 8005f9c:	4b4b      	ldr	r3, [pc, #300]	@ (80060cc <atan+0x304>)
 8005f9e:	f7fa f8dd 	bl	800015c <__adddf3>
 8005fa2:	4602      	mov	r2, r0
 8005fa4:	460b      	mov	r3, r1
 8005fa6:	4630      	mov	r0, r6
 8005fa8:	4639      	mov	r1, r7
 8005faa:	f7fa fbb7 	bl	800071c <__aeabi_ddiv>
 8005fae:	f04f 0a01 	mov.w	sl, #1
 8005fb2:	4604      	mov	r4, r0
 8005fb4:	460d      	mov	r5, r1
 8005fb6:	e767      	b.n	8005e88 <atan+0xc0>
 8005fb8:	4b46      	ldr	r3, [pc, #280]	@ (80060d4 <atan+0x30c>)
 8005fba:	429e      	cmp	r6, r3
 8005fbc:	d21a      	bcs.n	8005ff4 <atan+0x22c>
 8005fbe:	2200      	movs	r2, #0
 8005fc0:	4b45      	ldr	r3, [pc, #276]	@ (80060d8 <atan+0x310>)
 8005fc2:	f7fa f8c9 	bl	8000158 <__aeabi_dsub>
 8005fc6:	2200      	movs	r2, #0
 8005fc8:	4606      	mov	r6, r0
 8005fca:	460f      	mov	r7, r1
 8005fcc:	4620      	mov	r0, r4
 8005fce:	4629      	mov	r1, r5
 8005fd0:	4b41      	ldr	r3, [pc, #260]	@ (80060d8 <atan+0x310>)
 8005fd2:	f7fa fa79 	bl	80004c8 <__aeabi_dmul>
 8005fd6:	2200      	movs	r2, #0
 8005fd8:	4b3c      	ldr	r3, [pc, #240]	@ (80060cc <atan+0x304>)
 8005fda:	f7fa f8bf 	bl	800015c <__adddf3>
 8005fde:	4602      	mov	r2, r0
 8005fe0:	460b      	mov	r3, r1
 8005fe2:	4630      	mov	r0, r6
 8005fe4:	4639      	mov	r1, r7
 8005fe6:	f7fa fb99 	bl	800071c <__aeabi_ddiv>
 8005fea:	f04f 0a02 	mov.w	sl, #2
 8005fee:	4604      	mov	r4, r0
 8005ff0:	460d      	mov	r5, r1
 8005ff2:	e749      	b.n	8005e88 <atan+0xc0>
 8005ff4:	4602      	mov	r2, r0
 8005ff6:	460b      	mov	r3, r1
 8005ff8:	2000      	movs	r0, #0
 8005ffa:	4938      	ldr	r1, [pc, #224]	@ (80060dc <atan+0x314>)
 8005ffc:	f7fa fb8e 	bl	800071c <__aeabi_ddiv>
 8006000:	f04f 0a03 	mov.w	sl, #3
 8006004:	4604      	mov	r4, r0
 8006006:	460d      	mov	r5, r1
 8006008:	e73e      	b.n	8005e88 <atan+0xc0>
 800600a:	4b35      	ldr	r3, [pc, #212]	@ (80060e0 <atan+0x318>)
 800600c:	4e35      	ldr	r6, [pc, #212]	@ (80060e4 <atan+0x31c>)
 800600e:	eb03 03ca 	add.w	r3, r3, sl, lsl #3
 8006012:	e9d3 2300 	ldrd	r2, r3, [r3]
 8006016:	f7fa f89f 	bl	8000158 <__aeabi_dsub>
 800601a:	4622      	mov	r2, r4
 800601c:	462b      	mov	r3, r5
 800601e:	f7fa f89b 	bl	8000158 <__aeabi_dsub>
 8006022:	eb06 06ca 	add.w	r6, r6, sl, lsl #3
 8006026:	4602      	mov	r2, r0
 8006028:	460b      	mov	r3, r1
 800602a:	e9d6 0100 	ldrd	r0, r1, [r6]
 800602e:	f7fa f893 	bl	8000158 <__aeabi_dsub>
 8006032:	f1bb 0f00 	cmp.w	fp, #0
 8006036:	4604      	mov	r4, r0
 8006038:	460d      	mov	r5, r1
 800603a:	f6bf aee4 	bge.w	8005e06 <atan+0x3e>
 800603e:	f101 4300 	add.w	r3, r1, #2147483648	@ 0x80000000
 8006042:	461d      	mov	r5, r3
 8006044:	e6df      	b.n	8005e06 <atan+0x3e>
 8006046:	a51c      	add	r5, pc, #112	@ (adr r5, 80060b8 <atan+0x2f0>)
 8006048:	e9d5 4500 	ldrd	r4, r5, [r5]
 800604c:	e6db      	b.n	8005e06 <atan+0x3e>
 800604e:	bf00      	nop
 8006050:	54442d18 	.word	0x54442d18
 8006054:	3ff921fb 	.word	0x3ff921fb
 8006058:	8800759c 	.word	0x8800759c
 800605c:	7e37e43c 	.word	0x7e37e43c
 8006060:	e322da11 	.word	0xe322da11
 8006064:	3f90ad3a 	.word	0x3f90ad3a
 8006068:	24760deb 	.word	0x24760deb
 800606c:	3fa97b4b 	.word	0x3fa97b4b
 8006070:	a0d03d51 	.word	0xa0d03d51
 8006074:	3fb10d66 	.word	0x3fb10d66
 8006078:	c54c206e 	.word	0xc54c206e
 800607c:	3fb745cd 	.word	0x3fb745cd
 8006080:	920083ff 	.word	0x920083ff
 8006084:	3fc24924 	.word	0x3fc24924
 8006088:	5555550d 	.word	0x5555550d
 800608c:	3fd55555 	.word	0x3fd55555
 8006090:	2c6a6c2f 	.word	0x2c6a6c2f
 8006094:	bfa2b444 	.word	0xbfa2b444
 8006098:	52defd9a 	.word	0x52defd9a
 800609c:	3fadde2d 	.word	0x3fadde2d
 80060a0:	af749a6d 	.word	0xaf749a6d
 80060a4:	3fb3b0f2 	.word	0x3fb3b0f2
 80060a8:	fe231671 	.word	0xfe231671
 80060ac:	3fbc71c6 	.word	0x3fbc71c6
 80060b0:	9998ebc4 	.word	0x9998ebc4
 80060b4:	3fc99999 	.word	0x3fc99999
 80060b8:	54442d18 	.word	0x54442d18
 80060bc:	bff921fb 	.word	0xbff921fb
 80060c0:	440fffff 	.word	0x440fffff
 80060c4:	7ff00000 	.word	0x7ff00000
 80060c8:	3fdbffff 	.word	0x3fdbffff
 80060cc:	3ff00000 	.word	0x3ff00000
 80060d0:	3ff2ffff 	.word	0x3ff2ffff
 80060d4:	40038000 	.word	0x40038000
 80060d8:	3ff80000 	.word	0x3ff80000
 80060dc:	bff00000 	.word	0xbff00000
 80060e0:	08006490 	.word	0x08006490
 80060e4:	080064b0 	.word	0x080064b0

080060e8 <fabs>:
 80060e8:	f021 4300 	bic.w	r3, r1, #2147483648	@ 0x80000000
 80060ec:	4619      	mov	r1, r3
 80060ee:	4770      	bx	lr

080060f0 <__ieee754_sqrt>:
 80060f0:	4a67      	ldr	r2, [pc, #412]	@ (8006290 <__ieee754_sqrt+0x1a0>)
 80060f2:	e92d 4ff8 	stmdb	sp!, {r3, r4, r5, r6, r7, r8, r9, sl, fp, lr}
 80060f6:	438a      	bics	r2, r1
 80060f8:	4606      	mov	r6, r0
 80060fa:	460f      	mov	r7, r1
 80060fc:	460b      	mov	r3, r1
 80060fe:	4604      	mov	r4, r0
 8006100:	d10e      	bne.n	8006120 <__ieee754_sqrt+0x30>
 8006102:	4602      	mov	r2, r0
 8006104:	f7fa f9e0 	bl	80004c8 <__aeabi_dmul>
 8006108:	4602      	mov	r2, r0
 800610a:	460b      	mov	r3, r1
 800610c:	4630      	mov	r0, r6
 800610e:	4639      	mov	r1, r7
 8006110:	f7fa f824 	bl	800015c <__adddf3>
 8006114:	4606      	mov	r6, r0
 8006116:	460f      	mov	r7, r1
 8006118:	4630      	mov	r0, r6
 800611a:	4639      	mov	r1, r7
 800611c:	e8bd 8ff8 	ldmia.w	sp!, {r3, r4, r5, r6, r7, r8, r9, sl, fp, pc}
 8006120:	2900      	cmp	r1, #0
 8006122:	dc0c      	bgt.n	800613e <__ieee754_sqrt+0x4e>
 8006124:	f021 4200 	bic.w	r2, r1, #2147483648	@ 0x80000000
 8006128:	4302      	orrs	r2, r0
 800612a:	d0f5      	beq.n	8006118 <__ieee754_sqrt+0x28>
 800612c:	b189      	cbz	r1, 8006152 <__ieee754_sqrt+0x62>
 800612e:	4602      	mov	r2, r0
 8006130:	f7fa f812 	bl	8000158 <__aeabi_dsub>
 8006134:	4602      	mov	r2, r0
 8006136:	460b      	mov	r3, r1
 8006138:	f7fa faf0 	bl	800071c <__aeabi_ddiv>
 800613c:	e7ea      	b.n	8006114 <__ieee754_sqrt+0x24>
 800613e:	150a      	asrs	r2, r1, #20
 8006140:	d115      	bne.n	800616e <__ieee754_sqrt+0x7e>
 8006142:	2100      	movs	r1, #0
 8006144:	e009      	b.n	800615a <__ieee754_sqrt+0x6a>
 8006146:	0ae3      	lsrs	r3, r4, #11
 8006148:	3a15      	subs	r2, #21
 800614a:	0564      	lsls	r4, r4, #21
 800614c:	2b00      	cmp	r3, #0
 800614e:	d0fa      	beq.n	8006146 <__ieee754_sqrt+0x56>
 8006150:	e7f7      	b.n	8006142 <__ieee754_sqrt+0x52>
 8006152:	460a      	mov	r2, r1
 8006154:	e7fa      	b.n	800614c <__ieee754_sqrt+0x5c>
 8006156:	005b      	lsls	r3, r3, #1
 8006158:	3101      	adds	r1, #1
 800615a:	02d8      	lsls	r0, r3, #11
 800615c:	d5fb      	bpl.n	8006156 <__ieee754_sqrt+0x66>
 800615e:	1e48      	subs	r0, r1, #1
 8006160:	1a12      	subs	r2, r2, r0
 8006162:	f1c1 0020 	rsb	r0, r1, #32
 8006166:	fa24 f000 	lsr.w	r0, r4, r0
 800616a:	4303      	orrs	r3, r0
 800616c:	408c      	lsls	r4, r1
 800616e:	2600      	movs	r6, #0
 8006170:	f2a2 37ff 	subw	r7, r2, #1023	@ 0x3ff
 8006174:	2116      	movs	r1, #22
 8006176:	07d2      	lsls	r2, r2, #31
 8006178:	f44f 1000 	mov.w	r0, #2097152	@ 0x200000
 800617c:	4632      	mov	r2, r6
 800617e:	f3c3 0313 	ubfx	r3, r3, #0, #20
 8006182:	f443 1380 	orr.w	r3, r3, #1048576	@ 0x100000
 8006186:	bf5c      	itt	pl
 8006188:	005b      	lslpl	r3, r3, #1
 800618a:	eb03 73d4 	addpl.w	r3, r3, r4, lsr #31
 800618e:	ea4f 0343 	mov.w	r3, r3, lsl #1
 8006192:	bf58      	it	pl
 8006194:	0064      	lslpl	r4, r4, #1
 8006196:	eb03 73d4 	add.w	r3, r3, r4, lsr #31
 800619a:	107f      	asrs	r7, r7, #1
 800619c:	0064      	lsls	r4, r4, #1
 800619e:	1815      	adds	r5, r2, r0
 80061a0:	429d      	cmp	r5, r3
 80061a2:	bfde      	ittt	le
 80061a4:	182a      	addle	r2, r5, r0
 80061a6:	1b5b      	suble	r3, r3, r5
 80061a8:	1836      	addle	r6, r6, r0
 80061aa:	0fe5      	lsrs	r5, r4, #31
 80061ac:	3901      	subs	r1, #1
 80061ae:	eb05 0343 	add.w	r3, r5, r3, lsl #1
 80061b2:	ea4f 0444 	mov.w	r4, r4, lsl #1
 80061b6:	ea4f 0050 	mov.w	r0, r0, lsr #1
 80061ba:	d1f0      	bne.n	800619e <__ieee754_sqrt+0xae>
 80061bc:	460d      	mov	r5, r1
 80061be:	f04f 0a20 	mov.w	sl, #32
 80061c2:	f04f 4000 	mov.w	r0, #2147483648	@ 0x80000000
 80061c6:	429a      	cmp	r2, r3
 80061c8:	eb01 0c00 	add.w	ip, r1, r0
 80061cc:	db02      	blt.n	80061d4 <__ieee754_sqrt+0xe4>
 80061ce:	d113      	bne.n	80061f8 <__ieee754_sqrt+0x108>
 80061d0:	45a4      	cmp	ip, r4
 80061d2:	d811      	bhi.n	80061f8 <__ieee754_sqrt+0x108>
 80061d4:	f1bc 0f00 	cmp.w	ip, #0
 80061d8:	eb0c 0100 	add.w	r1, ip, r0
 80061dc:	da42      	bge.n	8006264 <__ieee754_sqrt+0x174>
 80061de:	2900      	cmp	r1, #0
 80061e0:	db40      	blt.n	8006264 <__ieee754_sqrt+0x174>
 80061e2:	f102 0e01 	add.w	lr, r2, #1
 80061e6:	1a9b      	subs	r3, r3, r2
 80061e8:	4672      	mov	r2, lr
 80061ea:	45a4      	cmp	ip, r4
 80061ec:	bf88      	it	hi
 80061ee:	f103 33ff 	addhi.w	r3, r3, #4294967295
 80061f2:	eba4 040c 	sub.w	r4, r4, ip
 80061f6:	4405      	add	r5, r0
 80061f8:	ea4f 7cd4 	mov.w	ip, r4, lsr #31
 80061fc:	f1ba 0a01 	subs.w	sl, sl, #1
 8006200:	eb0c 0343 	add.w	r3, ip, r3, lsl #1
 8006204:	ea4f 0444 	mov.w	r4, r4, lsl #1
 8006208:	ea4f 0050 	mov.w	r0, r0, lsr #1
 800620c:	d1db      	bne.n	80061c6 <__ieee754_sqrt+0xd6>
 800620e:	431c      	orrs	r4, r3
 8006210:	d01a      	beq.n	8006248 <__ieee754_sqrt+0x158>
 8006212:	4c20      	ldr	r4, [pc, #128]	@ (8006294 <__ieee754_sqrt+0x1a4>)
 8006214:	f8df b080 	ldr.w	fp, [pc, #128]	@ 8006298 <__ieee754_sqrt+0x1a8>
 8006218:	e9d4 0100 	ldrd	r0, r1, [r4]
 800621c:	e9db 2300 	ldrd	r2, r3, [fp]
 8006220:	f7f9 ff9a 	bl	8000158 <__aeabi_dsub>
 8006224:	e9d4 8900 	ldrd	r8, r9, [r4]
 8006228:	4602      	mov	r2, r0
 800622a:	460b      	mov	r3, r1
 800622c:	4640      	mov	r0, r8
 800622e:	4649      	mov	r1, r9
 8006230:	f7fa fbc6 	bl	80009c0 <__aeabi_dcmple>
 8006234:	b140      	cbz	r0, 8006248 <__ieee754_sqrt+0x158>
 8006236:	e9d4 0100 	ldrd	r0, r1, [r4]
 800623a:	e9db 2300 	ldrd	r2, r3, [fp]
 800623e:	f1b5 3fff 	cmp.w	r5, #4294967295
 8006242:	d111      	bne.n	8006268 <__ieee754_sqrt+0x178>
 8006244:	4655      	mov	r5, sl
 8006246:	3601      	adds	r6, #1
 8006248:	1072      	asrs	r2, r6, #1
 800624a:	086b      	lsrs	r3, r5, #1
 800624c:	07f1      	lsls	r1, r6, #31
 800624e:	f102 527f 	add.w	r2, r2, #1069547520	@ 0x3fc00000
 8006252:	f502 1200 	add.w	r2, r2, #2097152	@ 0x200000
 8006256:	bf48      	it	mi
 8006258:	f043 4300 	orrmi.w	r3, r3, #2147483648	@ 0x80000000
 800625c:	4618      	mov	r0, r3
 800625e:	eb02 5107 	add.w	r1, r2, r7, lsl #20
 8006262:	e757      	b.n	8006114 <__ieee754_sqrt+0x24>
 8006264:	4696      	mov	lr, r2
 8006266:	e7be      	b.n	80061e6 <__ieee754_sqrt+0xf6>
 8006268:	f7f9 ff78 	bl	800015c <__adddf3>
 800626c:	e9d4 8900 	ldrd	r8, r9, [r4]
 8006270:	4602      	mov	r2, r0
 8006272:	460b      	mov	r3, r1
 8006274:	4640      	mov	r0, r8
 8006276:	4649      	mov	r1, r9
 8006278:	f7fa fb98 	bl	80009ac <__aeabi_dcmplt>
 800627c:	b120      	cbz	r0, 8006288 <__ieee754_sqrt+0x198>
 800627e:	1ca8      	adds	r0, r5, #2
 8006280:	bf08      	it	eq
 8006282:	3601      	addeq	r6, #1
 8006284:	3502      	adds	r5, #2
 8006286:	e7df      	b.n	8006248 <__ieee754_sqrt+0x158>
 8006288:	1c6b      	adds	r3, r5, #1
 800628a:	f023 0501 	bic.w	r5, r3, #1
 800628e:	e7db      	b.n	8006248 <__ieee754_sqrt+0x158>
 8006290:	7ff00000 	.word	0x7ff00000
 8006294:	200000f8 	.word	0x200000f8
 8006298:	200000f0 	.word	0x200000f0
 800629c:	00000000 	.word	0x00000000

080062a0 <__ieee754_atan2>:
 80062a0:	e92d 4ff8 	stmdb	sp!, {r3, r4, r5, r6, r7, r8, r9, sl, fp, lr}
 80062a4:	4617      	mov	r7, r2
 80062a6:	4690      	mov	r8, r2
 80062a8:	4699      	mov	r9, r3
 80062aa:	f023 4200 	bic.w	r2, r3, #2147483648	@ 0x80000000
 80062ae:	427b      	negs	r3, r7
 80062b0:	f8df a184 	ldr.w	sl, [pc, #388]	@ 8006438 <__ieee754_atan2+0x198>
 80062b4:	433b      	orrs	r3, r7
 80062b6:	ea42 73d3 	orr.w	r3, r2, r3, lsr #31
 80062ba:	4553      	cmp	r3, sl
 80062bc:	4604      	mov	r4, r0
 80062be:	460d      	mov	r5, r1
 80062c0:	d809      	bhi.n	80062d6 <__ieee754_atan2+0x36>
 80062c2:	4246      	negs	r6, r0
 80062c4:	f021 4300 	bic.w	r3, r1, #2147483648	@ 0x80000000
 80062c8:	4306      	orrs	r6, r0
 80062ca:	ea43 76d6 	orr.w	r6, r3, r6, lsr #31
 80062ce:	4556      	cmp	r6, sl
 80062d0:	468e      	mov	lr, r1
 80062d2:	4683      	mov	fp, r0
 80062d4:	d908      	bls.n	80062e8 <__ieee754_atan2+0x48>
 80062d6:	4642      	mov	r2, r8
 80062d8:	464b      	mov	r3, r9
 80062da:	4620      	mov	r0, r4
 80062dc:	4629      	mov	r1, r5
 80062de:	f7f9 ff3d 	bl	800015c <__adddf3>
 80062e2:	4604      	mov	r4, r0
 80062e4:	460d      	mov	r5, r1
 80062e6:	e016      	b.n	8006316 <__ieee754_atan2+0x76>
 80062e8:	f109 4640 	add.w	r6, r9, #3221225472	@ 0xc0000000
 80062ec:	f506 1680 	add.w	r6, r6, #1048576	@ 0x100000
 80062f0:	433e      	orrs	r6, r7
 80062f2:	d103      	bne.n	80062fc <__ieee754_atan2+0x5c>
 80062f4:	e8bd 4ff8 	ldmia.w	sp!, {r3, r4, r5, r6, r7, r8, r9, sl, fp, lr}
 80062f8:	f7ff bd66 	b.w	8005dc8 <atan>
 80062fc:	ea4f 76a9 	mov.w	r6, r9, asr #30
 8006300:	f006 0602 	and.w	r6, r6, #2
 8006304:	ea53 0b0b 	orrs.w	fp, r3, fp
 8006308:	ea46 76d1 	orr.w	r6, r6, r1, lsr #31
 800630c:	d107      	bne.n	800631e <__ieee754_atan2+0x7e>
 800630e:	2e02      	cmp	r6, #2
 8006310:	d064      	beq.n	80063dc <__ieee754_atan2+0x13c>
 8006312:	2e03      	cmp	r6, #3
 8006314:	d066      	beq.n	80063e4 <__ieee754_atan2+0x144>
 8006316:	4620      	mov	r0, r4
 8006318:	4629      	mov	r1, r5
 800631a:	e8bd 8ff8 	ldmia.w	sp!, {r3, r4, r5, r6, r7, r8, r9, sl, fp, pc}
 800631e:	4317      	orrs	r7, r2
 8006320:	d106      	bne.n	8006330 <__ieee754_atan2+0x90>
 8006322:	f1be 0f00 	cmp.w	lr, #0
 8006326:	da68      	bge.n	80063fa <__ieee754_atan2+0x15a>
 8006328:	a537      	add	r5, pc, #220	@ (adr r5, 8006408 <__ieee754_atan2+0x168>)
 800632a:	e9d5 4500 	ldrd	r4, r5, [r5]
 800632e:	e7f2      	b.n	8006316 <__ieee754_atan2+0x76>
 8006330:	4552      	cmp	r2, sl
 8006332:	d10f      	bne.n	8006354 <__ieee754_atan2+0xb4>
 8006334:	4293      	cmp	r3, r2
 8006336:	f106 36ff 	add.w	r6, r6, #4294967295
 800633a:	d107      	bne.n	800634c <__ieee754_atan2+0xac>
 800633c:	2e02      	cmp	r6, #2
 800633e:	d855      	bhi.n	80063ec <__ieee754_atan2+0x14c>
 8006340:	4b3e      	ldr	r3, [pc, #248]	@ (800643c <__ieee754_atan2+0x19c>)
 8006342:	eb03 03c6 	add.w	r3, r3, r6, lsl #3
 8006346:	e9d3 4500 	ldrd	r4, r5, [r3]
 800634a:	e7e4      	b.n	8006316 <__ieee754_atan2+0x76>
 800634c:	2e02      	cmp	r6, #2
 800634e:	d851      	bhi.n	80063f4 <__ieee754_atan2+0x154>
 8006350:	4b3b      	ldr	r3, [pc, #236]	@ (8006440 <__ieee754_atan2+0x1a0>)
 8006352:	e7f6      	b.n	8006342 <__ieee754_atan2+0xa2>
 8006354:	4553      	cmp	r3, sl
 8006356:	d0e4      	beq.n	8006322 <__ieee754_atan2+0x82>
 8006358:	1a9b      	subs	r3, r3, r2
 800635a:	f1b3 7f74 	cmp.w	r3, #63963136	@ 0x3d00000
 800635e:	ea4f 5223 	mov.w	r2, r3, asr #20
 8006362:	da21      	bge.n	80063a8 <__ieee754_atan2+0x108>
 8006364:	f1b9 0f00 	cmp.w	r9, #0
 8006368:	da01      	bge.n	800636e <__ieee754_atan2+0xce>
 800636a:	323c      	adds	r2, #60	@ 0x3c
 800636c:	db20      	blt.n	80063b0 <__ieee754_atan2+0x110>
 800636e:	4642      	mov	r2, r8
 8006370:	464b      	mov	r3, r9
 8006372:	4620      	mov	r0, r4
 8006374:	4629      	mov	r1, r5
 8006376:	f7fa f9d1 	bl	800071c <__aeabi_ddiv>
 800637a:	f7ff feb5 	bl	80060e8 <fabs>
 800637e:	f7ff fd23 	bl	8005dc8 <atan>
 8006382:	4604      	mov	r4, r0
 8006384:	460d      	mov	r5, r1
 8006386:	2e01      	cmp	r6, #1
 8006388:	d015      	beq.n	80063b6 <__ieee754_atan2+0x116>
 800638a:	2e02      	cmp	r6, #2
 800638c:	d017      	beq.n	80063be <__ieee754_atan2+0x11e>
 800638e:	2e00      	cmp	r6, #0
 8006390:	d0c1      	beq.n	8006316 <__ieee754_atan2+0x76>
 8006392:	a31f      	add	r3, pc, #124	@ (adr r3, 8006410 <__ieee754_atan2+0x170>)
 8006394:	e9d3 2300 	ldrd	r2, r3, [r3]
 8006398:	4620      	mov	r0, r4
 800639a:	4629      	mov	r1, r5
 800639c:	f7f9 fedc 	bl	8000158 <__aeabi_dsub>
 80063a0:	a31d      	add	r3, pc, #116	@ (adr r3, 8006418 <__ieee754_atan2+0x178>)
 80063a2:	e9d3 2300 	ldrd	r2, r3, [r3]
 80063a6:	e016      	b.n	80063d6 <__ieee754_atan2+0x136>
 80063a8:	a51d      	add	r5, pc, #116	@ (adr r5, 8006420 <__ieee754_atan2+0x180>)
 80063aa:	e9d5 4500 	ldrd	r4, r5, [r5]
 80063ae:	e7ea      	b.n	8006386 <__ieee754_atan2+0xe6>
 80063b0:	2400      	movs	r4, #0
 80063b2:	2500      	movs	r5, #0
 80063b4:	e7e7      	b.n	8006386 <__ieee754_atan2+0xe6>
 80063b6:	f105 4300 	add.w	r3, r5, #2147483648	@ 0x80000000
 80063ba:	461d      	mov	r5, r3
 80063bc:	e7ab      	b.n	8006316 <__ieee754_atan2+0x76>
 80063be:	a314      	add	r3, pc, #80	@ (adr r3, 8006410 <__ieee754_atan2+0x170>)
 80063c0:	e9d3 2300 	ldrd	r2, r3, [r3]
 80063c4:	4620      	mov	r0, r4
 80063c6:	4629      	mov	r1, r5
 80063c8:	f7f9 fec6 	bl	8000158 <__aeabi_dsub>
 80063cc:	4602      	mov	r2, r0
 80063ce:	460b      	mov	r3, r1
 80063d0:	a111      	add	r1, pc, #68	@ (adr r1, 8006418 <__ieee754_atan2+0x178>)
 80063d2:	e9d1 0100 	ldrd	r0, r1, [r1]
 80063d6:	f7f9 febf 	bl	8000158 <__aeabi_dsub>
 80063da:	e782      	b.n	80062e2 <__ieee754_atan2+0x42>
 80063dc:	a50e      	add	r5, pc, #56	@ (adr r5, 8006418 <__ieee754_atan2+0x178>)
 80063de:	e9d5 4500 	ldrd	r4, r5, [r5]
 80063e2:	e798      	b.n	8006316 <__ieee754_atan2+0x76>
 80063e4:	a510      	add	r5, pc, #64	@ (adr r5, 8006428 <__ieee754_atan2+0x188>)
 80063e6:	e9d5 4500 	ldrd	r4, r5, [r5]
 80063ea:	e794      	b.n	8006316 <__ieee754_atan2+0x76>
 80063ec:	a510      	add	r5, pc, #64	@ (adr r5, 8006430 <__ieee754_atan2+0x190>)
 80063ee:	e9d5 4500 	ldrd	r4, r5, [r5]
 80063f2:	e790      	b.n	8006316 <__ieee754_atan2+0x76>
 80063f4:	2400      	movs	r4, #0
 80063f6:	2500      	movs	r5, #0
 80063f8:	e78d      	b.n	8006316 <__ieee754_atan2+0x76>
 80063fa:	a509      	add	r5, pc, #36	@ (adr r5, 8006420 <__ieee754_atan2+0x180>)
 80063fc:	e9d5 4500 	ldrd	r4, r5, [r5]
 8006400:	e789      	b.n	8006316 <__ieee754_atan2+0x76>
 8006402:	bf00      	nop
 8006404:	f3af 8000 	nop.w
 8006408:	54442d18 	.word	0x54442d18
 800640c:	bff921fb 	.word	0xbff921fb
 8006410:	33145c07 	.word	0x33145c07
 8006414:	3ca1a626 	.word	0x3ca1a626
 8006418:	54442d18 	.word	0x54442d18
 800641c:	400921fb 	.word	0x400921fb
 8006420:	54442d18 	.word	0x54442d18
 8006424:	3ff921fb 	.word	0x3ff921fb
 8006428:	54442d18 	.word	0x54442d18
 800642c:	c00921fb 	.word	0xc00921fb
 8006430:	54442d18 	.word	0x54442d18
 8006434:	3fe921fb 	.word	0x3fe921fb
 8006438:	7ff00000 	.word	0x7ff00000
 800643c:	080064e8 	.word	0x080064e8
 8006440:	080064d0 	.word	0x080064d0

08006444 <_init>:
 8006444:	b5f8      	push	{r3, r4, r5, r6, r7, lr}
 8006446:	bf00      	nop
 8006448:	bcf8      	pop	{r3, r4, r5, r6, r7}
 800644a:	bc08      	pop	{r3}
 800644c:	469e      	mov	lr, r3
 800644e:	4770      	bx	lr

08006450 <_fini>:
 8006450:	b5f8      	push	{r3, r4, r5, r6, r7, lr}
 8006452:	bf00      	nop
 8006454:	bcf8      	pop	{r3, r4, r5, r6, r7}
 8006456:	bc08      	pop	{r3}
 8006458:	469e      	mov	lr, r3
 800645a:	4770      	bx	lr
