
Fuzzy_Balancing_Robot.elf:     file format elf32-littlearm

Sections:
Idx Name          Size      VMA       LMA       File off  Algn
  0 .isr_vector   0000010c  08000000  08000000  00001000  2**0
                  CONTENTS, ALLOC, LOAD, READONLY, DATA
  1 .text         000041f0  08000110  08000110  00001110  2**3
                  CONTENTS, ALLOC, LOAD, READONLY, CODE
  2 .rodata       0000002c  08004300  08004300  00005300  2**2
                  CONTENTS, ALLOC, LOAD, READONLY, DATA
  3 .ARM.extab    00000000  0800432c  0800432c  0000600c  2**0
                  CONTENTS
  4 .ARM          00000000  0800432c  0800432c  0000600c  2**0
                  CONTENTS
  5 .preinit_array 00000000  0800432c  0800432c  0000600c  2**0
                  CONTENTS, ALLOC, LOAD, DATA
  6 .init_array   00000004  0800432c  0800432c  0000532c  2**2
                  CONTENTS, ALLOC, LOAD, READONLY, DATA
  7 .fini_array   00000004  08004330  08004330  00005330  2**2
                  CONTENTS, ALLOC, LOAD, READONLY, DATA
  8 .data         0000000c  20000000  08004334  00006000  2**2
                  CONTENTS, ALLOC, LOAD, DATA
  9 .bss          00000194  2000000c  08004340  0000600c  2**2
                  ALLOC
 10 ._user_heap_stack 00000600  200001a0  08004340  000061a0  2**0
                  ALLOC
 11 .ARM.attributes 00000029  00000000  00000000  0000600c  2**0
                  CONTENTS, READONLY
 12 .debug_info   0000ea93  00000000  00000000  00006035  2**0
                  CONTENTS, READONLY, DEBUGGING, OCTETS
 13 .debug_abbrev 00001e6c  00000000  00000000  00014ac8  2**0
                  CONTENTS, READONLY, DEBUGGING, OCTETS
 14 .debug_aranges 00000e90  00000000  00000000  00016938  2**3
                  CONTENTS, READONLY, DEBUGGING, OCTETS
 15 .debug_rnglists 00000b99  00000000  00000000  000177c8  2**0
                  CONTENTS, READONLY, DEBUGGING, OCTETS
 16 .debug_macro  00017229  00000000  00000000  00018361  2**0
                  CONTENTS, READONLY, DEBUGGING, OCTETS
 17 .debug_line   00010edd  00000000  00000000  0002f58a  2**0
                  CONTENTS, READONLY, DEBUGGING, OCTETS
 18 .debug_str    0008c8d1  00000000  00000000  00040467  2**0
                  CONTENTS, READONLY, DEBUGGING, OCTETS
 19 .comment      00000043  00000000  00000000  000ccd38  2**0
                  CONTENTS, READONLY
 20 .debug_frame  00003f88  00000000  00000000  000ccd7c  2**2
                  CONTENTS, READONLY, DEBUGGING, OCTETS
 21 .debug_line_str 00000056  00000000  00000000  000d0d04  2**0
                  CONTENTS, READONLY, DEBUGGING, OCTETS

Disassembly of section .text:

08000110 <__do_global_dtors_aux>:
 8000110:	b510      	push	{r4, lr}
 8000112:	4c05      	ldr	r4, [pc, #20]	@ (8000128 <__do_global_dtors_aux+0x18>)
 8000114:	7823      	ldrb	r3, [r4, #0]
 8000116:	b933      	cbnz	r3, 8000126 <__do_global_dtors_aux+0x16>
 8000118:	4b04      	ldr	r3, [pc, #16]	@ (800012c <__do_global_dtors_aux+0x1c>)
 800011a:	b113      	cbz	r3, 8000122 <__do_global_dtors_aux+0x12>
 800011c:	4804      	ldr	r0, [pc, #16]	@ (8000130 <__do_global_dtors_aux+0x20>)
 800011e:	f3af 8000 	nop.w
 8000122:	2301      	movs	r3, #1
 8000124:	7023      	strb	r3, [r4, #0]
 8000126:	bd10      	pop	{r4, pc}
 8000128:	2000000c 	.word	0x2000000c
 800012c:	00000000 	.word	0x00000000
 8000130:	080042e8 	.word	0x080042e8

08000134 <frame_dummy>:
 8000134:	b508      	push	{r3, lr}
 8000136:	4b03      	ldr	r3, [pc, #12]	@ (8000144 <frame_dummy+0x10>)
 8000138:	b11b      	cbz	r3, 8000142 <frame_dummy+0xe>
 800013a:	4903      	ldr	r1, [pc, #12]	@ (8000148 <frame_dummy+0x14>)
 800013c:	4803      	ldr	r0, [pc, #12]	@ (800014c <frame_dummy+0x18>)
 800013e:	f3af 8000 	nop.w
 8000142:	bd08      	pop	{r3, pc}
 8000144:	00000000 	.word	0x00000000
 8000148:	20000010 	.word	0x20000010
 800014c:	080042e8 	.word	0x080042e8

08000150 <__aeabi_drsub>:
 8000150:	f081 4100 	eor.w	r1, r1, #2147483648	@ 0x80000000
 8000154:	e002      	b.n	800015c <__adddf3>
 8000156:	bf00      	nop

08000158 <__aeabi_dsub>:
 8000158:	f083 4300 	eor.w	r3, r3, #2147483648	@ 0x80000000

0800015c <__adddf3>:
 800015c:	b530      	push	{r4, r5, lr}
 800015e:	ea4f 0441 	mov.w	r4, r1, lsl #1
 8000162:	ea4f 0543 	mov.w	r5, r3, lsl #1
 8000166:	ea94 0f05 	teq	r4, r5
 800016a:	bf08      	it	eq
 800016c:	ea90 0f02 	teqeq	r0, r2
 8000170:	bf1f      	itttt	ne
 8000172:	ea54 0c00 	orrsne.w	ip, r4, r0
 8000176:	ea55 0c02 	orrsne.w	ip, r5, r2
 800017a:	ea7f 5c64 	mvnsne.w	ip, r4, asr #21
 800017e:	ea7f 5c65 	mvnsne.w	ip, r5, asr #21
 8000182:	f000 80e2 	beq.w	800034a <__adddf3+0x1ee>
 8000186:	ea4f 5454 	mov.w	r4, r4, lsr #21
 800018a:	ebd4 5555 	rsbs	r5, r4, r5, lsr #21
 800018e:	bfb8      	it	lt
 8000190:	426d      	neglt	r5, r5
 8000192:	dd0c      	ble.n	80001ae <__adddf3+0x52>
 8000194:	442c      	add	r4, r5
 8000196:	ea80 0202 	eor.w	r2, r0, r2
 800019a:	ea81 0303 	eor.w	r3, r1, r3
 800019e:	ea82 0000 	eor.w	r0, r2, r0
 80001a2:	ea83 0101 	eor.w	r1, r3, r1
 80001a6:	ea80 0202 	eor.w	r2, r0, r2
 80001aa:	ea81 0303 	eor.w	r3, r1, r3
 80001ae:	2d36      	cmp	r5, #54	@ 0x36
 80001b0:	bf88      	it	hi
 80001b2:	bd30      	pophi	{r4, r5, pc}
 80001b4:	f011 4f00 	tst.w	r1, #2147483648	@ 0x80000000
 80001b8:	ea4f 3101 	mov.w	r1, r1, lsl #12
 80001bc:	f44f 1c80 	mov.w	ip, #1048576	@ 0x100000
 80001c0:	ea4c 3111 	orr.w	r1, ip, r1, lsr #12
 80001c4:	d002      	beq.n	80001cc <__adddf3+0x70>
 80001c6:	4240      	negs	r0, r0
 80001c8:	eb61 0141 	sbc.w	r1, r1, r1, lsl #1
 80001cc:	f013 4f00 	tst.w	r3, #2147483648	@ 0x80000000
 80001d0:	ea4f 3303 	mov.w	r3, r3, lsl #12
 80001d4:	ea4c 3313 	orr.w	r3, ip, r3, lsr #12
 80001d8:	d002      	beq.n	80001e0 <__adddf3+0x84>
 80001da:	4252      	negs	r2, r2
 80001dc:	eb63 0343 	sbc.w	r3, r3, r3, lsl #1
 80001e0:	ea94 0f05 	teq	r4, r5
 80001e4:	f000 80a7 	beq.w	8000336 <__adddf3+0x1da>
 80001e8:	f1a4 0401 	sub.w	r4, r4, #1
 80001ec:	f1d5 0e20 	rsbs	lr, r5, #32
 80001f0:	db0d      	blt.n	800020e <__adddf3+0xb2>
 80001f2:	fa02 fc0e 	lsl.w	ip, r2, lr
 80001f6:	fa22 f205 	lsr.w	r2, r2, r5
 80001fa:	1880      	adds	r0, r0, r2
 80001fc:	f141 0100 	adc.w	r1, r1, #0
 8000200:	fa03 f20e 	lsl.w	r2, r3, lr
 8000204:	1880      	adds	r0, r0, r2
 8000206:	fa43 f305 	asr.w	r3, r3, r5
 800020a:	4159      	adcs	r1, r3
 800020c:	e00e      	b.n	800022c <__adddf3+0xd0>
 800020e:	f1a5 0520 	sub.w	r5, r5, #32
 8000212:	f10e 0e20 	add.w	lr, lr, #32
 8000216:	2a01      	cmp	r2, #1
 8000218:	fa03 fc0e 	lsl.w	ip, r3, lr
 800021c:	bf28      	it	cs
 800021e:	f04c 0c02 	orrcs.w	ip, ip, #2
 8000222:	fa43 f305 	asr.w	r3, r3, r5
 8000226:	18c0      	adds	r0, r0, r3
 8000228:	eb51 71e3 	adcs.w	r1, r1, r3, asr #31
 800022c:	f001 4500 	and.w	r5, r1, #2147483648	@ 0x80000000
 8000230:	d507      	bpl.n	8000242 <__adddf3+0xe6>
 8000232:	f04f 0e00 	mov.w	lr, #0
 8000236:	f1dc 0c00 	rsbs	ip, ip, #0
 800023a:	eb7e 0000 	sbcs.w	r0, lr, r0
 800023e:	eb6e 0101 	sbc.w	r1, lr, r1
 8000242:	f5b1 1f80 	cmp.w	r1, #1048576	@ 0x100000
 8000246:	d31b      	bcc.n	8000280 <__adddf3+0x124>
 8000248:	f5b1 1f00 	cmp.w	r1, #2097152	@ 0x200000
 800024c:	d30c      	bcc.n	8000268 <__adddf3+0x10c>
 800024e:	0849      	lsrs	r1, r1, #1
 8000250:	ea5f 0030 	movs.w	r0, r0, rrx
 8000254:	ea4f 0c3c 	mov.w	ip, ip, rrx
 8000258:	f104 0401 	add.w	r4, r4, #1
 800025c:	ea4f 5244 	mov.w	r2, r4, lsl #21
 8000260:	f512 0f80 	cmn.w	r2, #4194304	@ 0x400000
 8000264:	f080 809a 	bcs.w	800039c <__adddf3+0x240>
 8000268:	f1bc 4f00 	cmp.w	ip, #2147483648	@ 0x80000000
 800026c:	bf08      	it	eq
 800026e:	ea5f 0c50 	movseq.w	ip, r0, lsr #1
 8000272:	f150 0000 	adcs.w	r0, r0, #0
 8000276:	eb41 5104 	adc.w	r1, r1, r4, lsl #20
 800027a:	ea41 0105 	orr.w	r1, r1, r5
 800027e:	bd30      	pop	{r4, r5, pc}
 8000280:	ea5f 0c4c 	movs.w	ip, ip, lsl #1
 8000284:	4140      	adcs	r0, r0
 8000286:	eb41 0101 	adc.w	r1, r1, r1
 800028a:	3c01      	subs	r4, #1
 800028c:	bf28      	it	cs
 800028e:	f5b1 1f80 	cmpcs.w	r1, #1048576	@ 0x100000
 8000292:	d2e9      	bcs.n	8000268 <__adddf3+0x10c>
 8000294:	f091 0f00 	teq	r1, #0
 8000298:	bf04      	itt	eq
 800029a:	4601      	moveq	r1, r0
 800029c:	2000      	moveq	r0, #0
 800029e:	fab1 f381 	clz	r3, r1
 80002a2:	bf08      	it	eq
 80002a4:	3320      	addeq	r3, #32
 80002a6:	f1a3 030b 	sub.w	r3, r3, #11
 80002aa:	f1b3 0220 	subs.w	r2, r3, #32
 80002ae:	da0c      	bge.n	80002ca <__adddf3+0x16e>
 80002b0:	320c      	adds	r2, #12
 80002b2:	dd08      	ble.n	80002c6 <__adddf3+0x16a>
 80002b4:	f102 0c14 	add.w	ip, r2, #20
 80002b8:	f1c2 020c 	rsb	r2, r2, #12
 80002bc:	fa01 f00c 	lsl.w	r0, r1, ip
 80002c0:	fa21 f102 	lsr.w	r1, r1, r2
 80002c4:	e00c      	b.n	80002e0 <__adddf3+0x184>
 80002c6:	f102 0214 	add.w	r2, r2, #20
 80002ca:	bfd8      	it	le
 80002cc:	f1c2 0c20 	rsble	ip, r2, #32
 80002d0:	fa01 f102 	lsl.w	r1, r1, r2
 80002d4:	fa20 fc0c 	lsr.w	ip, r0, ip
 80002d8:	bfdc      	itt	le
 80002da:	ea41 010c 	orrle.w	r1, r1, ip
 80002de:	4090      	lslle	r0, r2
 80002e0:	1ae4      	subs	r4, r4, r3
 80002e2:	bfa2      	ittt	ge
 80002e4:	eb01 5104 	addge.w	r1, r1, r4, lsl #20
 80002e8:	4329      	orrge	r1, r5
 80002ea:	bd30      	popge	{r4, r5, pc}
 80002ec:	ea6f 0404 	mvn.w	r4, r4
 80002f0:	3c1f      	subs	r4, #31
 80002f2:	da1c      	bge.n	800032e <__adddf3+0x1d2>
 80002f4:	340c      	adds	r4, #12
 80002f6:	dc0e      	bgt.n	8000316 <__adddf3+0x1ba>
 80002f8:	f104 0414 	add.w	r4, r4, #20
 80002fc:	f1c4 0220 	rsb	r2, r4, #32
 8000300:	fa20 f004 	lsr.w	r0, r0, r4
 8000304:	fa01 f302 	lsl.w	r3, r1, r2
 8000308:	ea40 0003 	orr.w	r0, r0, r3
 800030c:	fa21 f304 	lsr.w	r3, r1, r4
 8000310:	ea45 0103 	orr.w	r1, r5, r3
 8000314:	bd30      	pop	{r4, r5, pc}
 8000316:	f1c4 040c 	rsb	r4, r4, #12
 800031a:	f1c4 0220 	rsb	r2, r4, #32
 800031e:	fa20 f002 	lsr.w	r0, r0, r2
 8000322:	fa01 f304 	lsl.w	r3, r1, r4
 8000326:	ea40 0003 	orr.w	r0, r0, r3
 800032a:	4629      	mov	r1, r5
 800032c:	bd30      	pop	{r4, r5, pc}
 800032e:	fa21 f004 	lsr.w	r0, r1, r4
 8000332:	4629      	mov	r1, r5
 8000334:	bd30      	pop	{r4, r5, pc}
 8000336:	f094 0f00 	teq	r4, #0
 800033a:	f483 1380 	eor.w	r3, r3, #1048576	@ 0x100000
 800033e:	bf06      	itte	eq
 8000340:	f481 1180 	eoreq.w	r1, r1, #1048576	@ 0x100000
 8000344:	3401      	addeq	r4, #1
 8000346:	3d01      	subne	r5, #1
 8000348:	e74e      	b.n	80001e8 <__adddf3+0x8c>
 800034a:	ea7f 5c64 	mvns.w	ip, r4, asr #21
 800034e:	bf18      	it	ne
 8000350:	ea7f 5c65 	mvnsne.w	ip, r5, asr #21
 8000354:	d029      	beq.n	80003aa <__adddf3+0x24e>
 8000356:	ea94 0f05 	teq	r4, r5
 800035a:	bf08      	it	eq
 800035c:	ea90 0f02 	teqeq	r0, r2
 8000360:	d005      	beq.n	800036e <__adddf3+0x212>
 8000362:	ea54 0c00 	orrs.w	ip, r4, r0
 8000366:	bf04      	itt	eq
 8000368:	4619      	moveq	r1, r3
 800036a:	4610      	moveq	r0, r2
 800036c:	bd30      	pop	{r4, r5, pc}
 800036e:	ea91 0f03 	teq	r1, r3
 8000372:	bf1e      	ittt	ne
 8000374:	2100      	movne	r1, #0
 8000376:	2000      	movne	r0, #0
 8000378:	bd30      	popne	{r4, r5, pc}
 800037a:	ea5f 5c54 	movs.w	ip, r4, lsr #21
 800037e:	d105      	bne.n	800038c <__adddf3+0x230>
 8000380:	0040      	lsls	r0, r0, #1
 8000382:	4149      	adcs	r1, r1
 8000384:	bf28      	it	cs
 8000386:	f041 4100 	orrcs.w	r1, r1, #2147483648	@ 0x80000000
 800038a:	bd30      	pop	{r4, r5, pc}
 800038c:	f514 0480 	adds.w	r4, r4, #4194304	@ 0x400000
 8000390:	bf3c      	itt	cc
 8000392:	f501 1180 	addcc.w	r1, r1, #1048576	@ 0x100000
 8000396:	bd30      	popcc	{r4, r5, pc}
 8000398:	f001 4500 	and.w	r5, r1, #2147483648	@ 0x80000000
 800039c:	f045 41fe 	orr.w	r1, r5, #2130706432	@ 0x7f000000
 80003a0:	f441 0170 	orr.w	r1, r1, #15728640	@ 0xf00000
 80003a4:	f04f 0000 	mov.w	r0, #0
 80003a8:	bd30      	pop	{r4, r5, pc}
 80003aa:	ea7f 5c64 	mvns.w	ip, r4, asr #21
 80003ae:	bf1a      	itte	ne
 80003b0:	4619      	movne	r1, r3
 80003b2:	4610      	movne	r0, r2
 80003b4:	ea7f 5c65 	mvnseq.w	ip, r5, asr #21
 80003b8:	bf1c      	itt	ne
 80003ba:	460b      	movne	r3, r1
 80003bc:	4602      	movne	r2, r0
 80003be:	ea50 3401 	orrs.w	r4, r0, r1, lsl #12
 80003c2:	bf06      	itte	eq
 80003c4:	ea52 3503 	orrseq.w	r5, r2, r3, lsl #12
 80003c8:	ea91 0f03 	teqeq	r1, r3
 80003cc:	f441 2100 	orrne.w	r1, r1, #524288	@ 0x80000
 80003d0:	bd30      	pop	{r4, r5, pc}
 80003d2:	bf00      	nop

080003d4 <__aeabi_ui2d>:
 80003d4:	f090 0f00 	teq	r0, #0
 80003d8:	bf04      	itt	eq
 80003da:	2100      	moveq	r1, #0
 80003dc:	4770      	bxeq	lr
 80003de:	b530      	push	{r4, r5, lr}
 80003e0:	f44f 6480 	mov.w	r4, #1024	@ 0x400
 80003e4:	f104 0432 	add.w	r4, r4, #50	@ 0x32
 80003e8:	f04f 0500 	mov.w	r5, #0
 80003ec:	f04f 0100 	mov.w	r1, #0
 80003f0:	e750      	b.n	8000294 <__adddf3+0x138>
 80003f2:	bf00      	nop

080003f4 <__aeabi_i2d>:
 80003f4:	f090 0f00 	teq	r0, #0
 80003f8:	bf04      	itt	eq
 80003fa:	2100      	moveq	r1, #0
 80003fc:	4770      	bxeq	lr
 80003fe:	b530      	push	{r4, r5, lr}
 8000400:	f44f 6480 	mov.w	r4, #1024	@ 0x400
 8000404:	f104 0432 	add.w	r4, r4, #50	@ 0x32
 8000408:	f010 4500 	ands.w	r5, r0, #2147483648	@ 0x80000000
 800040c:	bf48      	it	mi
 800040e:	4240      	negmi	r0, r0
 8000410:	f04f 0100 	mov.w	r1, #0
 8000414:	e73e      	b.n	8000294 <__adddf3+0x138>
 8000416:	bf00      	nop

08000418 <__aeabi_f2d>:
 8000418:	0042      	lsls	r2, r0, #1
 800041a:	ea4f 01e2 	mov.w	r1, r2, asr #3
 800041e:	ea4f 0131 	mov.w	r1, r1, rrx
 8000422:	ea4f 7002 	mov.w	r0, r2, lsl #28
 8000426:	bf1f      	itttt	ne
 8000428:	f012 437f 	andsne.w	r3, r2, #4278190080	@ 0xff000000
 800042c:	f093 4f7f 	teqne	r3, #4278190080	@ 0xff000000
 8000430:	f081 5160 	eorne.w	r1, r1, #939524096	@ 0x38000000
 8000434:	4770      	bxne	lr
 8000436:	f032 427f 	bics.w	r2, r2, #4278190080	@ 0xff000000
 800043a:	bf08      	it	eq
 800043c:	4770      	bxeq	lr
 800043e:	f093 4f7f 	teq	r3, #4278190080	@ 0xff000000
 8000442:	bf04      	itt	eq
 8000444:	f441 2100 	orreq.w	r1, r1, #524288	@ 0x80000
 8000448:	4770      	bxeq	lr
 800044a:	b530      	push	{r4, r5, lr}
 800044c:	f44f 7460 	mov.w	r4, #896	@ 0x380
 8000450:	f001 4500 	and.w	r5, r1, #2147483648	@ 0x80000000
 8000454:	f021 4100 	bic.w	r1, r1, #2147483648	@ 0x80000000
 8000458:	e71c      	b.n	8000294 <__adddf3+0x138>
 800045a:	bf00      	nop

0800045c <__aeabi_ul2d>:
 800045c:	ea50 0201 	orrs.w	r2, r0, r1
 8000460:	bf08      	it	eq
 8000462:	4770      	bxeq	lr
 8000464:	b530      	push	{r4, r5, lr}
 8000466:	f04f 0500 	mov.w	r5, #0
 800046a:	e00a      	b.n	8000482 <__aeabi_l2d+0x16>

0800046c <__aeabi_l2d>:
 800046c:	ea50 0201 	orrs.w	r2, r0, r1
 8000470:	bf08      	it	eq
 8000472:	4770      	bxeq	lr
 8000474:	b530      	push	{r4, r5, lr}
 8000476:	f011 4500 	ands.w	r5, r1, #2147483648	@ 0x80000000
 800047a:	d502      	bpl.n	8000482 <__aeabi_l2d+0x16>
 800047c:	4240      	negs	r0, r0
 800047e:	eb61 0141 	sbc.w	r1, r1, r1, lsl #1
 8000482:	f44f 6480 	mov.w	r4, #1024	@ 0x400
 8000486:	f104 0432 	add.w	r4, r4, #50	@ 0x32
 800048a:	ea5f 5c91 	movs.w	ip, r1, lsr #22
 800048e:	f43f aed8 	beq.w	8000242 <__adddf3+0xe6>
 8000492:	f04f 0203 	mov.w	r2, #3
 8000496:	ea5f 0cdc 	movs.w	ip, ip, lsr #3
 800049a:	bf18      	it	ne
 800049c:	3203      	addne	r2, #3
 800049e:	ea5f 0cdc 	movs.w	ip, ip, lsr #3
 80004a2:	bf18      	it	ne
 80004a4:	3203      	addne	r2, #3
 80004a6:	eb02 02dc 	add.w	r2, r2, ip, lsr #3
 80004aa:	f1c2 0320 	rsb	r3, r2, #32
 80004ae:	fa00 fc03 	lsl.w	ip, r0, r3
 80004b2:	fa20 f002 	lsr.w	r0, r0, r2
 80004b6:	fa01 fe03 	lsl.w	lr, r1, r3
 80004ba:	ea40 000e 	orr.w	r0, r0, lr
 80004be:	fa21 f102 	lsr.w	r1, r1, r2
 80004c2:	4414      	add	r4, r2
 80004c4:	e6bd      	b.n	8000242 <__adddf3+0xe6>
 80004c6:	bf00      	nop

080004c8 <__aeabi_dmul>:
 80004c8:	b570      	push	{r4, r5, r6, lr}
 80004ca:	f04f 0cff 	mov.w	ip, #255	@ 0xff
 80004ce:	f44c 6ce0 	orr.w	ip, ip, #1792	@ 0x700
 80004d2:	ea1c 5411 	ands.w	r4, ip, r1, lsr #20
 80004d6:	bf1d      	ittte	ne
 80004d8:	ea1c 5513 	andsne.w	r5, ip, r3, lsr #20
 80004dc:	ea94 0f0c 	teqne	r4, ip
 80004e0:	ea95 0f0c 	teqne	r5, ip
 80004e4:	f000 f8de 	bleq	80006a4 <__aeabi_dmul+0x1dc>
 80004e8:	442c      	add	r4, r5
 80004ea:	ea81 0603 	eor.w	r6, r1, r3
 80004ee:	ea21 514c 	bic.w	r1, r1, ip, lsl #21
 80004f2:	ea23 534c 	bic.w	r3, r3, ip, lsl #21
 80004f6:	ea50 3501 	orrs.w	r5, r0, r1, lsl #12
 80004fa:	bf18      	it	ne
 80004fc:	ea52 3503 	orrsne.w	r5, r2, r3, lsl #12
 8000500:	f441 1180 	orr.w	r1, r1, #1048576	@ 0x100000
 8000504:	f443 1380 	orr.w	r3, r3, #1048576	@ 0x100000
 8000508:	d038      	beq.n	800057c <__aeabi_dmul+0xb4>
 800050a:	fba0 ce02 	umull	ip, lr, r0, r2
 800050e:	f04f 0500 	mov.w	r5, #0
 8000512:	fbe1 e502 	umlal	lr, r5, r1, r2
 8000516:	f006 4200 	and.w	r2, r6, #2147483648	@ 0x80000000
 800051a:	fbe0 e503 	umlal	lr, r5, r0, r3
 800051e:	f04f 0600 	mov.w	r6, #0
 8000522:	fbe1 5603 	umlal	r5, r6, r1, r3
 8000526:	f09c 0f00 	teq	ip, #0
 800052a:	bf18      	it	ne
 800052c:	f04e 0e01 	orrne.w	lr, lr, #1
 8000530:	f1a4 04ff 	sub.w	r4, r4, #255	@ 0xff
 8000534:	f5b6 7f00 	cmp.w	r6, #512	@ 0x200
 8000538:	f564 7440 	sbc.w	r4, r4, #768	@ 0x300
 800053c:	d204      	bcs.n	8000548 <__aeabi_dmul+0x80>
 800053e:	ea5f 0e4e 	movs.w	lr, lr, lsl #1
 8000542:	416d      	adcs	r5, r5
 8000544:	eb46 0606 	adc.w	r6, r6, r6
 8000548:	ea42 21c6 	orr.w	r1, r2, r6, lsl #11
 800054c:	ea41 5155 	orr.w	r1, r1, r5, lsr #21
 8000550:	ea4f 20c5 	mov.w	r0, r5, lsl #11
 8000554:	ea40 505e 	orr.w	r0, r0, lr, lsr #21
 8000558:	ea4f 2ece 	mov.w	lr, lr, lsl #11
 800055c:	f1b4 0cfd 	subs.w	ip, r4, #253	@ 0xfd
 8000560:	bf88      	it	hi
 8000562:	f5bc 6fe0 	cmphi.w	ip, #1792	@ 0x700
 8000566:	d81e      	bhi.n	80005a6 <__aeabi_dmul+0xde>
 8000568:	f1be 4f00 	cmp.w	lr, #2147483648	@ 0x80000000
 800056c:	bf08      	it	eq
 800056e:	ea5f 0e50 	movseq.w	lr, r0, lsr #1
 8000572:	f150 0000 	adcs.w	r0, r0, #0
 8000576:	eb41 5104 	adc.w	r1, r1, r4, lsl #20
 800057a:	bd70      	pop	{r4, r5, r6, pc}
 800057c:	f006 4600 	and.w	r6, r6, #2147483648	@ 0x80000000
 8000580:	ea46 0101 	orr.w	r1, r6, r1
 8000584:	ea40 0002 	orr.w	r0, r0, r2
 8000588:	ea81 0103 	eor.w	r1, r1, r3
 800058c:	ebb4 045c 	subs.w	r4, r4, ip, lsr #1
 8000590:	bfc2      	ittt	gt
 8000592:	ebd4 050c 	rsbsgt	r5, r4, ip
 8000596:	ea41 5104 	orrgt.w	r1, r1, r4, lsl #20
 800059a:	bd70      	popgt	{r4, r5, r6, pc}
 800059c:	f441 1180 	orr.w	r1, r1, #1048576	@ 0x100000
 80005a0:	f04f 0e00 	mov.w	lr, #0
 80005a4:	3c01      	subs	r4, #1
 80005a6:	f300 80ab 	bgt.w	8000700 <__aeabi_dmul+0x238>
 80005aa:	f114 0f36 	cmn.w	r4, #54	@ 0x36
 80005ae:	bfde      	ittt	le
 80005b0:	2000      	movle	r0, #0
 80005b2:	f001 4100 	andle.w	r1, r1, #2147483648	@ 0x80000000
 80005b6:	bd70      	pople	{r4, r5, r6, pc}
 80005b8:	f1c4 0400 	rsb	r4, r4, #0
 80005bc:	3c20      	subs	r4, #32
 80005be:	da35      	bge.n	800062c <__aeabi_dmul+0x164>
 80005c0:	340c      	adds	r4, #12
 80005c2:	dc1b      	bgt.n	80005fc <__aeabi_dmul+0x134>
 80005c4:	f104 0414 	add.w	r4, r4, #20
 80005c8:	f1c4 0520 	rsb	r5, r4, #32
 80005cc:	fa00 f305 	lsl.w	r3, r0, r5
 80005d0:	fa20 f004 	lsr.w	r0, r0, r4
 80005d4:	fa01 f205 	lsl.w	r2, r1, r5
 80005d8:	ea40 0002 	orr.w	r0, r0, r2
 80005dc:	f001 4200 	and.w	r2, r1, #2147483648	@ 0x80000000
 80005e0:	f021 4100 	bic.w	r1, r1, #2147483648	@ 0x80000000
 80005e4:	eb10 70d3 	adds.w	r0, r0, r3, lsr #31
 80005e8:	fa21 f604 	lsr.w	r6, r1, r4
 80005ec:	eb42 0106 	adc.w	r1, r2, r6
 80005f0:	ea5e 0e43 	orrs.w	lr, lr, r3, lsl #1
 80005f4:	bf08      	it	eq
 80005f6:	ea20 70d3 	biceq.w	r0, r0, r3, lsr #31
 80005fa:	bd70      	pop	{r4, r5, r6, pc}
 80005fc:	f1c4 040c 	rsb	r4, r4, #12
 8000600:	f1c4 0520 	rsb	r5, r4, #32
 8000604:	fa00 f304 	lsl.w	r3, r0, r4
 8000608:	fa20 f005 	lsr.w	r0, r0, r5
 800060c:	fa01 f204 	lsl.w	r2, r1, r4
 8000610:	ea40 0002 	orr.w	r0, r0, r2
 8000614:	f001 4100 	and.w	r1, r1, #2147483648	@ 0x80000000
 8000618:	eb10 70d3 	adds.w	r0, r0, r3, lsr #31
 800061c:	f141 0100 	adc.w	r1, r1, #0
 8000620:	ea5e 0e43 	orrs.w	lr, lr, r3, lsl #1
 8000624:	bf08      	it	eq
 8000626:	ea20 70d3 	biceq.w	r0, r0, r3, lsr #31
 800062a:	bd70      	pop	{r4, r5, r6, pc}
 800062c:	f1c4 0520 	rsb	r5, r4, #32
 8000630:	fa00 f205 	lsl.w	r2, r0, r5
 8000634:	ea4e 0e02 	orr.w	lr, lr, r2
 8000638:	fa20 f304 	lsr.w	r3, r0, r4
 800063c:	fa01 f205 	lsl.w	r2, r1, r5
 8000640:	ea43 0302 	orr.w	r3, r3, r2
 8000644:	fa21 f004 	lsr.w	r0, r1, r4
 8000648:	f001 4100 	and.w	r1, r1, #2147483648	@ 0x80000000
 800064c:	fa21 f204 	lsr.w	r2, r1, r4
 8000650:	ea20 0002 	bic.w	r0, r0, r2
 8000654:	eb00 70d3 	add.w	r0, r0, r3, lsr #31
 8000658:	ea5e 0e43 	orrs.w	lr, lr, r3, lsl #1
 800065c:	bf08      	it	eq
 800065e:	ea20 70d3 	biceq.w	r0, r0, r3, lsr #31
 8000662:	bd70      	pop	{r4, r5, r6, pc}
 8000664:	f094 0f00 	teq	r4, #0
 8000668:	d10f      	bne.n	800068a <__aeabi_dmul+0x1c2>
 800066a:	f001 4600 	and.w	r6, r1, #2147483648	@ 0x80000000
 800066e:	0040      	lsls	r0, r0, #1
 8000670:	eb41 0101 	adc.w	r1, r1, r1
 8000674:	f411 1f80 	tst.w	r1, #1048576	@ 0x100000
 8000678:	bf08      	it	eq
 800067a:	3c01      	subeq	r4, #1
 800067c:	d0f7      	beq.n	800066e <__aeabi_dmul+0x1a6>
 800067e:	ea41 0106 	orr.w	r1, r1, r6
 8000682:	f095 0f00 	teq	r5, #0
 8000686:	bf18      	it	ne
 8000688:	4770      	bxne	lr
 800068a:	f003 4600 	and.w	r6, r3, #2147483648	@ 0x80000000
 800068e:	0052      	lsls	r2, r2, #1
 8000690:	eb43 0303 	adc.w	r3, r3, r3
 8000694:	f413 1f80 	tst.w	r3, #1048576	@ 0x100000
 8000698:	bf08      	it	eq
 800069a:	3d01      	subeq	r5, #1
 800069c:	d0f7      	beq.n	800068e <__aeabi_dmul+0x1c6>
 800069e:	ea43 0306 	orr.w	r3, r3, r6
 80006a2:	4770      	bx	lr
 80006a4:	ea94 0f0c 	teq	r4, ip
 80006a8:	ea0c 5513 	and.w	r5, ip, r3, lsr #20
 80006ac:	bf18      	it	ne
 80006ae:	ea95 0f0c 	teqne	r5, ip
 80006b2:	d00c      	beq.n	80006ce <__aeabi_dmul+0x206>
 80006b4:	ea50 0641 	orrs.w	r6, r0, r1, lsl #1
 80006b8:	bf18      	it	ne
 80006ba:	ea52 0643 	orrsne.w	r6, r2, r3, lsl #1
 80006be:	d1d1      	bne.n	8000664 <__aeabi_dmul+0x19c>
 80006c0:	ea81 0103 	eor.w	r1, r1, r3
 80006c4:	f001 4100 	and.w	r1, r1, #2147483648	@ 0x80000000
 80006c8:	f04f 0000 	mov.w	r0, #0
 80006cc:	bd70      	pop	{r4, r5, r6, pc}
 80006ce:	ea50 0641 	orrs.w	r6, r0, r1, lsl #1
 80006d2:	bf06      	itte	eq
 80006d4:	4610      	moveq	r0, r2
 80006d6:	4619      	moveq	r1, r3
 80006d8:	ea52 0643 	orrsne.w	r6, r2, r3, lsl #1
 80006dc:	d019      	beq.n	8000712 <__aeabi_dmul+0x24a>
 80006de:	ea94 0f0c 	teq	r4, ip
 80006e2:	d102      	bne.n	80006ea <__aeabi_dmul+0x222>
 80006e4:	ea50 3601 	orrs.w	r6, r0, r1, lsl #12
 80006e8:	d113      	bne.n	8000712 <__aeabi_dmul+0x24a>
 80006ea:	ea95 0f0c 	teq	r5, ip
 80006ee:	d105      	bne.n	80006fc <__aeabi_dmul+0x234>
 80006f0:	ea52 3603 	orrs.w	r6, r2, r3, lsl #12
 80006f4:	bf1c      	itt	ne
 80006f6:	4610      	movne	r0, r2
 80006f8:	4619      	movne	r1, r3
 80006fa:	d10a      	bne.n	8000712 <__aeabi_dmul+0x24a>
 80006fc:	ea81 0103 	eor.w	r1, r1, r3
 8000700:	f001 4100 	and.w	r1, r1, #2147483648	@ 0x80000000
 8000704:	f041 41fe 	orr.w	r1, r1, #2130706432	@ 0x7f000000
 8000708:	f441 0170 	orr.w	r1, r1, #15728640	@ 0xf00000
 800070c:	f04f 0000 	mov.w	r0, #0
 8000710:	bd70      	pop	{r4, r5, r6, pc}
 8000712:	f041 41fe 	orr.w	r1, r1, #2130706432	@ 0x7f000000
 8000716:	f441 0178 	orr.w	r1, r1, #16252928	@ 0xf80000
 800071a:	bd70      	pop	{r4, r5, r6, pc}

0800071c <__aeabi_ddiv>:
 800071c:	b570      	push	{r4, r5, r6, lr}
 800071e:	f04f 0cff 	mov.w	ip, #255	@ 0xff
 8000722:	f44c 6ce0 	orr.w	ip, ip, #1792	@ 0x700
 8000726:	ea1c 5411 	ands.w	r4, ip, r1, lsr #20
 800072a:	bf1d      	ittte	ne
 800072c:	ea1c 5513 	andsne.w	r5, ip, r3, lsr #20
 8000730:	ea94 0f0c 	teqne	r4, ip
 8000734:	ea95 0f0c 	teqne	r5, ip
 8000738:	f000 f8a7 	bleq	800088a <__aeabi_ddiv+0x16e>
 800073c:	eba4 0405 	sub.w	r4, r4, r5
 8000740:	ea81 0e03 	eor.w	lr, r1, r3
 8000744:	ea52 3503 	orrs.w	r5, r2, r3, lsl #12
 8000748:	ea4f 3101 	mov.w	r1, r1, lsl #12
 800074c:	f000 8088 	beq.w	8000860 <__aeabi_ddiv+0x144>
 8000750:	ea4f 3303 	mov.w	r3, r3, lsl #12
 8000754:	f04f 5580 	mov.w	r5, #268435456	@ 0x10000000
 8000758:	ea45 1313 	orr.w	r3, r5, r3, lsr #4
 800075c:	ea43 6312 	orr.w	r3, r3, r2, lsr #24
 8000760:	ea4f 2202 	mov.w	r2, r2, lsl #8
 8000764:	ea45 1511 	orr.w	r5, r5, r1, lsr #4
 8000768:	ea45 6510 	orr.w	r5, r5, r0, lsr #24
 800076c:	ea4f 2600 	mov.w	r6, r0, lsl #8
 8000770:	f00e 4100 	and.w	r1, lr, #2147483648	@ 0x80000000
 8000774:	429d      	cmp	r5, r3
 8000776:	bf08      	it	eq
 8000778:	4296      	cmpeq	r6, r2
 800077a:	f144 04fd 	adc.w	r4, r4, #253	@ 0xfd
 800077e:	f504 7440 	add.w	r4, r4, #768	@ 0x300
 8000782:	d202      	bcs.n	800078a <__aeabi_ddiv+0x6e>
 8000784:	085b      	lsrs	r3, r3, #1
 8000786:	ea4f 0232 	mov.w	r2, r2, rrx
 800078a:	1ab6      	subs	r6, r6, r2
 800078c:	eb65 0503 	sbc.w	r5, r5, r3
 8000790:	085b      	lsrs	r3, r3, #1
 8000792:	ea4f 0232 	mov.w	r2, r2, rrx
 8000796:	f44f 1080 	mov.w	r0, #1048576	@ 0x100000
 800079a:	f44f 2c00 	mov.w	ip, #524288	@ 0x80000
 800079e:	ebb6 0e02 	subs.w	lr, r6, r2
 80007a2:	eb75 0e03 	sbcs.w	lr, r5, r3
 80007a6:	bf22      	ittt	cs
 80007a8:	1ab6      	subcs	r6, r6, r2
 80007aa:	4675      	movcs	r5, lr
 80007ac:	ea40 000c 	orrcs.w	r0, r0, ip
 80007b0:	085b      	lsrs	r3, r3, #1
 80007b2:	ea4f 0232 	mov.w	r2, r2, rrx
 80007b6:	ebb6 0e02 	subs.w	lr, r6, r2
 80007ba:	eb75 0e03 	sbcs.w	lr, r5, r3
 80007be:	bf22      	ittt	cs
 80007c0:	1ab6      	subcs	r6, r6, r2
 80007c2:	4675      	movcs	r5, lr
 80007c4:	ea40 005c 	orrcs.w	r0, r0, ip, lsr #1
 80007c8:	085b      	lsrs	r3, r3, #1
 80007ca:	ea4f 0232 	mov.w	r2, r2, rrx
 80007ce:	ebb6 0e02 	subs.w	lr, r6, r2
 80007d2:	eb75 0e03 	sbcs.w	lr, r5, r3
 80007d6:	bf22      	ittt	cs
 80007d8:	1ab6      	subcs	r6, r6, r2
 80007da:	4675      	movcs	r5, lr
 80007dc:	ea40 009c 	orrcs.w	r0, r0, ip, lsr #2
 80007e0:	085b      	lsrs	r3, r3, #1
 80007e2:	ea4f 0232 	mov.w	r2, r2, rrx
 80007e6:	ebb6 0e02 	subs.w	lr, r6, r2
 80007ea:	eb75 0e03 	sbcs.w	lr, r5, r3
 80007ee:	bf22      	ittt	cs
 80007f0:	1ab6      	subcs	r6, r6, r2
 80007f2:	4675      	movcs	r5, lr
 80007f4:	ea40 00dc 	orrcs.w	r0, r0, ip, lsr #3
 80007f8:	ea55 0e06 	orrs.w	lr, r5, r6
 80007fc:	d018      	beq.n	8000830 <__aeabi_ddiv+0x114>
 80007fe:	ea4f 1505 	mov.w	r5, r5, lsl #4
 8000802:	ea45 7516 	orr.w	r5, r5, r6, lsr #28
 8000806:	ea4f 1606 	mov.w	r6, r6, lsl #4
 800080a:	ea4f 03c3 	mov.w	r3, r3, lsl #3
 800080e:	ea43 7352 	orr.w	r3, r3, r2, lsr #29
 8000812:	ea4f 02c2 	mov.w	r2, r2, lsl #3
 8000816:	ea5f 1c1c 	movs.w	ip, ip, lsr #4
 800081a:	d1c0      	bne.n	800079e <__aeabi_ddiv+0x82>
 800081c:	f411 1f80 	tst.w	r1, #1048576	@ 0x100000
 8000820:	d10b      	bne.n	800083a <__aeabi_ddiv+0x11e>
 8000822:	ea41 0100 	orr.w	r1, r1, r0
 8000826:	f04f 0000 	mov.w	r0, #0
 800082a:	f04f 4c00 	mov.w	ip, #2147483648	@ 0x80000000
 800082e:	e7b6      	b.n	800079e <__aeabi_ddiv+0x82>
 8000830:	f411 1f80 	tst.w	r1, #1048576	@ 0x100000
 8000834:	bf04      	itt	eq
 8000836:	4301      	orreq	r1, r0
 8000838:	2000      	moveq	r0, #0
 800083a:	f1b4 0cfd 	subs.w	ip, r4, #253	@ 0xfd
 800083e:	bf88      	it	hi
 8000840:	f5bc 6fe0 	cmphi.w	ip, #1792	@ 0x700
 8000844:	f63f aeaf 	bhi.w	80005a6 <__aeabi_dmul+0xde>
 8000848:	ebb5 0c03 	subs.w	ip, r5, r3
 800084c:	bf04      	itt	eq
 800084e:	ebb6 0c02 	subseq.w	ip, r6, r2
 8000852:	ea5f 0c50 	movseq.w	ip, r0, lsr #1
 8000856:	f150 0000 	adcs.w	r0, r0, #0
 800085a:	eb41 5104 	adc.w	r1, r1, r4, lsl #20
 800085e:	bd70      	pop	{r4, r5, r6, pc}
 8000860:	f00e 4e00 	and.w	lr, lr, #2147483648	@ 0x80000000
 8000864:	ea4e 3111 	orr.w	r1, lr, r1, lsr #12
 8000868:	eb14 045c 	adds.w	r4, r4, ip, lsr #1
 800086c:	bfc2      	ittt	gt
 800086e:	ebd4 050c 	rsbsgt	r5, r4, ip
 8000872:	ea41 5104 	orrgt.w	r1, r1, r4, lsl #20
 8000876:	bd70      	popgt	{r4, r5, r6, pc}
 8000878:	f441 1180 	orr.w	r1, r1, #1048576	@ 0x100000
 800087c:	f04f 0e00 	mov.w	lr, #0
 8000880:	3c01      	subs	r4, #1
 8000882:	e690      	b.n	80005a6 <__aeabi_dmul+0xde>
 8000884:	ea45 0e06 	orr.w	lr, r5, r6
 8000888:	e68d      	b.n	80005a6 <__aeabi_dmul+0xde>
 800088a:	ea0c 5513 	and.w	r5, ip, r3, lsr #20
 800088e:	ea94 0f0c 	teq	r4, ip
 8000892:	bf08      	it	eq
 8000894:	ea95 0f0c 	teqeq	r5, ip
 8000898:	f43f af3b 	beq.w	8000712 <__aeabi_dmul+0x24a>
 800089c:	ea94 0f0c 	teq	r4, ip
 80008a0:	d10a      	bne.n	80008b8 <__aeabi_ddiv+0x19c>
 80008a2:	ea50 3401 	orrs.w	r4, r0, r1, lsl #12
 80008a6:	f47f af34 	bne.w	8000712 <__aeabi_dmul+0x24a>
 80008aa:	ea95 0f0c 	teq	r5, ip
 80008ae:	f47f af25 	bne.w	80006fc <__aeabi_dmul+0x234>
 80008b2:	4610      	mov	r0, r2
 80008b4:	4619      	mov	r1, r3
 80008b6:	e72c      	b.n	8000712 <__aeabi_dmul+0x24a>
 80008b8:	ea95 0f0c 	teq	r5, ip
 80008bc:	d106      	bne.n	80008cc <__aeabi_ddiv+0x1b0>
 80008be:	ea52 3503 	orrs.w	r5, r2, r3, lsl #12
 80008c2:	f43f aefd 	beq.w	80006c0 <__aeabi_dmul+0x1f8>
 80008c6:	4610      	mov	r0, r2
 80008c8:	4619      	mov	r1, r3
 80008ca:	e722      	b.n	8000712 <__aeabi_dmul+0x24a>
 80008cc:	ea50 0641 	orrs.w	r6, r0, r1, lsl #1
 80008d0:	bf18      	it	ne
 80008d2:	ea52 0643 	orrsne.w	r6, r2, r3, lsl #1
 80008d6:	f47f aec5 	bne.w	8000664 <__aeabi_dmul+0x19c>
 80008da:	ea50 0441 	orrs.w	r4, r0, r1, lsl #1
 80008de:	f47f af0d 	bne.w	80006fc <__aeabi_dmul+0x234>
 80008e2:	ea52 0543 	orrs.w	r5, r2, r3, lsl #1
 80008e6:	f47f aeeb 	bne.w	80006c0 <__aeabi_dmul+0x1f8>
 80008ea:	e712      	b.n	8000712 <__aeabi_dmul+0x24a>

080008ec <__aeabi_d2uiz>:
 80008ec:	004a      	lsls	r2, r1, #1
 80008ee:	d211      	bcs.n	8000914 <__aeabi_d2uiz+0x28>
 80008f0:	f512 1200 	adds.w	r2, r2, #2097152	@ 0x200000
 80008f4:	d211      	bcs.n	800091a <__aeabi_d2uiz+0x2e>
 80008f6:	d50d      	bpl.n	8000914 <__aeabi_d2uiz+0x28>
 80008f8:	f46f 7378 	mvn.w	r3, #992	@ 0x3e0
 80008fc:	ebb3 5262 	subs.w	r2, r3, r2, asr #21
 8000900:	d40e      	bmi.n	8000920 <__aeabi_d2uiz+0x34>
 8000902:	ea4f 23c1 	mov.w	r3, r1, lsl #11
 8000906:	f043 4300 	orr.w	r3, r3, #2147483648	@ 0x80000000
 800090a:	ea43 5350 	orr.w	r3, r3, r0, lsr #21
 800090e:	fa23 f002 	lsr.w	r0, r3, r2
 8000912:	4770      	bx	lr
 8000914:	f04f 0000 	mov.w	r0, #0
 8000918:	4770      	bx	lr
 800091a:	ea50 3001 	orrs.w	r0, r0, r1, lsl #12
 800091e:	d102      	bne.n	8000926 <__aeabi_d2uiz+0x3a>
 8000920:	f04f 30ff 	mov.w	r0, #4294967295
 8000924:	4770      	bx	lr
 8000926:	f04f 0000 	mov.w	r0, #0
 800092a:	4770      	bx	lr
 800092c:	0000      	movs	r0, r0
	...

08000930 <main>:
/**
  * @brief  The application entry point.
  * @retval int
  */
int main(void)
{
 8000930:	b598      	push	{r3, r4, r7, lr}
 8000932:	af00      	add	r7, sp, #0
  /* USER CODE END 1 */

  /* MCU Configuration--------------------------------------------------------*/

  /* Reset of all peripherals, Initializes the Flash interface and the Systick. */
  HAL_Init();
 8000934:	f000 fcf2 	bl	800131c <HAL_Init>
  /* USER CODE BEGIN Init */

  /* USER CODE END Init */

  /* Configure the system clock */
  SystemClock_Config();
 8000938:	f000 f85e 	bl	80009f8 <SystemClock_Config>
  /* USER CODE BEGIN SysInit */

  /* USER CODE END SysInit */

  /* Initialize all configured peripherals */
  MX_GPIO_Init();
 800093c:	f000 fa04 	bl	8000d48 <MX_GPIO_Init>
  MX_TIM3_Init();
 8000940:	f000 f91c 	bl	8000b7c <MX_TIM3_Init>
  MX_USART1_UART_Init();
 8000944:	f000 f9d6 	bl	8000cf4 <MX_USART1_UART_Init>
  MX_TIM1_Init();
 8000948:	f000 f8c6 	bl	8000ad8 <MX_TIM1_Init>
  MX_I2C1_Init();
 800094c:	f000 f896 	bl	8000a7c <MX_I2C1_Init>
  MX_TIM4_Init();
 8000950:	f000 f96c 	bl	8000c2c <MX_TIM4_Init>
  /* USER CODE BEGIN 2 */
  init_all();
 8000954:	f000 fa7c 	bl	8000e50 <init_all>

  /* Infinite loop */
  /* USER CODE BEGIN WHILE */
  while (1)
  {
	  HAL_GPIO_WritePin(GPIOB, GPIO_PIN_10, 1  );
 8000958:	2201      	movs	r2, #1
 800095a:	f44f 6180 	mov.w	r1, #1024	@ 0x400
 800095e:	4822      	ldr	r0, [pc, #136]	@ (80009e8 <main+0xb8>)
 8000960:	f000 ffd0 	bl	8001904 <HAL_GPIO_WritePin>
//	  HAL_GPIO_WritePin(GPIOB, GPIO_PIN_11, 1);
	  HAL_GPIO_WritePin(GPIOB, GPIO_PIN_5, 0);
 8000964:	2200      	movs	r2, #0
 8000966:	2120      	movs	r1, #32
 8000968:	481f      	ldr	r0, [pc, #124]	@ (80009e8 <main+0xb8>)
 800096a:	f000 ffcb 	bl	8001904 <HAL_GPIO_WritePin>
//	  HAL_GPIO_WritePin(GPIOB, GPIO_PIN_7, 0);
	  HAL_GPIO_WritePin(GPIOA, GPIO_PIN_6, 1);
 800096e:	2201      	movs	r2, #1
 8000970:	2140      	movs	r1, #64	@ 0x40
 8000972:	481e      	ldr	r0, [pc, #120]	@ (80009ec <main+0xbc>)
 8000974:	f000 ffc6 	bl	8001904 <HAL_GPIO_WritePin>
	  HAL_GPIO_WritePin(GPIOA, GPIO_PIN_7, 0);
 8000978:	2200      	movs	r2, #0
 800097a:	2180      	movs	r1, #128	@ 0x80
 800097c:	481b      	ldr	r0, [pc, #108]	@ (80009ec <main+0xbc>)
 800097e:	f000 ffc1 	bl	8001904 <HAL_GPIO_WritePin>
	  htim3.Instance->CCR1 = (htim3.Instance->ARR)*0.6;
 8000982:	4b1b      	ldr	r3, [pc, #108]	@ (80009f0 <main+0xc0>)
 8000984:	681b      	ldr	r3, [r3, #0]
 8000986:	6adb      	ldr	r3, [r3, #44]	@ 0x2c
 8000988:	4618      	mov	r0, r3
 800098a:	f7ff fd23 	bl	80003d4 <__aeabi_ui2d>
 800098e:	a314      	add	r3, pc, #80	@ (adr r3, 80009e0 <main+0xb0>)
 8000990:	e9d3 2300 	ldrd	r2, r3, [r3]
 8000994:	f7ff fd98 	bl	80004c8 <__aeabi_dmul>
 8000998:	4602      	mov	r2, r0
 800099a:	460b      	mov	r3, r1
 800099c:	4914      	ldr	r1, [pc, #80]	@ (80009f0 <main+0xc0>)
 800099e:	680c      	ldr	r4, [r1, #0]
 80009a0:	4610      	mov	r0, r2
 80009a2:	4619      	mov	r1, r3
 80009a4:	f7ff ffa2 	bl	80008ec <__aeabi_d2uiz>
 80009a8:	4603      	mov	r3, r0
 80009aa:	6363      	str	r3, [r4, #52]	@ 0x34
	  htim4.Instance->CCR2 = (htim4.Instance->ARR)*0.6;
 80009ac:	4b11      	ldr	r3, [pc, #68]	@ (80009f4 <main+0xc4>)
 80009ae:	681b      	ldr	r3, [r3, #0]
 80009b0:	6adb      	ldr	r3, [r3, #44]	@ 0x2c
 80009b2:	4618      	mov	r0, r3
 80009b4:	f7ff fd0e 	bl	80003d4 <__aeabi_ui2d>
 80009b8:	a309      	add	r3, pc, #36	@ (adr r3, 80009e0 <main+0xb0>)
 80009ba:	e9d3 2300 	ldrd	r2, r3, [r3]
 80009be:	f7ff fd83 	bl	80004c8 <__aeabi_dmul>
 80009c2:	4602      	mov	r2, r0
 80009c4:	460b      	mov	r3, r1
 80009c6:	490b      	ldr	r1, [pc, #44]	@ (80009f4 <main+0xc4>)
 80009c8:	680c      	ldr	r4, [r1, #0]
 80009ca:	4610      	mov	r0, r2
 80009cc:	4619      	mov	r1, r3
 80009ce:	f7ff ff8d 	bl	80008ec <__aeabi_d2uiz>
 80009d2:	4603      	mov	r3, r0
 80009d4:	63a3      	str	r3, [r4, #56]	@ 0x38
	  HAL_GPIO_WritePin(GPIOB, GPIO_PIN_10, 1  );
 80009d6:	bf00      	nop
 80009d8:	e7be      	b.n	8000958 <main+0x28>
 80009da:	bf00      	nop
 80009dc:	f3af 8000 	nop.w
 80009e0:	33333333 	.word	0x33333333
 80009e4:	3fe33333 	.word	0x3fe33333
 80009e8:	40010c00 	.word	0x40010c00
 80009ec:	40010800 	.word	0x40010800
 80009f0:	200000c4 	.word	0x200000c4
 80009f4:	2000010c 	.word	0x2000010c

080009f8 <SystemClock_Config>:
/**
  * @brief System Clock Configuration
  * @retval None
  */
void SystemClock_Config(void)
{
 80009f8:	b580      	push	{r7, lr}
 80009fa:	b090      	sub	sp, #64	@ 0x40
 80009fc:	af00      	add	r7, sp, #0
  RCC_OscInitTypeDef RCC_OscInitStruct = {0};
 80009fe:	f107 0318 	add.w	r3, r7, #24
 8000a02:	2228      	movs	r2, #40	@ 0x28
 8000a04:	2100      	movs	r1, #0
 8000a06:	4618      	mov	r0, r3
 8000a08:	f003 fc42 	bl	8004290 <memset>
  RCC_ClkInitTypeDef RCC_ClkInitStruct = {0};
 8000a0c:	1d3b      	adds	r3, r7, #4
 8000a0e:	2200      	movs	r2, #0
 8000a10:	601a      	str	r2, [r3, #0]
 8000a12:	605a      	str	r2, [r3, #4]
 8000a14:	609a      	str	r2, [r3, #8]
 8000a16:	60da      	str	r2, [r3, #12]
 8000a18:	611a      	str	r2, [r3, #16]

  /** Initializes the RCC Oscillators according to the specified parameters
  * in the RCC_OscInitTypeDef structure.
  */
  RCC_OscInitStruct.OscillatorType = RCC_OSCILLATORTYPE_HSI;
 8000a1a:	2302      	movs	r3, #2
 8000a1c:	61bb      	str	r3, [r7, #24]
  RCC_OscInitStruct.HSIState = RCC_HSI_ON;
 8000a1e:	2301      	movs	r3, #1
 8000a20:	62bb      	str	r3, [r7, #40]	@ 0x28
  RCC_OscInitStruct.HSICalibrationValue = RCC_HSICALIBRATION_DEFAULT;
 8000a22:	2310      	movs	r3, #16
 8000a24:	62fb      	str	r3, [r7, #44]	@ 0x2c
  RCC_OscInitStruct.PLL.PLLState = RCC_PLL_ON;
 8000a26:	2302      	movs	r3, #2
 8000a28:	637b      	str	r3, [r7, #52]	@ 0x34
  RCC_OscInitStruct.PLL.PLLSource = RCC_PLLSOURCE_HSI_DIV2;
 8000a2a:	2300      	movs	r3, #0
 8000a2c:	63bb      	str	r3, [r7, #56]	@ 0x38
  RCC_OscInitStruct.PLL.PLLMUL = RCC_PLL_MUL16;
 8000a2e:	f44f 1360 	mov.w	r3, #3670016	@ 0x380000
 8000a32:	63fb      	str	r3, [r7, #60]	@ 0x3c
  if (HAL_RCC_OscConfig(&RCC_OscInitStruct) != HAL_OK)
 8000a34:	f107 0318 	add.w	r3, r7, #24
 8000a38:	4618      	mov	r0, r3
 8000a3a:	f001 ffd5 	bl	80029e8 <HAL_RCC_OscConfig>
 8000a3e:	4603      	mov	r3, r0
 8000a40:	2b00      	cmp	r3, #0
 8000a42:	d001      	beq.n	8000a48 <SystemClock_Config+0x50>
  {
    Error_Handler();
 8000a44:	f000 fa1e 	bl	8000e84 <Error_Handler>
  }

  /** Initializes the CPU, AHB and APB buses clocks
  */
  RCC_ClkInitStruct.ClockType = RCC_CLOCKTYPE_HCLK|RCC_CLOCKTYPE_SYSCLK
 8000a48:	230f      	movs	r3, #15
 8000a4a:	607b      	str	r3, [r7, #4]
                              |RCC_CLOCKTYPE_PCLK1|RCC_CLOCKTYPE_PCLK2;
  RCC_ClkInitStruct.SYSCLKSource = RCC_SYSCLKSOURCE_PLLCLK;
 8000a4c:	2302      	movs	r3, #2
 8000a4e:	60bb      	str	r3, [r7, #8]
  RCC_ClkInitStruct.AHBCLKDivider = RCC_SYSCLK_DIV1;
 8000a50:	2300      	movs	r3, #0
 8000a52:	60fb      	str	r3, [r7, #12]
  RCC_ClkInitStruct.APB1CLKDivider = RCC_HCLK_DIV2;
 8000a54:	f44f 6380 	mov.w	r3, #1024	@ 0x400
 8000a58:	613b      	str	r3, [r7, #16]
  RCC_ClkInitStruct.APB2CLKDivider = RCC_HCLK_DIV1;
 8000a5a:	2300      	movs	r3, #0
 8000a5c:	617b      	str	r3, [r7, #20]

  if (HAL_RCC_ClockConfig(&RCC_ClkInitStruct, FLASH_LATENCY_2) != HAL_OK)
 8000a5e:	1d3b      	adds	r3, r7, #4
 8000a60:	2102      	movs	r1, #2
 8000a62:	4618      	mov	r0, r3
 8000a64:	f002 fa42 	bl	8002eec <HAL_RCC_ClockConfig>
 8000a68:	4603      	mov	r3, r0
 8000a6a:	2b00      	cmp	r3, #0
 8000a6c:	d001      	beq.n	8000a72 <SystemClock_Config+0x7a>
  {
    Error_Handler();
 8000a6e:	f000 fa09 	bl	8000e84 <Error_Handler>
  }
}
 8000a72:	bf00      	nop
 8000a74:	3740      	adds	r7, #64	@ 0x40
 8000a76:	46bd      	mov	sp, r7
 8000a78:	bd80      	pop	{r7, pc}
	...

08000a7c <MX_I2C1_Init>:
  * @brief I2C1 Initialization Function
  * @param None
  * @retval None
  */
static void MX_I2C1_Init(void)
{
 8000a7c:	b580      	push	{r7, lr}
 8000a7e:	af00      	add	r7, sp, #0
  /* USER CODE END I2C1_Init 0 */

  /* USER CODE BEGIN I2C1_Init 1 */

  /* USER CODE END I2C1_Init 1 */
  hi2c1.Instance = I2C1;
 8000a80:	4b12      	ldr	r3, [pc, #72]	@ (8000acc <MX_I2C1_Init+0x50>)
 8000a82:	4a13      	ldr	r2, [pc, #76]	@ (8000ad0 <MX_I2C1_Init+0x54>)
 8000a84:	601a      	str	r2, [r3, #0]
  hi2c1.Init.ClockSpeed = 100000;
 8000a86:	4b11      	ldr	r3, [pc, #68]	@ (8000acc <MX_I2C1_Init+0x50>)
 8000a88:	4a12      	ldr	r2, [pc, #72]	@ (8000ad4 <MX_I2C1_Init+0x58>)
 8000a8a:	605a      	str	r2, [r3, #4]
  hi2c1.Init.DutyCycle = I2C_DUTYCYCLE_2;
 8000a8c:	4b0f      	ldr	r3, [pc, #60]	@ (8000acc <MX_I2C1_Init+0x50>)
 8000a8e:	2200      	movs	r2, #0
 8000a90:	609a      	str	r2, [r3, #8]
  hi2c1.Init.OwnAddress1 = 0;
 8000a92:	4b0e      	ldr	r3, [pc, #56]	@ (8000acc <MX_I2C1_Init+0x50>)
 8000a94:	2200      	movs	r2, #0
 8000a96:	60da      	str	r2, [r3, #12]
  hi2c1.Init.AddressingMode = I2C_ADDRESSINGMODE_7BIT;
 8000a98:	4b0c      	ldr	r3, [pc, #48]	@ (8000acc <MX_I2C1_Init+0x50>)
 8000a9a:	f44f 4280 	mov.w	r2, #16384	@ 0x4000
 8000a9e:	611a      	str	r2, [r3, #16]
  hi2c1.Init.DualAddressMode = I2C_DUALADDRESS_DISABLE;
 8000aa0:	4b0a      	ldr	r3, [pc, #40]	@ (8000acc <MX_I2C1_Init+0x50>)
 8000aa2:	2200      	movs	r2, #0
 8000aa4:	615a      	str	r2, [r3, #20]
  hi2c1.Init.OwnAddress2 = 0;
 8000aa6:	4b09      	ldr	r3, [pc, #36]	@ (8000acc <MX_I2C1_Init+0x50>)
 8000aa8:	2200      	movs	r2, #0
 8000aaa:	619a      	str	r2, [r3, #24]
  hi2c1.Init.GeneralCallMode = I2C_GENERALCALL_DISABLE;
 8000aac:	4b07      	ldr	r3, [pc, #28]	@ (8000acc <MX_I2C1_Init+0x50>)
 8000aae:	2200      	movs	r2, #0
 8000ab0:	61da      	str	r2, [r3, #28]
  hi2c1.Init.NoStretchMode = I2C_NOSTRETCH_DISABLE;
 8000ab2:	4b06      	ldr	r3, [pc, #24]	@ (8000acc <MX_I2C1_Init+0x50>)
 8000ab4:	2200      	movs	r2, #0
 8000ab6:	621a      	str	r2, [r3, #32]
  if (HAL_I2C_Init(&hi2c1) != HAL_OK)
 8000ab8:	4804      	ldr	r0, [pc, #16]	@ (8000acc <MX_I2C1_Init+0x50>)
 8000aba:	f000 ff3b 	bl	8001934 <HAL_I2C_Init>
 8000abe:	4603      	mov	r3, r0
 8000ac0:	2b00      	cmp	r3, #0
 8000ac2:	d001      	beq.n	8000ac8 <MX_I2C1_Init+0x4c>
  {
    Error_Handler();
 8000ac4:	f000 f9de 	bl	8000e84 <Error_Handler>
  }
  /* USER CODE BEGIN I2C1_Init 2 */

  /* USER CODE END I2C1_Init 2 */

}
 8000ac8:	bf00      	nop
 8000aca:	bd80      	pop	{r7, pc}
 8000acc:	20000028 	.word	0x20000028
 8000ad0:	40005400 	.word	0x40005400
 8000ad4:	000186a0 	.word	0x000186a0

08000ad8 <MX_TIM1_Init>:
  * @brief TIM1 Initialization Function
  * @param None
  * @retval None
  */
static void MX_TIM1_Init(void)
{
 8000ad8:	b580      	push	{r7, lr}
 8000ada:	b086      	sub	sp, #24
 8000adc:	af00      	add	r7, sp, #0

  /* USER CODE BEGIN TIM1_Init 0 */

  /* USER CODE END TIM1_Init 0 */

  TIM_ClockConfigTypeDef sClockSourceConfig = {0};
 8000ade:	f107 0308 	add.w	r3, r7, #8
 8000ae2:	2200      	movs	r2, #0
 8000ae4:	601a      	str	r2, [r3, #0]
 8000ae6:	605a      	str	r2, [r3, #4]
 8000ae8:	609a      	str	r2, [r3, #8]
 8000aea:	60da      	str	r2, [r3, #12]
  TIM_MasterConfigTypeDef sMasterConfig = {0};
 8000aec:	463b      	mov	r3, r7
 8000aee:	2200      	movs	r2, #0
 8000af0:	601a      	str	r2, [r3, #0]
 8000af2:	605a      	str	r2, [r3, #4]

  /* USER CODE BEGIN TIM1_Init 1 */

  /* USER CODE END TIM1_Init 1 */
  htim1.Instance = TIM1;
 8000af4:	4b1f      	ldr	r3, [pc, #124]	@ (8000b74 <MX_TIM1_Init+0x9c>)
 8000af6:	4a20      	ldr	r2, [pc, #128]	@ (8000b78 <MX_TIM1_Init+0xa0>)
 8000af8:	601a      	str	r2, [r3, #0]
  htim1.Init.Prescaler = 639;
 8000afa:	4b1e      	ldr	r3, [pc, #120]	@ (8000b74 <MX_TIM1_Init+0x9c>)
 8000afc:	f240 227f 	movw	r2, #639	@ 0x27f
 8000b00:	605a      	str	r2, [r3, #4]
  htim1.Init.CounterMode = TIM_COUNTERMODE_UP;
 8000b02:	4b1c      	ldr	r3, [pc, #112]	@ (8000b74 <MX_TIM1_Init+0x9c>)
 8000b04:	2200      	movs	r2, #0
 8000b06:	609a      	str	r2, [r3, #8]
  htim1.Init.Period = 9999;
 8000b08:	4b1a      	ldr	r3, [pc, #104]	@ (8000b74 <MX_TIM1_Init+0x9c>)
 8000b0a:	f242 720f 	movw	r2, #9999	@ 0x270f
 8000b0e:	60da      	str	r2, [r3, #12]
  htim1.Init.ClockDivision = TIM_CLOCKDIVISION_DIV1;
 8000b10:	4b18      	ldr	r3, [pc, #96]	@ (8000b74 <MX_TIM1_Init+0x9c>)
 8000b12:	2200      	movs	r2, #0
 8000b14:	611a      	str	r2, [r3, #16]
  htim1.Init.RepetitionCounter = 0;
 8000b16:	4b17      	ldr	r3, [pc, #92]	@ (8000b74 <MX_TIM1_Init+0x9c>)
 8000b18:	2200      	movs	r2, #0
 8000b1a:	615a      	str	r2, [r3, #20]
  htim1.Init.AutoReloadPreload = TIM_AUTORELOAD_PRELOAD_DISABLE;
 8000b1c:	4b15      	ldr	r3, [pc, #84]	@ (8000b74 <MX_TIM1_Init+0x9c>)
 8000b1e:	2200      	movs	r2, #0
 8000b20:	619a      	str	r2, [r3, #24]
  if (HAL_TIM_Base_Init(&htim1) != HAL_OK)
 8000b22:	4814      	ldr	r0, [pc, #80]	@ (8000b74 <MX_TIM1_Init+0x9c>)
 8000b24:	f002 fb70 	bl	8003208 <HAL_TIM_Base_Init>
 8000b28:	4603      	mov	r3, r0
 8000b2a:	2b00      	cmp	r3, #0
 8000b2c:	d001      	beq.n	8000b32 <MX_TIM1_Init+0x5a>
  {
    Error_Handler();
 8000b2e:	f000 f9a9 	bl	8000e84 <Error_Handler>
  }
  sClockSourceConfig.ClockSource = TIM_CLOCKSOURCE_INTERNAL;
 8000b32:	f44f 5380 	mov.w	r3, #4096	@ 0x1000
 8000b36:	60bb      	str	r3, [r7, #8]
  if (HAL_TIM_ConfigClockSource(&htim1, &sClockSourceConfig) != HAL_OK)
 8000b38:	f107 0308 	add.w	r3, r7, #8
 8000b3c:	4619      	mov	r1, r3
 8000b3e:	480d      	ldr	r0, [pc, #52]	@ (8000b74 <MX_TIM1_Init+0x9c>)
 8000b40:	f002 fec0 	bl	80038c4 <HAL_TIM_ConfigClockSource>
 8000b44:	4603      	mov	r3, r0
 8000b46:	2b00      	cmp	r3, #0
 8000b48:	d001      	beq.n	8000b4e <MX_TIM1_Init+0x76>
  {
    Error_Handler();
 8000b4a:	f000 f99b 	bl	8000e84 <Error_Handler>
  }
  sMasterConfig.MasterOutputTrigger = TIM_TRGO_RESET;
 8000b4e:	2300      	movs	r3, #0
 8000b50:	603b      	str	r3, [r7, #0]
  sMasterConfig.MasterSlaveMode = TIM_MASTERSLAVEMODE_DISABLE;
 8000b52:	2300      	movs	r3, #0
 8000b54:	607b      	str	r3, [r7, #4]
  if (HAL_TIMEx_MasterConfigSynchronization(&htim1, &sMasterConfig) != HAL_OK)
 8000b56:	463b      	mov	r3, r7
 8000b58:	4619      	mov	r1, r3
 8000b5a:	4806      	ldr	r0, [pc, #24]	@ (8000b74 <MX_TIM1_Init+0x9c>)
 8000b5c:	f003 fa4a 	bl	8003ff4 <HAL_TIMEx_MasterConfigSynchronization>
 8000b60:	4603      	mov	r3, r0
 8000b62:	2b00      	cmp	r3, #0
 8000b64:	d001      	beq.n	8000b6a <MX_TIM1_Init+0x92>
  {
    Error_Handler();
 8000b66:	f000 f98d 	bl	8000e84 <Error_Handler>
  }
  /* USER CODE BEGIN TIM1_Init 2 */

  /* USER CODE END TIM1_Init 2 */

}
 8000b6a:	bf00      	nop
 8000b6c:	3718      	adds	r7, #24
 8000b6e:	46bd      	mov	sp, r7
 8000b70:	bd80      	pop	{r7, pc}
 8000b72:	bf00      	nop
 8000b74:	2000007c 	.word	0x2000007c
 8000b78:	40012c00 	.word	0x40012c00

08000b7c <MX_TIM3_Init>:
  * @brief TIM3 Initialization Function
  * @param None
  * @retval None
  */
static void MX_TIM3_Init(void)
{
 8000b7c:	b580      	push	{r7, lr}
 8000b7e:	b08a      	sub	sp, #40	@ 0x28
 8000b80:	af00      	add	r7, sp, #0

  /* USER CODE BEGIN TIM3_Init 0 */

  /* USER CODE END TIM3_Init 0 */

  TIM_MasterConfigTypeDef sMasterConfig = {0};
 8000b82:	f107 0320 	add.w	r3, r7, #32
 8000b86:	2200      	movs	r2, #0
 8000b88:	601a      	str	r2, [r3, #0]
 8000b8a:	605a      	str	r2, [r3, #4]
  TIM_OC_InitTypeDef sConfigOC = {0};
 8000b8c:	1d3b      	adds	r3, r7, #4
 8000b8e:	2200      	movs	r2, #0
 8000b90:	601a      	str	r2, [r3, #0]
 8000b92:	605a      	str	r2, [r3, #4]
 8000b94:	609a      	str	r2, [r3, #8]
 8000b96:	60da      	str	r2, [r3, #12]
 8000b98:	611a      	str	r2, [r3, #16]
 8000b9a:	615a      	str	r2, [r3, #20]
 8000b9c:	619a      	str	r2, [r3, #24]

  /* USER CODE BEGIN TIM3_Init 1 */

  /* USER CODE END TIM3_Init 1 */
  htim3.Instance = TIM3;
 8000b9e:	4b21      	ldr	r3, [pc, #132]	@ (8000c24 <MX_TIM3_Init+0xa8>)
 8000ba0:	4a21      	ldr	r2, [pc, #132]	@ (8000c28 <MX_TIM3_Init+0xac>)
 8000ba2:	601a      	str	r2, [r3, #0]
  htim3.Init.Prescaler = 63;
 8000ba4:	4b1f      	ldr	r3, [pc, #124]	@ (8000c24 <MX_TIM3_Init+0xa8>)
 8000ba6:	223f      	movs	r2, #63	@ 0x3f
 8000ba8:	605a      	str	r2, [r3, #4]
  htim3.Init.CounterMode = TIM_COUNTERMODE_UP;
 8000baa:	4b1e      	ldr	r3, [pc, #120]	@ (8000c24 <MX_TIM3_Init+0xa8>)
 8000bac:	2200      	movs	r2, #0
 8000bae:	609a      	str	r2, [r3, #8]
  htim3.Init.Period = 99;
 8000bb0:	4b1c      	ldr	r3, [pc, #112]	@ (8000c24 <MX_TIM3_Init+0xa8>)
 8000bb2:	2263      	movs	r2, #99	@ 0x63
 8000bb4:	60da      	str	r2, [r3, #12]
  htim3.Init.ClockDivision = TIM_CLOCKDIVISION_DIV1;
 8000bb6:	4b1b      	ldr	r3, [pc, #108]	@ (8000c24 <MX_TIM3_Init+0xa8>)
 8000bb8:	2200      	movs	r2, #0
 8000bba:	611a      	str	r2, [r3, #16]
  htim3.Init.AutoReloadPreload = TIM_AUTORELOAD_PRELOAD_DISABLE;
 8000bbc:	4b19      	ldr	r3, [pc, #100]	@ (8000c24 <MX_TIM3_Init+0xa8>)
 8000bbe:	2200      	movs	r2, #0
 8000bc0:	619a      	str	r2, [r3, #24]
  if (HAL_TIM_PWM_Init(&htim3) != HAL_OK)
 8000bc2:	4818      	ldr	r0, [pc, #96]	@ (8000c24 <MX_TIM3_Init+0xa8>)
 8000bc4:	f002 fbc2 	bl	800334c <HAL_TIM_PWM_Init>
 8000bc8:	4603      	mov	r3, r0
 8000bca:	2b00      	cmp	r3, #0
 8000bcc:	d001      	beq.n	8000bd2 <MX_TIM3_Init+0x56>
  {
    Error_Handler();
 8000bce:	f000 f959 	bl	8000e84 <Error_Handler>
  }
  sMasterConfig.MasterOutputTrigger = TIM_TRGO_RESET;
 8000bd2:	2300      	movs	r3, #0
 8000bd4:	623b      	str	r3, [r7, #32]
  sMasterConfig.MasterSlaveMode = TIM_MASTERSLAVEMODE_DISABLE;
 8000bd6:	2300      	movs	r3, #0
 8000bd8:	627b      	str	r3, [r7, #36]	@ 0x24
  if (HAL_TIMEx_MasterConfigSynchronization(&htim3, &sMasterConfig) != HAL_OK)
 8000bda:	f107 0320 	add.w	r3, r7, #32
 8000bde:	4619      	mov	r1, r3
 8000be0:	4810      	ldr	r0, [pc, #64]	@ (8000c24 <MX_TIM3_Init+0xa8>)
 8000be2:	f003 fa07 	bl	8003ff4 <HAL_TIMEx_MasterConfigSynchronization>
 8000be6:	4603      	mov	r3, r0
 8000be8:	2b00      	cmp	r3, #0
 8000bea:	d001      	beq.n	8000bf0 <MX_TIM3_Init+0x74>
  {
    Error_Handler();
 8000bec:	f000 f94a 	bl	8000e84 <Error_Handler>
  }
  sConfigOC.OCMode = TIM_OCMODE_PWM1;
 8000bf0:	2360      	movs	r3, #96	@ 0x60
 8000bf2:	607b      	str	r3, [r7, #4]
  sConfigOC.Pulse = 0;
 8000bf4:	2300      	movs	r3, #0
 8000bf6:	60bb      	str	r3, [r7, #8]
  sConfigOC.OCPolarity = TIM_OCPOLARITY_HIGH;
 8000bf8:	2300      	movs	r3, #0
 8000bfa:	60fb      	str	r3, [r7, #12]
  sConfigOC.OCFastMode = TIM_OCFAST_DISABLE;
 8000bfc:	2300      	movs	r3, #0
 8000bfe:	617b      	str	r3, [r7, #20]
  if (HAL_TIM_PWM_ConfigChannel(&htim3, &sConfigOC, TIM_CHANNEL_1) != HAL_OK)
 8000c00:	1d3b      	adds	r3, r7, #4
 8000c02:	2200      	movs	r2, #0
 8000c04:	4619      	mov	r1, r3
 8000c06:	4807      	ldr	r0, [pc, #28]	@ (8000c24 <MX_TIM3_Init+0xa8>)
 8000c08:	f002 fd9a 	bl	8003740 <HAL_TIM_PWM_ConfigChannel>
 8000c0c:	4603      	mov	r3, r0
 8000c0e:	2b00      	cmp	r3, #0
 8000c10:	d001      	beq.n	8000c16 <MX_TIM3_Init+0x9a>
  {
    Error_Handler();
 8000c12:	f000 f937 	bl	8000e84 <Error_Handler>
  }
  /* USER CODE BEGIN TIM3_Init 2 */

  /* USER CODE END TIM3_Init 2 */
  HAL_TIM_MspPostInit(&htim3);
 8000c16:	4803      	ldr	r0, [pc, #12]	@ (8000c24 <MX_TIM3_Init+0xa8>)
 8000c18:	f000 fa6c 	bl	80010f4 <HAL_TIM_MspPostInit>

}
 8000c1c:	bf00      	nop
 8000c1e:	3728      	adds	r7, #40	@ 0x28
 8000c20:	46bd      	mov	sp, r7
 8000c22:	bd80      	pop	{r7, pc}
 8000c24:	200000c4 	.word	0x200000c4
 8000c28:	40000400 	.word	0x40000400

08000c2c <MX_TIM4_Init>:
  * @brief TIM4 Initialization Function
  * @param None
  * @retval None
  */
static void MX_TIM4_Init(void)
{
 8000c2c:	b580      	push	{r7, lr}
 8000c2e:	b08a      	sub	sp, #40	@ 0x28
 8000c30:	af00      	add	r7, sp, #0

  /* USER CODE BEGIN TIM4_Init 0 */

  /* USER CODE END TIM4_Init 0 */

  TIM_MasterConfigTypeDef sMasterConfig = {0};
 8000c32:	f107 0320 	add.w	r3, r7, #32
 8000c36:	2200      	movs	r2, #0
 8000c38:	601a      	str	r2, [r3, #0]
 8000c3a:	605a      	str	r2, [r3, #4]
  TIM_OC_InitTypeDef sConfigOC = {0};
 8000c3c:	1d3b      	adds	r3, r7, #4
 8000c3e:	2200      	movs	r2, #0
 8000c40:	601a      	str	r2, [r3, #0]
 8000c42:	605a      	str	r2, [r3, #4]
 8000c44:	609a      	str	r2, [r3, #8]
 8000c46:	60da      	str	r2, [r3, #12]
 8000c48:	611a      	str	r2, [r3, #16]
 8000c4a:	615a      	str	r2, [r3, #20]
 8000c4c:	619a      	str	r2, [r3, #24]

  /* USER CODE BEGIN TIM4_Init 1 */

  /* USER CODE END TIM4_Init 1 */
  htim4.Instance = TIM4;
 8000c4e:	4b27      	ldr	r3, [pc, #156]	@ (8000cec <MX_TIM4_Init+0xc0>)
 8000c50:	4a27      	ldr	r2, [pc, #156]	@ (8000cf0 <MX_TIM4_Init+0xc4>)
 8000c52:	601a      	str	r2, [r3, #0]
  htim4.Init.Prescaler = 63;
 8000c54:	4b25      	ldr	r3, [pc, #148]	@ (8000cec <MX_TIM4_Init+0xc0>)
 8000c56:	223f      	movs	r2, #63	@ 0x3f
 8000c58:	605a      	str	r2, [r3, #4]
  htim4.Init.CounterMode = TIM_COUNTERMODE_UP;
 8000c5a:	4b24      	ldr	r3, [pc, #144]	@ (8000cec <MX_TIM4_Init+0xc0>)
 8000c5c:	2200      	movs	r2, #0
 8000c5e:	609a      	str	r2, [r3, #8]
  htim4.Init.Period = 99;
 8000c60:	4b22      	ldr	r3, [pc, #136]	@ (8000cec <MX_TIM4_Init+0xc0>)
 8000c62:	2263      	movs	r2, #99	@ 0x63
 8000c64:	60da      	str	r2, [r3, #12]
  htim4.Init.ClockDivision = TIM_CLOCKDIVISION_DIV1;
 8000c66:	4b21      	ldr	r3, [pc, #132]	@ (8000cec <MX_TIM4_Init+0xc0>)
 8000c68:	2200      	movs	r2, #0
 8000c6a:	611a      	str	r2, [r3, #16]
  htim4.Init.AutoReloadPreload = TIM_AUTORELOAD_PRELOAD_DISABLE;
 8000c6c:	4b1f      	ldr	r3, [pc, #124]	@ (8000cec <MX_TIM4_Init+0xc0>)
 8000c6e:	2200      	movs	r2, #0
 8000c70:	619a      	str	r2, [r3, #24]
  if (HAL_TIM_PWM_Init(&htim4) != HAL_OK)
 8000c72:	481e      	ldr	r0, [pc, #120]	@ (8000cec <MX_TIM4_Init+0xc0>)
 8000c74:	f002 fb6a 	bl	800334c <HAL_TIM_PWM_Init>
 8000c78:	4603      	mov	r3, r0
 8000c7a:	2b00      	cmp	r3, #0
 8000c7c:	d001      	beq.n	8000c82 <MX_TIM4_Init+0x56>
  {
    Error_Handler();
 8000c7e:	f000 f901 	bl	8000e84 <Error_Handler>
  }
  sMasterConfig.MasterOutputTrigger = TIM_TRGO_RESET;
 8000c82:	2300      	movs	r3, #0
 8000c84:	623b      	str	r3, [r7, #32]
  sMasterConfig.MasterSlaveMode = TIM_MASTERSLAVEMODE_DISABLE;
 8000c86:	2300      	movs	r3, #0
 8000c88:	627b      	str	r3, [r7, #36]	@ 0x24
  if (HAL_TIMEx_MasterConfigSynchronization(&htim4, &sMasterConfig) != HAL_OK)
 8000c8a:	f107 0320 	add.w	r3, r7, #32
 8000c8e:	4619      	mov	r1, r3
 8000c90:	4816      	ldr	r0, [pc, #88]	@ (8000cec <MX_TIM4_Init+0xc0>)
 8000c92:	f003 f9af 	bl	8003ff4 <HAL_TIMEx_MasterConfigSynchronization>
 8000c96:	4603      	mov	r3, r0
 8000c98:	2b00      	cmp	r3, #0
 8000c9a:	d001      	beq.n	8000ca0 <MX_TIM4_Init+0x74>
  {
    Error_Handler();
 8000c9c:	f000 f8f2 	bl	8000e84 <Error_Handler>
  }
  sConfigOC.OCMode = TIM_OCMODE_PWM1;
 8000ca0:	2360      	movs	r3, #96	@ 0x60
 8000ca2:	607b      	str	r3, [r7, #4]
  sConfigOC.Pulse = 0;
 8000ca4:	2300      	movs	r3, #0
 8000ca6:	60bb      	str	r3, [r7, #8]
  sConfigOC.OCPolarity = TIM_OCPOLARITY_HIGH;
 8000ca8:	2300      	movs	r3, #0
 8000caa:	60fb      	str	r3, [r7, #12]
  sConfigOC.OCFastMode = TIM_OCFAST_DISABLE;
 8000cac:	2300      	movs	r3, #0
 8000cae:	617b      	str	r3, [r7, #20]
  if (HAL_TIM_PWM_ConfigChannel(&htim4, &sConfigOC, TIM_CHANNEL_1) != HAL_OK)
 8000cb0:	1d3b      	adds	r3, r7, #4
 8000cb2:	2200      	movs	r2, #0
 8000cb4:	4619      	mov	r1, r3
 8000cb6:	480d      	ldr	r0, [pc, #52]	@ (8000cec <MX_TIM4_Init+0xc0>)
 8000cb8:	f002 fd42 	bl	8003740 <HAL_TIM_PWM_ConfigChannel>
 8000cbc:	4603      	mov	r3, r0
 8000cbe:	2b00      	cmp	r3, #0
 8000cc0:	d001      	beq.n	8000cc6 <MX_TIM4_Init+0x9a>
  {
    Error_Handler();
 8000cc2:	f000 f8df 	bl	8000e84 <Error_Handler>
  }
  if (HAL_TIM_PWM_ConfigChannel(&htim4, &sConfigOC, TIM_CHANNEL_2) != HAL_OK)
 8000cc6:	1d3b      	adds	r3, r7, #4
 8000cc8:	2204      	movs	r2, #4
 8000cca:	4619      	mov	r1, r3
 8000ccc:	4807      	ldr	r0, [pc, #28]	@ (8000cec <MX_TIM4_Init+0xc0>)
 8000cce:	f002 fd37 	bl	8003740 <HAL_TIM_PWM_ConfigChannel>
 8000cd2:	4603      	mov	r3, r0
 8000cd4:	2b00      	cmp	r3, #0
 8000cd6:	d001      	beq.n	8000cdc <MX_TIM4_Init+0xb0>
  {
    Error_Handler();
 8000cd8:	f000 f8d4 	bl	8000e84 <Error_Handler>
  }
  /* USER CODE BEGIN TIM4_Init 2 */

  /* USER CODE END TIM4_Init 2 */
  HAL_TIM_MspPostInit(&htim4);
 8000cdc:	4803      	ldr	r0, [pc, #12]	@ (8000cec <MX_TIM4_Init+0xc0>)
 8000cde:	f000 fa09 	bl	80010f4 <HAL_TIM_MspPostInit>

}
 8000ce2:	bf00      	nop
 8000ce4:	3728      	adds	r7, #40	@ 0x28
 8000ce6:	46bd      	mov	sp, r7
 8000ce8:	bd80      	pop	{r7, pc}
 8000cea:	bf00      	nop
 8000cec:	2000010c 	.word	0x2000010c
 8000cf0:	40000800 	.word	0x40000800

08000cf4 <MX_USART1_UART_Init>:
  * @brief USART1 Initialization Function
  * @param None
  * @retval None
  */
static void MX_USART1_UART_Init(void)
{
 8000cf4:	b580      	push	{r7, lr}
 8000cf6:	af00      	add	r7, sp, #0
  /* USER CODE END USART1_Init 0 */

  /* USER CODE BEGIN USART1_Init 1 */

  /* USER CODE END USART1_Init 1 */
  huart1.Instance = USART1;
 8000cf8:	4b11      	ldr	r3, [pc, #68]	@ (8000d40 <MX_USART1_UART_Init+0x4c>)
 8000cfa:	4a12      	ldr	r2, [pc, #72]	@ (8000d44 <MX_USART1_UART_Init+0x50>)
 8000cfc:	601a      	str	r2, [r3, #0]
  huart1.Init.BaudRate = 115200;
 8000cfe:	4b10      	ldr	r3, [pc, #64]	@ (8000d40 <MX_USART1_UART_Init+0x4c>)
 8000d00:	f44f 32e1 	mov.w	r2, #115200	@ 0x1c200
 8000d04:	605a      	str	r2, [r3, #4]
  huart1.Init.WordLength = UART_WORDLENGTH_8B;
 8000d06:	4b0e      	ldr	r3, [pc, #56]	@ (8000d40 <MX_USART1_UART_Init+0x4c>)
 8000d08:	2200      	movs	r2, #0
 8000d0a:	609a      	str	r2, [r3, #8]
  huart1.Init.StopBits = UART_STOPBITS_1;
 8000d0c:	4b0c      	ldr	r3, [pc, #48]	@ (8000d40 <MX_USART1_UART_Init+0x4c>)
 8000d0e:	2200      	movs	r2, #0
 8000d10:	60da      	str	r2, [r3, #12]
  huart1.Init.Parity = UART_PARITY_NONE;
 8000d12:	4b0b      	ldr	r3, [pc, #44]	@ (8000d40 <MX_USART1_UART_Init+0x4c>)
 8000d14:	2200      	movs	r2, #0
 8000d16:	611a      	str	r2, [r3, #16]
  huart1.Init.Mode = UART_MODE_TX_RX;
 8000d18:	4b09      	ldr	r3, [pc, #36]	@ (8000d40 <MX_USART1_UART_Init+0x4c>)
 8000d1a:	220c      	movs	r2, #12
 8000d1c:	615a      	str	r2, [r3, #20]
  huart1.Init.HwFlowCtl = UART_HWCONTROL_NONE;
 8000d1e:	4b08      	ldr	r3, [pc, #32]	@ (8000d40 <MX_USART1_UART_Init+0x4c>)
 8000d20:	2200      	movs	r2, #0
 8000d22:	619a      	str	r2, [r3, #24]
  huart1.Init.OverSampling = UART_OVERSAMPLING_16;
 8000d24:	4b06      	ldr	r3, [pc, #24]	@ (8000d40 <MX_USART1_UART_Init+0x4c>)
 8000d26:	2200      	movs	r2, #0
 8000d28:	61da      	str	r2, [r3, #28]
  if (HAL_UART_Init(&huart1) != HAL_OK)
 8000d2a:	4805      	ldr	r0, [pc, #20]	@ (8000d40 <MX_USART1_UART_Init+0x4c>)
 8000d2c:	f003 f9d2 	bl	80040d4 <HAL_UART_Init>
 8000d30:	4603      	mov	r3, r0
 8000d32:	2b00      	cmp	r3, #0
 8000d34:	d001      	beq.n	8000d3a <MX_USART1_UART_Init+0x46>
  {
    Error_Handler();
 8000d36:	f000 f8a5 	bl	8000e84 <Error_Handler>
  }
  /* USER CODE BEGIN USART1_Init 2 */

  /* USER CODE END USART1_Init 2 */

}
 8000d3a:	bf00      	nop
 8000d3c:	bd80      	pop	{r7, pc}
 8000d3e:	bf00      	nop
 8000d40:	20000154 	.word	0x20000154
 8000d44:	40013800 	.word	0x40013800

08000d48 <MX_GPIO_Init>:
  * @brief GPIO Initialization Function
  * @param None
  * @retval None
  */
static void MX_GPIO_Init(void)
{
 8000d48:	b580      	push	{r7, lr}
 8000d4a:	b088      	sub	sp, #32
 8000d4c:	af00      	add	r7, sp, #0
  GPIO_InitTypeDef GPIO_InitStruct = {0};
 8000d4e:	f107 0310 	add.w	r3, r7, #16
 8000d52:	2200      	movs	r2, #0
 8000d54:	601a      	str	r2, [r3, #0]
 8000d56:	605a      	str	r2, [r3, #4]
 8000d58:	609a      	str	r2, [r3, #8]
 8000d5a:	60da      	str	r2, [r3, #12]
/* USER CODE BEGIN MX_GPIO_Init_1 */
/* USER CODE END MX_GPIO_Init_1 */

  /* GPIO Ports Clock Enable */
  __HAL_RCC_GPIOC_CLK_ENABLE();
 8000d5c:	4b38      	ldr	r3, [pc, #224]	@ (8000e40 <MX_GPIO_Init+0xf8>)
 8000d5e:	699b      	ldr	r3, [r3, #24]
 8000d60:	4a37      	ldr	r2, [pc, #220]	@ (8000e40 <MX_GPIO_Init+0xf8>)
 8000d62:	f043 0310 	orr.w	r3, r3, #16
 8000d66:	6193      	str	r3, [r2, #24]
 8000d68:	4b35      	ldr	r3, [pc, #212]	@ (8000e40 <MX_GPIO_Init+0xf8>)
 8000d6a:	699b      	ldr	r3, [r3, #24]
 8000d6c:	f003 0310 	and.w	r3, r3, #16
 8000d70:	60fb      	str	r3, [r7, #12]
 8000d72:	68fb      	ldr	r3, [r7, #12]
  __HAL_RCC_GPIOD_CLK_ENABLE();
 8000d74:	4b32      	ldr	r3, [pc, #200]	@ (8000e40 <MX_GPIO_Init+0xf8>)
 8000d76:	699b      	ldr	r3, [r3, #24]
 8000d78:	4a31      	ldr	r2, [pc, #196]	@ (8000e40 <MX_GPIO_Init+0xf8>)
 8000d7a:	f043 0320 	orr.w	r3, r3, #32
 8000d7e:	6193      	str	r3, [r2, #24]
 8000d80:	4b2f      	ldr	r3, [pc, #188]	@ (8000e40 <MX_GPIO_Init+0xf8>)
 8000d82:	699b      	ldr	r3, [r3, #24]
 8000d84:	f003 0320 	and.w	r3, r3, #32
 8000d88:	60bb      	str	r3, [r7, #8]
 8000d8a:	68bb      	ldr	r3, [r7, #8]
  __HAL_RCC_GPIOA_CLK_ENABLE();
 8000d8c:	4b2c      	ldr	r3, [pc, #176]	@ (8000e40 <MX_GPIO_Init+0xf8>)
 8000d8e:	699b      	ldr	r3, [r3, #24]
 8000d90:	4a2b      	ldr	r2, [pc, #172]	@ (8000e40 <MX_GPIO_Init+0xf8>)
 8000d92:	f043 0304 	orr.w	r3, r3, #4
 8000d96:	6193      	str	r3, [r2, #24]
 8000d98:	4b29      	ldr	r3, [pc, #164]	@ (8000e40 <MX_GPIO_Init+0xf8>)
 8000d9a:	699b      	ldr	r3, [r3, #24]
 8000d9c:	f003 0304 	and.w	r3, r3, #4
 8000da0:	607b      	str	r3, [r7, #4]
 8000da2:	687b      	ldr	r3, [r7, #4]
  __HAL_RCC_GPIOB_CLK_ENABLE();
 8000da4:	4b26      	ldr	r3, [pc, #152]	@ (8000e40 <MX_GPIO_Init+0xf8>)
 8000da6:	699b      	ldr	r3, [r3, #24]
 8000da8:	4a25      	ldr	r2, [pc, #148]	@ (8000e40 <MX_GPIO_Init+0xf8>)
 8000daa:	f043 0308 	orr.w	r3, r3, #8
 8000dae:	6193      	str	r3, [r2, #24]
 8000db0:	4b23      	ldr	r3, [pc, #140]	@ (8000e40 <MX_GPIO_Init+0xf8>)
 8000db2:	699b      	ldr	r3, [r3, #24]
 8000db4:	f003 0308 	and.w	r3, r3, #8
 8000db8:	603b      	str	r3, [r7, #0]
 8000dba:	683b      	ldr	r3, [r7, #0]

  /*Configure GPIO pin Output Level */
  HAL_GPIO_WritePin(GPIOC, GPIO_PIN_13, GPIO_PIN_RESET);
 8000dbc:	2200      	movs	r2, #0
 8000dbe:	f44f 5100 	mov.w	r1, #8192	@ 0x2000
 8000dc2:	4820      	ldr	r0, [pc, #128]	@ (8000e44 <MX_GPIO_Init+0xfc>)
 8000dc4:	f000 fd9e 	bl	8001904 <HAL_GPIO_WritePin>

  /*Configure GPIO pin Output Level */
  HAL_GPIO_WritePin(GPIOA, GPIO_OUT_LED_Pin|GPIO_PIN_5|IN1_Pin|IN2_Pin, GPIO_PIN_RESET);
 8000dc8:	2200      	movs	r2, #0
 8000dca:	21e8      	movs	r1, #232	@ 0xe8
 8000dcc:	481e      	ldr	r0, [pc, #120]	@ (8000e48 <MX_GPIO_Init+0x100>)
 8000dce:	f000 fd99 	bl	8001904 <HAL_GPIO_WritePin>

  /*Configure GPIO pin Output Level */
  HAL_GPIO_WritePin(GPIOB, GPIO_PIN_10|GPIO_PIN_11|GPIO_PIN_5, GPIO_PIN_RESET);
 8000dd2:	2200      	movs	r2, #0
 8000dd4:	f44f 6142 	mov.w	r1, #3104	@ 0xc20
 8000dd8:	481c      	ldr	r0, [pc, #112]	@ (8000e4c <MX_GPIO_Init+0x104>)
 8000dda:	f000 fd93 	bl	8001904 <HAL_GPIO_WritePin>

  /*Configure GPIO pin : PC13 */
  GPIO_InitStruct.Pin = GPIO_PIN_13;
 8000dde:	f44f 5300 	mov.w	r3, #8192	@ 0x2000
 8000de2:	613b      	str	r3, [r7, #16]
  GPIO_InitStruct.Mode = GPIO_MODE_OUTPUT_PP;
 8000de4:	2301      	movs	r3, #1
 8000de6:	617b      	str	r3, [r7, #20]
  GPIO_InitStruct.Pull = GPIO_NOPULL;
 8000de8:	2300      	movs	r3, #0
 8000dea:	61bb      	str	r3, [r7, #24]
  GPIO_InitStruct.Speed = GPIO_SPEED_FREQ_LOW;
 8000dec:	2302      	movs	r3, #2
 8000dee:	61fb      	str	r3, [r7, #28]
  HAL_GPIO_Init(GPIOC, &GPIO_InitStruct);
 8000df0:	f107 0310 	add.w	r3, r7, #16
 8000df4:	4619      	mov	r1, r3
 8000df6:	4813      	ldr	r0, [pc, #76]	@ (8000e44 <MX_GPIO_Init+0xfc>)
 8000df8:	f000 fc00 	bl	80015fc <HAL_GPIO_Init>

  /*Configure GPIO pins : GPIO_OUT_LED_Pin PA5 IN1_Pin IN2_Pin */
  GPIO_InitStruct.Pin = GPIO_OUT_LED_Pin|GPIO_PIN_5|IN1_Pin|IN2_Pin;
 8000dfc:	23e8      	movs	r3, #232	@ 0xe8
 8000dfe:	613b      	str	r3, [r7, #16]
  GPIO_InitStruct.Mode = GPIO_MODE_OUTPUT_PP;
 8000e00:	2301      	movs	r3, #1
 8000e02:	617b      	str	r3, [r7, #20]
  GPIO_InitStruct.Pull = GPIO_NOPULL;
 8000e04:	2300      	movs	r3, #0
 8000e06:	61bb      	str	r3, [r7, #24]
  GPIO_InitStruct.Speed = GPIO_SPEED_FREQ_LOW;
 8000e08:	2302      	movs	r3, #2
 8000e0a:	61fb      	str	r3, [r7, #28]
  HAL_GPIO_Init(GPIOA, &GPIO_InitStruct);
 8000e0c:	f107 0310 	add.w	r3, r7, #16
 8000e10:	4619      	mov	r1, r3
 8000e12:	480d      	ldr	r0, [pc, #52]	@ (8000e48 <MX_GPIO_Init+0x100>)
 8000e14:	f000 fbf2 	bl	80015fc <HAL_GPIO_Init>

  /*Configure GPIO pins : PB10 PB11 PB5 */
  GPIO_InitStruct.Pin = GPIO_PIN_10|GPIO_PIN_11|GPIO_PIN_5;
 8000e18:	f44f 6342 	mov.w	r3, #3104	@ 0xc20
 8000e1c:	613b      	str	r3, [r7, #16]
  GPIO_InitStruct.Mode = GPIO_MODE_OUTPUT_PP;
 8000e1e:	2301      	movs	r3, #1
 8000e20:	617b      	str	r3, [r7, #20]
  GPIO_InitStruct.Pull = GPIO_NOPULL;
 8000e22:	2300      	movs	r3, #0
 8000e24:	61bb      	str	r3, [r7, #24]
  GPIO_InitStruct.Speed = GPIO_SPEED_FREQ_LOW;
 8000e26:	2302      	movs	r3, #2
 8000e28:	61fb      	str	r3, [r7, #28]
  HAL_GPIO_Init(GPIOB, &GPIO_InitStruct);
 8000e2a:	f107 0310 	add.w	r3, r7, #16
 8000e2e:	4619      	mov	r1, r3
 8000e30:	4806      	ldr	r0, [pc, #24]	@ (8000e4c <MX_GPIO_Init+0x104>)
 8000e32:	f000 fbe3 	bl	80015fc <HAL_GPIO_Init>

/* USER CODE BEGIN MX_GPIO_Init_2 */
/* USER CODE END MX_GPIO_Init_2 */
}
 8000e36:	bf00      	nop
 8000e38:	3720      	adds	r7, #32
 8000e3a:	46bd      	mov	sp, r7
 8000e3c:	bd80      	pop	{r7, pc}
 8000e3e:	bf00      	nop
 8000e40:	40021000 	.word	0x40021000
 8000e44:	40011000 	.word	0x40011000
 8000e48:	40010800 	.word	0x40010800
 8000e4c:	40010c00 	.word	0x40010c00

08000e50 <init_all>:

/* USER CODE BEGIN 4 */
void init_all()
{
 8000e50:	b580      	push	{r7, lr}
 8000e52:	af00      	add	r7, sp, #0
	MPU6050_Init(&hi2c1);
 8000e54:	4807      	ldr	r0, [pc, #28]	@ (8000e74 <init_all+0x24>)
 8000e56:	f000 f81b 	bl	8000e90 <MPU6050_Init>
	HAL_TIM_Base_Start_IT(&htim1);
 8000e5a:	4807      	ldr	r0, [pc, #28]	@ (8000e78 <init_all+0x28>)
 8000e5c:	f002 fa24 	bl	80032a8 <HAL_TIM_Base_Start_IT>
	HAL_TIM_PWM_Start(&htim3, TIM_CHANNEL_1);
 8000e60:	2100      	movs	r1, #0
 8000e62:	4806      	ldr	r0, [pc, #24]	@ (8000e7c <init_all+0x2c>)
 8000e64:	f002 fac2 	bl	80033ec <HAL_TIM_PWM_Start>
	HAL_TIM_PWM_Start(&htim4, TIM_CHANNEL_2);
 8000e68:	2104      	movs	r1, #4
 8000e6a:	4805      	ldr	r0, [pc, #20]	@ (8000e80 <init_all+0x30>)
 8000e6c:	f002 fabe 	bl	80033ec <HAL_TIM_PWM_Start>
}
 8000e70:	bf00      	nop
 8000e72:	bd80      	pop	{r7, pc}
 8000e74:	20000028 	.word	0x20000028
 8000e78:	2000007c 	.word	0x2000007c
 8000e7c:	200000c4 	.word	0x200000c4
 8000e80:	2000010c 	.word	0x2000010c

08000e84 <Error_Handler>:
/**
  * @brief  This function is executed in case of error occurrence.
  * @retval None
  */
void Error_Handler(void)
{
 8000e84:	b480      	push	{r7}
 8000e86:	af00      	add	r7, sp, #0
  \details Disables IRQ interrupts by setting the I-bit in the CPSR.
           Can only be executed in Privileged modes.
 */
__STATIC_FORCEINLINE void __disable_irq(void)
{
  __ASM volatile ("cpsid i" : : : "memory");
 8000e88:	b672      	cpsid	i
}
 8000e8a:	bf00      	nop
  /* USER CODE BEGIN Error_Handler_Debug */
  /* User can add his own implementation to report the HAL error return state */
  __disable_irq();
  while (1)
 8000e8c:	bf00      	nop
 8000e8e:	e7fd      	b.n	8000e8c <Error_Handler+0x8>

08000e90 <MPU6050_Init>:
    .Q_bias = 0.003f,
    .R_measure = 0.03f,
};

uint8_t MPU6050_Init(I2C_HandleTypeDef *I2Cx)
{
 8000e90:	b580      	push	{r7, lr}
 8000e92:	b088      	sub	sp, #32
 8000e94:	af04      	add	r7, sp, #16
 8000e96:	6078      	str	r0, [r7, #4]
    uint8_t check;
    uint8_t Data;

    // check device ID WHO_AM_I

    HAL_I2C_Mem_Read(I2Cx, MPU6050_ADDR, WHO_AM_I_REG, 1, &check, 1, i2c_timeout);
 8000e98:	2364      	movs	r3, #100	@ 0x64
 8000e9a:	9302      	str	r3, [sp, #8]
 8000e9c:	2301      	movs	r3, #1
 8000e9e:	9301      	str	r3, [sp, #4]
 8000ea0:	f107 030f 	add.w	r3, r7, #15
 8000ea4:	9300      	str	r3, [sp, #0]
 8000ea6:	2301      	movs	r3, #1
 8000ea8:	2275      	movs	r2, #117	@ 0x75
 8000eaa:	21d0      	movs	r1, #208	@ 0xd0
 8000eac:	6878      	ldr	r0, [r7, #4]
 8000eae:	f000 ff7f 	bl	8001db0 <HAL_I2C_Mem_Read>

    if (check == 104) // 0x68 will be returned by the sensor if everything goes well
 8000eb2:	7bfb      	ldrb	r3, [r7, #15]
 8000eb4:	2b68      	cmp	r3, #104	@ 0x68
 8000eb6:	d13d      	bne.n	8000f34 <MPU6050_Init+0xa4>
    {
        // power management register 0X6B we should write all 0's to wake the sensor up
        Data = 0;
 8000eb8:	2300      	movs	r3, #0
 8000eba:	73bb      	strb	r3, [r7, #14]
        HAL_I2C_Mem_Write(I2Cx, MPU6050_ADDR, PWR_MGMT_1_REG, 1, &Data, 1, i2c_timeout);
 8000ebc:	2364      	movs	r3, #100	@ 0x64
 8000ebe:	9302      	str	r3, [sp, #8]
 8000ec0:	2301      	movs	r3, #1
 8000ec2:	9301      	str	r3, [sp, #4]
 8000ec4:	f107 030e 	add.w	r3, r7, #14
 8000ec8:	9300      	str	r3, [sp, #0]
 8000eca:	2301      	movs	r3, #1
 8000ecc:	226b      	movs	r2, #107	@ 0x6b
 8000ece:	21d0      	movs	r1, #208	@ 0xd0
 8000ed0:	6878      	ldr	r0, [r7, #4]
 8000ed2:	f000 fe73 	bl	8001bbc <HAL_I2C_Mem_Write>

        // Set DATA RATE of 1KHz by writing SMPLRT_DIV register
        Data = 0x07;
 8000ed6:	2307      	movs	r3, #7
 8000ed8:	73bb      	strb	r3, [r7, #14]
        HAL_I2C_Mem_Write(I2Cx, MPU6050_ADDR, SMPLRT_DIV_REG, 1, &Data, 1, i2c_timeout);
 8000eda:	2364      	movs	r3, #100	@ 0x64
 8000edc:	9302      	str	r3, [sp, #8]
 8000ede:	2301      	movs	r3, #1
 8000ee0:	9301      	str	r3, [sp, #4]
 8000ee2:	f107 030e 	add.w	r3, r7, #14
 8000ee6:	9300      	str	r3, [sp, #0]
 8000ee8:	2301      	movs	r3, #1
 8000eea:	2219      	movs	r2, #25
 8000eec:	21d0      	movs	r1, #208	@ 0xd0
 8000eee:	6878      	ldr	r0, [r7, #4]
 8000ef0:	f000 fe64 	bl	8001bbc <HAL_I2C_Mem_Write>

        // Set accelerometer configuration in ACCEL_CONFIG Register
        // XA_ST=0,YA_ST=0,ZA_ST=0, FS_SEL=0 ->  2g
        Data = 0x00;
 8000ef4:	2300      	movs	r3, #0
 8000ef6:	73bb      	strb	r3, [r7, #14]
        HAL_I2C_Mem_Write(I2Cx, MPU6050_ADDR, ACCEL_CONFIG_REG, 1, &Data, 1, i2c_timeout);
 8000ef8:	2364      	movs	r3, #100	@ 0x64
 8000efa:	9302      	str	r3, [sp, #8]
 8000efc:	2301      	movs	r3, #1
 8000efe:	9301      	str	r3, [sp, #4]
 8000f00:	f107 030e 	add.w	r3, r7, #14
 8000f04:	9300      	str	r3, [sp, #0]
 8000f06:	2301      	movs	r3, #1
 8000f08:	221c      	movs	r2, #28
 8000f0a:	21d0      	movs	r1, #208	@ 0xd0
 8000f0c:	6878      	ldr	r0, [r7, #4]
 8000f0e:	f000 fe55 	bl	8001bbc <HAL_I2C_Mem_Write>

        // Set Gyroscopic configuration in GYRO_CONFIG Register
        // XG_ST=0,YG_ST=0,ZG_ST=0, FS_SEL=0 ->  250 /s
        Data = 0x00;
 8000f12:	2300      	movs	r3, #0
 8000f14:	73bb      	strb	r3, [r7, #14]
        HAL_I2C_Mem_Write(I2Cx, MPU6050_ADDR, GYRO_CONFIG_REG, 1, &Data, 1, i2c_timeout);
 8000f16:	2364      	movs	r3, #100	@ 0x64
 8000f18:	9302      	str	r3, [sp, #8]
 8000f1a:	2301      	movs	r3, #1
 8000f1c:	9301      	str	r3, [sp, #4]
 8000f1e:	f107 030e 	add.w	r3, r7, #14
 8000f22:	9300      	str	r3, [sp, #0]
 8000f24:	2301      	movs	r3, #1
 8000f26:	221b      	movs	r2, #27
 8000f28:	21d0      	movs	r1, #208	@ 0xd0
 8000f2a:	6878      	ldr	r0, [r7, #4]
 8000f2c:	f000 fe46 	bl	8001bbc <HAL_I2C_Mem_Write>
        return 0;
 8000f30:	2300      	movs	r3, #0
 8000f32:	e000      	b.n	8000f36 <MPU6050_Init+0xa6>
    }
    return 1;
 8000f34:	2301      	movs	r3, #1
}
 8000f36:	4618      	mov	r0, r3
 8000f38:	3710      	adds	r7, #16
 8000f3a:	46bd      	mov	sp, r7
 8000f3c:	bd80      	pop	{r7, pc}
	...

08000f40 <HAL_MspInit>:
void HAL_TIM_MspPostInit(TIM_HandleTypeDef *htim);
                                        /**
  * Initializes the Global MSP.
  */
void HAL_MspInit(void)
{
 8000f40:	b480      	push	{r7}
 8000f42:	b085      	sub	sp, #20
 8000f44:	af00      	add	r7, sp, #0

  /* USER CODE BEGIN MspInit 0 */

  /* USER CODE END MspInit 0 */

  __HAL_RCC_AFIO_CLK_ENABLE();
 8000f46:	4b15      	ldr	r3, [pc, #84]	@ (8000f9c <HAL_MspInit+0x5c>)
 8000f48:	699b      	ldr	r3, [r3, #24]
 8000f4a:	4a14      	ldr	r2, [pc, #80]	@ (8000f9c <HAL_MspInit+0x5c>)
 8000f4c:	f043 0301 	orr.w	r3, r3, #1
 8000f50:	6193      	str	r3, [r2, #24]
 8000f52:	4b12      	ldr	r3, [pc, #72]	@ (8000f9c <HAL_MspInit+0x5c>)
 8000f54:	699b      	ldr	r3, [r3, #24]
 8000f56:	f003 0301 	and.w	r3, r3, #1
 8000f5a:	60bb      	str	r3, [r7, #8]
 8000f5c:	68bb      	ldr	r3, [r7, #8]
  __HAL_RCC_PWR_CLK_ENABLE();
 8000f5e:	4b0f      	ldr	r3, [pc, #60]	@ (8000f9c <HAL_MspInit+0x5c>)
 8000f60:	69db      	ldr	r3, [r3, #28]
 8000f62:	4a0e      	ldr	r2, [pc, #56]	@ (8000f9c <HAL_MspInit+0x5c>)
 8000f64:	f043 5380 	orr.w	r3, r3, #268435456	@ 0x10000000
 8000f68:	61d3      	str	r3, [r2, #28]
 8000f6a:	4b0c      	ldr	r3, [pc, #48]	@ (8000f9c <HAL_MspInit+0x5c>)
 8000f6c:	69db      	ldr	r3, [r3, #28]
 8000f6e:	f003 5380 	and.w	r3, r3, #268435456	@ 0x10000000
 8000f72:	607b      	str	r3, [r7, #4]
 8000f74:	687b      	ldr	r3, [r7, #4]

  /* System interrupt init*/

  /** NOJTAG: JTAG-DP Disabled and SW-DP Enabled
  */
  __HAL_AFIO_REMAP_SWJ_NOJTAG();
 8000f76:	4b0a      	ldr	r3, [pc, #40]	@ (8000fa0 <HAL_MspInit+0x60>)
 8000f78:	685b      	ldr	r3, [r3, #4]
 8000f7a:	60fb      	str	r3, [r7, #12]
 8000f7c:	68fb      	ldr	r3, [r7, #12]
 8000f7e:	f023 63e0 	bic.w	r3, r3, #117440512	@ 0x7000000
 8000f82:	60fb      	str	r3, [r7, #12]
 8000f84:	68fb      	ldr	r3, [r7, #12]
 8000f86:	f043 7300 	orr.w	r3, r3, #33554432	@ 0x2000000
 8000f8a:	60fb      	str	r3, [r7, #12]
 8000f8c:	4a04      	ldr	r2, [pc, #16]	@ (8000fa0 <HAL_MspInit+0x60>)
 8000f8e:	68fb      	ldr	r3, [r7, #12]
 8000f90:	6053      	str	r3, [r2, #4]

  /* USER CODE BEGIN MspInit 1 */

  /* USER CODE END MspInit 1 */
}
 8000f92:	bf00      	nop
 8000f94:	3714      	adds	r7, #20
 8000f96:	46bd      	mov	sp, r7
 8000f98:	bc80      	pop	{r7}
 8000f9a:	4770      	bx	lr
 8000f9c:	40021000 	.word	0x40021000
 8000fa0:	40010000 	.word	0x40010000

08000fa4 <HAL_I2C_MspInit>:
* This function configures the hardware resources used in this example
* @param hi2c: I2C handle pointer
* @retval None
*/
void HAL_I2C_MspInit(I2C_HandleTypeDef* hi2c)
{
 8000fa4:	b580      	push	{r7, lr}
 8000fa6:	b08a      	sub	sp, #40	@ 0x28
 8000fa8:	af00      	add	r7, sp, #0
 8000faa:	6078      	str	r0, [r7, #4]
  GPIO_InitTypeDef GPIO_InitStruct = {0};
 8000fac:	f107 0314 	add.w	r3, r7, #20
 8000fb0:	2200      	movs	r2, #0
 8000fb2:	601a      	str	r2, [r3, #0]
 8000fb4:	605a      	str	r2, [r3, #4]
 8000fb6:	609a      	str	r2, [r3, #8]
 8000fb8:	60da      	str	r2, [r3, #12]
  if(hi2c->Instance==I2C1)
 8000fba:	687b      	ldr	r3, [r7, #4]
 8000fbc:	681b      	ldr	r3, [r3, #0]
 8000fbe:	4a1d      	ldr	r2, [pc, #116]	@ (8001034 <HAL_I2C_MspInit+0x90>)
 8000fc0:	4293      	cmp	r3, r2
 8000fc2:	d132      	bne.n	800102a <HAL_I2C_MspInit+0x86>
  {
  /* USER CODE BEGIN I2C1_MspInit 0 */

  /* USER CODE END I2C1_MspInit 0 */

    __HAL_RCC_GPIOB_CLK_ENABLE();
 8000fc4:	4b1c      	ldr	r3, [pc, #112]	@ (8001038 <HAL_I2C_MspInit+0x94>)
 8000fc6:	699b      	ldr	r3, [r3, #24]
 8000fc8:	4a1b      	ldr	r2, [pc, #108]	@ (8001038 <HAL_I2C_MspInit+0x94>)
 8000fca:	f043 0308 	orr.w	r3, r3, #8
 8000fce:	6193      	str	r3, [r2, #24]
 8000fd0:	4b19      	ldr	r3, [pc, #100]	@ (8001038 <HAL_I2C_MspInit+0x94>)
 8000fd2:	699b      	ldr	r3, [r3, #24]
 8000fd4:	f003 0308 	and.w	r3, r3, #8
 8000fd8:	613b      	str	r3, [r7, #16]
 8000fda:	693b      	ldr	r3, [r7, #16]
    /**I2C1 GPIO Configuration
    PB8     ------> I2C1_SCL
    PB9     ------> I2C1_SDA
    */
    GPIO_InitStruct.Pin = GPIO_PIN_8|GPIO_PIN_9;
 8000fdc:	f44f 7340 	mov.w	r3, #768	@ 0x300
 8000fe0:	617b      	str	r3, [r7, #20]
    GPIO_InitStruct.Mode = GPIO_MODE_AF_OD;
 8000fe2:	2312      	movs	r3, #18
 8000fe4:	61bb      	str	r3, [r7, #24]
    GPIO_InitStruct.Speed = GPIO_SPEED_FREQ_HIGH;
 8000fe6:	2303      	movs	r3, #3
 8000fe8:	623b      	str	r3, [r7, #32]
    HAL_GPIO_Init(GPIOB, &GPIO_InitStruct);
 8000fea:	f107 0314 	add.w	r3, r7, #20
 8000fee:	4619      	mov	r1, r3
 8000ff0:	4812      	ldr	r0, [pc, #72]	@ (800103c <HAL_I2C_MspInit+0x98>)
 8000ff2:	f000 fb03 	bl	80015fc <HAL_GPIO_Init>

    __HAL_AFIO_REMAP_I2C1_ENABLE();
 8000ff6:	4b12      	ldr	r3, [pc, #72]	@ (8001040 <HAL_I2C_MspInit+0x9c>)
 8000ff8:	685b      	ldr	r3, [r3, #4]
 8000ffa:	627b      	str	r3, [r7, #36]	@ 0x24
 8000ffc:	6a7b      	ldr	r3, [r7, #36]	@ 0x24
 8000ffe:	f043 63e0 	orr.w	r3, r3, #117440512	@ 0x7000000
 8001002:	627b      	str	r3, [r7, #36]	@ 0x24
 8001004:	6a7b      	ldr	r3, [r7, #36]	@ 0x24
 8001006:	f043 0302 	orr.w	r3, r3, #2
 800100a:	627b      	str	r3, [r7, #36]	@ 0x24
 800100c:	4a0c      	ldr	r2, [pc, #48]	@ (8001040 <HAL_I2C_MspInit+0x9c>)
 800100e:	6a7b      	ldr	r3, [r7, #36]	@ 0x24
 8001010:	6053      	str	r3, [r2, #4]

    /* Peripheral clock enable */
    __HAL_RCC_I2C1_CLK_ENABLE();
 8001012:	4b09      	ldr	r3, [pc, #36]	@ (8001038 <HAL_I2C_MspInit+0x94>)
 8001014:	69db      	ldr	r3, [r3, #28]
 8001016:	4a08      	ldr	r2, [pc, #32]	@ (8001038 <HAL_I2C_MspInit+0x94>)
 8001018:	f443 1300 	orr.w	r3, r3, #2097152	@ 0x200000
 800101c:	61d3      	str	r3, [r2, #28]
 800101e:	4b06      	ldr	r3, [pc, #24]	@ (8001038 <HAL_I2C_MspInit+0x94>)
 8001020:	69db      	ldr	r3, [r3, #28]
 8001022:	f403 1300 	and.w	r3, r3, #2097152	@ 0x200000
 8001026:	60fb      	str	r3, [r7, #12]
 8001028:	68fb      	ldr	r3, [r7, #12]
  /* USER CODE BEGIN I2C1_MspInit 1 */

  /* USER CODE END I2C1_MspInit 1 */
  }

}
 800102a:	bf00      	nop
 800102c:	3728      	adds	r7, #40	@ 0x28
 800102e:	46bd      	mov	sp, r7
 8001030:	bd80      	pop	{r7, pc}
 8001032:	bf00      	nop
 8001034:	40005400 	.word	0x40005400
 8001038:	40021000 	.word	0x40021000
 800103c:	40010c00 	.word	0x40010c00
 8001040:	40010000 	.word	0x40010000

08001044 <HAL_TIM_Base_MspInit>:
* This function configures the hardware resources used in this example
* @param htim_base: TIM_Base handle pointer
* @retval None
*/
void HAL_TIM_Base_MspInit(TIM_HandleTypeDef* htim_base)
{
 8001044:	b580      	push	{r7, lr}
 8001046:	b084      	sub	sp, #16
 8001048:	af00      	add	r7, sp, #0
 800104a:	6078      	str	r0, [r7, #4]
  if(htim_base->Instance==TIM1)
 800104c:	687b      	ldr	r3, [r7, #4]
 800104e:	681b      	ldr	r3, [r3, #0]
 8001050:	4a0d      	ldr	r2, [pc, #52]	@ (8001088 <HAL_TIM_Base_MspInit+0x44>)
 8001052:	4293      	cmp	r3, r2
 8001054:	d113      	bne.n	800107e <HAL_TIM_Base_MspInit+0x3a>
  {
  /* USER CODE BEGIN TIM1_MspInit 0 */

  /* USER CODE END TIM1_MspInit 0 */
    /* Peripheral clock enable */
    __HAL_RCC_TIM1_CLK_ENABLE();
 8001056:	4b0d      	ldr	r3, [pc, #52]	@ (800108c <HAL_TIM_Base_MspInit+0x48>)
 8001058:	699b      	ldr	r3, [r3, #24]
 800105a:	4a0c      	ldr	r2, [pc, #48]	@ (800108c <HAL_TIM_Base_MspInit+0x48>)
 800105c:	f443 6300 	orr.w	r3, r3, #2048	@ 0x800
 8001060:	6193      	str	r3, [r2, #24]
 8001062:	4b0a      	ldr	r3, [pc, #40]	@ (800108c <HAL_TIM_Base_MspInit+0x48>)
 8001064:	699b      	ldr	r3, [r3, #24]
 8001066:	f403 6300 	and.w	r3, r3, #2048	@ 0x800
 800106a:	60fb      	str	r3, [r7, #12]
 800106c:	68fb      	ldr	r3, [r7, #12]
    /* TIM1 interrupt Init */
    HAL_NVIC_SetPriority(TIM1_UP_IRQn, 0, 0);
 800106e:	2200      	movs	r2, #0
 8001070:	2100      	movs	r1, #0
 8001072:	2019      	movs	r0, #25
 8001074:	f000 fa8b 	bl	800158e <HAL_NVIC_SetPriority>
    HAL_NVIC_EnableIRQ(TIM1_UP_IRQn);
 8001078:	2019      	movs	r0, #25
 800107a:	f000 faa4 	bl	80015c6 <HAL_NVIC_EnableIRQ>
  /* USER CODE BEGIN TIM1_MspInit 1 */

  /* USER CODE END TIM1_MspInit 1 */
  }

}
 800107e:	bf00      	nop
 8001080:	3710      	adds	r7, #16
 8001082:	46bd      	mov	sp, r7
 8001084:	bd80      	pop	{r7, pc}
 8001086:	bf00      	nop
 8001088:	40012c00 	.word	0x40012c00
 800108c:	40021000 	.word	0x40021000

08001090 <HAL_TIM_PWM_MspInit>:
* This function configures the hardware resources used in this example
* @param htim_pwm: TIM_PWM handle pointer
* @retval None
*/
void HAL_TIM_PWM_MspInit(TIM_HandleTypeDef* htim_pwm)
{
 8001090:	b480      	push	{r7}
 8001092:	b085      	sub	sp, #20
 8001094:	af00      	add	r7, sp, #0
 8001096:	6078      	str	r0, [r7, #4]
  if(htim_pwm->Instance==TIM3)
 8001098:	687b      	ldr	r3, [r7, #4]
 800109a:	681b      	ldr	r3, [r3, #0]
 800109c:	4a12      	ldr	r2, [pc, #72]	@ (80010e8 <HAL_TIM_PWM_MspInit+0x58>)
 800109e:	4293      	cmp	r3, r2
 80010a0:	d10c      	bne.n	80010bc <HAL_TIM_PWM_MspInit+0x2c>
  {
  /* USER CODE BEGIN TIM3_MspInit 0 */

  /* USER CODE END TIM3_MspInit 0 */
    /* Peripheral clock enable */
    __HAL_RCC_TIM3_CLK_ENABLE();
 80010a2:	4b12      	ldr	r3, [pc, #72]	@ (80010ec <HAL_TIM_PWM_MspInit+0x5c>)
 80010a4:	69db      	ldr	r3, [r3, #28]
 80010a6:	4a11      	ldr	r2, [pc, #68]	@ (80010ec <HAL_TIM_PWM_MspInit+0x5c>)
 80010a8:	f043 0302 	orr.w	r3, r3, #2
 80010ac:	61d3      	str	r3, [r2, #28]
 80010ae:	4b0f      	ldr	r3, [pc, #60]	@ (80010ec <HAL_TIM_PWM_MspInit+0x5c>)
 80010b0:	69db      	ldr	r3, [r3, #28]
 80010b2:	f003 0302 	and.w	r3, r3, #2
 80010b6:	60fb      	str	r3, [r7, #12]
 80010b8:	68fb      	ldr	r3, [r7, #12]
  /* USER CODE BEGIN TIM4_MspInit 1 */

  /* USER CODE END TIM4_MspInit 1 */
  }

}
 80010ba:	e010      	b.n	80010de <HAL_TIM_PWM_MspInit+0x4e>
  else if(htim_pwm->Instance==TIM4)
 80010bc:	687b      	ldr	r3, [r7, #4]
 80010be:	681b      	ldr	r3, [r3, #0]
 80010c0:	4a0b      	ldr	r2, [pc, #44]	@ (80010f0 <HAL_TIM_PWM_MspInit+0x60>)
 80010c2:	4293      	cmp	r3, r2
 80010c4:	d10b      	bne.n	80010de <HAL_TIM_PWM_MspInit+0x4e>
    __HAL_RCC_TIM4_CLK_ENABLE();
 80010c6:	4b09      	ldr	r3, [pc, #36]	@ (80010ec <HAL_TIM_PWM_MspInit+0x5c>)
 80010c8:	69db      	ldr	r3, [r3, #28]
 80010ca:	4a08      	ldr	r2, [pc, #32]	@ (80010ec <HAL_TIM_PWM_MspInit+0x5c>)
 80010cc:	f043 0304 	orr.w	r3, r3, #4
 80010d0:	61d3      	str	r3, [r2, #28]
 80010d2:	4b06      	ldr	r3, [pc, #24]	@ (80010ec <HAL_TIM_PWM_MspInit+0x5c>)
 80010d4:	69db      	ldr	r3, [r3, #28]
 80010d6:	f003 0304 	and.w	r3, r3, #4
 80010da:	60bb      	str	r3, [r7, #8]
 80010dc:	68bb      	ldr	r3, [r7, #8]
}
 80010de:	bf00      	nop
 80010e0:	3714      	adds	r7, #20
 80010e2:	46bd      	mov	sp, r7
 80010e4:	bc80      	pop	{r7}
 80010e6:	4770      	bx	lr
 80010e8:	40000400 	.word	0x40000400
 80010ec:	40021000 	.word	0x40021000
 80010f0:	40000800 	.word	0x40000800

080010f4 <HAL_TIM_MspPostInit>:

void HAL_TIM_MspPostInit(TIM_HandleTypeDef* htim)
{
 80010f4:	b580      	push	{r7, lr}
 80010f6:	b08a      	sub	sp, #40	@ 0x28
 80010f8:	af00      	add	r7, sp, #0
 80010fa:	6078      	str	r0, [r7, #4]
  GPIO_InitTypeDef GPIO_InitStruct = {0};
 80010fc:	f107 0314 	add.w	r3, r7, #20
 8001100:	2200      	movs	r2, #0
 8001102:	601a      	str	r2, [r3, #0]
 8001104:	605a      	str	r2, [r3, #4]
 8001106:	609a      	str	r2, [r3, #8]
 8001108:	60da      	str	r2, [r3, #12]
  if(htim->Instance==TIM3)
 800110a:	687b      	ldr	r3, [r7, #4]
 800110c:	681b      	ldr	r3, [r3, #0]
 800110e:	4a27      	ldr	r2, [pc, #156]	@ (80011ac <HAL_TIM_MspPostInit+0xb8>)
 8001110:	4293      	cmp	r3, r2
 8001112:	d12a      	bne.n	800116a <HAL_TIM_MspPostInit+0x76>
  {
  /* USER CODE BEGIN TIM3_MspPostInit 0 */

  /* USER CODE END TIM3_MspPostInit 0 */
    __HAL_RCC_GPIOB_CLK_ENABLE();
 8001114:	4b26      	ldr	r3, [pc, #152]	@ (80011b0 <HAL_TIM_MspPostInit+0xbc>)
 8001116:	699b      	ldr	r3, [r3, #24]
 8001118:	4a25      	ldr	r2, [pc, #148]	@ (80011b0 <HAL_TIM_MspPostInit+0xbc>)
 800111a:	f043 0308 	orr.w	r3, r3, #8
 800111e:	6193      	str	r3, [r2, #24]
 8001120:	4b23      	ldr	r3, [pc, #140]	@ (80011b0 <HAL_TIM_MspPostInit+0xbc>)
 8001122:	699b      	ldr	r3, [r3, #24]
 8001124:	f003 0308 	and.w	r3, r3, #8
 8001128:	613b      	str	r3, [r7, #16]
 800112a:	693b      	ldr	r3, [r7, #16]
    /**TIM3 GPIO Configuration
    PB4     ------> TIM3_CH1
    */
    GPIO_InitStruct.Pin = GPIO_PIN_4;
 800112c:	2310      	movs	r3, #16
 800112e:	617b      	str	r3, [r7, #20]
    GPIO_InitStruct.Mode = GPIO_MODE_AF_PP;
 8001130:	2302      	movs	r3, #2
 8001132:	61bb      	str	r3, [r7, #24]
    GPIO_InitStruct.Speed = GPIO_SPEED_FREQ_LOW;
 8001134:	2302      	movs	r3, #2
 8001136:	623b      	str	r3, [r7, #32]
    HAL_GPIO_Init(GPIOB, &GPIO_InitStruct);
 8001138:	f107 0314 	add.w	r3, r7, #20
 800113c:	4619      	mov	r1, r3
 800113e:	481d      	ldr	r0, [pc, #116]	@ (80011b4 <HAL_TIM_MspPostInit+0xc0>)
 8001140:	f000 fa5c 	bl	80015fc <HAL_GPIO_Init>

    __HAL_AFIO_REMAP_TIM3_PARTIAL();
 8001144:	4b1c      	ldr	r3, [pc, #112]	@ (80011b8 <HAL_TIM_MspPostInit+0xc4>)
 8001146:	685b      	ldr	r3, [r3, #4]
 8001148:	627b      	str	r3, [r7, #36]	@ 0x24
 800114a:	6a7b      	ldr	r3, [r7, #36]	@ 0x24
 800114c:	f423 6340 	bic.w	r3, r3, #3072	@ 0xc00
 8001150:	627b      	str	r3, [r7, #36]	@ 0x24
 8001152:	6a7b      	ldr	r3, [r7, #36]	@ 0x24
 8001154:	f043 63e0 	orr.w	r3, r3, #117440512	@ 0x7000000
 8001158:	627b      	str	r3, [r7, #36]	@ 0x24
 800115a:	6a7b      	ldr	r3, [r7, #36]	@ 0x24
 800115c:	f443 6300 	orr.w	r3, r3, #2048	@ 0x800
 8001160:	627b      	str	r3, [r7, #36]	@ 0x24
 8001162:	4a15      	ldr	r2, [pc, #84]	@ (80011b8 <HAL_TIM_MspPostInit+0xc4>)
 8001164:	6a7b      	ldr	r3, [r7, #36]	@ 0x24
 8001166:	6053      	str	r3, [r2, #4]
  /* USER CODE BEGIN TIM4_MspPostInit 1 */

  /* USER CODE END TIM4_MspPostInit 1 */
  }

}
 8001168:	e01c      	b.n	80011a4 <HAL_TIM_MspPostInit+0xb0>
  else if(htim->Instance==TIM4)
 800116a:	687b      	ldr	r3, [r7, #4]
 800116c:	681b      	ldr	r3, [r3, #0]
 800116e:	4a13      	ldr	r2, [pc, #76]	@ (80011bc <HAL_TIM_MspPostInit+0xc8>)
 8001170:	4293      	cmp	r3, r2
 8001172:	d117      	bne.n	80011a4 <HAL_TIM_MspPostInit+0xb0>
    __HAL_RCC_GPIOB_CLK_ENABLE();
 8001174:	4b0e      	ldr	r3, [pc, #56]	@ (80011b0 <HAL_TIM_MspPostInit+0xbc>)
 8001176:	699b      	ldr	r3, [r3, #24]
 8001178:	4a0d      	ldr	r2, [pc, #52]	@ (80011b0 <HAL_TIM_MspPostInit+0xbc>)
 800117a:	f043 0308 	orr.w	r3, r3, #8
 800117e:	6193      	str	r3, [r2, #24]
 8001180:	4b0b      	ldr	r3, [pc, #44]	@ (80011b0 <HAL_TIM_MspPostInit+0xbc>)
 8001182:	699b      	ldr	r3, [r3, #24]
 8001184:	f003 0308 	and.w	r3, r3, #8
 8001188:	60fb      	str	r3, [r7, #12]
 800118a:	68fb      	ldr	r3, [r7, #12]
    GPIO_InitStruct.Pin = GPIO_PIN_6|GPIO_PIN_7;
 800118c:	23c0      	movs	r3, #192	@ 0xc0
 800118e:	617b      	str	r3, [r7, #20]
    GPIO_InitStruct.Mode = GPIO_MODE_AF_PP;
 8001190:	2302      	movs	r3, #2
 8001192:	61bb      	str	r3, [r7, #24]
    GPIO_InitStruct.Speed = GPIO_SPEED_FREQ_LOW;
 8001194:	2302      	movs	r3, #2
 8001196:	623b      	str	r3, [r7, #32]
    HAL_GPIO_Init(GPIOB, &GPIO_InitStruct);
 8001198:	f107 0314 	add.w	r3, r7, #20
 800119c:	4619      	mov	r1, r3
 800119e:	4805      	ldr	r0, [pc, #20]	@ (80011b4 <HAL_TIM_MspPostInit+0xc0>)
 80011a0:	f000 fa2c 	bl	80015fc <HAL_GPIO_Init>
}
 80011a4:	bf00      	nop
 80011a6:	3728      	adds	r7, #40	@ 0x28
 80011a8:	46bd      	mov	sp, r7
 80011aa:	bd80      	pop	{r7, pc}
 80011ac:	40000400 	.word	0x40000400
 80011b0:	40021000 	.word	0x40021000
 80011b4:	40010c00 	.word	0x40010c00
 80011b8:	40010000 	.word	0x40010000
 80011bc:	40000800 	.word	0x40000800

080011c0 <HAL_UART_MspInit>:
* This function configures the hardware resources used in this example
* @param huart: UART handle pointer
* @retval None
*/
void HAL_UART_MspInit(UART_HandleTypeDef* huart)
{
 80011c0:	b580      	push	{r7, lr}
 80011c2:	b088      	sub	sp, #32
 80011c4:	af00      	add	r7, sp, #0
 80011c6:	6078      	str	r0, [r7, #4]
  GPIO_InitTypeDef GPIO_InitStruct = {0};
 80011c8:	f107 0310 	add.w	r3, r7, #16
 80011cc:	2200      	movs	r2, #0
 80011ce:	601a      	str	r2, [r3, #0]
 80011d0:	605a      	str	r2, [r3, #4]
 80011d2:	609a      	str	r2, [r3, #8]
 80011d4:	60da      	str	r2, [r3, #12]
  if(huart->Instance==USART1)
 80011d6:	687b      	ldr	r3, [r7, #4]
 80011d8:	681b      	ldr	r3, [r3, #0]
 80011da:	4a1c      	ldr	r2, [pc, #112]	@ (800124c <HAL_UART_MspInit+0x8c>)
 80011dc:	4293      	cmp	r3, r2
 80011de:	d131      	bne.n	8001244 <HAL_UART_MspInit+0x84>
  {
  /* USER CODE BEGIN USART1_MspInit 0 */

  /* USER CODE END USART1_MspInit 0 */
    /* Peripheral clock enable */
    __HAL_RCC_USART1_CLK_ENABLE();
 80011e0:	4b1b      	ldr	r3, [pc, #108]	@ (8001250 <HAL_UART_MspInit+0x90>)
 80011e2:	699b      	ldr	r3, [r3, #24]
 80011e4:	4a1a      	ldr	r2, [pc, #104]	@ (8001250 <HAL_UART_MspInit+0x90>)
 80011e6:	f443 4380 	orr.w	r3, r3, #16384	@ 0x4000
 80011ea:	6193      	str	r3, [r2, #24]
 80011ec:	4b18      	ldr	r3, [pc, #96]	@ (8001250 <HAL_UART_MspInit+0x90>)
 80011ee:	699b      	ldr	r3, [r3, #24]
 80011f0:	f403 4380 	and.w	r3, r3, #16384	@ 0x4000
 80011f4:	60fb      	str	r3, [r7, #12]
 80011f6:	68fb      	ldr	r3, [r7, #12]

    __HAL_RCC_GPIOA_CLK_ENABLE();
 80011f8:	4b15      	ldr	r3, [pc, #84]	@ (8001250 <HAL_UART_MspInit+0x90>)
 80011fa:	699b      	ldr	r3, [r3, #24]
 80011fc:	4a14      	ldr	r2, [pc, #80]	@ (8001250 <HAL_UART_MspInit+0x90>)
 80011fe:	f043 0304 	orr.w	r3, r3, #4
 8001202:	6193      	str	r3, [r2, #24]
 8001204:	4b12      	ldr	r3, [pc, #72]	@ (8001250 <HAL_UART_MspInit+0x90>)
 8001206:	699b      	ldr	r3, [r3, #24]
 8001208:	f003 0304 	and.w	r3, r3, #4
 800120c:	60bb      	str	r3, [r7, #8]
 800120e:	68bb      	ldr	r3, [r7, #8]
    /**USART1 GPIO Configuration
    PA9     ------> USART1_TX
    PA10     ------> USART1_RX
    */
    GPIO_InitStruct.Pin = GPIO_PIN_9;
 8001210:	f44f 7300 	mov.w	r3, #512	@ 0x200
 8001214:	613b      	str	r3, [r7, #16]
    GPIO_InitStruct.Mode = GPIO_MODE_AF_PP;
 8001216:	2302      	movs	r3, #2
 8001218:	617b      	str	r3, [r7, #20]
    GPIO_InitStruct.Speed = GPIO_SPEED_FREQ_HIGH;
 800121a:	2303      	movs	r3, #3
 800121c:	61fb      	str	r3, [r7, #28]
    HAL_GPIO_Init(GPIOA, &GPIO_InitStruct);
 800121e:	f107 0310 	add.w	r3, r7, #16
 8001222:	4619      	mov	r1, r3
 8001224:	480b      	ldr	r0, [pc, #44]	@ (8001254 <HAL_UART_MspInit+0x94>)
 8001226:	f000 f9e9 	bl	80015fc <HAL_GPIO_Init>

    GPIO_InitStruct.Pin = GPIO_PIN_10;
 800122a:	f44f 6380 	mov.w	r3, #1024	@ 0x400
 800122e:	613b      	str	r3, [r7, #16]
    GPIO_InitStruct.Mode = GPIO_MODE_INPUT;
 8001230:	2300      	movs	r3, #0
 8001232:	617b      	str	r3, [r7, #20]
    GPIO_InitStruct.Pull = GPIO_NOPULL;
 8001234:	2300      	movs	r3, #0
 8001236:	61bb      	str	r3, [r7, #24]
    HAL_GPIO_Init(GPIOA, &GPIO_InitStruct);
 8001238:	f107 0310 	add.w	r3, r7, #16
 800123c:	4619      	mov	r1, r3
 800123e:	4805      	ldr	r0, [pc, #20]	@ (8001254 <HAL_UART_MspInit+0x94>)
 8001240:	f000 f9dc 	bl	80015fc <HAL_GPIO_Init>
  /* USER CODE BEGIN USART1_MspInit 1 */

  /* USER CODE END USART1_MspInit 1 */
  }

}
 8001244:	bf00      	nop
 8001246:	3720      	adds	r7, #32
 8001248:	46bd      	mov	sp, r7
 800124a:	bd80      	pop	{r7, pc}
 800124c:	40013800 	.word	0x40013800
 8001250:	40021000 	.word	0x40021000
 8001254:	40010800 	.word	0x40010800

08001258 <NMI_Handler>:
/******************************************************************************/
/**
  * @brief This function handles Non maskable interrupt.
  */
void NMI_Handler(void)
{
 8001258:	b480      	push	{r7}
 800125a:	af00      	add	r7, sp, #0
  /* USER CODE BEGIN NonMaskableInt_IRQn 0 */

  /* USER CODE END NonMaskableInt_IRQn 0 */
  /* USER CODE BEGIN NonMaskableInt_IRQn 1 */
   while (1)
 800125c:	bf00      	nop
 800125e:	e7fd      	b.n	800125c <NMI_Handler+0x4>

08001260 <HardFault_Handler>:

/**
  * @brief This function handles Hard fault interrupt.
  */
void HardFault_Handler(void)
{
 8001260:	b480      	push	{r7}
 8001262:	af00      	add	r7, sp, #0
  /* USER CODE BEGIN HardFault_IRQn 0 */

  /* USER CODE END HardFault_IRQn 0 */
  while (1)
 8001264:	bf00      	nop
 8001266:	e7fd      	b.n	8001264 <HardFault_Handler+0x4>

08001268 <MemManage_Handler>:

/**
  * @brief This function handles Memory management fault.
  */
void MemManage_Handler(void)
{
 8001268:	b480      	push	{r7}
 800126a:	af00      	add	r7, sp, #0
  /* USER CODE BEGIN MemoryManagement_IRQn 0 */

  /* USER CODE END MemoryManagement_IRQn 0 */
  while (1)
 800126c:	bf00      	nop
 800126e:	e7fd      	b.n	800126c <MemManage_Handler+0x4>

08001270 <BusFault_Handler>:

/**
  * @brief This function handles Prefetch fault, memory access fault.
  */
void BusFault_Handler(void)
{
 8001270:	b480      	push	{r7}
 8001272:	af00      	add	r7, sp, #0
  /* USER CODE BEGIN BusFault_IRQn 0 */

  /* USER CODE END BusFault_IRQn 0 */
  while (1)
 8001274:	bf00      	nop
 8001276:	e7fd      	b.n	8001274 <BusFault_Handler+0x4>

08001278 <UsageFault_Handler>:

/**
  * @brief This function handles Undefined instruction or illegal state.
  */
void UsageFault_Handler(void)
{
 8001278:	b480      	push	{r7}
 800127a:	af00      	add	r7, sp, #0
  /* USER CODE BEGIN UsageFault_IRQn 0 */

  /* USER CODE END UsageFault_IRQn 0 */
  while (1)
 800127c:	bf00      	nop
 800127e:	e7fd      	b.n	800127c <UsageFault_Handler+0x4>

08001280 <SVC_Handler>:

/**
  * @brief This function handles System service call via SWI instruction.
  */
void SVC_Handler(void)
{
 8001280:	b480      	push	{r7}
 8001282:	af00      	add	r7, sp, #0

  /* USER CODE END SVCall_IRQn 0 */
  /* USER CODE BEGIN SVCall_IRQn 1 */

  /* USER CODE END SVCall_IRQn 1 */
}
 8001284:	bf00      	nop
 8001286:	46bd      	mov	sp, r7
 8001288:	bc80      	pop	{r7}
 800128a:	4770      	bx	lr

0800128c <DebugMon_Handler>:

/**
  * @brief This function handles Debug monitor.
  */
void DebugMon_Handler(void)
{
 800128c:	b480      	push	{r7}
 800128e:	af00      	add	r7, sp, #0

  /* USER CODE END DebugMonitor_IRQn 0 */
  /* USER CODE BEGIN DebugMonitor_IRQn 1 */

  /* USER CODE END DebugMonitor_IRQn 1 */
}
 8001290:	bf00      	nop
 8001292:	46bd      	mov	sp, r7
 8001294:	bc80      	pop	{r7}
 8001296:	4770      	bx	lr

08001298 <PendSV_Handler>:

/**
  * @brief This function handles Pendable request for system service.
  */
void PendSV_Handler(void)
{
 8001298:	b480      	push	{r7}
 800129a:	af00      	add	r7, sp, #0

  /* USER CODE END PendSV_IRQn 0 */
  /* USER CODE BEGIN PendSV_IRQn 1 */

  /* USER CODE END PendSV_IRQn 1 */
}
 800129c:	bf00      	nop
 800129e:	46bd      	mov	sp, r7
 80012a0:	bc80      	pop	{r7}
 80012a2:	4770      	bx	lr

080012a4 <SysTick_Handler>:

/**
  * @brief This function handles System tick timer.
  */
void SysTick_Handler(void)
{
 80012a4:	b580      	push	{r7, lr}
 80012a6:	af00      	add	r7, sp, #0
  /* USER CODE BEGIN SysTick_IRQn 0 */

  /* USER CODE END SysTick_IRQn 0 */
  HAL_IncTick();
 80012a8:	f000 f87e 	bl	80013a8 <HAL_IncTick>
  /* USER CODE BEGIN SysTick_IRQn 1 */

  /* USER CODE END SysTick_IRQn 1 */
}
 80012ac:	bf00      	nop
 80012ae:	bd80      	pop	{r7, pc}

080012b0 <TIM1_UP_IRQHandler>:

/**
  * @brief This function handles TIM1 update interrupt.
  */
void TIM1_UP_IRQHandler(void)
{
 80012b0:	b580      	push	{r7, lr}
 80012b2:	af00      	add	r7, sp, #0
  /* USER CODE BEGIN TIM1_UP_IRQn 0 */

  /* USER CODE END TIM1_UP_IRQn 0 */
  HAL_TIM_IRQHandler(&htim1);
 80012b4:	4802      	ldr	r0, [pc, #8]	@ (80012c0 <TIM1_UP_IRQHandler+0x10>)
 80012b6:	f002 f93b 	bl	8003530 <HAL_TIM_IRQHandler>
  /* USER CODE BEGIN TIM1_UP_IRQn 1 */

  /* USER CODE END TIM1_UP_IRQn 1 */
}
 80012ba:	bf00      	nop
 80012bc:	bd80      	pop	{r7, pc}
 80012be:	bf00      	nop
 80012c0:	2000007c 	.word	0x2000007c

080012c4 <SystemInit>:
  * @note   This function should be used only after reset.
  * @param  None
  * @retval None
  */
void SystemInit (void)
{
 80012c4:	b480      	push	{r7}
 80012c6:	af00      	add	r7, sp, #0

  /* Configure the Vector Table location -------------------------------------*/
#if defined(USER_VECT_TAB_ADDRESS)
  SCB->VTOR = VECT_TAB_BASE_ADDRESS | VECT_TAB_OFFSET; /* Vector Table Relocation in Internal SRAM. */
#endif /* USER_VECT_TAB_ADDRESS */
}
 80012c8:	bf00      	nop
 80012ca:	46bd      	mov	sp, r7
 80012cc:	bc80      	pop	{r7}
 80012ce:	4770      	bx	lr

080012d0 <Reset_Handler>:
  .weak Reset_Handler
  .type Reset_Handler, %function
Reset_Handler:

/* Call the clock system initialization function.*/
    bl  SystemInit
 80012d0:	f7ff fff8 	bl	80012c4 <SystemInit>

/* Copy the data segment initializers from flash to SRAM */
  ldr r0, =_sdata
 80012d4:	480b      	ldr	r0, [pc, #44]	@ (8001304 <LoopFillZerobss+0xe>)
  ldr r1, =_edata
 80012d6:	490c      	ldr	r1, [pc, #48]	@ (8001308 <LoopFillZerobss+0x12>)
  ldr r2, =_sidata
 80012d8:	4a0c      	ldr	r2, [pc, #48]	@ (800130c <LoopFillZerobss+0x16>)
  movs r3, #0
 80012da:	2300      	movs	r3, #0
  b LoopCopyDataInit
 80012dc:	e002      	b.n	80012e4 <LoopCopyDataInit>

080012de <CopyDataInit>:

CopyDataInit:
  ldr r4, [r2, r3]
 80012de:	58d4      	ldr	r4, [r2, r3]
  str r4, [r0, r3]
 80012e0:	50c4      	str	r4, [r0, r3]
  adds r3, r3, #4
 80012e2:	3304      	adds	r3, #4

080012e4 <LoopCopyDataInit>:

LoopCopyDataInit:
  adds r4, r0, r3
 80012e4:	18c4      	adds	r4, r0, r3
  cmp r4, r1
 80012e6:	428c      	cmp	r4, r1
  bcc CopyDataInit
 80012e8:	d3f9      	bcc.n	80012de <CopyDataInit>
  
/* Zero fill the bss segment. */
  ldr r2, =_sbss
 80012ea:	4a09      	ldr	r2, [pc, #36]	@ (8001310 <LoopFillZerobss+0x1a>)
  ldr r4, =_ebss
 80012ec:	4c09      	ldr	r4, [pc, #36]	@ (8001314 <LoopFillZerobss+0x1e>)
  movs r3, #0
 80012ee:	2300      	movs	r3, #0
  b LoopFillZerobss
 80012f0:	e001      	b.n	80012f6 <LoopFillZerobss>

080012f2 <FillZerobss>:

FillZerobss:
  str  r3, [r2]
 80012f2:	6013      	str	r3, [r2, #0]
  adds r2, r2, #4
 80012f4:	3204      	adds	r2, #4

080012f6 <LoopFillZerobss>:

LoopFillZerobss:
  cmp r2, r4
 80012f6:	42a2      	cmp	r2, r4
  bcc FillZerobss
 80012f8:	d3fb      	bcc.n	80012f2 <FillZerobss>

/* Call static constructors */
    bl __libc_init_array
 80012fa:	f002 ffd1 	bl	80042a0 <__libc_init_array>
/* Call the application's entry point.*/
  bl main
 80012fe:	f7ff fb17 	bl	8000930 <main>
  bx lr
 8001302:	4770      	bx	lr
  ldr r0, =_sdata
 8001304:	20000000 	.word	0x20000000
  ldr r1, =_edata
 8001308:	2000000c 	.word	0x2000000c
  ldr r2, =_sidata
 800130c:	08004334 	.word	0x08004334
  ldr r2, =_sbss
 8001310:	2000000c 	.word	0x2000000c
  ldr r4, =_ebss
 8001314:	200001a0 	.word	0x200001a0

08001318 <ADC1_2_IRQHandler>:
 * @retval : None
*/
    .section .text.Default_Handler,"ax",%progbits
Default_Handler:
Infinite_Loop:
  b Infinite_Loop
 8001318:	e7fe      	b.n	8001318 <ADC1_2_IRQHandler>
	...

0800131c <HAL_Init>:
  *         need to ensure that the SysTick time base is always set to 1 millisecond
  *         to have correct HAL operation.
  * @retval HAL status
  */
HAL_StatusTypeDef HAL_Init(void)
{
 800131c:	b580      	push	{r7, lr}
 800131e:	af00      	add	r7, sp, #0
    defined(STM32F102x6) || defined(STM32F102xB) || \
    defined(STM32F103x6) || defined(STM32F103xB) || defined(STM32F103xE) || defined(STM32F103xG) || \
    defined(STM32F105xC) || defined(STM32F107xC)

  /* Prefetch buffer is not available on value line devices */
  __HAL_FLASH_PREFETCH_BUFFER_ENABLE();
 8001320:	4b08      	ldr	r3, [pc, #32]	@ (8001344 <HAL_Init+0x28>)
 8001322:	681b      	ldr	r3, [r3, #0]
 8001324:	4a07      	ldr	r2, [pc, #28]	@ (8001344 <HAL_Init+0x28>)
 8001326:	f043 0310 	orr.w	r3, r3, #16
 800132a:	6013      	str	r3, [r2, #0]
#endif
#endif /* PREFETCH_ENABLE */

  /* Set Interrupt Group Priority */
  HAL_NVIC_SetPriorityGrouping(NVIC_PRIORITYGROUP_4);
 800132c:	2003      	movs	r0, #3
 800132e:	f000 f923 	bl	8001578 <HAL_NVIC_SetPriorityGrouping>

  /* Use systick as time base source and configure 1ms tick (default clock after Reset is HSI) */
  HAL_InitTick(TICK_INT_PRIORITY);
 8001332:	200f      	movs	r0, #15
 8001334:	f000 f808 	bl	8001348 <HAL_InitTick>

  /* Init the low level hardware */
  HAL_MspInit();
 8001338:	f7ff fe02 	bl	8000f40 <HAL_MspInit>

  /* Return function status */
  return HAL_OK;
 800133c:	2300      	movs	r3, #0
}
 800133e:	4618      	mov	r0, r3
 8001340:	bd80      	pop	{r7, pc}
 8001342:	bf00      	nop
 8001344:	40022000 	.word	0x40022000

08001348 <HAL_InitTick>:
  *       implementation  in user file.
  * @param TickPriority Tick interrupt priority.
  * @retval HAL status
  */
__weak HAL_StatusTypeDef HAL_InitTick(uint32_t TickPriority)
{
 8001348:	b580      	push	{r7, lr}
 800134a:	b082      	sub	sp, #8
 800134c:	af00      	add	r7, sp, #0
 800134e:	6078      	str	r0, [r7, #4]
  /* Configure the SysTick to have interrupt in 1ms time basis*/
  if (HAL_SYSTICK_Config(SystemCoreClock / (1000U / uwTickFreq)) > 0U)
 8001350:	4b12      	ldr	r3, [pc, #72]	@ (800139c <HAL_InitTick+0x54>)
 8001352:	681a      	ldr	r2, [r3, #0]
 8001354:	4b12      	ldr	r3, [pc, #72]	@ (80013a0 <HAL_InitTick+0x58>)
 8001356:	781b      	ldrb	r3, [r3, #0]
 8001358:	4619      	mov	r1, r3
 800135a:	f44f 737a 	mov.w	r3, #1000	@ 0x3e8
 800135e:	fbb3 f3f1 	udiv	r3, r3, r1
 8001362:	fbb2 f3f3 	udiv	r3, r2, r3
 8001366:	4618      	mov	r0, r3
 8001368:	f000 f93b 	bl	80015e2 <HAL_SYSTICK_Config>
 800136c:	4603      	mov	r3, r0
 800136e:	2b00      	cmp	r3, #0
 8001370:	d001      	beq.n	8001376 <HAL_InitTick+0x2e>
  {
    return HAL_ERROR;
 8001372:	2301      	movs	r3, #1
 8001374:	e00e      	b.n	8001394 <HAL_InitTick+0x4c>
  }

  /* Configure the SysTick IRQ priority */
  if (TickPriority < (1UL << __NVIC_PRIO_BITS))
 8001376:	687b      	ldr	r3, [r7, #4]
 8001378:	2b0f      	cmp	r3, #15
 800137a:	d80a      	bhi.n	8001392 <HAL_InitTick+0x4a>
  {
    HAL_NVIC_SetPriority(SysTick_IRQn, TickPriority, 0U);
 800137c:	2200      	movs	r2, #0
 800137e:	6879      	ldr	r1, [r7, #4]
 8001380:	f04f 30ff 	mov.w	r0, #4294967295
 8001384:	f000 f903 	bl	800158e <HAL_NVIC_SetPriority>
    uwTickPrio = TickPriority;
 8001388:	4a06      	ldr	r2, [pc, #24]	@ (80013a4 <HAL_InitTick+0x5c>)
 800138a:	687b      	ldr	r3, [r7, #4]
 800138c:	6013      	str	r3, [r2, #0]
  {
    return HAL_ERROR;
  }

  /* Return function status */
  return HAL_OK;
 800138e:	2300      	movs	r3, #0
 8001390:	e000      	b.n	8001394 <HAL_InitTick+0x4c>
    return HAL_ERROR;
 8001392:	2301      	movs	r3, #1
}
 8001394:	4618      	mov	r0, r3
 8001396:	3708      	adds	r7, #8
 8001398:	46bd      	mov	sp, r7
 800139a:	bd80      	pop	{r7, pc}
 800139c:	20000000 	.word	0x20000000
 80013a0:	20000008 	.word	0x20000008
 80013a4:	20000004 	.word	0x20000004

080013a8 <HAL_IncTick>:
  * @note This function is declared as __weak to be overwritten in case of other
  *      implementations in user file.
  * @retval None
  */
__weak void HAL_IncTick(void)
{
 80013a8:	b480      	push	{r7}
 80013aa:	af00      	add	r7, sp, #0
  uwTick += uwTickFreq;
 80013ac:	4b05      	ldr	r3, [pc, #20]	@ (80013c4 <HAL_IncTick+0x1c>)
 80013ae:	781b      	ldrb	r3, [r3, #0]
 80013b0:	461a      	mov	r2, r3
 80013b2:	4b05      	ldr	r3, [pc, #20]	@ (80013c8 <HAL_IncTick+0x20>)
 80013b4:	681b      	ldr	r3, [r3, #0]
 80013b6:	4413      	add	r3, r2
 80013b8:	4a03      	ldr	r2, [pc, #12]	@ (80013c8 <HAL_IncTick+0x20>)
 80013ba:	6013      	str	r3, [r2, #0]
}
 80013bc:	bf00      	nop
 80013be:	46bd      	mov	sp, r7
 80013c0:	bc80      	pop	{r7}
 80013c2:	4770      	bx	lr
 80013c4:	20000008 	.word	0x20000008
 80013c8:	2000019c 	.word	0x2000019c

080013cc <HAL_GetTick>:
  * @note  This function is declared as __weak to be overwritten in case of other
  *       implementations in user file.
  * @retval tick value
  */
__weak uint32_t HAL_GetTick(void)
{
 80013cc:	b480      	push	{r7}
 80013ce:	af00      	add	r7, sp, #0
  return uwTick;
 80013d0:	4b02      	ldr	r3, [pc, #8]	@ (80013dc <HAL_GetTick+0x10>)
 80013d2:	681b      	ldr	r3, [r3, #0]
}
 80013d4:	4618      	mov	r0, r3
 80013d6:	46bd      	mov	sp, r7
 80013d8:	bc80      	pop	{r7}
 80013da:	4770      	bx	lr
 80013dc:	2000019c 	.word	0x2000019c

080013e0 <__NVIC_SetPriorityGrouping>:
           In case of a conflict between priority grouping and available
           priority bits (__NVIC_PRIO_BITS), the smallest possible priority group is set.
  \param [in]      PriorityGroup  Priority grouping field.
 */
__STATIC_INLINE void __NVIC_SetPriorityGrouping(uint32_t PriorityGroup)
{
 80013e0:	b480      	push	{r7}
 80013e2:	b085      	sub	sp, #20
 80013e4:	af00      	add	r7, sp, #0
 80013e6:	6078      	str	r0, [r7, #4]
  uint32_t reg_value;
  uint32_t PriorityGroupTmp = (PriorityGroup & (uint32_t)0x07UL);             /* only values 0..7 are used          */
 80013e8:	687b      	ldr	r3, [r7, #4]
 80013ea:	f003 0307 	and.w	r3, r3, #7
 80013ee:	60fb      	str	r3, [r7, #12]

  reg_value  =  SCB->AIRCR;                                                   /* read old register configuration    */
 80013f0:	4b0c      	ldr	r3, [pc, #48]	@ (8001424 <__NVIC_SetPriorityGrouping+0x44>)
 80013f2:	68db      	ldr	r3, [r3, #12]
 80013f4:	60bb      	str	r3, [r7, #8]
  reg_value &= ~((uint32_t)(SCB_AIRCR_VECTKEY_Msk | SCB_AIRCR_PRIGROUP_Msk)); /* clear bits to change               */
 80013f6:	68ba      	ldr	r2, [r7, #8]
 80013f8:	f64f 03ff 	movw	r3, #63743	@ 0xf8ff
 80013fc:	4013      	ands	r3, r2
 80013fe:	60bb      	str	r3, [r7, #8]
  reg_value  =  (reg_value                                   |
                ((uint32_t)0x5FAUL << SCB_AIRCR_VECTKEY_Pos) |
                (PriorityGroupTmp << SCB_AIRCR_PRIGROUP_Pos) );               /* Insert write key and priority group */
 8001400:	68fb      	ldr	r3, [r7, #12]
 8001402:	021a      	lsls	r2, r3, #8
                ((uint32_t)0x5FAUL << SCB_AIRCR_VECTKEY_Pos) |
 8001404:	68bb      	ldr	r3, [r7, #8]
 8001406:	4313      	orrs	r3, r2
  reg_value  =  (reg_value                                   |
 8001408:	f043 63bf 	orr.w	r3, r3, #100139008	@ 0x5f80000
 800140c:	f443 3300 	orr.w	r3, r3, #131072	@ 0x20000
 8001410:	60bb      	str	r3, [r7, #8]
  SCB->AIRCR =  reg_value;
 8001412:	4a04      	ldr	r2, [pc, #16]	@ (8001424 <__NVIC_SetPriorityGrouping+0x44>)
 8001414:	68bb      	ldr	r3, [r7, #8]
 8001416:	60d3      	str	r3, [r2, #12]
}
 8001418:	bf00      	nop
 800141a:	3714      	adds	r7, #20
 800141c:	46bd      	mov	sp, r7
 800141e:	bc80      	pop	{r7}
 8001420:	4770      	bx	lr
 8001422:	bf00      	nop
 8001424:	e000ed00 	.word	0xe000ed00

08001428 <__NVIC_GetPriorityGrouping>:
  \brief   Get Priority Grouping
  \details Reads the priority grouping field from the NVIC Interrupt Controller.
  \return                Priority grouping field (SCB->AIRCR [10:8] PRIGROUP field).
 */
__STATIC_INLINE uint32_t __NVIC_GetPriorityGrouping(void)
{
 8001428:	b480      	push	{r7}
 800142a:	af00      	add	r7, sp, #0
  return ((uint32_t)((SCB->AIRCR & SCB_AIRCR_PRIGROUP_Msk) >> SCB_AIRCR_PRIGROUP_Pos));
 800142c:	4b04      	ldr	r3, [pc, #16]	@ (8001440 <__NVIC_GetPriorityGrouping+0x18>)
 800142e:	68db      	ldr	r3, [r3, #12]
 8001430:	0a1b      	lsrs	r3, r3, #8
 8001432:	f003 0307 	and.w	r3, r3, #7
}
 8001436:	4618      	mov	r0, r3
 8001438:	46bd      	mov	sp, r7
 800143a:	bc80      	pop	{r7}
 800143c:	4770      	bx	lr
 800143e:	bf00      	nop
 8001440:	e000ed00 	.word	0xe000ed00

08001444 <__NVIC_EnableIRQ>:
  \details Enables a device specific interrupt in the NVIC interrupt controller.
  \param [in]      IRQn  Device specific interrupt number.
  \note    IRQn must not be negative.
 */
__STATIC_INLINE void __NVIC_EnableIRQ(IRQn_Type IRQn)
{
 8001444:	b480      	push	{r7}
 8001446:	b083      	sub	sp, #12
 8001448:	af00      	add	r7, sp, #0
 800144a:	4603      	mov	r3, r0
 800144c:	71fb      	strb	r3, [r7, #7]
  if ((int32_t)(IRQn) >= 0)
 800144e:	f997 3007 	ldrsb.w	r3, [r7, #7]
 8001452:	2b00      	cmp	r3, #0
 8001454:	db0b      	blt.n	800146e <__NVIC_EnableIRQ+0x2a>
  {
    NVIC->ISER[(((uint32_t)IRQn) >> 5UL)] = (uint32_t)(1UL << (((uint32_t)IRQn) & 0x1FUL));
 8001456:	79fb      	ldrb	r3, [r7, #7]
 8001458:	f003 021f 	and.w	r2, r3, #31
 800145c:	4906      	ldr	r1, [pc, #24]	@ (8001478 <__NVIC_EnableIRQ+0x34>)
 800145e:	f997 3007 	ldrsb.w	r3, [r7, #7]
 8001462:	095b      	lsrs	r3, r3, #5
 8001464:	2001      	movs	r0, #1
 8001466:	fa00 f202 	lsl.w	r2, r0, r2
 800146a:	f841 2023 	str.w	r2, [r1, r3, lsl #2]
  }
}
 800146e:	bf00      	nop
 8001470:	370c      	adds	r7, #12
 8001472:	46bd      	mov	sp, r7
 8001474:	bc80      	pop	{r7}
 8001476:	4770      	bx	lr
 8001478:	e000e100 	.word	0xe000e100

0800147c <__NVIC_SetPriority>:
  \param [in]      IRQn  Interrupt number.
  \param [in]  priority  Priority to set.
  \note    The priority cannot be set for every processor exception.
 */
__STATIC_INLINE void __NVIC_SetPriority(IRQn_Type IRQn, uint32_t priority)
{
 800147c:	b480      	push	{r7}
 800147e:	b083      	sub	sp, #12
 8001480:	af00      	add	r7, sp, #0
 8001482:	4603      	mov	r3, r0
 8001484:	6039      	str	r1, [r7, #0]
 8001486:	71fb      	strb	r3, [r7, #7]
  if ((int32_t)(IRQn) >= 0)
 8001488:	f997 3007 	ldrsb.w	r3, [r7, #7]
 800148c:	2b00      	cmp	r3, #0
 800148e:	db0a      	blt.n	80014a6 <__NVIC_SetPriority+0x2a>
  {
    NVIC->IP[((uint32_t)IRQn)]               = (uint8_t)((priority << (8U - __NVIC_PRIO_BITS)) & (uint32_t)0xFFUL);
 8001490:	683b      	ldr	r3, [r7, #0]
 8001492:	b2da      	uxtb	r2, r3
 8001494:	490c      	ldr	r1, [pc, #48]	@ (80014c8 <__NVIC_SetPriority+0x4c>)
 8001496:	f997 3007 	ldrsb.w	r3, [r7, #7]
 800149a:	0112      	lsls	r2, r2, #4
 800149c:	b2d2      	uxtb	r2, r2
 800149e:	440b      	add	r3, r1
 80014a0:	f883 2300 	strb.w	r2, [r3, #768]	@ 0x300
  }
  else
  {
    SCB->SHP[(((uint32_t)IRQn) & 0xFUL)-4UL] = (uint8_t)((priority << (8U - __NVIC_PRIO_BITS)) & (uint32_t)0xFFUL);
  }
}
 80014a4:	e00a      	b.n	80014bc <__NVIC_SetPriority+0x40>
    SCB->SHP[(((uint32_t)IRQn) & 0xFUL)-4UL] = (uint8_t)((priority << (8U - __NVIC_PRIO_BITS)) & (uint32_t)0xFFUL);
 80014a6:	683b      	ldr	r3, [r7, #0]
 80014a8:	b2da      	uxtb	r2, r3
 80014aa:	4908      	ldr	r1, [pc, #32]	@ (80014cc <__NVIC_SetPriority+0x50>)
 80014ac:	79fb      	ldrb	r3, [r7, #7]
 80014ae:	f003 030f 	and.w	r3, r3, #15
 80014b2:	3b04      	subs	r3, #4
 80014b4:	0112      	lsls	r2, r2, #4
 80014b6:	b2d2      	uxtb	r2, r2
 80014b8:	440b      	add	r3, r1
 80014ba:	761a      	strb	r2, [r3, #24]
}
 80014bc:	bf00      	nop
 80014be:	370c      	adds	r7, #12
 80014c0:	46bd      	mov	sp, r7
 80014c2:	bc80      	pop	{r7}
 80014c4:	4770      	bx	lr
 80014c6:	bf00      	nop
 80014c8:	e000e100 	.word	0xe000e100
 80014cc:	e000ed00 	.word	0xe000ed00

080014d0 <NVIC_EncodePriority>:
  \param [in]   PreemptPriority  Preemptive priority value (starting from 0).
  \param [in]       SubPriority  Subpriority value (starting from 0).
  \return                        Encoded priority. Value can be used in the function \ref NVIC_SetPriority().
 */
__STATIC_INLINE uint32_t NVIC_EncodePriority (uint32_t PriorityGroup, uint32_t PreemptPriority, uint32_t SubPriority)
{
 80014d0:	b480      	push	{r7}
 80014d2:	b089      	sub	sp, #36	@ 0x24
 80014d4:	af00      	add	r7, sp, #0
 80014d6:	60f8      	str	r0, [r7, #12]
 80014d8:	60b9      	str	r1, [r7, #8]
 80014da:	607a      	str	r2, [r7, #4]
  uint32_t PriorityGroupTmp = (PriorityGroup & (uint32_t)0x07UL);   /* only values 0..7 are used          */
 80014dc:	68fb      	ldr	r3, [r7, #12]
 80014de:	f003 0307 	and.w	r3, r3, #7
 80014e2:	61fb      	str	r3, [r7, #28]
  uint32_t PreemptPriorityBits;
  uint32_t SubPriorityBits;

  PreemptPriorityBits = ((7UL - PriorityGroupTmp) > (uint32_t)(__NVIC_PRIO_BITS)) ? (uint32_t)(__NVIC_PRIO_BITS) : (uint32_t)(7UL - PriorityGroupTmp);
 80014e4:	69fb      	ldr	r3, [r7, #28]
 80014e6:	f1c3 0307 	rsb	r3, r3, #7
 80014ea:	2b04      	cmp	r3, #4
 80014ec:	bf28      	it	cs
 80014ee:	2304      	movcs	r3, #4
 80014f0:	61bb      	str	r3, [r7, #24]
  SubPriorityBits     = ((PriorityGroupTmp + (uint32_t)(__NVIC_PRIO_BITS)) < (uint32_t)7UL) ? (uint32_t)0UL : (uint32_t)((PriorityGroupTmp - 7UL) + (uint32_t)(__NVIC_PRIO_BITS));
 80014f2:	69fb      	ldr	r3, [r7, #28]
 80014f4:	3304      	adds	r3, #4
 80014f6:	2b06      	cmp	r3, #6
 80014f8:	d902      	bls.n	8001500 <NVIC_EncodePriority+0x30>
 80014fa:	69fb      	ldr	r3, [r7, #28]
 80014fc:	3b03      	subs	r3, #3
 80014fe:	e000      	b.n	8001502 <NVIC_EncodePriority+0x32>
 8001500:	2300      	movs	r3, #0
 8001502:	617b      	str	r3, [r7, #20]

  return (
           ((PreemptPriority & (uint32_t)((1UL << (PreemptPriorityBits)) - 1UL)) << SubPriorityBits) |
 8001504:	f04f 32ff 	mov.w	r2, #4294967295
 8001508:	69bb      	ldr	r3, [r7, #24]
 800150a:	fa02 f303 	lsl.w	r3, r2, r3
 800150e:	43da      	mvns	r2, r3
 8001510:	68bb      	ldr	r3, [r7, #8]
 8001512:	401a      	ands	r2, r3
 8001514:	697b      	ldr	r3, [r7, #20]
 8001516:	409a      	lsls	r2, r3
           ((SubPriority     & (uint32_t)((1UL << (SubPriorityBits    )) - 1UL)))
 8001518:	f04f 31ff 	mov.w	r1, #4294967295
 800151c:	697b      	ldr	r3, [r7, #20]
 800151e:	fa01 f303 	lsl.w	r3, r1, r3
 8001522:	43d9      	mvns	r1, r3
 8001524:	687b      	ldr	r3, [r7, #4]
 8001526:	400b      	ands	r3, r1
           ((PreemptPriority & (uint32_t)((1UL << (PreemptPriorityBits)) - 1UL)) << SubPriorityBits) |
 8001528:	4313      	orrs	r3, r2
         );
}
 800152a:	4618      	mov	r0, r3
 800152c:	3724      	adds	r7, #36	@ 0x24
 800152e:	46bd      	mov	sp, r7
 8001530:	bc80      	pop	{r7}
 8001532:	4770      	bx	lr

08001534 <SysTick_Config>:
  \note    When the variable <b>__Vendor_SysTickConfig</b> is set to 1, then the
           function <b>SysTick_Config</b> is not included. In this case, the file <b><i>device</i>.h</b>
           must contain a vendor-specific implementation of this function.
 */
__STATIC_INLINE uint32_t SysTick_Config(uint32_t ticks)
{
 8001534:	b580      	push	{r7, lr}
 8001536:	b082      	sub	sp, #8
 8001538:	af00      	add	r7, sp, #0
 800153a:	6078      	str	r0, [r7, #4]
  if ((ticks - 1UL) > SysTick_LOAD_RELOAD_Msk)
 800153c:	687b      	ldr	r3, [r7, #4]
 800153e:	3b01      	subs	r3, #1
 8001540:	f1b3 7f80 	cmp.w	r3, #16777216	@ 0x1000000
 8001544:	d301      	bcc.n	800154a <SysTick_Config+0x16>
  {
    return (1UL);                                                   /* Reload value impossible */
 8001546:	2301      	movs	r3, #1
 8001548:	e00f      	b.n	800156a <SysTick_Config+0x36>
  }

  SysTick->LOAD  = (uint32_t)(ticks - 1UL);                         /* set reload register */
 800154a:	4a0a      	ldr	r2, [pc, #40]	@ (8001574 <SysTick_Config+0x40>)
 800154c:	687b      	ldr	r3, [r7, #4]
 800154e:	3b01      	subs	r3, #1
 8001550:	6053      	str	r3, [r2, #4]
  NVIC_SetPriority (SysTick_IRQn, (1UL << __NVIC_PRIO_BITS) - 1UL); /* set Priority for Systick Interrupt */
 8001552:	210f      	movs	r1, #15
 8001554:	f04f 30ff 	mov.w	r0, #4294967295
 8001558:	f7ff ff90 	bl	800147c <__NVIC_SetPriority>
  SysTick->VAL   = 0UL;                                             /* Load the SysTick Counter Value */
 800155c:	4b05      	ldr	r3, [pc, #20]	@ (8001574 <SysTick_Config+0x40>)
 800155e:	2200      	movs	r2, #0
 8001560:	609a      	str	r2, [r3, #8]
  SysTick->CTRL  = SysTick_CTRL_CLKSOURCE_Msk |
 8001562:	4b04      	ldr	r3, [pc, #16]	@ (8001574 <SysTick_Config+0x40>)
 8001564:	2207      	movs	r2, #7
 8001566:	601a      	str	r2, [r3, #0]
                   SysTick_CTRL_TICKINT_Msk   |
                   SysTick_CTRL_ENABLE_Msk;                         /* Enable SysTick IRQ and SysTick Timer */
  return (0UL);                                                     /* Function successful */
 8001568:	2300      	movs	r3, #0
}
 800156a:	4618      	mov	r0, r3
 800156c:	3708      	adds	r7, #8
 800156e:	46bd      	mov	sp, r7
 8001570:	bd80      	pop	{r7, pc}
 8001572:	bf00      	nop
 8001574:	e000e010 	.word	0xe000e010

08001578 <HAL_NVIC_SetPriorityGrouping>:
  * @note   When the NVIC_PriorityGroup_0 is selected, IRQ preemption is no more possible. 
  *         The pending IRQ priority will be managed only by the subpriority. 
  * @retval None
  */
void HAL_NVIC_SetPriorityGrouping(uint32_t PriorityGroup)
{
 8001578:	b580      	push	{r7, lr}
 800157a:	b082      	sub	sp, #8
 800157c:	af00      	add	r7, sp, #0
 800157e:	6078      	str	r0, [r7, #4]
  /* Check the parameters */
  assert_param(IS_NVIC_PRIORITY_GROUP(PriorityGroup));
  
  /* Set the PRIGROUP[10:8] bits according to the PriorityGroup parameter value */
  NVIC_SetPriorityGrouping(PriorityGroup);
 8001580:	6878      	ldr	r0, [r7, #4]
 8001582:	f7ff ff2d 	bl	80013e0 <__NVIC_SetPriorityGrouping>
}
 8001586:	bf00      	nop
 8001588:	3708      	adds	r7, #8
 800158a:	46bd      	mov	sp, r7
 800158c:	bd80      	pop	{r7, pc}

0800158e <HAL_NVIC_SetPriority>:
  *         This parameter can be a value between 0 and 15
  *         A lower priority value indicates a higher priority.          
  * @retval None
  */
void HAL_NVIC_SetPriority(IRQn_Type IRQn, uint32_t PreemptPriority, uint32_t SubPriority)
{ 
 800158e:	b580      	push	{r7, lr}
 8001590:	b086      	sub	sp, #24
 8001592:	af00      	add	r7, sp, #0
 8001594:	4603      	mov	r3, r0
 8001596:	60b9      	str	r1, [r7, #8]
 8001598:	607a      	str	r2, [r7, #4]
 800159a:	73fb      	strb	r3, [r7, #15]
  uint32_t prioritygroup = 0x00U;
 800159c:	2300      	movs	r3, #0
 800159e:	617b      	str	r3, [r7, #20]
  
  /* Check the parameters */
  assert_param(IS_NVIC_SUB_PRIORITY(SubPriority));
  assert_param(IS_NVIC_PREEMPTION_PRIORITY(PreemptPriority));
  
  prioritygroup = NVIC_GetPriorityGrouping();
 80015a0:	f7ff ff42 	bl	8001428 <__NVIC_GetPriorityGrouping>
 80015a4:	6178      	str	r0, [r7, #20]
  
  NVIC_SetPriority(IRQn, NVIC_EncodePriority(prioritygroup, PreemptPriority, SubPriority));
 80015a6:	687a      	ldr	r2, [r7, #4]
 80015a8:	68b9      	ldr	r1, [r7, #8]
 80015aa:	6978      	ldr	r0, [r7, #20]
 80015ac:	f7ff ff90 	bl	80014d0 <NVIC_EncodePriority>
 80015b0:	4602      	mov	r2, r0
 80015b2:	f997 300f 	ldrsb.w	r3, [r7, #15]
 80015b6:	4611      	mov	r1, r2
 80015b8:	4618      	mov	r0, r3
 80015ba:	f7ff ff5f 	bl	800147c <__NVIC_SetPriority>
}
 80015be:	bf00      	nop
 80015c0:	3718      	adds	r7, #24
 80015c2:	46bd      	mov	sp, r7
 80015c4:	bd80      	pop	{r7, pc}

080015c6 <HAL_NVIC_EnableIRQ>:
  *         This parameter can be an enumerator of IRQn_Type enumeration
  *         (For the complete STM32 Devices IRQ Channels list, please refer to the appropriate CMSIS device file (stm32f10xxx.h))
  * @retval None
  */
void HAL_NVIC_EnableIRQ(IRQn_Type IRQn)
{
 80015c6:	b580      	push	{r7, lr}
 80015c8:	b082      	sub	sp, #8
 80015ca:	af00      	add	r7, sp, #0
 80015cc:	4603      	mov	r3, r0
 80015ce:	71fb      	strb	r3, [r7, #7]
  /* Check the parameters */
  assert_param(IS_NVIC_DEVICE_IRQ(IRQn));

  /* Enable interrupt */
  NVIC_EnableIRQ(IRQn);
 80015d0:	f997 3007 	ldrsb.w	r3, [r7, #7]
 80015d4:	4618      	mov	r0, r3
 80015d6:	f7ff ff35 	bl	8001444 <__NVIC_EnableIRQ>
}
 80015da:	bf00      	nop
 80015dc:	3708      	adds	r7, #8
 80015de:	46bd      	mov	sp, r7
 80015e0:	bd80      	pop	{r7, pc}

080015e2 <HAL_SYSTICK_Config>:
  * @param  TicksNumb: Specifies the ticks Number of ticks between two interrupts.
  * @retval status:  - 0  Function succeeded.
  *                  - 1  Function failed.
  */
uint32_t HAL_SYSTICK_Config(uint32_t TicksNumb)
{
 80015e2:	b580      	push	{r7, lr}
 80015e4:	b082      	sub	sp, #8
 80015e6:	af00      	add	r7, sp, #0
 80015e8:	6078      	str	r0, [r7, #4]
   return SysTick_Config(TicksNumb);
 80015ea:	6878      	ldr	r0, [r7, #4]
 80015ec:	f7ff ffa2 	bl	8001534 <SysTick_Config>
 80015f0:	4603      	mov	r3, r0
}
 80015f2:	4618      	mov	r0, r3
 80015f4:	3708      	adds	r7, #8
 80015f6:	46bd      	mov	sp, r7
 80015f8:	bd80      	pop	{r7, pc}
	...

080015fc <HAL_GPIO_Init>:
  * @param  GPIO_Init: pointer to a GPIO_InitTypeDef structure that contains
  *         the configuration information for the specified GPIO peripheral.
  * @retval None
  */
void HAL_GPIO_Init(GPIO_TypeDef  *GPIOx, GPIO_InitTypeDef *GPIO_Init)
{
 80015fc:	b480      	push	{r7}
 80015fe:	b08b      	sub	sp, #44	@ 0x2c
 8001600:	af00      	add	r7, sp, #0
 8001602:	6078      	str	r0, [r7, #4]
 8001604:	6039      	str	r1, [r7, #0]
  uint32_t position = 0x00u;
 8001606:	2300      	movs	r3, #0
 8001608:	627b      	str	r3, [r7, #36]	@ 0x24
  uint32_t ioposition;
  uint32_t iocurrent;
  uint32_t temp;
  uint32_t config = 0x00u;
 800160a:	2300      	movs	r3, #0
 800160c:	623b      	str	r3, [r7, #32]
  assert_param(IS_GPIO_ALL_INSTANCE(GPIOx));
  assert_param(IS_GPIO_PIN(GPIO_Init->Pin));
  assert_param(IS_GPIO_MODE(GPIO_Init->Mode));

  /* Configure the port pins */
  while (((GPIO_Init->Pin) >> position) != 0x00u)
 800160e:	e169      	b.n	80018e4 <HAL_GPIO_Init+0x2e8>
  {
    /* Get the IO position */
    ioposition = (0x01uL << position);
 8001610:	2201      	movs	r2, #1
 8001612:	6a7b      	ldr	r3, [r7, #36]	@ 0x24
 8001614:	fa02 f303 	lsl.w	r3, r2, r3
 8001618:	61fb      	str	r3, [r7, #28]

    /* Get the current IO position */
    iocurrent = (uint32_t)(GPIO_Init->Pin) & ioposition;
 800161a:	683b      	ldr	r3, [r7, #0]
 800161c:	681b      	ldr	r3, [r3, #0]
 800161e:	69fa      	ldr	r2, [r7, #28]
 8001620:	4013      	ands	r3, r2
 8001622:	61bb      	str	r3, [r7, #24]

    if (iocurrent == ioposition)
 8001624:	69ba      	ldr	r2, [r7, #24]
 8001626:	69fb      	ldr	r3, [r7, #28]
 8001628:	429a      	cmp	r2, r3
 800162a:	f040 8158 	bne.w	80018de <HAL_GPIO_Init+0x2e2>
    {
      /* Check the Alternate function parameters */
      assert_param(IS_GPIO_AF_INSTANCE(GPIOx));

      /* Based on the required mode, filling config variable with MODEy[1:0] and CNFy[3:2] corresponding bits */
      switch (GPIO_Init->Mode)
 800162e:	683b      	ldr	r3, [r7, #0]
 8001630:	685b      	ldr	r3, [r3, #4]
 8001632:	4a9a      	ldr	r2, [pc, #616]	@ (800189c <HAL_GPIO_Init+0x2a0>)
 8001634:	4293      	cmp	r3, r2
 8001636:	d05e      	beq.n	80016f6 <HAL_GPIO_Init+0xfa>
 8001638:	4a98      	ldr	r2, [pc, #608]	@ (800189c <HAL_GPIO_Init+0x2a0>)
 800163a:	4293      	cmp	r3, r2
 800163c:	d875      	bhi.n	800172a <HAL_GPIO_Init+0x12e>
 800163e:	4a98      	ldr	r2, [pc, #608]	@ (80018a0 <HAL_GPIO_Init+0x2a4>)
 8001640:	4293      	cmp	r3, r2
 8001642:	d058      	beq.n	80016f6 <HAL_GPIO_Init+0xfa>
 8001644:	4a96      	ldr	r2, [pc, #600]	@ (80018a0 <HAL_GPIO_Init+0x2a4>)
 8001646:	4293      	cmp	r3, r2
 8001648:	d86f      	bhi.n	800172a <HAL_GPIO_Init+0x12e>
 800164a:	4a96      	ldr	r2, [pc, #600]	@ (80018a4 <HAL_GPIO_Init+0x2a8>)
 800164c:	4293      	cmp	r3, r2
 800164e:	d052      	beq.n	80016f6 <HAL_GPIO_Init+0xfa>
 8001650:	4a94      	ldr	r2, [pc, #592]	@ (80018a4 <HAL_GPIO_Init+0x2a8>)
 8001652:	4293      	cmp	r3, r2
 8001654:	d869      	bhi.n	800172a <HAL_GPIO_Init+0x12e>
 8001656:	4a94      	ldr	r2, [pc, #592]	@ (80018a8 <HAL_GPIO_Init+0x2ac>)
 8001658:	4293      	cmp	r3, r2
 800165a:	d04c      	beq.n	80016f6 <HAL_GPIO_Init+0xfa>
 800165c:	4a92      	ldr	r2, [pc, #584]	@ (80018a8 <HAL_GPIO_Init+0x2ac>)
 800165e:	4293      	cmp	r3, r2
 8001660:	d863      	bhi.n	800172a <HAL_GPIO_Init+0x12e>
 8001662:	4a92      	ldr	r2, [pc, #584]	@ (80018ac <HAL_GPIO_Init+0x2b0>)
 8001664:	4293      	cmp	r3, r2
 8001666:	d046      	beq.n	80016f6 <HAL_GPIO_Init+0xfa>
 8001668:	4a90      	ldr	r2, [pc, #576]	@ (80018ac <HAL_GPIO_Init+0x2b0>)
 800166a:	4293      	cmp	r3, r2
 800166c:	d85d      	bhi.n	800172a <HAL_GPIO_Init+0x12e>
 800166e:	2b12      	cmp	r3, #18
 8001670:	d82a      	bhi.n	80016c8 <HAL_GPIO_Init+0xcc>
 8001672:	2b12      	cmp	r3, #18
 8001674:	d859      	bhi.n	800172a <HAL_GPIO_Init+0x12e>
 8001676:	a201      	add	r2, pc, #4	@ (adr r2, 800167c <HAL_GPIO_Init+0x80>)
 8001678:	f852 f023 	ldr.w	pc, [r2, r3, lsl #2]
 800167c:	080016f7 	.word	0x080016f7
 8001680:	080016d1 	.word	0x080016d1
 8001684:	080016e3 	.word	0x080016e3
 8001688:	08001725 	.word	0x08001725
 800168c:	0800172b 	.word	0x0800172b
 8001690:	0800172b 	.word	0x0800172b
 8001694:	0800172b 	.word	0x0800172b
 8001698:	0800172b 	.word	0x0800172b
 800169c:	0800172b 	.word	0x0800172b
 80016a0:	0800172b 	.word	0x0800172b
 80016a4:	0800172b 	.word	0x0800172b
 80016a8:	0800172b 	.word	0x0800172b
 80016ac:	0800172b 	.word	0x0800172b
 80016b0:	0800172b 	.word	0x0800172b
 80016b4:	0800172b 	.word	0x0800172b
 80016b8:	0800172b 	.word	0x0800172b
 80016bc:	0800172b 	.word	0x0800172b
 80016c0:	080016d9 	.word	0x080016d9
 80016c4:	080016ed 	.word	0x080016ed
 80016c8:	4a79      	ldr	r2, [pc, #484]	@ (80018b0 <HAL_GPIO_Init+0x2b4>)
 80016ca:	4293      	cmp	r3, r2
 80016cc:	d013      	beq.n	80016f6 <HAL_GPIO_Init+0xfa>
          config = GPIO_CR_MODE_INPUT + GPIO_CR_CNF_ANALOG;
          break;

        /* Parameters are checked with assert_param */
        default:
          break;
 80016ce:	e02c      	b.n	800172a <HAL_GPIO_Init+0x12e>
          config = GPIO_Init->Speed + GPIO_CR_CNF_GP_OUTPUT_PP;
 80016d0:	683b      	ldr	r3, [r7, #0]
 80016d2:	68db      	ldr	r3, [r3, #12]
 80016d4:	623b      	str	r3, [r7, #32]
          break;
 80016d6:	e029      	b.n	800172c <HAL_GPIO_Init+0x130>
          config = GPIO_Init->Speed + GPIO_CR_CNF_GP_OUTPUT_OD;
 80016d8:	683b      	ldr	r3, [r7, #0]
 80016da:	68db      	ldr	r3, [r3, #12]
 80016dc:	3304      	adds	r3, #4
 80016de:	623b      	str	r3, [r7, #32]
          break;
 80016e0:	e024      	b.n	800172c <HAL_GPIO_Init+0x130>
          config = GPIO_Init->Speed + GPIO_CR_CNF_AF_OUTPUT_PP;
 80016e2:	683b      	ldr	r3, [r7, #0]
 80016e4:	68db      	ldr	r3, [r3, #12]
 80016e6:	3308      	adds	r3, #8
 80016e8:	623b      	str	r3, [r7, #32]
          break;
 80016ea:	e01f      	b.n	800172c <HAL_GPIO_Init+0x130>
          config = GPIO_Init->Speed + GPIO_CR_CNF_AF_OUTPUT_OD;
 80016ec:	683b      	ldr	r3, [r7, #0]
 80016ee:	68db      	ldr	r3, [r3, #12]
 80016f0:	330c      	adds	r3, #12
 80016f2:	623b      	str	r3, [r7, #32]
          break;
 80016f4:	e01a      	b.n	800172c <HAL_GPIO_Init+0x130>
          if (GPIO_Init->Pull == GPIO_NOPULL)
 80016f6:	683b      	ldr	r3, [r7, #0]
 80016f8:	689b      	ldr	r3, [r3, #8]
 80016fa:	2b00      	cmp	r3, #0
 80016fc:	d102      	bne.n	8001704 <HAL_GPIO_Init+0x108>
            config = GPIO_CR_MODE_INPUT + GPIO_CR_CNF_INPUT_FLOATING;
 80016fe:	2304      	movs	r3, #4
 8001700:	623b      	str	r3, [r7, #32]
          break;
 8001702:	e013      	b.n	800172c <HAL_GPIO_Init+0x130>
          else if (GPIO_Init->Pull == GPIO_PULLUP)
 8001704:	683b      	ldr	r3, [r7, #0]
 8001706:	689b      	ldr	r3, [r3, #8]
 8001708:	2b01      	cmp	r3, #1
 800170a:	d105      	bne.n	8001718 <HAL_GPIO_Init+0x11c>
            config = GPIO_CR_MODE_INPUT + GPIO_CR_CNF_INPUT_PU_PD;
 800170c:	2308      	movs	r3, #8
 800170e:	623b      	str	r3, [r7, #32]
            GPIOx->BSRR = ioposition;
 8001710:	687b      	ldr	r3, [r7, #4]
 8001712:	69fa      	ldr	r2, [r7, #28]
 8001714:	611a      	str	r2, [r3, #16]
          break;
 8001716:	e009      	b.n	800172c <HAL_GPIO_Init+0x130>
            config = GPIO_CR_MODE_INPUT + GPIO_CR_CNF_INPUT_PU_PD;
 8001718:	2308      	movs	r3, #8
 800171a:	623b      	str	r3, [r7, #32]
            GPIOx->BRR = ioposition;
 800171c:	687b      	ldr	r3, [r7, #4]
 800171e:	69fa      	ldr	r2, [r7, #28]
 8001720:	615a      	str	r2, [r3, #20]
          break;
 8001722:	e003      	b.n	800172c <HAL_GPIO_Init+0x130>
          config = GPIO_CR_MODE_INPUT + GPIO_CR_CNF_ANALOG;
 8001724:	2300      	movs	r3, #0
 8001726:	623b      	str	r3, [r7, #32]
          break;
 8001728:	e000      	b.n	800172c <HAL_GPIO_Init+0x130>
          break;
 800172a:	bf00      	nop
      }

      /* Check if the current bit belongs to first half or last half of the pin count number
       in order to address CRH or CRL register*/
      configregister = (iocurrent < GPIO_PIN_8) ? &GPIOx->CRL     : &GPIOx->CRH;
 800172c:	69bb      	ldr	r3, [r7, #24]
 800172e:	2bff      	cmp	r3, #255	@ 0xff
 8001730:	d801      	bhi.n	8001736 <HAL_GPIO_Init+0x13a>
 8001732:	687b      	ldr	r3, [r7, #4]
 8001734:	e001      	b.n	800173a <HAL_GPIO_Init+0x13e>
 8001736:	687b      	ldr	r3, [r7, #4]
 8001738:	3304      	adds	r3, #4
 800173a:	617b      	str	r3, [r7, #20]
      registeroffset = (iocurrent < GPIO_PIN_8) ? (position << 2u) : ((position - 8u) << 2u);
 800173c:	69bb      	ldr	r3, [r7, #24]
 800173e:	2bff      	cmp	r3, #255	@ 0xff
 8001740:	d802      	bhi.n	8001748 <HAL_GPIO_Init+0x14c>
 8001742:	6a7b      	ldr	r3, [r7, #36]	@ 0x24
 8001744:	009b      	lsls	r3, r3, #2
 8001746:	e002      	b.n	800174e <HAL_GPIO_Init+0x152>
 8001748:	6a7b      	ldr	r3, [r7, #36]	@ 0x24
 800174a:	3b08      	subs	r3, #8
 800174c:	009b      	lsls	r3, r3, #2
 800174e:	613b      	str	r3, [r7, #16]

      /* Apply the new configuration of the pin to the register */
      MODIFY_REG((*configregister), ((GPIO_CRL_MODE0 | GPIO_CRL_CNF0) << registeroffset), (config << registeroffset));
 8001750:	697b      	ldr	r3, [r7, #20]
 8001752:	681a      	ldr	r2, [r3, #0]
 8001754:	210f      	movs	r1, #15
 8001756:	693b      	ldr	r3, [r7, #16]
 8001758:	fa01 f303 	lsl.w	r3, r1, r3
 800175c:	43db      	mvns	r3, r3
 800175e:	401a      	ands	r2, r3
 8001760:	6a39      	ldr	r1, [r7, #32]
 8001762:	693b      	ldr	r3, [r7, #16]
 8001764:	fa01 f303 	lsl.w	r3, r1, r3
 8001768:	431a      	orrs	r2, r3
 800176a:	697b      	ldr	r3, [r7, #20]
 800176c:	601a      	str	r2, [r3, #0]

      /*--------------------- EXTI Mode Configuration ------------------------*/
      /* Configure the External Interrupt or event for the current IO */
      if ((GPIO_Init->Mode & EXTI_MODE) == EXTI_MODE)
 800176e:	683b      	ldr	r3, [r7, #0]
 8001770:	685b      	ldr	r3, [r3, #4]
 8001772:	f003 5380 	and.w	r3, r3, #268435456	@ 0x10000000
 8001776:	2b00      	cmp	r3, #0
 8001778:	f000 80b1 	beq.w	80018de <HAL_GPIO_Init+0x2e2>
      {
        /* Enable AFIO Clock */
        __HAL_RCC_AFIO_CLK_ENABLE();
 800177c:	4b4d      	ldr	r3, [pc, #308]	@ (80018b4 <HAL_GPIO_Init+0x2b8>)
 800177e:	699b      	ldr	r3, [r3, #24]
 8001780:	4a4c      	ldr	r2, [pc, #304]	@ (80018b4 <HAL_GPIO_Init+0x2b8>)
 8001782:	f043 0301 	orr.w	r3, r3, #1
 8001786:	6193      	str	r3, [r2, #24]
 8001788:	4b4a      	ldr	r3, [pc, #296]	@ (80018b4 <HAL_GPIO_Init+0x2b8>)
 800178a:	699b      	ldr	r3, [r3, #24]
 800178c:	f003 0301 	and.w	r3, r3, #1
 8001790:	60bb      	str	r3, [r7, #8]
 8001792:	68bb      	ldr	r3, [r7, #8]
        temp = AFIO->EXTICR[position >> 2u];
 8001794:	4a48      	ldr	r2, [pc, #288]	@ (80018b8 <HAL_GPIO_Init+0x2bc>)
 8001796:	6a7b      	ldr	r3, [r7, #36]	@ 0x24
 8001798:	089b      	lsrs	r3, r3, #2
 800179a:	3302      	adds	r3, #2
 800179c:	f852 3023 	ldr.w	r3, [r2, r3, lsl #2]
 80017a0:	60fb      	str	r3, [r7, #12]
        CLEAR_BIT(temp, (0x0Fu) << (4u * (position & 0x03u)));
 80017a2:	6a7b      	ldr	r3, [r7, #36]	@ 0x24
 80017a4:	f003 0303 	and.w	r3, r3, #3
 80017a8:	009b      	lsls	r3, r3, #2
 80017aa:	220f      	movs	r2, #15
 80017ac:	fa02 f303 	lsl.w	r3, r2, r3
 80017b0:	43db      	mvns	r3, r3
 80017b2:	68fa      	ldr	r2, [r7, #12]
 80017b4:	4013      	ands	r3, r2
 80017b6:	60fb      	str	r3, [r7, #12]
        SET_BIT(temp, (GPIO_GET_INDEX(GPIOx)) << (4u * (position & 0x03u)));
 80017b8:	687b      	ldr	r3, [r7, #4]
 80017ba:	4a40      	ldr	r2, [pc, #256]	@ (80018bc <HAL_GPIO_Init+0x2c0>)
 80017bc:	4293      	cmp	r3, r2
 80017be:	d013      	beq.n	80017e8 <HAL_GPIO_Init+0x1ec>
 80017c0:	687b      	ldr	r3, [r7, #4]
 80017c2:	4a3f      	ldr	r2, [pc, #252]	@ (80018c0 <HAL_GPIO_Init+0x2c4>)
 80017c4:	4293      	cmp	r3, r2
 80017c6:	d00d      	beq.n	80017e4 <HAL_GPIO_Init+0x1e8>
 80017c8:	687b      	ldr	r3, [r7, #4]
 80017ca:	4a3e      	ldr	r2, [pc, #248]	@ (80018c4 <HAL_GPIO_Init+0x2c8>)
 80017cc:	4293      	cmp	r3, r2
 80017ce:	d007      	beq.n	80017e0 <HAL_GPIO_Init+0x1e4>
 80017d0:	687b      	ldr	r3, [r7, #4]
 80017d2:	4a3d      	ldr	r2, [pc, #244]	@ (80018c8 <HAL_GPIO_Init+0x2cc>)
 80017d4:	4293      	cmp	r3, r2
 80017d6:	d101      	bne.n	80017dc <HAL_GPIO_Init+0x1e0>
 80017d8:	2303      	movs	r3, #3
 80017da:	e006      	b.n	80017ea <HAL_GPIO_Init+0x1ee>
 80017dc:	2304      	movs	r3, #4
 80017de:	e004      	b.n	80017ea <HAL_GPIO_Init+0x1ee>
 80017e0:	2302      	movs	r3, #2
 80017e2:	e002      	b.n	80017ea <HAL_GPIO_Init+0x1ee>
 80017e4:	2301      	movs	r3, #1
 80017e6:	e000      	b.n	80017ea <HAL_GPIO_Init+0x1ee>
 80017e8:	2300      	movs	r3, #0
 80017ea:	6a7a      	ldr	r2, [r7, #36]	@ 0x24
 80017ec:	f002 0203 	and.w	r2, r2, #3
 80017f0:	0092      	lsls	r2, r2, #2
 80017f2:	4093      	lsls	r3, r2
 80017f4:	68fa      	ldr	r2, [r7, #12]
 80017f6:	4313      	orrs	r3, r2
 80017f8:	60fb      	str	r3, [r7, #12]
        AFIO->EXTICR[position >> 2u] = temp;
 80017fa:	492f      	ldr	r1, [pc, #188]	@ (80018b8 <HAL_GPIO_Init+0x2bc>)
 80017fc:	6a7b      	ldr	r3, [r7, #36]	@ 0x24
 80017fe:	089b      	lsrs	r3, r3, #2
 8001800:	3302      	adds	r3, #2
 8001802:	68fa      	ldr	r2, [r7, #12]
 8001804:	f841 2023 	str.w	r2, [r1, r3, lsl #2]


        /* Enable or disable the rising trigger */
        if ((GPIO_Init->Mode & RISING_EDGE) == RISING_EDGE)
 8001808:	683b      	ldr	r3, [r7, #0]
 800180a:	685b      	ldr	r3, [r3, #4]
 800180c:	f403 1380 	and.w	r3, r3, #1048576	@ 0x100000
 8001810:	2b00      	cmp	r3, #0
 8001812:	d006      	beq.n	8001822 <HAL_GPIO_Init+0x226>
        {
          SET_BIT(EXTI->RTSR, iocurrent);
 8001814:	4b2d      	ldr	r3, [pc, #180]	@ (80018cc <HAL_GPIO_Init+0x2d0>)
 8001816:	689a      	ldr	r2, [r3, #8]
 8001818:	492c      	ldr	r1, [pc, #176]	@ (80018cc <HAL_GPIO_Init+0x2d0>)
 800181a:	69bb      	ldr	r3, [r7, #24]
 800181c:	4313      	orrs	r3, r2
 800181e:	608b      	str	r3, [r1, #8]
 8001820:	e006      	b.n	8001830 <HAL_GPIO_Init+0x234>
        }
        else
        {
          CLEAR_BIT(EXTI->RTSR, iocurrent);
 8001822:	4b2a      	ldr	r3, [pc, #168]	@ (80018cc <HAL_GPIO_Init+0x2d0>)
 8001824:	689a      	ldr	r2, [r3, #8]
 8001826:	69bb      	ldr	r3, [r7, #24]
 8001828:	43db      	mvns	r3, r3
 800182a:	4928      	ldr	r1, [pc, #160]	@ (80018cc <HAL_GPIO_Init+0x2d0>)
 800182c:	4013      	ands	r3, r2
 800182e:	608b      	str	r3, [r1, #8]
        }

        /* Enable or disable the falling trigger */
        if ((GPIO_Init->Mode & FALLING_EDGE) == FALLING_EDGE)
 8001830:	683b      	ldr	r3, [r7, #0]
 8001832:	685b      	ldr	r3, [r3, #4]
 8001834:	f403 1300 	and.w	r3, r3, #2097152	@ 0x200000
 8001838:	2b00      	cmp	r3, #0
 800183a:	d006      	beq.n	800184a <HAL_GPIO_Init+0x24e>
        {
          SET_BIT(EXTI->FTSR, iocurrent);
 800183c:	4b23      	ldr	r3, [pc, #140]	@ (80018cc <HAL_GPIO_Init+0x2d0>)
 800183e:	68da      	ldr	r2, [r3, #12]
 8001840:	4922      	ldr	r1, [pc, #136]	@ (80018cc <HAL_GPIO_Init+0x2d0>)
 8001842:	69bb      	ldr	r3, [r7, #24]
 8001844:	4313      	orrs	r3, r2
 8001846:	60cb      	str	r3, [r1, #12]
 8001848:	e006      	b.n	8001858 <HAL_GPIO_Init+0x25c>
        }
        else
        {
          CLEAR_BIT(EXTI->FTSR, iocurrent);
 800184a:	4b20      	ldr	r3, [pc, #128]	@ (80018cc <HAL_GPIO_Init+0x2d0>)
 800184c:	68da      	ldr	r2, [r3, #12]
 800184e:	69bb      	ldr	r3, [r7, #24]
 8001850:	43db      	mvns	r3, r3
 8001852:	491e      	ldr	r1, [pc, #120]	@ (80018cc <HAL_GPIO_Init+0x2d0>)
 8001854:	4013      	ands	r3, r2
 8001856:	60cb      	str	r3, [r1, #12]
        }

        /* Configure the event mask */
        if ((GPIO_Init->Mode & GPIO_MODE_EVT) == GPIO_MODE_EVT)
 8001858:	683b      	ldr	r3, [r7, #0]
 800185a:	685b      	ldr	r3, [r3, #4]
 800185c:	f403 3300 	and.w	r3, r3, #131072	@ 0x20000
 8001860:	2b00      	cmp	r3, #0
 8001862:	d006      	beq.n	8001872 <HAL_GPIO_Init+0x276>
        {
          SET_BIT(EXTI->EMR, iocurrent);
 8001864:	4b19      	ldr	r3, [pc, #100]	@ (80018cc <HAL_GPIO_Init+0x2d0>)
 8001866:	685a      	ldr	r2, [r3, #4]
 8001868:	4918      	ldr	r1, [pc, #96]	@ (80018cc <HAL_GPIO_Init+0x2d0>)
 800186a:	69bb      	ldr	r3, [r7, #24]
 800186c:	4313      	orrs	r3, r2
 800186e:	604b      	str	r3, [r1, #4]
 8001870:	e006      	b.n	8001880 <HAL_GPIO_Init+0x284>
        }
        else
        {
          CLEAR_BIT(EXTI->EMR, iocurrent);
 8001872:	4b16      	ldr	r3, [pc, #88]	@ (80018cc <HAL_GPIO_Init+0x2d0>)
 8001874:	685a      	ldr	r2, [r3, #4]
 8001876:	69bb      	ldr	r3, [r7, #24]
 8001878:	43db      	mvns	r3, r3
 800187a:	4914      	ldr	r1, [pc, #80]	@ (80018cc <HAL_GPIO_Init+0x2d0>)
 800187c:	4013      	ands	r3, r2
 800187e:	604b      	str	r3, [r1, #4]
        }

        /* Configure the interrupt mask */
        if ((GPIO_Init->Mode & GPIO_MODE_IT) == GPIO_MODE_IT)
 8001880:	683b      	ldr	r3, [r7, #0]
 8001882:	685b      	ldr	r3, [r3, #4]
 8001884:	f403 3380 	and.w	r3, r3, #65536	@ 0x10000
 8001888:	2b00      	cmp	r3, #0
 800188a:	d021      	beq.n	80018d0 <HAL_GPIO_Init+0x2d4>
        {
          SET_BIT(EXTI->IMR, iocurrent);
 800188c:	4b0f      	ldr	r3, [pc, #60]	@ (80018cc <HAL_GPIO_Init+0x2d0>)
 800188e:	681a      	ldr	r2, [r3, #0]
 8001890:	490e      	ldr	r1, [pc, #56]	@ (80018cc <HAL_GPIO_Init+0x2d0>)
 8001892:	69bb      	ldr	r3, [r7, #24]
 8001894:	4313      	orrs	r3, r2
 8001896:	600b      	str	r3, [r1, #0]
 8001898:	e021      	b.n	80018de <HAL_GPIO_Init+0x2e2>
 800189a:	bf00      	nop
 800189c:	10320000 	.word	0x10320000
 80018a0:	10310000 	.word	0x10310000
 80018a4:	10220000 	.word	0x10220000
 80018a8:	10210000 	.word	0x10210000
 80018ac:	10120000 	.word	0x10120000
 80018b0:	10110000 	.word	0x10110000
 80018b4:	40021000 	.word	0x40021000
 80018b8:	40010000 	.word	0x40010000
 80018bc:	40010800 	.word	0x40010800
 80018c0:	40010c00 	.word	0x40010c00
 80018c4:	40011000 	.word	0x40011000
 80018c8:	40011400 	.word	0x40011400
 80018cc:	40010400 	.word	0x40010400
        }
        else
        {
          CLEAR_BIT(EXTI->IMR, iocurrent);
 80018d0:	4b0b      	ldr	r3, [pc, #44]	@ (8001900 <HAL_GPIO_Init+0x304>)
 80018d2:	681a      	ldr	r2, [r3, #0]
 80018d4:	69bb      	ldr	r3, [r7, #24]
 80018d6:	43db      	mvns	r3, r3
 80018d8:	4909      	ldr	r1, [pc, #36]	@ (8001900 <HAL_GPIO_Init+0x304>)
 80018da:	4013      	ands	r3, r2
 80018dc:	600b      	str	r3, [r1, #0]
        }
      }
    }

	position++;
 80018de:	6a7b      	ldr	r3, [r7, #36]	@ 0x24
 80018e0:	3301      	adds	r3, #1
 80018e2:	627b      	str	r3, [r7, #36]	@ 0x24
  while (((GPIO_Init->Pin) >> position) != 0x00u)
 80018e4:	683b      	ldr	r3, [r7, #0]
 80018e6:	681a      	ldr	r2, [r3, #0]
 80018e8:	6a7b      	ldr	r3, [r7, #36]	@ 0x24
 80018ea:	fa22 f303 	lsr.w	r3, r2, r3
 80018ee:	2b00      	cmp	r3, #0
 80018f0:	f47f ae8e 	bne.w	8001610 <HAL_GPIO_Init+0x14>
  }
}
 80018f4:	bf00      	nop
 80018f6:	bf00      	nop
 80018f8:	372c      	adds	r7, #44	@ 0x2c
 80018fa:	46bd      	mov	sp, r7
 80018fc:	bc80      	pop	{r7}
 80018fe:	4770      	bx	lr
 8001900:	40010400 	.word	0x40010400

08001904 <HAL_GPIO_WritePin>:
  *            @arg GPIO_PIN_RESET: to clear the port pin
  *            @arg GPIO_PIN_SET: to set the port pin
  * @retval None
  */
void HAL_GPIO_WritePin(GPIO_TypeDef *GPIOx, uint16_t GPIO_Pin, GPIO_PinState PinState)
{
 8001904:	b480      	push	{r7}
 8001906:	b083      	sub	sp, #12
 8001908:	af00      	add	r7, sp, #0
 800190a:	6078      	str	r0, [r7, #4]
 800190c:	460b      	mov	r3, r1
 800190e:	807b      	strh	r3, [r7, #2]
 8001910:	4613      	mov	r3, r2
 8001912:	707b      	strb	r3, [r7, #1]
  /* Check the parameters */
  assert_param(IS_GPIO_PIN(GPIO_Pin));
  assert_param(IS_GPIO_PIN_ACTION(PinState));

  if (PinState != GPIO_PIN_RESET)
 8001914:	787b      	ldrb	r3, [r7, #1]
 8001916:	2b00      	cmp	r3, #0
 8001918:	d003      	beq.n	8001922 <HAL_GPIO_WritePin+0x1e>
  {
    GPIOx->BSRR = GPIO_Pin;
 800191a:	887a      	ldrh	r2, [r7, #2]
 800191c:	687b      	ldr	r3, [r7, #4]
 800191e:	611a      	str	r2, [r3, #16]
  }
  else
  {
    GPIOx->BSRR = (uint32_t)GPIO_Pin << 16u;
  }
}
 8001920:	e003      	b.n	800192a <HAL_GPIO_WritePin+0x26>
    GPIOx->BSRR = (uint32_t)GPIO_Pin << 16u;
 8001922:	887b      	ldrh	r3, [r7, #2]
 8001924:	041a      	lsls	r2, r3, #16
 8001926:	687b      	ldr	r3, [r7, #4]
 8001928:	611a      	str	r2, [r3, #16]
}
 800192a:	bf00      	nop
 800192c:	370c      	adds	r7, #12
 800192e:	46bd      	mov	sp, r7
 8001930:	bc80      	pop	{r7}
 8001932:	4770      	bx	lr

08001934 <HAL_I2C_Init>:
  * @param  hi2c Pointer to a I2C_HandleTypeDef structure that contains
  *                the configuration information for the specified I2C.
  * @retval HAL status
  */
HAL_StatusTypeDef HAL_I2C_Init(I2C_HandleTypeDef *hi2c)
{
 8001934:	b580      	push	{r7, lr}
 8001936:	b084      	sub	sp, #16
 8001938:	af00      	add	r7, sp, #0
 800193a:	6078      	str	r0, [r7, #4]
  uint32_t freqrange;
  uint32_t pclk1;

  /* Check the I2C handle allocation */
  if (hi2c == NULL)
 800193c:	687b      	ldr	r3, [r7, #4]
 800193e:	2b00      	cmp	r3, #0
 8001940:	d101      	bne.n	8001946 <HAL_I2C_Init+0x12>
  {
    return HAL_ERROR;
 8001942:	2301      	movs	r3, #1
 8001944:	e12b      	b.n	8001b9e <HAL_I2C_Init+0x26a>
  assert_param(IS_I2C_DUAL_ADDRESS(hi2c->Init.DualAddressMode));
  assert_param(IS_I2C_OWN_ADDRESS2(hi2c->Init.OwnAddress2));
  assert_param(IS_I2C_GENERAL_CALL(hi2c->Init.GeneralCallMode));
  assert_param(IS_I2C_NO_STRETCH(hi2c->Init.NoStretchMode));

  if (hi2c->State == HAL_I2C_STATE_RESET)
 8001946:	687b      	ldr	r3, [r7, #4]
 8001948:	f893 303d 	ldrb.w	r3, [r3, #61]	@ 0x3d
 800194c:	b2db      	uxtb	r3, r3
 800194e:	2b00      	cmp	r3, #0
 8001950:	d106      	bne.n	8001960 <HAL_I2C_Init+0x2c>
  {
    /* Allocate lock resource and initialize it */
    hi2c->Lock = HAL_UNLOCKED;
 8001952:	687b      	ldr	r3, [r7, #4]
 8001954:	2200      	movs	r2, #0
 8001956:	f883 203c 	strb.w	r2, [r3, #60]	@ 0x3c

    /* Init the low level hardware : GPIO, CLOCK, NVIC */
    hi2c->MspInitCallback(hi2c);
#else
    /* Init the low level hardware : GPIO, CLOCK, NVIC */
    HAL_I2C_MspInit(hi2c);
 800195a:	6878      	ldr	r0, [r7, #4]
 800195c:	f7ff fb22 	bl	8000fa4 <HAL_I2C_MspInit>
#endif /* USE_HAL_I2C_REGISTER_CALLBACKS */
  }

  hi2c->State = HAL_I2C_STATE_BUSY;
 8001960:	687b      	ldr	r3, [r7, #4]
 8001962:	2224      	movs	r2, #36	@ 0x24
 8001964:	f883 203d 	strb.w	r2, [r3, #61]	@ 0x3d

  /* Disable the selected I2C peripheral */
  __HAL_I2C_DISABLE(hi2c);
 8001968:	687b      	ldr	r3, [r7, #4]
 800196a:	681b      	ldr	r3, [r3, #0]
 800196c:	681a      	ldr	r2, [r3, #0]
 800196e:	687b      	ldr	r3, [r7, #4]
 8001970:	681b      	ldr	r3, [r3, #0]
 8001972:	f022 0201 	bic.w	r2, r2, #1
 8001976:	601a      	str	r2, [r3, #0]

  /*Reset I2C*/
  hi2c->Instance->CR1 |= I2C_CR1_SWRST;
 8001978:	687b      	ldr	r3, [r7, #4]
 800197a:	681b      	ldr	r3, [r3, #0]
 800197c:	681a      	ldr	r2, [r3, #0]
 800197e:	687b      	ldr	r3, [r7, #4]
 8001980:	681b      	ldr	r3, [r3, #0]
 8001982:	f442 4200 	orr.w	r2, r2, #32768	@ 0x8000
 8001986:	601a      	str	r2, [r3, #0]
  hi2c->Instance->CR1 &= ~I2C_CR1_SWRST;
 8001988:	687b      	ldr	r3, [r7, #4]
 800198a:	681b      	ldr	r3, [r3, #0]
 800198c:	681a      	ldr	r2, [r3, #0]
 800198e:	687b      	ldr	r3, [r7, #4]
 8001990:	681b      	ldr	r3, [r3, #0]
 8001992:	f422 4200 	bic.w	r2, r2, #32768	@ 0x8000
 8001996:	601a      	str	r2, [r3, #0]

  /* Get PCLK1 frequency */
  pclk1 = HAL_RCC_GetPCLK1Freq();
 8001998:	f001 fbf0 	bl	800317c <HAL_RCC_GetPCLK1Freq>
 800199c:	60f8      	str	r0, [r7, #12]

  /* Check the minimum allowed PCLK1 frequency */
  if (I2C_MIN_PCLK_FREQ(pclk1, hi2c->Init.ClockSpeed) == 1U)
 800199e:	687b      	ldr	r3, [r7, #4]
 80019a0:	685b      	ldr	r3, [r3, #4]
 80019a2:	4a81      	ldr	r2, [pc, #516]	@ (8001ba8 <HAL_I2C_Init+0x274>)
 80019a4:	4293      	cmp	r3, r2
 80019a6:	d807      	bhi.n	80019b8 <HAL_I2C_Init+0x84>
 80019a8:	68fb      	ldr	r3, [r7, #12]
 80019aa:	4a80      	ldr	r2, [pc, #512]	@ (8001bac <HAL_I2C_Init+0x278>)
 80019ac:	4293      	cmp	r3, r2
 80019ae:	bf94      	ite	ls
 80019b0:	2301      	movls	r3, #1
 80019b2:	2300      	movhi	r3, #0
 80019b4:	b2db      	uxtb	r3, r3
 80019b6:	e006      	b.n	80019c6 <HAL_I2C_Init+0x92>
 80019b8:	68fb      	ldr	r3, [r7, #12]
 80019ba:	4a7d      	ldr	r2, [pc, #500]	@ (8001bb0 <HAL_I2C_Init+0x27c>)
 80019bc:	4293      	cmp	r3, r2
 80019be:	bf94      	ite	ls
 80019c0:	2301      	movls	r3, #1
 80019c2:	2300      	movhi	r3, #0
 80019c4:	b2db      	uxtb	r3, r3
 80019c6:	2b00      	cmp	r3, #0
 80019c8:	d001      	beq.n	80019ce <HAL_I2C_Init+0x9a>
  {
    return HAL_ERROR;
 80019ca:	2301      	movs	r3, #1
 80019cc:	e0e7      	b.n	8001b9e <HAL_I2C_Init+0x26a>
  }

  /* Calculate frequency range */
  freqrange = I2C_FREQRANGE(pclk1);
 80019ce:	68fb      	ldr	r3, [r7, #12]
 80019d0:	4a78      	ldr	r2, [pc, #480]	@ (8001bb4 <HAL_I2C_Init+0x280>)
 80019d2:	fba2 2303 	umull	r2, r3, r2, r3
 80019d6:	0c9b      	lsrs	r3, r3, #18
 80019d8:	60bb      	str	r3, [r7, #8]

  /*---------------------------- I2Cx CR2 Configuration ----------------------*/
  /* Configure I2Cx: Frequency range */
  MODIFY_REG(hi2c->Instance->CR2, I2C_CR2_FREQ, freqrange);
 80019da:	687b      	ldr	r3, [r7, #4]
 80019dc:	681b      	ldr	r3, [r3, #0]
 80019de:	685b      	ldr	r3, [r3, #4]
 80019e0:	f023 013f 	bic.w	r1, r3, #63	@ 0x3f
 80019e4:	687b      	ldr	r3, [r7, #4]
 80019e6:	681b      	ldr	r3, [r3, #0]
 80019e8:	68ba      	ldr	r2, [r7, #8]
 80019ea:	430a      	orrs	r2, r1
 80019ec:	605a      	str	r2, [r3, #4]

  /*---------------------------- I2Cx TRISE Configuration --------------------*/
  /* Configure I2Cx: Rise Time */
  MODIFY_REG(hi2c->Instance->TRISE, I2C_TRISE_TRISE, I2C_RISE_TIME(freqrange, hi2c->Init.ClockSpeed));
 80019ee:	687b      	ldr	r3, [r7, #4]
 80019f0:	681b      	ldr	r3, [r3, #0]
 80019f2:	6a1b      	ldr	r3, [r3, #32]
 80019f4:	f023 013f 	bic.w	r1, r3, #63	@ 0x3f
 80019f8:	687b      	ldr	r3, [r7, #4]
 80019fa:	685b      	ldr	r3, [r3, #4]
 80019fc:	4a6a      	ldr	r2, [pc, #424]	@ (8001ba8 <HAL_I2C_Init+0x274>)
 80019fe:	4293      	cmp	r3, r2
 8001a00:	d802      	bhi.n	8001a08 <HAL_I2C_Init+0xd4>
 8001a02:	68bb      	ldr	r3, [r7, #8]
 8001a04:	3301      	adds	r3, #1
 8001a06:	e009      	b.n	8001a1c <HAL_I2C_Init+0xe8>
 8001a08:	68bb      	ldr	r3, [r7, #8]
 8001a0a:	f44f 7296 	mov.w	r2, #300	@ 0x12c
 8001a0e:	fb02 f303 	mul.w	r3, r2, r3
 8001a12:	4a69      	ldr	r2, [pc, #420]	@ (8001bb8 <HAL_I2C_Init+0x284>)
 8001a14:	fba2 2303 	umull	r2, r3, r2, r3
 8001a18:	099b      	lsrs	r3, r3, #6
 8001a1a:	3301      	adds	r3, #1
 8001a1c:	687a      	ldr	r2, [r7, #4]
 8001a1e:	6812      	ldr	r2, [r2, #0]
 8001a20:	430b      	orrs	r3, r1
 8001a22:	6213      	str	r3, [r2, #32]

  /*---------------------------- I2Cx CCR Configuration ----------------------*/
  /* Configure I2Cx: Speed */
  MODIFY_REG(hi2c->Instance->CCR, (I2C_CCR_FS | I2C_CCR_DUTY | I2C_CCR_CCR), I2C_SPEED(pclk1, hi2c->Init.ClockSpeed, hi2c->Init.DutyCycle));
 8001a24:	687b      	ldr	r3, [r7, #4]
 8001a26:	681b      	ldr	r3, [r3, #0]
 8001a28:	69db      	ldr	r3, [r3, #28]
 8001a2a:	f423 424f 	bic.w	r2, r3, #52992	@ 0xcf00
 8001a2e:	f022 02ff 	bic.w	r2, r2, #255	@ 0xff
 8001a32:	687b      	ldr	r3, [r7, #4]
 8001a34:	685b      	ldr	r3, [r3, #4]
 8001a36:	495c      	ldr	r1, [pc, #368]	@ (8001ba8 <HAL_I2C_Init+0x274>)
 8001a38:	428b      	cmp	r3, r1
 8001a3a:	d819      	bhi.n	8001a70 <HAL_I2C_Init+0x13c>
 8001a3c:	68fb      	ldr	r3, [r7, #12]
 8001a3e:	1e59      	subs	r1, r3, #1
 8001a40:	687b      	ldr	r3, [r7, #4]
 8001a42:	685b      	ldr	r3, [r3, #4]
 8001a44:	005b      	lsls	r3, r3, #1
 8001a46:	fbb1 f3f3 	udiv	r3, r1, r3
 8001a4a:	1c59      	adds	r1, r3, #1
 8001a4c:	f640 73fc 	movw	r3, #4092	@ 0xffc
 8001a50:	400b      	ands	r3, r1
 8001a52:	2b00      	cmp	r3, #0
 8001a54:	d00a      	beq.n	8001a6c <HAL_I2C_Init+0x138>
 8001a56:	68fb      	ldr	r3, [r7, #12]
 8001a58:	1e59      	subs	r1, r3, #1
 8001a5a:	687b      	ldr	r3, [r7, #4]
 8001a5c:	685b      	ldr	r3, [r3, #4]
 8001a5e:	005b      	lsls	r3, r3, #1
 8001a60:	fbb1 f3f3 	udiv	r3, r1, r3
 8001a64:	3301      	adds	r3, #1
 8001a66:	f3c3 030b 	ubfx	r3, r3, #0, #12
 8001a6a:	e051      	b.n	8001b10 <HAL_I2C_Init+0x1dc>
 8001a6c:	2304      	movs	r3, #4
 8001a6e:	e04f      	b.n	8001b10 <HAL_I2C_Init+0x1dc>
 8001a70:	687b      	ldr	r3, [r7, #4]
 8001a72:	689b      	ldr	r3, [r3, #8]
 8001a74:	2b00      	cmp	r3, #0
 8001a76:	d111      	bne.n	8001a9c <HAL_I2C_Init+0x168>
 8001a78:	68fb      	ldr	r3, [r7, #12]
 8001a7a:	1e58      	subs	r0, r3, #1
 8001a7c:	687b      	ldr	r3, [r7, #4]
 8001a7e:	6859      	ldr	r1, [r3, #4]
 8001a80:	460b      	mov	r3, r1
 8001a82:	005b      	lsls	r3, r3, #1
 8001a84:	440b      	add	r3, r1
 8001a86:	fbb0 f3f3 	udiv	r3, r0, r3
 8001a8a:	3301      	adds	r3, #1
 8001a8c:	f3c3 030b 	ubfx	r3, r3, #0, #12
 8001a90:	2b00      	cmp	r3, #0
 8001a92:	bf0c      	ite	eq
 8001a94:	2301      	moveq	r3, #1
 8001a96:	2300      	movne	r3, #0
 8001a98:	b2db      	uxtb	r3, r3
 8001a9a:	e012      	b.n	8001ac2 <HAL_I2C_Init+0x18e>
 8001a9c:	68fb      	ldr	r3, [r7, #12]
 8001a9e:	1e58      	subs	r0, r3, #1
 8001aa0:	687b      	ldr	r3, [r7, #4]
 8001aa2:	6859      	ldr	r1, [r3, #4]
 8001aa4:	460b      	mov	r3, r1
 8001aa6:	009b      	lsls	r3, r3, #2
 8001aa8:	440b      	add	r3, r1
 8001aaa:	0099      	lsls	r1, r3, #2
 8001aac:	440b      	add	r3, r1
 8001aae:	fbb0 f3f3 	udiv	r3, r0, r3
 8001ab2:	3301      	adds	r3, #1
 8001ab4:	f3c3 030b 	ubfx	r3, r3, #0, #12
 8001ab8:	2b00      	cmp	r3, #0
 8001aba:	bf0c      	ite	eq
 8001abc:	2301      	moveq	r3, #1
 8001abe:	2300      	movne	r3, #0
 8001ac0:	b2db      	uxtb	r3, r3
 8001ac2:	2b00      	cmp	r3, #0
 8001ac4:	d001      	beq.n	8001aca <HAL_I2C_Init+0x196>
 8001ac6:	2301      	movs	r3, #1
 8001ac8:	e022      	b.n	8001b10 <HAL_I2C_Init+0x1dc>
 8001aca:	687b      	ldr	r3, [r7, #4]
 8001acc:	689b      	ldr	r3, [r3, #8]
 8001ace:	2b00      	cmp	r3, #0
 8001ad0:	d10e      	bne.n	8001af0 <HAL_I2C_Init+0x1bc>
 8001ad2:	68fb      	ldr	r3, [r7, #12]
 8001ad4:	1e58      	subs	r0, r3, #1
 8001ad6:	687b      	ldr	r3, [r7, #4]
 8001ad8:	6859      	ldr	r1, [r3, #4]
 8001ada:	460b      	mov	r3, r1
 8001adc:	005b      	lsls	r3, r3, #1
 8001ade:	440b      	add	r3, r1
 8001ae0:	fbb0 f3f3 	udiv	r3, r0, r3
 8001ae4:	3301      	adds	r3, #1
 8001ae6:	f3c3 030b 	ubfx	r3, r3, #0, #12
 8001aea:	f443 4300 	orr.w	r3, r3, #32768	@ 0x8000
 8001aee:	e00f      	b.n	8001b10 <HAL_I2C_Init+0x1dc>
 8001af0:	68fb      	ldr	r3, [r7, #12]
 8001af2:	1e58      	subs	r0, r3, #1
 8001af4:	687b      	ldr	r3, [r7, #4]
 8001af6:	6859      	ldr	r1, [r3, #4]
 8001af8:	460b      	mov	r3, r1
 8001afa:	009b      	lsls	r3, r3, #2
 8001afc:	440b      	add	r3, r1
 8001afe:	0099      	lsls	r1, r3, #2
 8001b00:	440b      	add	r3, r1
 8001b02:	fbb0 f3f3 	udiv	r3, r0, r3
 8001b06:	3301      	adds	r3, #1
 8001b08:	f3c3 030b 	ubfx	r3, r3, #0, #12
 8001b0c:	f443 4340 	orr.w	r3, r3, #49152	@ 0xc000
 8001b10:	6879      	ldr	r1, [r7, #4]
 8001b12:	6809      	ldr	r1, [r1, #0]
 8001b14:	4313      	orrs	r3, r2
 8001b16:	61cb      	str	r3, [r1, #28]

  /*---------------------------- I2Cx CR1 Configuration ----------------------*/
  /* Configure I2Cx: Generalcall and NoStretch mode */
  MODIFY_REG(hi2c->Instance->CR1, (I2C_CR1_ENGC | I2C_CR1_NOSTRETCH), (hi2c->Init.GeneralCallMode | hi2c->Init.NoStretchMode));
 8001b18:	687b      	ldr	r3, [r7, #4]
 8001b1a:	681b      	ldr	r3, [r3, #0]
 8001b1c:	681b      	ldr	r3, [r3, #0]
 8001b1e:	f023 01c0 	bic.w	r1, r3, #192	@ 0xc0
 8001b22:	687b      	ldr	r3, [r7, #4]
 8001b24:	69da      	ldr	r2, [r3, #28]
 8001b26:	687b      	ldr	r3, [r7, #4]
 8001b28:	6a1b      	ldr	r3, [r3, #32]
 8001b2a:	431a      	orrs	r2, r3
 8001b2c:	687b      	ldr	r3, [r7, #4]
 8001b2e:	681b      	ldr	r3, [r3, #0]
 8001b30:	430a      	orrs	r2, r1
 8001b32:	601a      	str	r2, [r3, #0]

  /*---------------------------- I2Cx OAR1 Configuration ---------------------*/
  /* Configure I2Cx: Own Address1 and addressing mode */
  MODIFY_REG(hi2c->Instance->OAR1, (I2C_OAR1_ADDMODE | I2C_OAR1_ADD8_9 | I2C_OAR1_ADD1_7 | I2C_OAR1_ADD0), (hi2c->Init.AddressingMode | hi2c->Init.OwnAddress1));
 8001b34:	687b      	ldr	r3, [r7, #4]
 8001b36:	681b      	ldr	r3, [r3, #0]
 8001b38:	689b      	ldr	r3, [r3, #8]
 8001b3a:	f423 4303 	bic.w	r3, r3, #33536	@ 0x8300
 8001b3e:	f023 03ff 	bic.w	r3, r3, #255	@ 0xff
 8001b42:	687a      	ldr	r2, [r7, #4]
 8001b44:	6911      	ldr	r1, [r2, #16]
 8001b46:	687a      	ldr	r2, [r7, #4]
 8001b48:	68d2      	ldr	r2, [r2, #12]
 8001b4a:	4311      	orrs	r1, r2
 8001b4c:	687a      	ldr	r2, [r7, #4]
 8001b4e:	6812      	ldr	r2, [r2, #0]
 8001b50:	430b      	orrs	r3, r1
 8001b52:	6093      	str	r3, [r2, #8]

  /*---------------------------- I2Cx OAR2 Configuration ---------------------*/
  /* Configure I2Cx: Dual mode and Own Address2 */
  MODIFY_REG(hi2c->Instance->OAR2, (I2C_OAR2_ENDUAL | I2C_OAR2_ADD2), (hi2c->Init.DualAddressMode | hi2c->Init.OwnAddress2));
 8001b54:	687b      	ldr	r3, [r7, #4]
 8001b56:	681b      	ldr	r3, [r3, #0]
 8001b58:	68db      	ldr	r3, [r3, #12]
 8001b5a:	f023 01ff 	bic.w	r1, r3, #255	@ 0xff
 8001b5e:	687b      	ldr	r3, [r7, #4]
 8001b60:	695a      	ldr	r2, [r3, #20]
 8001b62:	687b      	ldr	r3, [r7, #4]
 8001b64:	699b      	ldr	r3, [r3, #24]
 8001b66:	431a      	orrs	r2, r3
 8001b68:	687b      	ldr	r3, [r7, #4]
 8001b6a:	681b      	ldr	r3, [r3, #0]
 8001b6c:	430a      	orrs	r2, r1
 8001b6e:	60da      	str	r2, [r3, #12]

  /* Enable the selected I2C peripheral */
  __HAL_I2C_ENABLE(hi2c);
 8001b70:	687b      	ldr	r3, [r7, #4]
 8001b72:	681b      	ldr	r3, [r3, #0]
 8001b74:	681a      	ldr	r2, [r3, #0]
 8001b76:	687b      	ldr	r3, [r7, #4]
 8001b78:	681b      	ldr	r3, [r3, #0]
 8001b7a:	f042 0201 	orr.w	r2, r2, #1
 8001b7e:	601a      	str	r2, [r3, #0]

  hi2c->ErrorCode = HAL_I2C_ERROR_NONE;
 8001b80:	687b      	ldr	r3, [r7, #4]
 8001b82:	2200      	movs	r2, #0
 8001b84:	641a      	str	r2, [r3, #64]	@ 0x40
  hi2c->State = HAL_I2C_STATE_READY;
 8001b86:	687b      	ldr	r3, [r7, #4]
 8001b88:	2220      	movs	r2, #32
 8001b8a:	f883 203d 	strb.w	r2, [r3, #61]	@ 0x3d
  hi2c->PreviousState = I2C_STATE_NONE;
 8001b8e:	687b      	ldr	r3, [r7, #4]
 8001b90:	2200      	movs	r2, #0
 8001b92:	631a      	str	r2, [r3, #48]	@ 0x30
  hi2c->Mode = HAL_I2C_MODE_NONE;
 8001b94:	687b      	ldr	r3, [r7, #4]
 8001b96:	2200      	movs	r2, #0
 8001b98:	f883 203e 	strb.w	r2, [r3, #62]	@ 0x3e

  return HAL_OK;
 8001b9c:	2300      	movs	r3, #0
}
 8001b9e:	4618      	mov	r0, r3
 8001ba0:	3710      	adds	r7, #16
 8001ba2:	46bd      	mov	sp, r7
 8001ba4:	bd80      	pop	{r7, pc}
 8001ba6:	bf00      	nop
 8001ba8:	000186a0 	.word	0x000186a0
 8001bac:	001e847f 	.word	0x001e847f
 8001bb0:	003d08ff 	.word	0x003d08ff
 8001bb4:	431bde83 	.word	0x431bde83
 8001bb8:	10624dd3 	.word	0x10624dd3

08001bbc <HAL_I2C_Mem_Write>:
  * @param  Size Amount of data to be sent
  * @param  Timeout Timeout duration
  * @retval HAL status
  */
HAL_StatusTypeDef HAL_I2C_Mem_Write(I2C_HandleTypeDef *hi2c, uint16_t DevAddress, uint16_t MemAddress, uint16_t MemAddSize, uint8_t *pData, uint16_t Size, uint32_t Timeout)
{
 8001bbc:	b580      	push	{r7, lr}
 8001bbe:	b088      	sub	sp, #32
 8001bc0:	af02      	add	r7, sp, #8
 8001bc2:	60f8      	str	r0, [r7, #12]
 8001bc4:	4608      	mov	r0, r1
 8001bc6:	4611      	mov	r1, r2
 8001bc8:	461a      	mov	r2, r3
 8001bca:	4603      	mov	r3, r0
 8001bcc:	817b      	strh	r3, [r7, #10]
 8001bce:	460b      	mov	r3, r1
 8001bd0:	813b      	strh	r3, [r7, #8]
 8001bd2:	4613      	mov	r3, r2
 8001bd4:	80fb      	strh	r3, [r7, #6]
  /* Init tickstart for timeout management*/
  uint32_t tickstart = HAL_GetTick();
 8001bd6:	f7ff fbf9 	bl	80013cc <HAL_GetTick>
 8001bda:	6178      	str	r0, [r7, #20]

  /* Check the parameters */
  assert_param(IS_I2C_MEMADD_SIZE(MemAddSize));

  if (hi2c->State == HAL_I2C_STATE_READY)
 8001bdc:	68fb      	ldr	r3, [r7, #12]
 8001bde:	f893 303d 	ldrb.w	r3, [r3, #61]	@ 0x3d
 8001be2:	b2db      	uxtb	r3, r3
 8001be4:	2b20      	cmp	r3, #32
 8001be6:	f040 80d9 	bne.w	8001d9c <HAL_I2C_Mem_Write+0x1e0>
  {
    /* Wait until BUSY flag is reset */
    if (I2C_WaitOnFlagUntilTimeout(hi2c, I2C_FLAG_BUSY, SET, I2C_TIMEOUT_BUSY_FLAG, tickstart) != HAL_OK)
 8001bea:	697b      	ldr	r3, [r7, #20]
 8001bec:	9300      	str	r3, [sp, #0]
 8001bee:	2319      	movs	r3, #25
 8001bf0:	2201      	movs	r2, #1
 8001bf2:	496d      	ldr	r1, [pc, #436]	@ (8001da8 <HAL_I2C_Mem_Write+0x1ec>)
 8001bf4:	68f8      	ldr	r0, [r7, #12]
 8001bf6:	f000 fcc1 	bl	800257c <I2C_WaitOnFlagUntilTimeout>
 8001bfa:	4603      	mov	r3, r0
 8001bfc:	2b00      	cmp	r3, #0
 8001bfe:	d001      	beq.n	8001c04 <HAL_I2C_Mem_Write+0x48>
    {
      return HAL_BUSY;
 8001c00:	2302      	movs	r3, #2
 8001c02:	e0cc      	b.n	8001d9e <HAL_I2C_Mem_Write+0x1e2>
    }

    /* Process Locked */
    __HAL_LOCK(hi2c);
 8001c04:	68fb      	ldr	r3, [r7, #12]
 8001c06:	f893 303c 	ldrb.w	r3, [r3, #60]	@ 0x3c
 8001c0a:	2b01      	cmp	r3, #1
 8001c0c:	d101      	bne.n	8001c12 <HAL_I2C_Mem_Write+0x56>
 8001c0e:	2302      	movs	r3, #2
 8001c10:	e0c5      	b.n	8001d9e <HAL_I2C_Mem_Write+0x1e2>
 8001c12:	68fb      	ldr	r3, [r7, #12]
 8001c14:	2201      	movs	r2, #1
 8001c16:	f883 203c 	strb.w	r2, [r3, #60]	@ 0x3c

    /* Check if the I2C is already enabled */
    if ((hi2c->Instance->CR1 & I2C_CR1_PE) != I2C_CR1_PE)
 8001c1a:	68fb      	ldr	r3, [r7, #12]
 8001c1c:	681b      	ldr	r3, [r3, #0]
 8001c1e:	681b      	ldr	r3, [r3, #0]
 8001c20:	f003 0301 	and.w	r3, r3, #1
 8001c24:	2b01      	cmp	r3, #1
 8001c26:	d007      	beq.n	8001c38 <HAL_I2C_Mem_Write+0x7c>
    {
      /* Enable I2C peripheral */
      __HAL_I2C_ENABLE(hi2c);
 8001c28:	68fb      	ldr	r3, [r7, #12]
 8001c2a:	681b      	ldr	r3, [r3, #0]
 8001c2c:	681a      	ldr	r2, [r3, #0]
 8001c2e:	68fb      	ldr	r3, [r7, #12]
 8001c30:	681b      	ldr	r3, [r3, #0]
 8001c32:	f042 0201 	orr.w	r2, r2, #1
 8001c36:	601a      	str	r2, [r3, #0]
    }

    /* Disable Pos */
    CLEAR_BIT(hi2c->Instance->CR1, I2C_CR1_POS);
 8001c38:	68fb      	ldr	r3, [r7, #12]
 8001c3a:	681b      	ldr	r3, [r3, #0]
 8001c3c:	681a      	ldr	r2, [r3, #0]
 8001c3e:	68fb      	ldr	r3, [r7, #12]
 8001c40:	681b      	ldr	r3, [r3, #0]
 8001c42:	f422 6200 	bic.w	r2, r2, #2048	@ 0x800
 8001c46:	601a      	str	r2, [r3, #0]

    hi2c->State     = HAL_I2C_STATE_BUSY_TX;
 8001c48:	68fb      	ldr	r3, [r7, #12]
 8001c4a:	2221      	movs	r2, #33	@ 0x21
 8001c4c:	f883 203d 	strb.w	r2, [r3, #61]	@ 0x3d
    hi2c->Mode      = HAL_I2C_MODE_MEM;
 8001c50:	68fb      	ldr	r3, [r7, #12]
 8001c52:	2240      	movs	r2, #64	@ 0x40
 8001c54:	f883 203e 	strb.w	r2, [r3, #62]	@ 0x3e
    hi2c->ErrorCode = HAL_I2C_ERROR_NONE;
 8001c58:	68fb      	ldr	r3, [r7, #12]
 8001c5a:	2200      	movs	r2, #0
 8001c5c:	641a      	str	r2, [r3, #64]	@ 0x40

    /* Prepare transfer parameters */
    hi2c->pBuffPtr    = pData;
 8001c5e:	68fb      	ldr	r3, [r7, #12]
 8001c60:	6a3a      	ldr	r2, [r7, #32]
 8001c62:	625a      	str	r2, [r3, #36]	@ 0x24
    hi2c->XferCount   = Size;
 8001c64:	68fb      	ldr	r3, [r7, #12]
 8001c66:	8cba      	ldrh	r2, [r7, #36]	@ 0x24
 8001c68:	855a      	strh	r2, [r3, #42]	@ 0x2a
    hi2c->XferSize    = hi2c->XferCount;
 8001c6a:	68fb      	ldr	r3, [r7, #12]
 8001c6c:	8d5b      	ldrh	r3, [r3, #42]	@ 0x2a
 8001c6e:	b29a      	uxth	r2, r3
 8001c70:	68fb      	ldr	r3, [r7, #12]
 8001c72:	851a      	strh	r2, [r3, #40]	@ 0x28
    hi2c->XferOptions = I2C_NO_OPTION_FRAME;
 8001c74:	68fb      	ldr	r3, [r7, #12]
 8001c76:	4a4d      	ldr	r2, [pc, #308]	@ (8001dac <HAL_I2C_Mem_Write+0x1f0>)
 8001c78:	62da      	str	r2, [r3, #44]	@ 0x2c

    /* Send Slave Address and Memory Address */
    if (I2C_RequestMemoryWrite(hi2c, DevAddress, MemAddress, MemAddSize, Timeout, tickstart) != HAL_OK)
 8001c7a:	88f8      	ldrh	r0, [r7, #6]
 8001c7c:	893a      	ldrh	r2, [r7, #8]
 8001c7e:	8979      	ldrh	r1, [r7, #10]
 8001c80:	697b      	ldr	r3, [r7, #20]
 8001c82:	9301      	str	r3, [sp, #4]
 8001c84:	6abb      	ldr	r3, [r7, #40]	@ 0x28
 8001c86:	9300      	str	r3, [sp, #0]
 8001c88:	4603      	mov	r3, r0
 8001c8a:	68f8      	ldr	r0, [r7, #12]
 8001c8c:	f000 faf8 	bl	8002280 <I2C_RequestMemoryWrite>
 8001c90:	4603      	mov	r3, r0
 8001c92:	2b00      	cmp	r3, #0
 8001c94:	d052      	beq.n	8001d3c <HAL_I2C_Mem_Write+0x180>
    {
      return HAL_ERROR;
 8001c96:	2301      	movs	r3, #1
 8001c98:	e081      	b.n	8001d9e <HAL_I2C_Mem_Write+0x1e2>
    }

    while (hi2c->XferSize > 0U)
    {
      /* Wait until TXE flag is set */
      if (I2C_WaitOnTXEFlagUntilTimeout(hi2c, Timeout, tickstart) != HAL_OK)
 8001c9a:	697a      	ldr	r2, [r7, #20]
 8001c9c:	6ab9      	ldr	r1, [r7, #40]	@ 0x28
 8001c9e:	68f8      	ldr	r0, [r7, #12]
 8001ca0:	f000 fd86 	bl	80027b0 <I2C_WaitOnTXEFlagUntilTimeout>
 8001ca4:	4603      	mov	r3, r0
 8001ca6:	2b00      	cmp	r3, #0
 8001ca8:	d00d      	beq.n	8001cc6 <HAL_I2C_Mem_Write+0x10a>
      {
        if (hi2c->ErrorCode == HAL_I2C_ERROR_AF)
 8001caa:	68fb      	ldr	r3, [r7, #12]
 8001cac:	6c1b      	ldr	r3, [r3, #64]	@ 0x40
 8001cae:	2b04      	cmp	r3, #4
 8001cb0:	d107      	bne.n	8001cc2 <HAL_I2C_Mem_Write+0x106>
        {
          /* Generate Stop */
          SET_BIT(hi2c->Instance->CR1, I2C_CR1_STOP);
 8001cb2:	68fb      	ldr	r3, [r7, #12]
 8001cb4:	681b      	ldr	r3, [r3, #0]
 8001cb6:	681a      	ldr	r2, [r3, #0]
 8001cb8:	68fb      	ldr	r3, [r7, #12]
 8001cba:	681b      	ldr	r3, [r3, #0]
 8001cbc:	f442 7200 	orr.w	r2, r2, #512	@ 0x200
 8001cc0:	601a      	str	r2, [r3, #0]
        }
        return HAL_ERROR;
 8001cc2:	2301      	movs	r3, #1
 8001cc4:	e06b      	b.n	8001d9e <HAL_I2C_Mem_Write+0x1e2>
      }

      /* Write data to DR */
      hi2c->Instance->DR = *hi2c->pBuffPtr;
 8001cc6:	68fb      	ldr	r3, [r7, #12]
 8001cc8:	6a5b      	ldr	r3, [r3, #36]	@ 0x24
 8001cca:	781a      	ldrb	r2, [r3, #0]
 8001ccc:	68fb      	ldr	r3, [r7, #12]
 8001cce:	681b      	ldr	r3, [r3, #0]
 8001cd0:	611a      	str	r2, [r3, #16]

      /* Increment Buffer pointer */
      hi2c->pBuffPtr++;
 8001cd2:	68fb      	ldr	r3, [r7, #12]
 8001cd4:	6a5b      	ldr	r3, [r3, #36]	@ 0x24
 8001cd6:	1c5a      	adds	r2, r3, #1
 8001cd8:	68fb      	ldr	r3, [r7, #12]
 8001cda:	625a      	str	r2, [r3, #36]	@ 0x24

      /* Update counter */
      hi2c->XferSize--;
 8001cdc:	68fb      	ldr	r3, [r7, #12]
 8001cde:	8d1b      	ldrh	r3, [r3, #40]	@ 0x28
 8001ce0:	3b01      	subs	r3, #1
 8001ce2:	b29a      	uxth	r2, r3
 8001ce4:	68fb      	ldr	r3, [r7, #12]
 8001ce6:	851a      	strh	r2, [r3, #40]	@ 0x28
      hi2c->XferCount--;
 8001ce8:	68fb      	ldr	r3, [r7, #12]
 8001cea:	8d5b      	ldrh	r3, [r3, #42]	@ 0x2a
 8001cec:	b29b      	uxth	r3, r3
 8001cee:	3b01      	subs	r3, #1
 8001cf0:	b29a      	uxth	r2, r3
 8001cf2:	68fb      	ldr	r3, [r7, #12]
 8001cf4:	855a      	strh	r2, [r3, #42]	@ 0x2a

      if ((__HAL_I2C_GET_FLAG(hi2c, I2C_FLAG_BTF) == SET) && (hi2c->XferSize != 0U))
 8001cf6:	68fb      	ldr	r3, [r7, #12]
 8001cf8:	681b      	ldr	r3, [r3, #0]
 8001cfa:	695b      	ldr	r3, [r3, #20]
 8001cfc:	f003 0304 	and.w	r3, r3, #4
 8001d00:	2b04      	cmp	r3, #4
 8001d02:	d11b      	bne.n	8001d3c <HAL_I2C_Mem_Write+0x180>
 8001d04:	68fb      	ldr	r3, [r7, #12]
 8001d06:	8d1b      	ldrh	r3, [r3, #40]	@ 0x28
 8001d08:	2b00      	cmp	r3, #0
 8001d0a:	d017      	beq.n	8001d3c <HAL_I2C_Mem_Write+0x180>
      {
        /* Write data to DR */
        hi2c->Instance->DR = *hi2c->pBuffPtr;
 8001d0c:	68fb      	ldr	r3, [r7, #12]
 8001d0e:	6a5b      	ldr	r3, [r3, #36]	@ 0x24
 8001d10:	781a      	ldrb	r2, [r3, #0]
 8001d12:	68fb      	ldr	r3, [r7, #12]
 8001d14:	681b      	ldr	r3, [r3, #0]
 8001d16:	611a      	str	r2, [r3, #16]

        /* Increment Buffer pointer */
        hi2c->pBuffPtr++;
 8001d18:	68fb      	ldr	r3, [r7, #12]
 8001d1a:	6a5b      	ldr	r3, [r3, #36]	@ 0x24
 8001d1c:	1c5a      	adds	r2, r3, #1
 8001d1e:	68fb      	ldr	r3, [r7, #12]
 8001d20:	625a      	str	r2, [r3, #36]	@ 0x24

        /* Update counter */
        hi2c->XferSize--;
 8001d22:	68fb      	ldr	r3, [r7, #12]
 8001d24:	8d1b      	ldrh	r3, [r3, #40]	@ 0x28
 8001d26:	3b01      	subs	r3, #1
 8001d28:	b29a      	uxth	r2, r3
 8001d2a:	68fb      	ldr	r3, [r7, #12]
 8001d2c:	851a      	strh	r2, [r3, #40]	@ 0x28
        hi2c->XferCount--;
 8001d2e:	68fb      	ldr	r3, [r7, #12]
 8001d30:	8d5b      	ldrh	r3, [r3, #42]	@ 0x2a
 8001d32:	b29b      	uxth	r3, r3
 8001d34:	3b01      	subs	r3, #1
 8001d36:	b29a      	uxth	r2, r3
 8001d38:	68fb      	ldr	r3, [r7, #12]
 8001d3a:	855a      	strh	r2, [r3, #42]	@ 0x2a
    while (hi2c->XferSize > 0U)
 8001d3c:	68fb      	ldr	r3, [r7, #12]
 8001d3e:	8d1b      	ldrh	r3, [r3, #40]	@ 0x28
 8001d40:	2b00      	cmp	r3, #0
 8001d42:	d1aa      	bne.n	8001c9a <HAL_I2C_Mem_Write+0xde>
      }
    }

    /* Wait until BTF flag is set */
    if (I2C_WaitOnBTFFlagUntilTimeout(hi2c, Timeout, tickstart) != HAL_OK)
 8001d44:	697a      	ldr	r2, [r7, #20]
 8001d46:	6ab9      	ldr	r1, [r7, #40]	@ 0x28
 8001d48:	68f8      	ldr	r0, [r7, #12]
 8001d4a:	f000 fd79 	bl	8002840 <I2C_WaitOnBTFFlagUntilTimeout>
 8001d4e:	4603      	mov	r3, r0
 8001d50:	2b00      	cmp	r3, #0
 8001d52:	d00d      	beq.n	8001d70 <HAL_I2C_Mem_Write+0x1b4>
    {
      if (hi2c->ErrorCode == HAL_I2C_ERROR_AF)
 8001d54:	68fb      	ldr	r3, [r7, #12]
 8001d56:	6c1b      	ldr	r3, [r3, #64]	@ 0x40
 8001d58:	2b04      	cmp	r3, #4
 8001d5a:	d107      	bne.n	8001d6c <HAL_I2C_Mem_Write+0x1b0>
      {
        /* Generate Stop */
        SET_BIT(hi2c->Instance->CR1, I2C_CR1_STOP);
 8001d5c:	68fb      	ldr	r3, [r7, #12]
 8001d5e:	681b      	ldr	r3, [r3, #0]
 8001d60:	681a      	ldr	r2, [r3, #0]
 8001d62:	68fb      	ldr	r3, [r7, #12]
 8001d64:	681b      	ldr	r3, [r3, #0]
 8001d66:	f442 7200 	orr.w	r2, r2, #512	@ 0x200
 8001d6a:	601a      	str	r2, [r3, #0]
      }
      return HAL_ERROR;
 8001d6c:	2301      	movs	r3, #1
 8001d6e:	e016      	b.n	8001d9e <HAL_I2C_Mem_Write+0x1e2>
    }

    /* Generate Stop */
    SET_BIT(hi2c->Instance->CR1, I2C_CR1_STOP);
 8001d70:	68fb      	ldr	r3, [r7, #12]
 8001d72:	681b      	ldr	r3, [r3, #0]
 8001d74:	681a      	ldr	r2, [r3, #0]
 8001d76:	68fb      	ldr	r3, [r7, #12]
 8001d78:	681b      	ldr	r3, [r3, #0]
 8001d7a:	f442 7200 	orr.w	r2, r2, #512	@ 0x200
 8001d7e:	601a      	str	r2, [r3, #0]

    hi2c->State = HAL_I2C_STATE_READY;
 8001d80:	68fb      	ldr	r3, [r7, #12]
 8001d82:	2220      	movs	r2, #32
 8001d84:	f883 203d 	strb.w	r2, [r3, #61]	@ 0x3d
    hi2c->Mode = HAL_I2C_MODE_NONE;
 8001d88:	68fb      	ldr	r3, [r7, #12]
 8001d8a:	2200      	movs	r2, #0
 8001d8c:	f883 203e 	strb.w	r2, [r3, #62]	@ 0x3e

    /* Process Unlocked */
    __HAL_UNLOCK(hi2c);
 8001d90:	68fb      	ldr	r3, [r7, #12]
 8001d92:	2200      	movs	r2, #0
 8001d94:	f883 203c 	strb.w	r2, [r3, #60]	@ 0x3c

    return HAL_OK;
 8001d98:	2300      	movs	r3, #0
 8001d9a:	e000      	b.n	8001d9e <HAL_I2C_Mem_Write+0x1e2>
  }
  else
  {
    return HAL_BUSY;
 8001d9c:	2302      	movs	r3, #2
  }
}
 8001d9e:	4618      	mov	r0, r3
 8001da0:	3718      	adds	r7, #24
 8001da2:	46bd      	mov	sp, r7
 8001da4:	bd80      	pop	{r7, pc}
 8001da6:	bf00      	nop
 8001da8:	00100002 	.word	0x00100002
 8001dac:	ffff0000 	.word	0xffff0000

08001db0 <HAL_I2C_Mem_Read>:
  * @param  Size Amount of data to be sent
  * @param  Timeout Timeout duration
  * @retval HAL status
  */
HAL_StatusTypeDef HAL_I2C_Mem_Read(I2C_HandleTypeDef *hi2c, uint16_t DevAddress, uint16_t MemAddress, uint16_t MemAddSize, uint8_t *pData, uint16_t Size, uint32_t Timeout)
{
 8001db0:	b580      	push	{r7, lr}
 8001db2:	b08c      	sub	sp, #48	@ 0x30
 8001db4:	af02      	add	r7, sp, #8
 8001db6:	60f8      	str	r0, [r7, #12]
 8001db8:	4608      	mov	r0, r1
 8001dba:	4611      	mov	r1, r2
 8001dbc:	461a      	mov	r2, r3
 8001dbe:	4603      	mov	r3, r0
 8001dc0:	817b      	strh	r3, [r7, #10]
 8001dc2:	460b      	mov	r3, r1
 8001dc4:	813b      	strh	r3, [r7, #8]
 8001dc6:	4613      	mov	r3, r2
 8001dc8:	80fb      	strh	r3, [r7, #6]
  __IO uint32_t count = 0U;
 8001dca:	2300      	movs	r3, #0
 8001dcc:	623b      	str	r3, [r7, #32]

  /* Init tickstart for timeout management*/
  uint32_t tickstart = HAL_GetTick();
 8001dce:	f7ff fafd 	bl	80013cc <HAL_GetTick>
 8001dd2:	6278      	str	r0, [r7, #36]	@ 0x24

  /* Check the parameters */
  assert_param(IS_I2C_MEMADD_SIZE(MemAddSize));

  if (hi2c->State == HAL_I2C_STATE_READY)
 8001dd4:	68fb      	ldr	r3, [r7, #12]
 8001dd6:	f893 303d 	ldrb.w	r3, [r3, #61]	@ 0x3d
 8001dda:	b2db      	uxtb	r3, r3
 8001ddc:	2b20      	cmp	r3, #32
 8001dde:	f040 8244 	bne.w	800226a <HAL_I2C_Mem_Read+0x4ba>
  {
    /* Wait until BUSY flag is reset */
    if (I2C_WaitOnFlagUntilTimeout(hi2c, I2C_FLAG_BUSY, SET, I2C_TIMEOUT_BUSY_FLAG, tickstart) != HAL_OK)
 8001de2:	6a7b      	ldr	r3, [r7, #36]	@ 0x24
 8001de4:	9300      	str	r3, [sp, #0]
 8001de6:	2319      	movs	r3, #25
 8001de8:	2201      	movs	r2, #1
 8001dea:	4982      	ldr	r1, [pc, #520]	@ (8001ff4 <HAL_I2C_Mem_Read+0x244>)
 8001dec:	68f8      	ldr	r0, [r7, #12]
 8001dee:	f000 fbc5 	bl	800257c <I2C_WaitOnFlagUntilTimeout>
 8001df2:	4603      	mov	r3, r0
 8001df4:	2b00      	cmp	r3, #0
 8001df6:	d001      	beq.n	8001dfc <HAL_I2C_Mem_Read+0x4c>
    {
      return HAL_BUSY;
 8001df8:	2302      	movs	r3, #2
 8001dfa:	e237      	b.n	800226c <HAL_I2C_Mem_Read+0x4bc>
    }

    /* Process Locked */
    __HAL_LOCK(hi2c);
 8001dfc:	68fb      	ldr	r3, [r7, #12]
 8001dfe:	f893 303c 	ldrb.w	r3, [r3, #60]	@ 0x3c
 8001e02:	2b01      	cmp	r3, #1
 8001e04:	d101      	bne.n	8001e0a <HAL_I2C_Mem_Read+0x5a>
 8001e06:	2302      	movs	r3, #2
 8001e08:	e230      	b.n	800226c <HAL_I2C_Mem_Read+0x4bc>
 8001e0a:	68fb      	ldr	r3, [r7, #12]
 8001e0c:	2201      	movs	r2, #1
 8001e0e:	f883 203c 	strb.w	r2, [r3, #60]	@ 0x3c

    /* Check if the I2C is already enabled */
    if ((hi2c->Instance->CR1 & I2C_CR1_PE) != I2C_CR1_PE)
 8001e12:	68fb      	ldr	r3, [r7, #12]
 8001e14:	681b      	ldr	r3, [r3, #0]
 8001e16:	681b      	ldr	r3, [r3, #0]
 8001e18:	f003 0301 	and.w	r3, r3, #1
 8001e1c:	2b01      	cmp	r3, #1
 8001e1e:	d007      	beq.n	8001e30 <HAL_I2C_Mem_Read+0x80>
    {
      /* Enable I2C peripheral */
      __HAL_I2C_ENABLE(hi2c);
 8001e20:	68fb      	ldr	r3, [r7, #12]
 8001e22:	681b      	ldr	r3, [r3, #0]
 8001e24:	681a      	ldr	r2, [r3, #0]
 8001e26:	68fb      	ldr	r3, [r7, #12]
 8001e28:	681b      	ldr	r3, [r3, #0]
 8001e2a:	f042 0201 	orr.w	r2, r2, #1
 8001e2e:	601a      	str	r2, [r3, #0]
    }

    /* Disable Pos */
    CLEAR_BIT(hi2c->Instance->CR1, I2C_CR1_POS);
 8001e30:	68fb      	ldr	r3, [r7, #12]
 8001e32:	681b      	ldr	r3, [r3, #0]
 8001e34:	681a      	ldr	r2, [r3, #0]
 8001e36:	68fb      	ldr	r3, [r7, #12]
 8001e38:	681b      	ldr	r3, [r3, #0]
 8001e3a:	f422 6200 	bic.w	r2, r2, #2048	@ 0x800
 8001e3e:	601a      	str	r2, [r3, #0]

    hi2c->State     = HAL_I2C_STATE_BUSY_RX;
 8001e40:	68fb      	ldr	r3, [r7, #12]
 8001e42:	2222      	movs	r2, #34	@ 0x22
 8001e44:	f883 203d 	strb.w	r2, [r3, #61]	@ 0x3d
    hi2c->Mode      = HAL_I2C_MODE_MEM;
 8001e48:	68fb      	ldr	r3, [r7, #12]
 8001e4a:	2240      	movs	r2, #64	@ 0x40
 8001e4c:	f883 203e 	strb.w	r2, [r3, #62]	@ 0x3e
    hi2c->ErrorCode = HAL_I2C_ERROR_NONE;
 8001e50:	68fb      	ldr	r3, [r7, #12]
 8001e52:	2200      	movs	r2, #0
 8001e54:	641a      	str	r2, [r3, #64]	@ 0x40

    /* Prepare transfer parameters */
    hi2c->pBuffPtr    = pData;
 8001e56:	68fb      	ldr	r3, [r7, #12]
 8001e58:	6b3a      	ldr	r2, [r7, #48]	@ 0x30
 8001e5a:	625a      	str	r2, [r3, #36]	@ 0x24
    hi2c->XferCount   = Size;
 8001e5c:	68fb      	ldr	r3, [r7, #12]
 8001e5e:	8eba      	ldrh	r2, [r7, #52]	@ 0x34
 8001e60:	855a      	strh	r2, [r3, #42]	@ 0x2a
    hi2c->XferSize    = hi2c->XferCount;
 8001e62:	68fb      	ldr	r3, [r7, #12]
 8001e64:	8d5b      	ldrh	r3, [r3, #42]	@ 0x2a
 8001e66:	b29a      	uxth	r2, r3
 8001e68:	68fb      	ldr	r3, [r7, #12]
 8001e6a:	851a      	strh	r2, [r3, #40]	@ 0x28
    hi2c->XferOptions = I2C_NO_OPTION_FRAME;
 8001e6c:	68fb      	ldr	r3, [r7, #12]
 8001e6e:	4a62      	ldr	r2, [pc, #392]	@ (8001ff8 <HAL_I2C_Mem_Read+0x248>)
 8001e70:	62da      	str	r2, [r3, #44]	@ 0x2c

    /* Send Slave Address and Memory Address */
    if (I2C_RequestMemoryRead(hi2c, DevAddress, MemAddress, MemAddSize, Timeout, tickstart) != HAL_OK)
 8001e72:	88f8      	ldrh	r0, [r7, #6]
 8001e74:	893a      	ldrh	r2, [r7, #8]
 8001e76:	8979      	ldrh	r1, [r7, #10]
 8001e78:	6a7b      	ldr	r3, [r7, #36]	@ 0x24
 8001e7a:	9301      	str	r3, [sp, #4]
 8001e7c:	6bbb      	ldr	r3, [r7, #56]	@ 0x38
 8001e7e:	9300      	str	r3, [sp, #0]
 8001e80:	4603      	mov	r3, r0
 8001e82:	68f8      	ldr	r0, [r7, #12]
 8001e84:	f000 fa92 	bl	80023ac <I2C_RequestMemoryRead>
 8001e88:	4603      	mov	r3, r0
 8001e8a:	2b00      	cmp	r3, #0
 8001e8c:	d001      	beq.n	8001e92 <HAL_I2C_Mem_Read+0xe2>
    {
      return HAL_ERROR;
 8001e8e:	2301      	movs	r3, #1
 8001e90:	e1ec      	b.n	800226c <HAL_I2C_Mem_Read+0x4bc>
    }

    if (hi2c->XferSize == 0U)
 8001e92:	68fb      	ldr	r3, [r7, #12]
 8001e94:	8d1b      	ldrh	r3, [r3, #40]	@ 0x28
 8001e96:	2b00      	cmp	r3, #0
 8001e98:	d113      	bne.n	8001ec2 <HAL_I2C_Mem_Read+0x112>
    {
      /* Clear ADDR flag */
      __HAL_I2C_CLEAR_ADDRFLAG(hi2c);
 8001e9a:	2300      	movs	r3, #0
 8001e9c:	61fb      	str	r3, [r7, #28]
 8001e9e:	68fb      	ldr	r3, [r7, #12]
 8001ea0:	681b      	ldr	r3, [r3, #0]
 8001ea2:	695b      	ldr	r3, [r3, #20]
 8001ea4:	61fb      	str	r3, [r7, #28]
 8001ea6:	68fb      	ldr	r3, [r7, #12]
 8001ea8:	681b      	ldr	r3, [r3, #0]
 8001eaa:	699b      	ldr	r3, [r3, #24]
 8001eac:	61fb      	str	r3, [r7, #28]
 8001eae:	69fb      	ldr	r3, [r7, #28]

      /* Generate Stop */
      SET_BIT(hi2c->Instance->CR1, I2C_CR1_STOP);
 8001eb0:	68fb      	ldr	r3, [r7, #12]
 8001eb2:	681b      	ldr	r3, [r3, #0]
 8001eb4:	681a      	ldr	r2, [r3, #0]
 8001eb6:	68fb      	ldr	r3, [r7, #12]
 8001eb8:	681b      	ldr	r3, [r3, #0]
 8001eba:	f442 7200 	orr.w	r2, r2, #512	@ 0x200
 8001ebe:	601a      	str	r2, [r3, #0]
 8001ec0:	e1c0      	b.n	8002244 <HAL_I2C_Mem_Read+0x494>
    }
    else if (hi2c->XferSize == 1U)
 8001ec2:	68fb      	ldr	r3, [r7, #12]
 8001ec4:	8d1b      	ldrh	r3, [r3, #40]	@ 0x28
 8001ec6:	2b01      	cmp	r3, #1
 8001ec8:	d11e      	bne.n	8001f08 <HAL_I2C_Mem_Read+0x158>
    {
      /* Disable Acknowledge */
      CLEAR_BIT(hi2c->Instance->CR1, I2C_CR1_ACK);
 8001eca:	68fb      	ldr	r3, [r7, #12]
 8001ecc:	681b      	ldr	r3, [r3, #0]
 8001ece:	681a      	ldr	r2, [r3, #0]
 8001ed0:	68fb      	ldr	r3, [r7, #12]
 8001ed2:	681b      	ldr	r3, [r3, #0]
 8001ed4:	f422 6280 	bic.w	r2, r2, #1024	@ 0x400
 8001ed8:	601a      	str	r2, [r3, #0]
  __ASM volatile ("cpsid i" : : : "memory");
 8001eda:	b672      	cpsid	i
}
 8001edc:	bf00      	nop
      /* Disable all active IRQs around ADDR clearing and STOP programming because the EV6_3
         software sequence must complete before the current byte end of transfer */
      __disable_irq();

      /* Clear ADDR flag */
      __HAL_I2C_CLEAR_ADDRFLAG(hi2c);
 8001ede:	2300      	movs	r3, #0
 8001ee0:	61bb      	str	r3, [r7, #24]
 8001ee2:	68fb      	ldr	r3, [r7, #12]
 8001ee4:	681b      	ldr	r3, [r3, #0]
 8001ee6:	695b      	ldr	r3, [r3, #20]
 8001ee8:	61bb      	str	r3, [r7, #24]
 8001eea:	68fb      	ldr	r3, [r7, #12]
 8001eec:	681b      	ldr	r3, [r3, #0]
 8001eee:	699b      	ldr	r3, [r3, #24]
 8001ef0:	61bb      	str	r3, [r7, #24]
 8001ef2:	69bb      	ldr	r3, [r7, #24]

      /* Generate Stop */
      SET_BIT(hi2c->Instance->CR1, I2C_CR1_STOP);
 8001ef4:	68fb      	ldr	r3, [r7, #12]
 8001ef6:	681b      	ldr	r3, [r3, #0]
 8001ef8:	681a      	ldr	r2, [r3, #0]
 8001efa:	68fb      	ldr	r3, [r7, #12]
 8001efc:	681b      	ldr	r3, [r3, #0]
 8001efe:	f442 7200 	orr.w	r2, r2, #512	@ 0x200
 8001f02:	601a      	str	r2, [r3, #0]
  __ASM volatile ("cpsie i" : : : "memory");
 8001f04:	b662      	cpsie	i
}
 8001f06:	e035      	b.n	8001f74 <HAL_I2C_Mem_Read+0x1c4>

      /* Re-enable IRQs */
      __enable_irq();
    }
    else if (hi2c->XferSize == 2U)
 8001f08:	68fb      	ldr	r3, [r7, #12]
 8001f0a:	8d1b      	ldrh	r3, [r3, #40]	@ 0x28
 8001f0c:	2b02      	cmp	r3, #2
 8001f0e:	d11e      	bne.n	8001f4e <HAL_I2C_Mem_Read+0x19e>
    {
      /* Enable Pos */
      SET_BIT(hi2c->Instance->CR1, I2C_CR1_POS);
 8001f10:	68fb      	ldr	r3, [r7, #12]
 8001f12:	681b      	ldr	r3, [r3, #0]
 8001f14:	681a      	ldr	r2, [r3, #0]
 8001f16:	68fb      	ldr	r3, [r7, #12]
 8001f18:	681b      	ldr	r3, [r3, #0]
 8001f1a:	f442 6200 	orr.w	r2, r2, #2048	@ 0x800
 8001f1e:	601a      	str	r2, [r3, #0]
  __ASM volatile ("cpsid i" : : : "memory");
 8001f20:	b672      	cpsid	i
}
 8001f22:	bf00      	nop
      /* Disable all active IRQs around ADDR clearing and STOP programming because the EV6_3
         software sequence must complete before the current byte end of transfer */
      __disable_irq();

      /* Clear ADDR flag */
      __HAL_I2C_CLEAR_ADDRFLAG(hi2c);
 8001f24:	2300      	movs	r3, #0
 8001f26:	617b      	str	r3, [r7, #20]
 8001f28:	68fb      	ldr	r3, [r7, #12]
 8001f2a:	681b      	ldr	r3, [r3, #0]
 8001f2c:	695b      	ldr	r3, [r3, #20]
 8001f2e:	617b      	str	r3, [r7, #20]
 8001f30:	68fb      	ldr	r3, [r7, #12]
 8001f32:	681b      	ldr	r3, [r3, #0]
 8001f34:	699b      	ldr	r3, [r3, #24]
 8001f36:	617b      	str	r3, [r7, #20]
 8001f38:	697b      	ldr	r3, [r7, #20]

      /* Disable Acknowledge */
      CLEAR_BIT(hi2c->Instance->CR1, I2C_CR1_ACK);
 8001f3a:	68fb      	ldr	r3, [r7, #12]
 8001f3c:	681b      	ldr	r3, [r3, #0]
 8001f3e:	681a      	ldr	r2, [r3, #0]
 8001f40:	68fb      	ldr	r3, [r7, #12]
 8001f42:	681b      	ldr	r3, [r3, #0]
 8001f44:	f422 6280 	bic.w	r2, r2, #1024	@ 0x400
 8001f48:	601a      	str	r2, [r3, #0]
  __ASM volatile ("cpsie i" : : : "memory");
 8001f4a:	b662      	cpsie	i
}
 8001f4c:	e012      	b.n	8001f74 <HAL_I2C_Mem_Read+0x1c4>
      __enable_irq();
    }
    else
    {
      /* Enable Acknowledge */
      SET_BIT(hi2c->Instance->CR1, I2C_CR1_ACK);
 8001f4e:	68fb      	ldr	r3, [r7, #12]
 8001f50:	681b      	ldr	r3, [r3, #0]
 8001f52:	681a      	ldr	r2, [r3, #0]
 8001f54:	68fb      	ldr	r3, [r7, #12]
 8001f56:	681b      	ldr	r3, [r3, #0]
 8001f58:	f442 6280 	orr.w	r2, r2, #1024	@ 0x400
 8001f5c:	601a      	str	r2, [r3, #0]
      /* Clear ADDR flag */
      __HAL_I2C_CLEAR_ADDRFLAG(hi2c);
 8001f5e:	2300      	movs	r3, #0
 8001f60:	613b      	str	r3, [r7, #16]
 8001f62:	68fb      	ldr	r3, [r7, #12]
 8001f64:	681b      	ldr	r3, [r3, #0]
 8001f66:	695b      	ldr	r3, [r3, #20]
 8001f68:	613b      	str	r3, [r7, #16]
 8001f6a:	68fb      	ldr	r3, [r7, #12]
 8001f6c:	681b      	ldr	r3, [r3, #0]
 8001f6e:	699b      	ldr	r3, [r3, #24]
 8001f70:	613b      	str	r3, [r7, #16]
 8001f72:	693b      	ldr	r3, [r7, #16]
    }

    while (hi2c->XferSize > 0U)
 8001f74:	e166      	b.n	8002244 <HAL_I2C_Mem_Read+0x494>
    {
      if (hi2c->XferSize <= 3U)
 8001f76:	68fb      	ldr	r3, [r7, #12]
 8001f78:	8d1b      	ldrh	r3, [r3, #40]	@ 0x28
 8001f7a:	2b03      	cmp	r3, #3
 8001f7c:	f200 811f 	bhi.w	80021be <HAL_I2C_Mem_Read+0x40e>
      {
        /* One byte */
        if (hi2c->XferSize == 1U)
 8001f80:	68fb      	ldr	r3, [r7, #12]
 8001f82:	8d1b      	ldrh	r3, [r3, #40]	@ 0x28
 8001f84:	2b01      	cmp	r3, #1
 8001f86:	d123      	bne.n	8001fd0 <HAL_I2C_Mem_Read+0x220>
        {
          /* Wait until RXNE flag is set */
          if (I2C_WaitOnRXNEFlagUntilTimeout(hi2c, Timeout, tickstart) != HAL_OK)
 8001f88:	6a7a      	ldr	r2, [r7, #36]	@ 0x24
 8001f8a:	6bb9      	ldr	r1, [r7, #56]	@ 0x38
 8001f8c:	68f8      	ldr	r0, [r7, #12]
 8001f8e:	f000 fc9f 	bl	80028d0 <I2C_WaitOnRXNEFlagUntilTimeout>
 8001f92:	4603      	mov	r3, r0
 8001f94:	2b00      	cmp	r3, #0
 8001f96:	d001      	beq.n	8001f9c <HAL_I2C_Mem_Read+0x1ec>
          {
            return HAL_ERROR;
 8001f98:	2301      	movs	r3, #1
 8001f9a:	e167      	b.n	800226c <HAL_I2C_Mem_Read+0x4bc>
          }

          /* Read data from DR */
          *hi2c->pBuffPtr = (uint8_t)hi2c->Instance->DR;
 8001f9c:	68fb      	ldr	r3, [r7, #12]
 8001f9e:	681b      	ldr	r3, [r3, #0]
 8001fa0:	691a      	ldr	r2, [r3, #16]
 8001fa2:	68fb      	ldr	r3, [r7, #12]
 8001fa4:	6a5b      	ldr	r3, [r3, #36]	@ 0x24
 8001fa6:	b2d2      	uxtb	r2, r2
 8001fa8:	701a      	strb	r2, [r3, #0]

          /* Increment Buffer pointer */
          hi2c->pBuffPtr++;
 8001faa:	68fb      	ldr	r3, [r7, #12]
 8001fac:	6a5b      	ldr	r3, [r3, #36]	@ 0x24
 8001fae:	1c5a      	adds	r2, r3, #1
 8001fb0:	68fb      	ldr	r3, [r7, #12]
 8001fb2:	625a      	str	r2, [r3, #36]	@ 0x24

          /* Update counter */
          hi2c->XferSize--;
 8001fb4:	68fb      	ldr	r3, [r7, #12]
 8001fb6:	8d1b      	ldrh	r3, [r3, #40]	@ 0x28
 8001fb8:	3b01      	subs	r3, #1
 8001fba:	b29a      	uxth	r2, r3
 8001fbc:	68fb      	ldr	r3, [r7, #12]
 8001fbe:	851a      	strh	r2, [r3, #40]	@ 0x28
          hi2c->XferCount--;
 8001fc0:	68fb      	ldr	r3, [r7, #12]
 8001fc2:	8d5b      	ldrh	r3, [r3, #42]	@ 0x2a
 8001fc4:	b29b      	uxth	r3, r3
 8001fc6:	3b01      	subs	r3, #1
 8001fc8:	b29a      	uxth	r2, r3
 8001fca:	68fb      	ldr	r3, [r7, #12]
 8001fcc:	855a      	strh	r2, [r3, #42]	@ 0x2a
 8001fce:	e139      	b.n	8002244 <HAL_I2C_Mem_Read+0x494>
        }
        /* Two bytes */
        else if (hi2c->XferSize == 2U)
 8001fd0:	68fb      	ldr	r3, [r7, #12]
 8001fd2:	8d1b      	ldrh	r3, [r3, #40]	@ 0x28
 8001fd4:	2b02      	cmp	r3, #2
 8001fd6:	d152      	bne.n	800207e <HAL_I2C_Mem_Read+0x2ce>
        {
          /* Wait until BTF flag is set */
          if (I2C_WaitOnFlagUntilTimeout(hi2c, I2C_FLAG_BTF, RESET, Timeout, tickstart) != HAL_OK)
 8001fd8:	6a7b      	ldr	r3, [r7, #36]	@ 0x24
 8001fda:	9300      	str	r3, [sp, #0]
 8001fdc:	6bbb      	ldr	r3, [r7, #56]	@ 0x38
 8001fde:	2200      	movs	r2, #0
 8001fe0:	4906      	ldr	r1, [pc, #24]	@ (8001ffc <HAL_I2C_Mem_Read+0x24c>)
 8001fe2:	68f8      	ldr	r0, [r7, #12]
 8001fe4:	f000 faca 	bl	800257c <I2C_WaitOnFlagUntilTimeout>
 8001fe8:	4603      	mov	r3, r0
 8001fea:	2b00      	cmp	r3, #0
 8001fec:	d008      	beq.n	8002000 <HAL_I2C_Mem_Read+0x250>
          {
            return HAL_ERROR;
 8001fee:	2301      	movs	r3, #1
 8001ff0:	e13c      	b.n	800226c <HAL_I2C_Mem_Read+0x4bc>
 8001ff2:	bf00      	nop
 8001ff4:	00100002 	.word	0x00100002
 8001ff8:	ffff0000 	.word	0xffff0000
 8001ffc:	00010004 	.word	0x00010004
  __ASM volatile ("cpsid i" : : : "memory");
 8002000:	b672      	cpsid	i
}
 8002002:	bf00      	nop
          /* Disable all active IRQs around ADDR clearing and STOP programming because the EV6_3
             software sequence must complete before the current byte end of transfer */
          __disable_irq();

          /* Generate Stop */
          SET_BIT(hi2c->Instance->CR1, I2C_CR1_STOP);
 8002004:	68fb      	ldr	r3, [r7, #12]
 8002006:	681b      	ldr	r3, [r3, #0]
 8002008:	681a      	ldr	r2, [r3, #0]
 800200a:	68fb      	ldr	r3, [r7, #12]
 800200c:	681b      	ldr	r3, [r3, #0]
 800200e:	f442 7200 	orr.w	r2, r2, #512	@ 0x200
 8002012:	601a      	str	r2, [r3, #0]

          /* Read data from DR */
          *hi2c->pBuffPtr = (uint8_t)hi2c->Instance->DR;
 8002014:	68fb      	ldr	r3, [r7, #12]
 8002016:	681b      	ldr	r3, [r3, #0]
 8002018:	691a      	ldr	r2, [r3, #16]
 800201a:	68fb      	ldr	r3, [r7, #12]
 800201c:	6a5b      	ldr	r3, [r3, #36]	@ 0x24
 800201e:	b2d2      	uxtb	r2, r2
 8002020:	701a      	strb	r2, [r3, #0]

          /* Increment Buffer pointer */
          hi2c->pBuffPtr++;
 8002022:	68fb      	ldr	r3, [r7, #12]
 8002024:	6a5b      	ldr	r3, [r3, #36]	@ 0x24
 8002026:	1c5a      	adds	r2, r3, #1
 8002028:	68fb      	ldr	r3, [r7, #12]
 800202a:	625a      	str	r2, [r3, #36]	@ 0x24

          /* Update counter */
          hi2c->XferSize--;
 800202c:	68fb      	ldr	r3, [r7, #12]
 800202e:	8d1b      	ldrh	r3, [r3, #40]	@ 0x28
 8002030:	3b01      	subs	r3, #1
 8002032:	b29a      	uxth	r2, r3
 8002034:	68fb      	ldr	r3, [r7, #12]
 8002036:	851a      	strh	r2, [r3, #40]	@ 0x28
          hi2c->XferCount--;
 8002038:	68fb      	ldr	r3, [r7, #12]
 800203a:	8d5b      	ldrh	r3, [r3, #42]	@ 0x2a
 800203c:	b29b      	uxth	r3, r3
 800203e:	3b01      	subs	r3, #1
 8002040:	b29a      	uxth	r2, r3
 8002042:	68fb      	ldr	r3, [r7, #12]
 8002044:	855a      	strh	r2, [r3, #42]	@ 0x2a
  __ASM volatile ("cpsie i" : : : "memory");
 8002046:	b662      	cpsie	i
}
 8002048:	bf00      	nop

          /* Re-enable IRQs */
          __enable_irq();

          /* Read data from DR */
          *hi2c->pBuffPtr = (uint8_t)hi2c->Instance->DR;
 800204a:	68fb      	ldr	r3, [r7, #12]
 800204c:	681b      	ldr	r3, [r3, #0]
 800204e:	691a      	ldr	r2, [r3, #16]
 8002050:	68fb      	ldr	r3, [r7, #12]
 8002052:	6a5b      	ldr	r3, [r3, #36]	@ 0x24
 8002054:	b2d2      	uxtb	r2, r2
 8002056:	701a      	strb	r2, [r3, #0]

          /* Increment Buffer pointer */
          hi2c->pBuffPtr++;
 8002058:	68fb      	ldr	r3, [r7, #12]
 800205a:	6a5b      	ldr	r3, [r3, #36]	@ 0x24
 800205c:	1c5a      	adds	r2, r3, #1
 800205e:	68fb      	ldr	r3, [r7, #12]
 8002060:	625a      	str	r2, [r3, #36]	@ 0x24

          /* Update counter */
          hi2c->XferSize--;
 8002062:	68fb      	ldr	r3, [r7, #12]
 8002064:	8d1b      	ldrh	r3, [r3, #40]	@ 0x28
 8002066:	3b01      	subs	r3, #1
 8002068:	b29a      	uxth	r2, r3
 800206a:	68fb      	ldr	r3, [r7, #12]
 800206c:	851a      	strh	r2, [r3, #40]	@ 0x28
          hi2c->XferCount--;
 800206e:	68fb      	ldr	r3, [r7, #12]
 8002070:	8d5b      	ldrh	r3, [r3, #42]	@ 0x2a
 8002072:	b29b      	uxth	r3, r3
 8002074:	3b01      	subs	r3, #1
 8002076:	b29a      	uxth	r2, r3
 8002078:	68fb      	ldr	r3, [r7, #12]
 800207a:	855a      	strh	r2, [r3, #42]	@ 0x2a
 800207c:	e0e2      	b.n	8002244 <HAL_I2C_Mem_Read+0x494>
        }
        /* 3 Last bytes */
        else
        {
          /* Wait until BTF flag is set */
          if (I2C_WaitOnFlagUntilTimeout(hi2c, I2C_FLAG_BTF, RESET, Timeout, tickstart) != HAL_OK)
 800207e:	6a7b      	ldr	r3, [r7, #36]	@ 0x24
 8002080:	9300      	str	r3, [sp, #0]
 8002082:	6bbb      	ldr	r3, [r7, #56]	@ 0x38
 8002084:	2200      	movs	r2, #0
 8002086:	497b      	ldr	r1, [pc, #492]	@ (8002274 <HAL_I2C_Mem_Read+0x4c4>)
 8002088:	68f8      	ldr	r0, [r7, #12]
 800208a:	f000 fa77 	bl	800257c <I2C_WaitOnFlagUntilTimeout>
 800208e:	4603      	mov	r3, r0
 8002090:	2b00      	cmp	r3, #0
 8002092:	d001      	beq.n	8002098 <HAL_I2C_Mem_Read+0x2e8>
          {
            return HAL_ERROR;
 8002094:	2301      	movs	r3, #1
 8002096:	e0e9      	b.n	800226c <HAL_I2C_Mem_Read+0x4bc>
          }

          /* Disable Acknowledge */
          CLEAR_BIT(hi2c->Instance->CR1, I2C_CR1_ACK);
 8002098:	68fb      	ldr	r3, [r7, #12]
 800209a:	681b      	ldr	r3, [r3, #0]
 800209c:	681a      	ldr	r2, [r3, #0]
 800209e:	68fb      	ldr	r3, [r7, #12]
 80020a0:	681b      	ldr	r3, [r3, #0]
 80020a2:	f422 6280 	bic.w	r2, r2, #1024	@ 0x400
 80020a6:	601a      	str	r2, [r3, #0]
  __ASM volatile ("cpsid i" : : : "memory");
 80020a8:	b672      	cpsid	i
}
 80020aa:	bf00      	nop
          /* Disable all active IRQs around ADDR clearing and STOP programming because the EV6_3
             software sequence must complete before the current byte end of transfer */
          __disable_irq();

          /* Read data from DR */
          *hi2c->pBuffPtr = (uint8_t)hi2c->Instance->DR;
 80020ac:	68fb      	ldr	r3, [r7, #12]
 80020ae:	681b      	ldr	r3, [r3, #0]
 80020b0:	691a      	ldr	r2, [r3, #16]
 80020b2:	68fb      	ldr	r3, [r7, #12]
 80020b4:	6a5b      	ldr	r3, [r3, #36]	@ 0x24
 80020b6:	b2d2      	uxtb	r2, r2
 80020b8:	701a      	strb	r2, [r3, #0]

          /* Increment Buffer pointer */
          hi2c->pBuffPtr++;
 80020ba:	68fb      	ldr	r3, [r7, #12]
 80020bc:	6a5b      	ldr	r3, [r3, #36]	@ 0x24
 80020be:	1c5a      	adds	r2, r3, #1
 80020c0:	68fb      	ldr	r3, [r7, #12]
 80020c2:	625a      	str	r2, [r3, #36]	@ 0x24

          /* Update counter */
          hi2c->XferSize--;
 80020c4:	68fb      	ldr	r3, [r7, #12]
 80020c6:	8d1b      	ldrh	r3, [r3, #40]	@ 0x28
 80020c8:	3b01      	subs	r3, #1
 80020ca:	b29a      	uxth	r2, r3
 80020cc:	68fb      	ldr	r3, [r7, #12]
 80020ce:	851a      	strh	r2, [r3, #40]	@ 0x28
          hi2c->XferCount--;
 80020d0:	68fb      	ldr	r3, [r7, #12]
 80020d2:	8d5b      	ldrh	r3, [r3, #42]	@ 0x2a
 80020d4:	b29b      	uxth	r3, r3
 80020d6:	3b01      	subs	r3, #1
 80020d8:	b29a      	uxth	r2, r3
 80020da:	68fb      	ldr	r3, [r7, #12]
 80020dc:	855a      	strh	r2, [r3, #42]	@ 0x2a

          /* Wait until BTF flag is set */
          count = I2C_TIMEOUT_FLAG * (SystemCoreClock / 25U / 1000U);
 80020de:	4b66      	ldr	r3, [pc, #408]	@ (8002278 <HAL_I2C_Mem_Read+0x4c8>)
 80020e0:	681b      	ldr	r3, [r3, #0]
 80020e2:	08db      	lsrs	r3, r3, #3
 80020e4:	4a65      	ldr	r2, [pc, #404]	@ (800227c <HAL_I2C_Mem_Read+0x4cc>)
 80020e6:	fba2 2303 	umull	r2, r3, r2, r3
 80020ea:	0a1a      	lsrs	r2, r3, #8
 80020ec:	4613      	mov	r3, r2
 80020ee:	009b      	lsls	r3, r3, #2
 80020f0:	4413      	add	r3, r2
 80020f2:	00da      	lsls	r2, r3, #3
 80020f4:	1ad3      	subs	r3, r2, r3
 80020f6:	623b      	str	r3, [r7, #32]
          do
          {
            count--;
 80020f8:	6a3b      	ldr	r3, [r7, #32]
 80020fa:	3b01      	subs	r3, #1
 80020fc:	623b      	str	r3, [r7, #32]
            if (count == 0U)
 80020fe:	6a3b      	ldr	r3, [r7, #32]
 8002100:	2b00      	cmp	r3, #0
 8002102:	d118      	bne.n	8002136 <HAL_I2C_Mem_Read+0x386>
            {
              hi2c->PreviousState       = I2C_STATE_NONE;
 8002104:	68fb      	ldr	r3, [r7, #12]
 8002106:	2200      	movs	r2, #0
 8002108:	631a      	str	r2, [r3, #48]	@ 0x30
              hi2c->State               = HAL_I2C_STATE_READY;
 800210a:	68fb      	ldr	r3, [r7, #12]
 800210c:	2220      	movs	r2, #32
 800210e:	f883 203d 	strb.w	r2, [r3, #61]	@ 0x3d
              hi2c->Mode                = HAL_I2C_MODE_NONE;
 8002112:	68fb      	ldr	r3, [r7, #12]
 8002114:	2200      	movs	r2, #0
 8002116:	f883 203e 	strb.w	r2, [r3, #62]	@ 0x3e
              hi2c->ErrorCode           |= HAL_I2C_ERROR_TIMEOUT;
 800211a:	68fb      	ldr	r3, [r7, #12]
 800211c:	6c1b      	ldr	r3, [r3, #64]	@ 0x40
 800211e:	f043 0220 	orr.w	r2, r3, #32
 8002122:	68fb      	ldr	r3, [r7, #12]
 8002124:	641a      	str	r2, [r3, #64]	@ 0x40
  __ASM volatile ("cpsie i" : : : "memory");
 8002126:	b662      	cpsie	i
}
 8002128:	bf00      	nop

              /* Re-enable IRQs */
              __enable_irq();

              /* Process Unlocked */
              __HAL_UNLOCK(hi2c);
 800212a:	68fb      	ldr	r3, [r7, #12]
 800212c:	2200      	movs	r2, #0
 800212e:	f883 203c 	strb.w	r2, [r3, #60]	@ 0x3c

              return HAL_ERROR;
 8002132:	2301      	movs	r3, #1
 8002134:	e09a      	b.n	800226c <HAL_I2C_Mem_Read+0x4bc>
            }
          }
          while (__HAL_I2C_GET_FLAG(hi2c, I2C_FLAG_BTF) == RESET);
 8002136:	68fb      	ldr	r3, [r7, #12]
 8002138:	681b      	ldr	r3, [r3, #0]
 800213a:	695b      	ldr	r3, [r3, #20]
 800213c:	f003 0304 	and.w	r3, r3, #4
 8002140:	2b04      	cmp	r3, #4
 8002142:	d1d9      	bne.n	80020f8 <HAL_I2C_Mem_Read+0x348>

          /* Generate Stop */
          SET_BIT(hi2c->Instance->CR1, I2C_CR1_STOP);
 8002144:	68fb      	ldr	r3, [r7, #12]
 8002146:	681b      	ldr	r3, [r3, #0]
 8002148:	681a      	ldr	r2, [r3, #0]
 800214a:	68fb      	ldr	r3, [r7, #12]
 800214c:	681b      	ldr	r3, [r3, #0]
 800214e:	f442 7200 	orr.w	r2, r2, #512	@ 0x200
 8002152:	601a      	str	r2, [r3, #0]

          /* Read data from DR */
          *hi2c->pBuffPtr = (uint8_t)hi2c->Instance->DR;
 8002154:	68fb      	ldr	r3, [r7, #12]
 8002156:	681b      	ldr	r3, [r3, #0]
 8002158:	691a      	ldr	r2, [r3, #16]
 800215a:	68fb      	ldr	r3, [r7, #12]
 800215c:	6a5b      	ldr	r3, [r3, #36]	@ 0x24
 800215e:	b2d2      	uxtb	r2, r2
 8002160:	701a      	strb	r2, [r3, #0]

          /* Increment Buffer pointer */
          hi2c->pBuffPtr++;
 8002162:	68fb      	ldr	r3, [r7, #12]
 8002164:	6a5b      	ldr	r3, [r3, #36]	@ 0x24
 8002166:	1c5a      	adds	r2, r3, #1
 8002168:	68fb      	ldr	r3, [r7, #12]
 800216a:	625a      	str	r2, [r3, #36]	@ 0x24

          /* Update counter */
          hi2c->XferSize--;
 800216c:	68fb      	ldr	r3, [r7, #12]
 800216e:	8d1b      	ldrh	r3, [r3, #40]	@ 0x28
 8002170:	3b01      	subs	r3, #1
 8002172:	b29a      	uxth	r2, r3
 8002174:	68fb      	ldr	r3, [r7, #12]
 8002176:	851a      	strh	r2, [r3, #40]	@ 0x28
          hi2c->XferCount--;
 8002178:	68fb      	ldr	r3, [r7, #12]
 800217a:	8d5b      	ldrh	r3, [r3, #42]	@ 0x2a
 800217c:	b29b      	uxth	r3, r3
 800217e:	3b01      	subs	r3, #1
 8002180:	b29a      	uxth	r2, r3
 8002182:	68fb      	ldr	r3, [r7, #12]
 8002184:	855a      	strh	r2, [r3, #42]	@ 0x2a
  __ASM volatile ("cpsie i" : : : "memory");
 8002186:	b662      	cpsie	i
}
 8002188:	bf00      	nop

          /* Re-enable IRQs */
          __enable_irq();

          /* Read data from DR */
          *hi2c->pBuffPtr = (uint8_t)hi2c->Instance->DR;
 800218a:	68fb      	ldr	r3, [r7, #12]
 800218c:	681b      	ldr	r3, [r3, #0]
 800218e:	691a      	ldr	r2, [r3, #16]
 8002190:	68fb      	ldr	r3, [r7, #12]
 8002192:	6a5b      	ldr	r3, [r3, #36]	@ 0x24
 8002194:	b2d2      	uxtb	r2, r2
 8002196:	701a      	strb	r2, [r3, #0]

          /* Increment Buffer pointer */
          hi2c->pBuffPtr++;
 8002198:	68fb      	ldr	r3, [r7, #12]
 800219a:	6a5b      	ldr	r3, [r3, #36]	@ 0x24
 800219c:	1c5a      	adds	r2, r3, #1
 800219e:	68fb      	ldr	r3, [r7, #12]
 80021a0:	625a      	str	r2, [r3, #36]	@ 0x24

          /* Update counter */
          hi2c->XferSize--;
 80021a2:	68fb      	ldr	r3, [r7, #12]
 80021a4:	8d1b      	ldrh	r3, [r3, #40]	@ 0x28
 80021a6:	3b01      	subs	r3, #1
 80021a8:	b29a      	uxth	r2, r3
 80021aa:	68fb      	ldr	r3, [r7, #12]
 80021ac:	851a      	strh	r2, [r3, #40]	@ 0x28
          hi2c->XferCount--;
 80021ae:	68fb      	ldr	r3, [r7, #12]
 80021b0:	8d5b      	ldrh	r3, [r3, #42]	@ 0x2a
 80021b2:	b29b      	uxth	r3, r3
 80021b4:	3b01      	subs	r3, #1
 80021b6:	b29a      	uxth	r2, r3
 80021b8:	68fb      	ldr	r3, [r7, #12]
 80021ba:	855a      	strh	r2, [r3, #42]	@ 0x2a
 80021bc:	e042      	b.n	8002244 <HAL_I2C_Mem_Read+0x494>
        }
      }
      else
      {
        /* Wait until RXNE flag is set */
        if (I2C_WaitOnRXNEFlagUntilTimeout(hi2c, Timeout, tickstart) != HAL_OK)
 80021be:	6a7a      	ldr	r2, [r7, #36]	@ 0x24
 80021c0:	6bb9      	ldr	r1, [r7, #56]	@ 0x38
 80021c2:	68f8      	ldr	r0, [r7, #12]
 80021c4:	f000 fb84 	bl	80028d0 <I2C_WaitOnRXNEFlagUntilTimeout>
 80021c8:	4603      	mov	r3, r0
 80021ca:	2b00      	cmp	r3, #0
 80021cc:	d001      	beq.n	80021d2 <HAL_I2C_Mem_Read+0x422>
        {
          return HAL_ERROR;
 80021ce:	2301      	movs	r3, #1
 80021d0:	e04c      	b.n	800226c <HAL_I2C_Mem_Read+0x4bc>
        }

        /* Read data from DR */
        *hi2c->pBuffPtr = (uint8_t)hi2c->Instance->DR;
 80021d2:	68fb      	ldr	r3, [r7, #12]
 80021d4:	681b      	ldr	r3, [r3, #0]
 80021d6:	691a      	ldr	r2, [r3, #16]
 80021d8:	68fb      	ldr	r3, [r7, #12]
 80021da:	6a5b      	ldr	r3, [r3, #36]	@ 0x24
 80021dc:	b2d2      	uxtb	r2, r2
 80021de:	701a      	strb	r2, [r3, #0]

        /* Increment Buffer pointer */
        hi2c->pBuffPtr++;
 80021e0:	68fb      	ldr	r3, [r7, #12]
 80021e2:	6a5b      	ldr	r3, [r3, #36]	@ 0x24
 80021e4:	1c5a      	adds	r2, r3, #1
 80021e6:	68fb      	ldr	r3, [r7, #12]
 80021e8:	625a      	str	r2, [r3, #36]	@ 0x24

        /* Update counter */
        hi2c->XferSize--;
 80021ea:	68fb      	ldr	r3, [r7, #12]
 80021ec:	8d1b      	ldrh	r3, [r3, #40]	@ 0x28
 80021ee:	3b01      	subs	r3, #1
 80021f0:	b29a      	uxth	r2, r3
 80021f2:	68fb      	ldr	r3, [r7, #12]
 80021f4:	851a      	strh	r2, [r3, #40]	@ 0x28
        hi2c->XferCount--;
 80021f6:	68fb      	ldr	r3, [r7, #12]
 80021f8:	8d5b      	ldrh	r3, [r3, #42]	@ 0x2a
 80021fa:	b29b      	uxth	r3, r3
 80021fc:	3b01      	subs	r3, #1
 80021fe:	b29a      	uxth	r2, r3
 8002200:	68fb      	ldr	r3, [r7, #12]
 8002202:	855a      	strh	r2, [r3, #42]	@ 0x2a

        if (__HAL_I2C_GET_FLAG(hi2c, I2C_FLAG_BTF) == SET)
 8002204:	68fb      	ldr	r3, [r7, #12]
 8002206:	681b      	ldr	r3, [r3, #0]
 8002208:	695b      	ldr	r3, [r3, #20]
 800220a:	f003 0304 	and.w	r3, r3, #4
 800220e:	2b04      	cmp	r3, #4
 8002210:	d118      	bne.n	8002244 <HAL_I2C_Mem_Read+0x494>
        {
          /* Read data from DR */
          *hi2c->pBuffPtr = (uint8_t)hi2c->Instance->DR;
 8002212:	68fb      	ldr	r3, [r7, #12]
 8002214:	681b      	ldr	r3, [r3, #0]
 8002216:	691a      	ldr	r2, [r3, #16]
 8002218:	68fb      	ldr	r3, [r7, #12]
 800221a:	6a5b      	ldr	r3, [r3, #36]	@ 0x24
 800221c:	b2d2      	uxtb	r2, r2
 800221e:	701a      	strb	r2, [r3, #0]

          /* Increment Buffer pointer */
          hi2c->pBuffPtr++;
 8002220:	68fb      	ldr	r3, [r7, #12]
 8002222:	6a5b      	ldr	r3, [r3, #36]	@ 0x24
 8002224:	1c5a      	adds	r2, r3, #1
 8002226:	68fb      	ldr	r3, [r7, #12]
 8002228:	625a      	str	r2, [r3, #36]	@ 0x24

          /* Update counter */
          hi2c->XferSize--;
 800222a:	68fb      	ldr	r3, [r7, #12]
 800222c:	8d1b      	ldrh	r3, [r3, #40]	@ 0x28
 800222e:	3b01      	subs	r3, #1
 8002230:	b29a      	uxth	r2, r3
 8002232:	68fb      	ldr	r3, [r7, #12]
 8002234:	851a      	strh	r2, [r3, #40]	@ 0x28
          hi2c->XferCount--;
 8002236:	68fb      	ldr	r3, [r7, #12]
 8002238:	8d5b      	ldrh	r3, [r3, #42]	@ 0x2a
 800223a:	b29b      	uxth	r3, r3
 800223c:	3b01      	subs	r3, #1
 800223e:	b29a      	uxth	r2, r3
 8002240:	68fb      	ldr	r3, [r7, #12]
 8002242:	855a      	strh	r2, [r3, #42]	@ 0x2a
    while (hi2c->XferSize > 0U)
 8002244:	68fb      	ldr	r3, [r7, #12]
 8002246:	8d1b      	ldrh	r3, [r3, #40]	@ 0x28
 8002248:	2b00      	cmp	r3, #0
 800224a:	f47f ae94 	bne.w	8001f76 <HAL_I2C_Mem_Read+0x1c6>
        }
      }
    }

    hi2c->State = HAL_I2C_STATE_READY;
 800224e:	68fb      	ldr	r3, [r7, #12]
 8002250:	2220      	movs	r2, #32
 8002252:	f883 203d 	strb.w	r2, [r3, #61]	@ 0x3d
    hi2c->Mode = HAL_I2C_MODE_NONE;
 8002256:	68fb      	ldr	r3, [r7, #12]
 8002258:	2200      	movs	r2, #0
 800225a:	f883 203e 	strb.w	r2, [r3, #62]	@ 0x3e

    /* Process Unlocked */
    __HAL_UNLOCK(hi2c);
 800225e:	68fb      	ldr	r3, [r7, #12]
 8002260:	2200      	movs	r2, #0
 8002262:	f883 203c 	strb.w	r2, [r3, #60]	@ 0x3c

    return HAL_OK;
 8002266:	2300      	movs	r3, #0
 8002268:	e000      	b.n	800226c <HAL_I2C_Mem_Read+0x4bc>
  }
  else
  {
    return HAL_BUSY;
 800226a:	2302      	movs	r3, #2
  }
}
 800226c:	4618      	mov	r0, r3
 800226e:	3728      	adds	r7, #40	@ 0x28
 8002270:	46bd      	mov	sp, r7
 8002272:	bd80      	pop	{r7, pc}
 8002274:	00010004 	.word	0x00010004
 8002278:	20000000 	.word	0x20000000
 800227c:	14f8b589 	.word	0x14f8b589

08002280 <I2C_RequestMemoryWrite>:
  * @param  Timeout Timeout duration
  * @param  Tickstart Tick start value
  * @retval HAL status
  */
static HAL_StatusTypeDef I2C_RequestMemoryWrite(I2C_HandleTypeDef *hi2c, uint16_t DevAddress, uint16_t MemAddress, uint16_t MemAddSize, uint32_t Timeout, uint32_t Tickstart)
{
 8002280:	b580      	push	{r7, lr}
 8002282:	b088      	sub	sp, #32
 8002284:	af02      	add	r7, sp, #8
 8002286:	60f8      	str	r0, [r7, #12]
 8002288:	4608      	mov	r0, r1
 800228a:	4611      	mov	r1, r2
 800228c:	461a      	mov	r2, r3
 800228e:	4603      	mov	r3, r0
 8002290:	817b      	strh	r3, [r7, #10]
 8002292:	460b      	mov	r3, r1
 8002294:	813b      	strh	r3, [r7, #8]
 8002296:	4613      	mov	r3, r2
 8002298:	80fb      	strh	r3, [r7, #6]
  /* Generate Start */
  SET_BIT(hi2c->Instance->CR1, I2C_CR1_START);
 800229a:	68fb      	ldr	r3, [r7, #12]
 800229c:	681b      	ldr	r3, [r3, #0]
 800229e:	681a      	ldr	r2, [r3, #0]
 80022a0:	68fb      	ldr	r3, [r7, #12]
 80022a2:	681b      	ldr	r3, [r3, #0]
 80022a4:	f442 7280 	orr.w	r2, r2, #256	@ 0x100
 80022a8:	601a      	str	r2, [r3, #0]

  /* Wait until SB flag is set */
  if (I2C_WaitOnFlagUntilTimeout(hi2c, I2C_FLAG_SB, RESET, Timeout, Tickstart) != HAL_OK)
 80022aa:	6a7b      	ldr	r3, [r7, #36]	@ 0x24
 80022ac:	9300      	str	r3, [sp, #0]
 80022ae:	6a3b      	ldr	r3, [r7, #32]
 80022b0:	2200      	movs	r2, #0
 80022b2:	f04f 1101 	mov.w	r1, #65537	@ 0x10001
 80022b6:	68f8      	ldr	r0, [r7, #12]
 80022b8:	f000 f960 	bl	800257c <I2C_WaitOnFlagUntilTimeout>
 80022bc:	4603      	mov	r3, r0
 80022be:	2b00      	cmp	r3, #0
 80022c0:	d00d      	beq.n	80022de <I2C_RequestMemoryWrite+0x5e>
  {
    if (READ_BIT(hi2c->Instance->CR1, I2C_CR1_START) == I2C_CR1_START)
 80022c2:	68fb      	ldr	r3, [r7, #12]
 80022c4:	681b      	ldr	r3, [r3, #0]
 80022c6:	681b      	ldr	r3, [r3, #0]
 80022c8:	f403 7380 	and.w	r3, r3, #256	@ 0x100
 80022cc:	f5b3 7f80 	cmp.w	r3, #256	@ 0x100
 80022d0:	d103      	bne.n	80022da <I2C_RequestMemoryWrite+0x5a>
    {
      hi2c->ErrorCode = HAL_I2C_WRONG_START;
 80022d2:	68fb      	ldr	r3, [r7, #12]
 80022d4:	f44f 7200 	mov.w	r2, #512	@ 0x200
 80022d8:	641a      	str	r2, [r3, #64]	@ 0x40
    }
    return HAL_TIMEOUT;
 80022da:	2303      	movs	r3, #3
 80022dc:	e05f      	b.n	800239e <I2C_RequestMemoryWrite+0x11e>
  }

  /* Send slave address */
  hi2c->Instance->DR = I2C_7BIT_ADD_WRITE(DevAddress);
 80022de:	897b      	ldrh	r3, [r7, #10]
 80022e0:	b2db      	uxtb	r3, r3
 80022e2:	461a      	mov	r2, r3
 80022e4:	68fb      	ldr	r3, [r7, #12]
 80022e6:	681b      	ldr	r3, [r3, #0]
 80022e8:	f002 02fe 	and.w	r2, r2, #254	@ 0xfe
 80022ec:	611a      	str	r2, [r3, #16]

  /* Wait until ADDR flag is set */
  if (I2C_WaitOnMasterAddressFlagUntilTimeout(hi2c, I2C_FLAG_ADDR, Timeout, Tickstart) != HAL_OK)
 80022ee:	6a7b      	ldr	r3, [r7, #36]	@ 0x24
 80022f0:	6a3a      	ldr	r2, [r7, #32]
 80022f2:	492d      	ldr	r1, [pc, #180]	@ (80023a8 <I2C_RequestMemoryWrite+0x128>)
 80022f4:	68f8      	ldr	r0, [r7, #12]
 80022f6:	f000 f9bb 	bl	8002670 <I2C_WaitOnMasterAddressFlagUntilTimeout>
 80022fa:	4603      	mov	r3, r0
 80022fc:	2b00      	cmp	r3, #0
 80022fe:	d001      	beq.n	8002304 <I2C_RequestMemoryWrite+0x84>
  {
    return HAL_ERROR;
 8002300:	2301      	movs	r3, #1
 8002302:	e04c      	b.n	800239e <I2C_RequestMemoryWrite+0x11e>
  }

  /* Clear ADDR flag */
  __HAL_I2C_CLEAR_ADDRFLAG(hi2c);
 8002304:	2300      	movs	r3, #0
 8002306:	617b      	str	r3, [r7, #20]
 8002308:	68fb      	ldr	r3, [r7, #12]
 800230a:	681b      	ldr	r3, [r3, #0]
 800230c:	695b      	ldr	r3, [r3, #20]
 800230e:	617b      	str	r3, [r7, #20]
 8002310:	68fb      	ldr	r3, [r7, #12]
 8002312:	681b      	ldr	r3, [r3, #0]
 8002314:	699b      	ldr	r3, [r3, #24]
 8002316:	617b      	str	r3, [r7, #20]
 8002318:	697b      	ldr	r3, [r7, #20]

  /* Wait until TXE flag is set */
  if (I2C_WaitOnTXEFlagUntilTimeout(hi2c, Timeout, Tickstart) != HAL_OK)
 800231a:	6a7a      	ldr	r2, [r7, #36]	@ 0x24
 800231c:	6a39      	ldr	r1, [r7, #32]
 800231e:	68f8      	ldr	r0, [r7, #12]
 8002320:	f000 fa46 	bl	80027b0 <I2C_WaitOnTXEFlagUntilTimeout>
 8002324:	4603      	mov	r3, r0
 8002326:	2b00      	cmp	r3, #0
 8002328:	d00d      	beq.n	8002346 <I2C_RequestMemoryWrite+0xc6>
  {
    if (hi2c->ErrorCode == HAL_I2C_ERROR_AF)
 800232a:	68fb      	ldr	r3, [r7, #12]
 800232c:	6c1b      	ldr	r3, [r3, #64]	@ 0x40
 800232e:	2b04      	cmp	r3, #4
 8002330:	d107      	bne.n	8002342 <I2C_RequestMemoryWrite+0xc2>
    {
      /* Generate Stop */
      SET_BIT(hi2c->Instance->CR1, I2C_CR1_STOP);
 8002332:	68fb      	ldr	r3, [r7, #12]
 8002334:	681b      	ldr	r3, [r3, #0]
 8002336:	681a      	ldr	r2, [r3, #0]
 8002338:	68fb      	ldr	r3, [r7, #12]
 800233a:	681b      	ldr	r3, [r3, #0]
 800233c:	f442 7200 	orr.w	r2, r2, #512	@ 0x200
 8002340:	601a      	str	r2, [r3, #0]
    }
    return HAL_ERROR;
 8002342:	2301      	movs	r3, #1
 8002344:	e02b      	b.n	800239e <I2C_RequestMemoryWrite+0x11e>
  }

  /* If Memory address size is 8Bit */
  if (MemAddSize == I2C_MEMADD_SIZE_8BIT)
 8002346:	88fb      	ldrh	r3, [r7, #6]
 8002348:	2b01      	cmp	r3, #1
 800234a:	d105      	bne.n	8002358 <I2C_RequestMemoryWrite+0xd8>
  {
    /* Send Memory Address */
    hi2c->Instance->DR = I2C_MEM_ADD_LSB(MemAddress);
 800234c:	893b      	ldrh	r3, [r7, #8]
 800234e:	b2da      	uxtb	r2, r3
 8002350:	68fb      	ldr	r3, [r7, #12]
 8002352:	681b      	ldr	r3, [r3, #0]
 8002354:	611a      	str	r2, [r3, #16]
 8002356:	e021      	b.n	800239c <I2C_RequestMemoryWrite+0x11c>
  }
  /* If Memory address size is 16Bit */
  else
  {
    /* Send MSB of Memory Address */
    hi2c->Instance->DR = I2C_MEM_ADD_MSB(MemAddress);
 8002358:	893b      	ldrh	r3, [r7, #8]
 800235a:	0a1b      	lsrs	r3, r3, #8
 800235c:	b29b      	uxth	r3, r3
 800235e:	b2da      	uxtb	r2, r3
 8002360:	68fb      	ldr	r3, [r7, #12]
 8002362:	681b      	ldr	r3, [r3, #0]
 8002364:	611a      	str	r2, [r3, #16]

    /* Wait until TXE flag is set */
    if (I2C_WaitOnTXEFlagUntilTimeout(hi2c, Timeout, Tickstart) != HAL_OK)
 8002366:	6a7a      	ldr	r2, [r7, #36]	@ 0x24
 8002368:	6a39      	ldr	r1, [r7, #32]
 800236a:	68f8      	ldr	r0, [r7, #12]
 800236c:	f000 fa20 	bl	80027b0 <I2C_WaitOnTXEFlagUntilTimeout>
 8002370:	4603      	mov	r3, r0
 8002372:	2b00      	cmp	r3, #0
 8002374:	d00d      	beq.n	8002392 <I2C_RequestMemoryWrite+0x112>
    {
      if (hi2c->ErrorCode == HAL_I2C_ERROR_AF)
 8002376:	68fb      	ldr	r3, [r7, #12]
 8002378:	6c1b      	ldr	r3, [r3, #64]	@ 0x40
 800237a:	2b04      	cmp	r3, #4
 800237c:	d107      	bne.n	800238e <I2C_RequestMemoryWrite+0x10e>
      {
        /* Generate Stop */
        SET_BIT(hi2c->Instance->CR1, I2C_CR1_STOP);
 800237e:	68fb      	ldr	r3, [r7, #12]
 8002380:	681b      	ldr	r3, [r3, #0]
 8002382:	681a      	ldr	r2, [r3, #0]
 8002384:	68fb      	ldr	r3, [r7, #12]
 8002386:	681b      	ldr	r3, [r3, #0]
 8002388:	f442 7200 	orr.w	r2, r2, #512	@ 0x200
 800238c:	601a      	str	r2, [r3, #0]
      }
      return HAL_ERROR;
 800238e:	2301      	movs	r3, #1
 8002390:	e005      	b.n	800239e <I2C_RequestMemoryWrite+0x11e>
    }

    /* Send LSB of Memory Address */
    hi2c->Instance->DR = I2C_MEM_ADD_LSB(MemAddress);
 8002392:	893b      	ldrh	r3, [r7, #8]
 8002394:	b2da      	uxtb	r2, r3
 8002396:	68fb      	ldr	r3, [r7, #12]
 8002398:	681b      	ldr	r3, [r3, #0]
 800239a:	611a      	str	r2, [r3, #16]
  }

  return HAL_OK;
 800239c:	2300      	movs	r3, #0
}
 800239e:	4618      	mov	r0, r3
 80023a0:	3718      	adds	r7, #24
 80023a2:	46bd      	mov	sp, r7
 80023a4:	bd80      	pop	{r7, pc}
 80023a6:	bf00      	nop
 80023a8:	00010002 	.word	0x00010002

080023ac <I2C_RequestMemoryRead>:
  * @param  Timeout Timeout duration
  * @param  Tickstart Tick start value
  * @retval HAL status
  */
static HAL_StatusTypeDef I2C_RequestMemoryRead(I2C_HandleTypeDef *hi2c, uint16_t DevAddress, uint16_t MemAddress, uint16_t MemAddSize, uint32_t Timeout, uint32_t Tickstart)
{
 80023ac:	b580      	push	{r7, lr}
 80023ae:	b088      	sub	sp, #32
 80023b0:	af02      	add	r7, sp, #8
 80023b2:	60f8      	str	r0, [r7, #12]
 80023b4:	4608      	mov	r0, r1
 80023b6:	4611      	mov	r1, r2
 80023b8:	461a      	mov	r2, r3
 80023ba:	4603      	mov	r3, r0
 80023bc:	817b      	strh	r3, [r7, #10]
 80023be:	460b      	mov	r3, r1
 80023c0:	813b      	strh	r3, [r7, #8]
 80023c2:	4613      	mov	r3, r2
 80023c4:	80fb      	strh	r3, [r7, #6]
  /* Enable Acknowledge */
  SET_BIT(hi2c->Instance->CR1, I2C_CR1_ACK);
 80023c6:	68fb      	ldr	r3, [r7, #12]
 80023c8:	681b      	ldr	r3, [r3, #0]
 80023ca:	681a      	ldr	r2, [r3, #0]
 80023cc:	68fb      	ldr	r3, [r7, #12]
 80023ce:	681b      	ldr	r3, [r3, #0]
 80023d0:	f442 6280 	orr.w	r2, r2, #1024	@ 0x400
 80023d4:	601a      	str	r2, [r3, #0]

  /* Generate Start */
  SET_BIT(hi2c->Instance->CR1, I2C_CR1_START);
 80023d6:	68fb      	ldr	r3, [r7, #12]
 80023d8:	681b      	ldr	r3, [r3, #0]
 80023da:	681a      	ldr	r2, [r3, #0]
 80023dc:	68fb      	ldr	r3, [r7, #12]
 80023de:	681b      	ldr	r3, [r3, #0]
 80023e0:	f442 7280 	orr.w	r2, r2, #256	@ 0x100
 80023e4:	601a      	str	r2, [r3, #0]

  /* Wait until SB flag is set */
  if (I2C_WaitOnFlagUntilTimeout(hi2c, I2C_FLAG_SB, RESET, Timeout, Tickstart) != HAL_OK)
 80023e6:	6a7b      	ldr	r3, [r7, #36]	@ 0x24
 80023e8:	9300      	str	r3, [sp, #0]
 80023ea:	6a3b      	ldr	r3, [r7, #32]
 80023ec:	2200      	movs	r2, #0
 80023ee:	f04f 1101 	mov.w	r1, #65537	@ 0x10001
 80023f2:	68f8      	ldr	r0, [r7, #12]
 80023f4:	f000 f8c2 	bl	800257c <I2C_WaitOnFlagUntilTimeout>
 80023f8:	4603      	mov	r3, r0
 80023fa:	2b00      	cmp	r3, #0
 80023fc:	d00d      	beq.n	800241a <I2C_RequestMemoryRead+0x6e>
  {
    if (READ_BIT(hi2c->Instance->CR1, I2C_CR1_START) == I2C_CR1_START)
 80023fe:	68fb      	ldr	r3, [r7, #12]
 8002400:	681b      	ldr	r3, [r3, #0]
 8002402:	681b      	ldr	r3, [r3, #0]
 8002404:	f403 7380 	and.w	r3, r3, #256	@ 0x100
 8002408:	f5b3 7f80 	cmp.w	r3, #256	@ 0x100
 800240c:	d103      	bne.n	8002416 <I2C_RequestMemoryRead+0x6a>
    {
      hi2c->ErrorCode = HAL_I2C_WRONG_START;
 800240e:	68fb      	ldr	r3, [r7, #12]
 8002410:	f44f 7200 	mov.w	r2, #512	@ 0x200
 8002414:	641a      	str	r2, [r3, #64]	@ 0x40
    }
    return HAL_TIMEOUT;
 8002416:	2303      	movs	r3, #3
 8002418:	e0aa      	b.n	8002570 <I2C_RequestMemoryRead+0x1c4>
  }

  /* Send slave address */
  hi2c->Instance->DR = I2C_7BIT_ADD_WRITE(DevAddress);
 800241a:	897b      	ldrh	r3, [r7, #10]
 800241c:	b2db      	uxtb	r3, r3
 800241e:	461a      	mov	r2, r3
 8002420:	68fb      	ldr	r3, [r7, #12]
 8002422:	681b      	ldr	r3, [r3, #0]
 8002424:	f002 02fe 	and.w	r2, r2, #254	@ 0xfe
 8002428:	611a      	str	r2, [r3, #16]

  /* Wait until ADDR flag is set */
  if (I2C_WaitOnMasterAddressFlagUntilTimeout(hi2c, I2C_FLAG_ADDR, Timeout, Tickstart) != HAL_OK)
 800242a:	6a7b      	ldr	r3, [r7, #36]	@ 0x24
 800242c:	6a3a      	ldr	r2, [r7, #32]
 800242e:	4952      	ldr	r1, [pc, #328]	@ (8002578 <I2C_RequestMemoryRead+0x1cc>)
 8002430:	68f8      	ldr	r0, [r7, #12]
 8002432:	f000 f91d 	bl	8002670 <I2C_WaitOnMasterAddressFlagUntilTimeout>
 8002436:	4603      	mov	r3, r0
 8002438:	2b00      	cmp	r3, #0
 800243a:	d001      	beq.n	8002440 <I2C_RequestMemoryRead+0x94>
  {
    return HAL_ERROR;
 800243c:	2301      	movs	r3, #1
 800243e:	e097      	b.n	8002570 <I2C_RequestMemoryRead+0x1c4>
  }

  /* Clear ADDR flag */
  __HAL_I2C_CLEAR_ADDRFLAG(hi2c);
 8002440:	2300      	movs	r3, #0
 8002442:	617b      	str	r3, [r7, #20]
 8002444:	68fb      	ldr	r3, [r7, #12]
 8002446:	681b      	ldr	r3, [r3, #0]
 8002448:	695b      	ldr	r3, [r3, #20]
 800244a:	617b      	str	r3, [r7, #20]
 800244c:	68fb      	ldr	r3, [r7, #12]
 800244e:	681b      	ldr	r3, [r3, #0]
 8002450:	699b      	ldr	r3, [r3, #24]
 8002452:	617b      	str	r3, [r7, #20]
 8002454:	697b      	ldr	r3, [r7, #20]

  /* Wait until TXE flag is set */
  if (I2C_WaitOnTXEFlagUntilTimeout(hi2c, Timeout, Tickstart) != HAL_OK)
 8002456:	6a7a      	ldr	r2, [r7, #36]	@ 0x24
 8002458:	6a39      	ldr	r1, [r7, #32]
 800245a:	68f8      	ldr	r0, [r7, #12]
 800245c:	f000 f9a8 	bl	80027b0 <I2C_WaitOnTXEFlagUntilTimeout>
 8002460:	4603      	mov	r3, r0
 8002462:	2b00      	cmp	r3, #0
 8002464:	d00d      	beq.n	8002482 <I2C_RequestMemoryRead+0xd6>
  {
    if (hi2c->ErrorCode == HAL_I2C_ERROR_AF)
 8002466:	68fb      	ldr	r3, [r7, #12]
 8002468:	6c1b      	ldr	r3, [r3, #64]	@ 0x40
 800246a:	2b04      	cmp	r3, #4
 800246c:	d107      	bne.n	800247e <I2C_RequestMemoryRead+0xd2>
    {
      /* Generate Stop */
      SET_BIT(hi2c->Instance->CR1, I2C_CR1_STOP);
 800246e:	68fb      	ldr	r3, [r7, #12]
 8002470:	681b      	ldr	r3, [r3, #0]
 8002472:	681a      	ldr	r2, [r3, #0]
 8002474:	68fb      	ldr	r3, [r7, #12]
 8002476:	681b      	ldr	r3, [r3, #0]
 8002478:	f442 7200 	orr.w	r2, r2, #512	@ 0x200
 800247c:	601a      	str	r2, [r3, #0]
    }
    return HAL_ERROR;
 800247e:	2301      	movs	r3, #1
 8002480:	e076      	b.n	8002570 <I2C_RequestMemoryRead+0x1c4>
  }

  /* If Memory address size is 8Bit */
  if (MemAddSize == I2C_MEMADD_SIZE_8BIT)
 8002482:	88fb      	ldrh	r3, [r7, #6]
 8002484:	2b01      	cmp	r3, #1
 8002486:	d105      	bne.n	8002494 <I2C_RequestMemoryRead+0xe8>
  {
    /* Send Memory Address */
    hi2c->Instance->DR = I2C_MEM_ADD_LSB(MemAddress);
 8002488:	893b      	ldrh	r3, [r7, #8]
 800248a:	b2da      	uxtb	r2, r3
 800248c:	68fb      	ldr	r3, [r7, #12]
 800248e:	681b      	ldr	r3, [r3, #0]
 8002490:	611a      	str	r2, [r3, #16]
 8002492:	e021      	b.n	80024d8 <I2C_RequestMemoryRead+0x12c>
  }
  /* If Memory address size is 16Bit */
  else
  {
    /* Send MSB of Memory Address */
    hi2c->Instance->DR = I2C_MEM_ADD_MSB(MemAddress);
 8002494:	893b      	ldrh	r3, [r7, #8]
 8002496:	0a1b      	lsrs	r3, r3, #8
 8002498:	b29b      	uxth	r3, r3
 800249a:	b2da      	uxtb	r2, r3
 800249c:	68fb      	ldr	r3, [r7, #12]
 800249e:	681b      	ldr	r3, [r3, #0]
 80024a0:	611a      	str	r2, [r3, #16]

    /* Wait until TXE flag is set */
    if (I2C_WaitOnTXEFlagUntilTimeout(hi2c, Timeout, Tickstart) != HAL_OK)
 80024a2:	6a7a      	ldr	r2, [r7, #36]	@ 0x24
 80024a4:	6a39      	ldr	r1, [r7, #32]
 80024a6:	68f8      	ldr	r0, [r7, #12]
 80024a8:	f000 f982 	bl	80027b0 <I2C_WaitOnTXEFlagUntilTimeout>
 80024ac:	4603      	mov	r3, r0
 80024ae:	2b00      	cmp	r3, #0
 80024b0:	d00d      	beq.n	80024ce <I2C_RequestMemoryRead+0x122>
    {
      if (hi2c->ErrorCode == HAL_I2C_ERROR_AF)
 80024b2:	68fb      	ldr	r3, [r7, #12]
 80024b4:	6c1b      	ldr	r3, [r3, #64]	@ 0x40
 80024b6:	2b04      	cmp	r3, #4
 80024b8:	d107      	bne.n	80024ca <I2C_RequestMemoryRead+0x11e>
      {
        /* Generate Stop */
        SET_BIT(hi2c->Instance->CR1, I2C_CR1_STOP);
 80024ba:	68fb      	ldr	r3, [r7, #12]
 80024bc:	681b      	ldr	r3, [r3, #0]
 80024be:	681a      	ldr	r2, [r3, #0]
 80024c0:	68fb      	ldr	r3, [r7, #12]
 80024c2:	681b      	ldr	r3, [r3, #0]
 80024c4:	f442 7200 	orr.w	r2, r2, #512	@ 0x200
 80024c8:	601a      	str	r2, [r3, #0]
      }
      return HAL_ERROR;
 80024ca:	2301      	movs	r3, #1
 80024cc:	e050      	b.n	8002570 <I2C_RequestMemoryRead+0x1c4>
    }

    /* Send LSB of Memory Address */
    hi2c->Instance->DR = I2C_MEM_ADD_LSB(MemAddress);
 80024ce:	893b      	ldrh	r3, [r7, #8]
 80024d0:	b2da      	uxtb	r2, r3
 80024d2:	68fb      	ldr	r3, [r7, #12]
 80024d4:	681b      	ldr	r3, [r3, #0]
 80024d6:	611a      	str	r2, [r3, #16]
  }

  /* Wait until TXE flag is set */
  if (I2C_WaitOnTXEFlagUntilTimeout(hi2c, Timeout, Tickstart) != HAL_OK)
 80024d8:	6a7a      	ldr	r2, [r7, #36]	@ 0x24
 80024da:	6a39      	ldr	r1, [r7, #32]
 80024dc:	68f8      	ldr	r0, [r7, #12]
 80024de:	f000 f967 	bl	80027b0 <I2C_WaitOnTXEFlagUntilTimeout>
 80024e2:	4603      	mov	r3, r0
 80024e4:	2b00      	cmp	r3, #0
 80024e6:	d00d      	beq.n	8002504 <I2C_RequestMemoryRead+0x158>
  {
    if (hi2c->ErrorCode == HAL_I2C_ERROR_AF)
 80024e8:	68fb      	ldr	r3, [r7, #12]
 80024ea:	6c1b      	ldr	r3, [r3, #64]	@ 0x40
 80024ec:	2b04      	cmp	r3, #4
 80024ee:	d107      	bne.n	8002500 <I2C_RequestMemoryRead+0x154>
    {
      /* Generate Stop */
      SET_BIT(hi2c->Instance->CR1, I2C_CR1_STOP);
 80024f0:	68fb      	ldr	r3, [r7, #12]
 80024f2:	681b      	ldr	r3, [r3, #0]
 80024f4:	681a      	ldr	r2, [r3, #0]
 80024f6:	68fb      	ldr	r3, [r7, #12]
 80024f8:	681b      	ldr	r3, [r3, #0]
 80024fa:	f442 7200 	orr.w	r2, r2, #512	@ 0x200
 80024fe:	601a      	str	r2, [r3, #0]
    }
    return HAL_ERROR;
 8002500:	2301      	movs	r3, #1
 8002502:	e035      	b.n	8002570 <I2C_RequestMemoryRead+0x1c4>
  }

  /* Generate Restart */
  SET_BIT(hi2c->Instance->CR1, I2C_CR1_START);
 8002504:	68fb      	ldr	r3, [r7, #12]
 8002506:	681b      	ldr	r3, [r3, #0]
 8002508:	681a      	ldr	r2, [r3, #0]
 800250a:	68fb      	ldr	r3, [r7, #12]
 800250c:	681b      	ldr	r3, [r3, #0]
 800250e:	f442 7280 	orr.w	r2, r2, #256	@ 0x100
 8002512:	601a      	str	r2, [r3, #0]

  /* Wait until SB flag is set */
  if (I2C_WaitOnFlagUntilTimeout(hi2c, I2C_FLAG_SB, RESET, Timeout, Tickstart) != HAL_OK)
 8002514:	6a7b      	ldr	r3, [r7, #36]	@ 0x24
 8002516:	9300      	str	r3, [sp, #0]
 8002518:	6a3b      	ldr	r3, [r7, #32]
 800251a:	2200      	movs	r2, #0
 800251c:	f04f 1101 	mov.w	r1, #65537	@ 0x10001
 8002520:	68f8      	ldr	r0, [r7, #12]
 8002522:	f000 f82b 	bl	800257c <I2C_WaitOnFlagUntilTimeout>
 8002526:	4603      	mov	r3, r0
 8002528:	2b00      	cmp	r3, #0
 800252a:	d00d      	beq.n	8002548 <I2C_RequestMemoryRead+0x19c>
  {
    if (READ_BIT(hi2c->Instance->CR1, I2C_CR1_START) == I2C_CR1_START)
 800252c:	68fb      	ldr	r3, [r7, #12]
 800252e:	681b      	ldr	r3, [r3, #0]
 8002530:	681b      	ldr	r3, [r3, #0]
 8002532:	f403 7380 	and.w	r3, r3, #256	@ 0x100
 8002536:	f5b3 7f80 	cmp.w	r3, #256	@ 0x100
 800253a:	d103      	bne.n	8002544 <I2C_RequestMemoryRead+0x198>
    {
      hi2c->ErrorCode = HAL_I2C_WRONG_START;
 800253c:	68fb      	ldr	r3, [r7, #12]
 800253e:	f44f 7200 	mov.w	r2, #512	@ 0x200
 8002542:	641a      	str	r2, [r3, #64]	@ 0x40
    }
    return HAL_TIMEOUT;
 8002544:	2303      	movs	r3, #3
 8002546:	e013      	b.n	8002570 <I2C_RequestMemoryRead+0x1c4>
  }

  /* Send slave address */
  hi2c->Instance->DR = I2C_7BIT_ADD_READ(DevAddress);
 8002548:	897b      	ldrh	r3, [r7, #10]
 800254a:	b2db      	uxtb	r3, r3
 800254c:	f043 0301 	orr.w	r3, r3, #1
 8002550:	b2da      	uxtb	r2, r3
 8002552:	68fb      	ldr	r3, [r7, #12]
 8002554:	681b      	ldr	r3, [r3, #0]
 8002556:	611a      	str	r2, [r3, #16]

  /* Wait until ADDR flag is set */
  if (I2C_WaitOnMasterAddressFlagUntilTimeout(hi2c, I2C_FLAG_ADDR, Timeout, Tickstart) != HAL_OK)
 8002558:	6a7b      	ldr	r3, [r7, #36]	@ 0x24
 800255a:	6a3a      	ldr	r2, [r7, #32]
 800255c:	4906      	ldr	r1, [pc, #24]	@ (8002578 <I2C_RequestMemoryRead+0x1cc>)
 800255e:	68f8      	ldr	r0, [r7, #12]
 8002560:	f000 f886 	bl	8002670 <I2C_WaitOnMasterAddressFlagUntilTimeout>
 8002564:	4603      	mov	r3, r0
 8002566:	2b00      	cmp	r3, #0
 8002568:	d001      	beq.n	800256e <I2C_RequestMemoryRead+0x1c2>
  {
    return HAL_ERROR;
 800256a:	2301      	movs	r3, #1
 800256c:	e000      	b.n	8002570 <I2C_RequestMemoryRead+0x1c4>
  }

  return HAL_OK;
 800256e:	2300      	movs	r3, #0
}
 8002570:	4618      	mov	r0, r3
 8002572:	3718      	adds	r7, #24
 8002574:	46bd      	mov	sp, r7
 8002576:	bd80      	pop	{r7, pc}
 8002578:	00010002 	.word	0x00010002

0800257c <I2C_WaitOnFlagUntilTimeout>:
  * @param  Timeout Timeout duration
  * @param  Tickstart Tick start value
  * @retval HAL status
  */
static HAL_StatusTypeDef I2C_WaitOnFlagUntilTimeout(I2C_HandleTypeDef *hi2c, uint32_t Flag, FlagStatus Status, uint32_t Timeout, uint32_t Tickstart)
{
 800257c:	b580      	push	{r7, lr}
 800257e:	b084      	sub	sp, #16
 8002580:	af00      	add	r7, sp, #0
 8002582:	60f8      	str	r0, [r7, #12]
 8002584:	60b9      	str	r1, [r7, #8]
 8002586:	603b      	str	r3, [r7, #0]
 8002588:	4613      	mov	r3, r2
 800258a:	71fb      	strb	r3, [r7, #7]
  /* Wait until flag is set */
  while (__HAL_I2C_GET_FLAG(hi2c, Flag) == Status)
 800258c:	e048      	b.n	8002620 <I2C_WaitOnFlagUntilTimeout+0xa4>
  {
    /* Check for the Timeout */
    if (Timeout != HAL_MAX_DELAY)
 800258e:	683b      	ldr	r3, [r7, #0]
 8002590:	f1b3 3fff 	cmp.w	r3, #4294967295
 8002594:	d044      	beq.n	8002620 <I2C_WaitOnFlagUntilTimeout+0xa4>
    {
      if (((HAL_GetTick() - Tickstart) > Timeout) || (Timeout == 0U))
 8002596:	f7fe ff19 	bl	80013cc <HAL_GetTick>
 800259a:	4602      	mov	r2, r0
 800259c:	69bb      	ldr	r3, [r7, #24]
 800259e:	1ad3      	subs	r3, r2, r3
 80025a0:	683a      	ldr	r2, [r7, #0]
 80025a2:	429a      	cmp	r2, r3
 80025a4:	d302      	bcc.n	80025ac <I2C_WaitOnFlagUntilTimeout+0x30>
 80025a6:	683b      	ldr	r3, [r7, #0]
 80025a8:	2b00      	cmp	r3, #0
 80025aa:	d139      	bne.n	8002620 <I2C_WaitOnFlagUntilTimeout+0xa4>
      {
        if ((__HAL_I2C_GET_FLAG(hi2c, Flag) == Status))
 80025ac:	68bb      	ldr	r3, [r7, #8]
 80025ae:	0c1b      	lsrs	r3, r3, #16
 80025b0:	b2db      	uxtb	r3, r3
 80025b2:	2b01      	cmp	r3, #1
 80025b4:	d10d      	bne.n	80025d2 <I2C_WaitOnFlagUntilTimeout+0x56>
 80025b6:	68fb      	ldr	r3, [r7, #12]
 80025b8:	681b      	ldr	r3, [r3, #0]
 80025ba:	695b      	ldr	r3, [r3, #20]
 80025bc:	43da      	mvns	r2, r3
 80025be:	68bb      	ldr	r3, [r7, #8]
 80025c0:	4013      	ands	r3, r2
 80025c2:	b29b      	uxth	r3, r3
 80025c4:	2b00      	cmp	r3, #0
 80025c6:	bf0c      	ite	eq
 80025c8:	2301      	moveq	r3, #1
 80025ca:	2300      	movne	r3, #0
 80025cc:	b2db      	uxtb	r3, r3
 80025ce:	461a      	mov	r2, r3
 80025d0:	e00c      	b.n	80025ec <I2C_WaitOnFlagUntilTimeout+0x70>
 80025d2:	68fb      	ldr	r3, [r7, #12]
 80025d4:	681b      	ldr	r3, [r3, #0]
 80025d6:	699b      	ldr	r3, [r3, #24]
 80025d8:	43da      	mvns	r2, r3
 80025da:	68bb      	ldr	r3, [r7, #8]
 80025dc:	4013      	ands	r3, r2
 80025de:	b29b      	uxth	r3, r3
 80025e0:	2b00      	cmp	r3, #0
 80025e2:	bf0c      	ite	eq
 80025e4:	2301      	moveq	r3, #1
 80025e6:	2300      	movne	r3, #0
 80025e8:	b2db      	uxtb	r3, r3
 80025ea:	461a      	mov	r2, r3
 80025ec:	79fb      	ldrb	r3, [r7, #7]
 80025ee:	429a      	cmp	r2, r3
 80025f0:	d116      	bne.n	8002620 <I2C_WaitOnFlagUntilTimeout+0xa4>
        {
          hi2c->PreviousState     = I2C_STATE_NONE;
 80025f2:	68fb      	ldr	r3, [r7, #12]
 80025f4:	2200      	movs	r2, #0
 80025f6:	631a      	str	r2, [r3, #48]	@ 0x30
          hi2c->State             = HAL_I2C_STATE_READY;
 80025f8:	68fb      	ldr	r3, [r7, #12]
 80025fa:	2220      	movs	r2, #32
 80025fc:	f883 203d 	strb.w	r2, [r3, #61]	@ 0x3d
          hi2c->Mode              = HAL_I2C_MODE_NONE;
 8002600:	68fb      	ldr	r3, [r7, #12]
 8002602:	2200      	movs	r2, #0
 8002604:	f883 203e 	strb.w	r2, [r3, #62]	@ 0x3e
          hi2c->ErrorCode         |= HAL_I2C_ERROR_TIMEOUT;
 8002608:	68fb      	ldr	r3, [r7, #12]
 800260a:	6c1b      	ldr	r3, [r3, #64]	@ 0x40
 800260c:	f043 0220 	orr.w	r2, r3, #32
 8002610:	68fb      	ldr	r3, [r7, #12]
 8002612:	641a      	str	r2, [r3, #64]	@ 0x40

          /* Process Unlocked */
          __HAL_UNLOCK(hi2c);
 8002614:	68fb      	ldr	r3, [r7, #12]
 8002616:	2200      	movs	r2, #0
 8002618:	f883 203c 	strb.w	r2, [r3, #60]	@ 0x3c

          return HAL_ERROR;
 800261c:	2301      	movs	r3, #1
 800261e:	e023      	b.n	8002668 <I2C_WaitOnFlagUntilTimeout+0xec>
  while (__HAL_I2C_GET_FLAG(hi2c, Flag) == Status)
 8002620:	68bb      	ldr	r3, [r7, #8]
 8002622:	0c1b      	lsrs	r3, r3, #16
 8002624:	b2db      	uxtb	r3, r3
 8002626:	2b01      	cmp	r3, #1
 8002628:	d10d      	bne.n	8002646 <I2C_WaitOnFlagUntilTimeout+0xca>
 800262a:	68fb      	ldr	r3, [r7, #12]
 800262c:	681b      	ldr	r3, [r3, #0]
 800262e:	695b      	ldr	r3, [r3, #20]
 8002630:	43da      	mvns	r2, r3
 8002632:	68bb      	ldr	r3, [r7, #8]
 8002634:	4013      	ands	r3, r2
 8002636:	b29b      	uxth	r3, r3
 8002638:	2b00      	cmp	r3, #0
 800263a:	bf0c      	ite	eq
 800263c:	2301      	moveq	r3, #1
 800263e:	2300      	movne	r3, #0
 8002640:	b2db      	uxtb	r3, r3
 8002642:	461a      	mov	r2, r3
 8002644:	e00c      	b.n	8002660 <I2C_WaitOnFlagUntilTimeout+0xe4>
 8002646:	68fb      	ldr	r3, [r7, #12]
 8002648:	681b      	ldr	r3, [r3, #0]
 800264a:	699b      	ldr	r3, [r3, #24]
 800264c:	43da      	mvns	r2, r3
 800264e:	68bb      	ldr	r3, [r7, #8]
 8002650:	4013      	ands	r3, r2
 8002652:	b29b      	uxth	r3, r3
 8002654:	2b00      	cmp	r3, #0
 8002656:	bf0c      	ite	eq
 8002658:	2301      	moveq	r3, #1
 800265a:	2300      	movne	r3, #0
 800265c:	b2db      	uxtb	r3, r3
 800265e:	461a      	mov	r2, r3
 8002660:	79fb      	ldrb	r3, [r7, #7]
 8002662:	429a      	cmp	r2, r3
 8002664:	d093      	beq.n	800258e <I2C_WaitOnFlagUntilTimeout+0x12>
        }
      }
    }
  }
  return HAL_OK;
 8002666:	2300      	movs	r3, #0
}
 8002668:	4618      	mov	r0, r3
 800266a:	3710      	adds	r7, #16
 800266c:	46bd      	mov	sp, r7
 800266e:	bd80      	pop	{r7, pc}

08002670 <I2C_WaitOnMasterAddressFlagUntilTimeout>:
  * @param  Timeout Timeout duration
  * @param  Tickstart Tick start value
  * @retval HAL status
  */
static HAL_StatusTypeDef I2C_WaitOnMasterAddressFlagUntilTimeout(I2C_HandleTypeDef *hi2c, uint32_t Flag, uint32_t Timeout, uint32_t Tickstart)
{
 8002670:	b580      	push	{r7, lr}
 8002672:	b084      	sub	sp, #16
 8002674:	af00      	add	r7, sp, #0
 8002676:	60f8      	str	r0, [r7, #12]
 8002678:	60b9      	str	r1, [r7, #8]
 800267a:	607a      	str	r2, [r7, #4]
 800267c:	603b      	str	r3, [r7, #0]
  while (__HAL_I2C_GET_FLAG(hi2c, Flag) == RESET)
 800267e:	e071      	b.n	8002764 <I2C_WaitOnMasterAddressFlagUntilTimeout+0xf4>
  {
    if (__HAL_I2C_GET_FLAG(hi2c, I2C_FLAG_AF) == SET)
 8002680:	68fb      	ldr	r3, [r7, #12]
 8002682:	681b      	ldr	r3, [r3, #0]
 8002684:	695b      	ldr	r3, [r3, #20]
 8002686:	f403 6380 	and.w	r3, r3, #1024	@ 0x400
 800268a:	f5b3 6f80 	cmp.w	r3, #1024	@ 0x400
 800268e:	d123      	bne.n	80026d8 <I2C_WaitOnMasterAddressFlagUntilTimeout+0x68>
    {
      /* Generate Stop */
      SET_BIT(hi2c->Instance->CR1, I2C_CR1_STOP);
 8002690:	68fb      	ldr	r3, [r7, #12]
 8002692:	681b      	ldr	r3, [r3, #0]
 8002694:	681a      	ldr	r2, [r3, #0]
 8002696:	68fb      	ldr	r3, [r7, #12]
 8002698:	681b      	ldr	r3, [r3, #0]
 800269a:	f442 7200 	orr.w	r2, r2, #512	@ 0x200
 800269e:	601a      	str	r2, [r3, #0]

      /* Clear AF Flag */
      __HAL_I2C_CLEAR_FLAG(hi2c, I2C_FLAG_AF);
 80026a0:	68fb      	ldr	r3, [r7, #12]
 80026a2:	681b      	ldr	r3, [r3, #0]
 80026a4:	f46f 6280 	mvn.w	r2, #1024	@ 0x400
 80026a8:	615a      	str	r2, [r3, #20]

      hi2c->PreviousState       = I2C_STATE_NONE;
 80026aa:	68fb      	ldr	r3, [r7, #12]
 80026ac:	2200      	movs	r2, #0
 80026ae:	631a      	str	r2, [r3, #48]	@ 0x30
      hi2c->State               = HAL_I2C_STATE_READY;
 80026b0:	68fb      	ldr	r3, [r7, #12]
 80026b2:	2220      	movs	r2, #32
 80026b4:	f883 203d 	strb.w	r2, [r3, #61]	@ 0x3d
      hi2c->Mode                = HAL_I2C_MODE_NONE;
 80026b8:	68fb      	ldr	r3, [r7, #12]
 80026ba:	2200      	movs	r2, #0
 80026bc:	f883 203e 	strb.w	r2, [r3, #62]	@ 0x3e
      hi2c->ErrorCode           |= HAL_I2C_ERROR_AF;
 80026c0:	68fb      	ldr	r3, [r7, #12]
 80026c2:	6c1b      	ldr	r3, [r3, #64]	@ 0x40
 80026c4:	f043 0204 	orr.w	r2, r3, #4
 80026c8:	68fb      	ldr	r3, [r7, #12]
 80026ca:	641a      	str	r2, [r3, #64]	@ 0x40

      /* Process Unlocked */
      __HAL_UNLOCK(hi2c);
 80026cc:	68fb      	ldr	r3, [r7, #12]
 80026ce:	2200      	movs	r2, #0
 80026d0:	f883 203c 	strb.w	r2, [r3, #60]	@ 0x3c

      return HAL_ERROR;
 80026d4:	2301      	movs	r3, #1
 80026d6:	e067      	b.n	80027a8 <I2C_WaitOnMasterAddressFlagUntilTimeout+0x138>
    }

    /* Check for the Timeout */
    if (Timeout != HAL_MAX_DELAY)
 80026d8:	687b      	ldr	r3, [r7, #4]
 80026da:	f1b3 3fff 	cmp.w	r3, #4294967295
 80026de:	d041      	beq.n	8002764 <I2C_WaitOnMasterAddressFlagUntilTimeout+0xf4>
    {
      if (((HAL_GetTick() - Tickstart) > Timeout) || (Timeout == 0U))
 80026e0:	f7fe fe74 	bl	80013cc <HAL_GetTick>
 80026e4:	4602      	mov	r2, r0
 80026e6:	683b      	ldr	r3, [r7, #0]
 80026e8:	1ad3      	subs	r3, r2, r3
 80026ea:	687a      	ldr	r2, [r7, #4]
 80026ec:	429a      	cmp	r2, r3
 80026ee:	d302      	bcc.n	80026f6 <I2C_WaitOnMasterAddressFlagUntilTimeout+0x86>
 80026f0:	687b      	ldr	r3, [r7, #4]
 80026f2:	2b00      	cmp	r3, #0
 80026f4:	d136      	bne.n	8002764 <I2C_WaitOnMasterAddressFlagUntilTimeout+0xf4>
      {
        if ((__HAL_I2C_GET_FLAG(hi2c, Flag) == RESET))
 80026f6:	68bb      	ldr	r3, [r7, #8]
 80026f8:	0c1b      	lsrs	r3, r3, #16
 80026fa:	b2db      	uxtb	r3, r3
 80026fc:	2b01      	cmp	r3, #1
 80026fe:	d10c      	bne.n	800271a <I2C_WaitOnMasterAddressFlagUntilTimeout+0xaa>
 8002700:	68fb      	ldr	r3, [r7, #12]
 8002702:	681b      	ldr	r3, [r3, #0]
 8002704:	695b      	ldr	r3, [r3, #20]
 8002706:	43da      	mvns	r2, r3
 8002708:	68bb      	ldr	r3, [r7, #8]
 800270a:	4013      	ands	r3, r2
 800270c:	b29b      	uxth	r3, r3
 800270e:	2b00      	cmp	r3, #0
 8002710:	bf14      	ite	ne
 8002712:	2301      	movne	r3, #1
 8002714:	2300      	moveq	r3, #0
 8002716:	b2db      	uxtb	r3, r3
 8002718:	e00b      	b.n	8002732 <I2C_WaitOnMasterAddressFlagUntilTimeout+0xc2>
 800271a:	68fb      	ldr	r3, [r7, #12]
 800271c:	681b      	ldr	r3, [r3, #0]
 800271e:	699b      	ldr	r3, [r3, #24]
 8002720:	43da      	mvns	r2, r3
 8002722:	68bb      	ldr	r3, [r7, #8]
 8002724:	4013      	ands	r3, r2
 8002726:	b29b      	uxth	r3, r3
 8002728:	2b00      	cmp	r3, #0
 800272a:	bf14      	ite	ne
 800272c:	2301      	movne	r3, #1
 800272e:	2300      	moveq	r3, #0
 8002730:	b2db      	uxtb	r3, r3
 8002732:	2b00      	cmp	r3, #0
 8002734:	d016      	beq.n	8002764 <I2C_WaitOnMasterAddressFlagUntilTimeout+0xf4>
        {
          hi2c->PreviousState       = I2C_STATE_NONE;
 8002736:	68fb      	ldr	r3, [r7, #12]
 8002738:	2200      	movs	r2, #0
 800273a:	631a      	str	r2, [r3, #48]	@ 0x30
          hi2c->State               = HAL_I2C_STATE_READY;
 800273c:	68fb      	ldr	r3, [r7, #12]
 800273e:	2220      	movs	r2, #32
 8002740:	f883 203d 	strb.w	r2, [r3, #61]	@ 0x3d
          hi2c->Mode                = HAL_I2C_MODE_NONE;
 8002744:	68fb      	ldr	r3, [r7, #12]
 8002746:	2200      	movs	r2, #0
 8002748:	f883 203e 	strb.w	r2, [r3, #62]	@ 0x3e
          hi2c->ErrorCode           |= HAL_I2C_ERROR_TIMEOUT;
 800274c:	68fb      	ldr	r3, [r7, #12]
 800274e:	6c1b      	ldr	r3, [r3, #64]	@ 0x40
 8002750:	f043 0220 	orr.w	r2, r3, #32
 8002754:	68fb      	ldr	r3, [r7, #12]
 8002756:	641a      	str	r2, [r3, #64]	@ 0x40

          /* Process Unlocked */
          __HAL_UNLOCK(hi2c);
 8002758:	68fb      	ldr	r3, [r7, #12]
 800275a:	2200      	movs	r2, #0
 800275c:	f883 203c 	strb.w	r2, [r3, #60]	@ 0x3c

          return HAL_ERROR;
 8002760:	2301      	movs	r3, #1
 8002762:	e021      	b.n	80027a8 <I2C_WaitOnMasterAddressFlagUntilTimeout+0x138>
  while (__HAL_I2C_GET_FLAG(hi2c, Flag) == RESET)
 8002764:	68bb      	ldr	r3, [r7, #8]
 8002766:	0c1b      	lsrs	r3, r3, #16
 8002768:	b2db      	uxtb	r3, r3
 800276a:	2b01      	cmp	r3, #1
 800276c:	d10c      	bne.n	8002788 <I2C_WaitOnMasterAddressFlagUntilTimeout+0x118>
 800276e:	68fb      	ldr	r3, [r7, #12]
 8002770:	681b      	ldr	r3, [r3, #0]
 8002772:	695b      	ldr	r3, [r3, #20]
 8002774:	43da      	mvns	r2, r3
 8002776:	68bb      	ldr	r3, [r7, #8]
 8002778:	4013      	ands	r3, r2
 800277a:	b29b      	uxth	r3, r3
 800277c:	2b00      	cmp	r3, #0
 800277e:	bf14      	ite	ne
 8002780:	2301      	movne	r3, #1
 8002782:	2300      	moveq	r3, #0
 8002784:	b2db      	uxtb	r3, r3
 8002786:	e00b      	b.n	80027a0 <I2C_WaitOnMasterAddressFlagUntilTimeout+0x130>
 8002788:	68fb      	ldr	r3, [r7, #12]
 800278a:	681b      	ldr	r3, [r3, #0]
 800278c:	699b      	ldr	r3, [r3, #24]
 800278e:	43da      	mvns	r2, r3
 8002790:	68bb      	ldr	r3, [r7, #8]
 8002792:	4013      	ands	r3, r2
 8002794:	b29b      	uxth	r3, r3
 8002796:	2b00      	cmp	r3, #0
 8002798:	bf14      	ite	ne
 800279a:	2301      	movne	r3, #1
 800279c:	2300      	moveq	r3, #0
 800279e:	b2db      	uxtb	r3, r3
 80027a0:	2b00      	cmp	r3, #0
 80027a2:	f47f af6d 	bne.w	8002680 <I2C_WaitOnMasterAddressFlagUntilTimeout+0x10>
        }
      }
    }
  }
  return HAL_OK;
 80027a6:	2300      	movs	r3, #0
}
 80027a8:	4618      	mov	r0, r3
 80027aa:	3710      	adds	r7, #16
 80027ac:	46bd      	mov	sp, r7
 80027ae:	bd80      	pop	{r7, pc}

080027b0 <I2C_WaitOnTXEFlagUntilTimeout>:
  * @param  Timeout Timeout duration
  * @param  Tickstart Tick start value
  * @retval HAL status
  */
static HAL_StatusTypeDef I2C_WaitOnTXEFlagUntilTimeout(I2C_HandleTypeDef *hi2c, uint32_t Timeout, uint32_t Tickstart)
{
 80027b0:	b580      	push	{r7, lr}
 80027b2:	b084      	sub	sp, #16
 80027b4:	af00      	add	r7, sp, #0
 80027b6:	60f8      	str	r0, [r7, #12]
 80027b8:	60b9      	str	r1, [r7, #8]
 80027ba:	607a      	str	r2, [r7, #4]
  while (__HAL_I2C_GET_FLAG(hi2c, I2C_FLAG_TXE) == RESET)
 80027bc:	e034      	b.n	8002828 <I2C_WaitOnTXEFlagUntilTimeout+0x78>
  {
    /* Check if a NACK is detected */
    if (I2C_IsAcknowledgeFailed(hi2c) != HAL_OK)
 80027be:	68f8      	ldr	r0, [r7, #12]
 80027c0:	f000 f8e3 	bl	800298a <I2C_IsAcknowledgeFailed>
 80027c4:	4603      	mov	r3, r0
 80027c6:	2b00      	cmp	r3, #0
 80027c8:	d001      	beq.n	80027ce <I2C_WaitOnTXEFlagUntilTimeout+0x1e>
    {
      return HAL_ERROR;
 80027ca:	2301      	movs	r3, #1
 80027cc:	e034      	b.n	8002838 <I2C_WaitOnTXEFlagUntilTimeout+0x88>
    }

    /* Check for the Timeout */
    if (Timeout != HAL_MAX_DELAY)
 80027ce:	68bb      	ldr	r3, [r7, #8]
 80027d0:	f1b3 3fff 	cmp.w	r3, #4294967295
 80027d4:	d028      	beq.n	8002828 <I2C_WaitOnTXEFlagUntilTimeout+0x78>
    {
      if (((HAL_GetTick() - Tickstart) > Timeout) || (Timeout == 0U))
 80027d6:	f7fe fdf9 	bl	80013cc <HAL_GetTick>
 80027da:	4602      	mov	r2, r0
 80027dc:	687b      	ldr	r3, [r7, #4]
 80027de:	1ad3      	subs	r3, r2, r3
 80027e0:	68ba      	ldr	r2, [r7, #8]
 80027e2:	429a      	cmp	r2, r3
 80027e4:	d302      	bcc.n	80027ec <I2C_WaitOnTXEFlagUntilTimeout+0x3c>
 80027e6:	68bb      	ldr	r3, [r7, #8]
 80027e8:	2b00      	cmp	r3, #0
 80027ea:	d11d      	bne.n	8002828 <I2C_WaitOnTXEFlagUntilTimeout+0x78>
      {
        if ((__HAL_I2C_GET_FLAG(hi2c, I2C_FLAG_TXE) == RESET))
 80027ec:	68fb      	ldr	r3, [r7, #12]
 80027ee:	681b      	ldr	r3, [r3, #0]
 80027f0:	695b      	ldr	r3, [r3, #20]
 80027f2:	f003 0380 	and.w	r3, r3, #128	@ 0x80
 80027f6:	2b80      	cmp	r3, #128	@ 0x80
 80027f8:	d016      	beq.n	8002828 <I2C_WaitOnTXEFlagUntilTimeout+0x78>
        {
          hi2c->PreviousState       = I2C_STATE_NONE;
 80027fa:	68fb      	ldr	r3, [r7, #12]
 80027fc:	2200      	movs	r2, #0
 80027fe:	631a      	str	r2, [r3, #48]	@ 0x30
          hi2c->State               = HAL_I2C_STATE_READY;
 8002800:	68fb      	ldr	r3, [r7, #12]
 8002802:	2220      	movs	r2, #32
 8002804:	f883 203d 	strb.w	r2, [r3, #61]	@ 0x3d
          hi2c->Mode                = HAL_I2C_MODE_NONE;
 8002808:	68fb      	ldr	r3, [r7, #12]
 800280a:	2200      	movs	r2, #0
 800280c:	f883 203e 	strb.w	r2, [r3, #62]	@ 0x3e
          hi2c->ErrorCode           |= HAL_I2C_ERROR_TIMEOUT;
 8002810:	68fb      	ldr	r3, [r7, #12]
 8002812:	6c1b      	ldr	r3, [r3, #64]	@ 0x40
 8002814:	f043 0220 	orr.w	r2, r3, #32
 8002818:	68fb      	ldr	r3, [r7, #12]
 800281a:	641a      	str	r2, [r3, #64]	@ 0x40

          /* Process Unlocked */
          __HAL_UNLOCK(hi2c);
 800281c:	68fb      	ldr	r3, [r7, #12]
 800281e:	2200      	movs	r2, #0
 8002820:	f883 203c 	strb.w	r2, [r3, #60]	@ 0x3c

          return HAL_ERROR;
 8002824:	2301      	movs	r3, #1
 8002826:	e007      	b.n	8002838 <I2C_WaitOnTXEFlagUntilTimeout+0x88>
  while (__HAL_I2C_GET_FLAG(hi2c, I2C_FLAG_TXE) == RESET)
 8002828:	68fb      	ldr	r3, [r7, #12]
 800282a:	681b      	ldr	r3, [r3, #0]
 800282c:	695b      	ldr	r3, [r3, #20]
 800282e:	f003 0380 	and.w	r3, r3, #128	@ 0x80
 8002832:	2b80      	cmp	r3, #128	@ 0x80
 8002834:	d1c3      	bne.n	80027be <I2C_WaitOnTXEFlagUntilTimeout+0xe>
        }
      }
    }
  }
  return HAL_OK;
 8002836:	2300      	movs	r3, #0
}
 8002838:	4618      	mov	r0, r3
 800283a:	3710      	adds	r7, #16
 800283c:	46bd      	mov	sp, r7
 800283e:	bd80      	pop	{r7, pc}

08002840 <I2C_WaitOnBTFFlagUntilTimeout>:
  * @param  Timeout Timeout duration
  * @param  Tickstart Tick start value
  * @retval HAL status
  */
static HAL_StatusTypeDef I2C_WaitOnBTFFlagUntilTimeout(I2C_HandleTypeDef *hi2c, uint32_t Timeout, uint32_t Tickstart)
{
 8002840:	b580      	push	{r7, lr}
 8002842:	b084      	sub	sp, #16
 8002844:	af00      	add	r7, sp, #0
 8002846:	60f8      	str	r0, [r7, #12]
 8002848:	60b9      	str	r1, [r7, #8]
 800284a:	607a      	str	r2, [r7, #4]
  while (__HAL_I2C_GET_FLAG(hi2c, I2C_FLAG_BTF) == RESET)
 800284c:	e034      	b.n	80028b8 <I2C_WaitOnBTFFlagUntilTimeout+0x78>
  {
    /* Check if a NACK is detected */
    if (I2C_IsAcknowledgeFailed(hi2c) != HAL_OK)
 800284e:	68f8      	ldr	r0, [r7, #12]
 8002850:	f000 f89b 	bl	800298a <I2C_IsAcknowledgeFailed>
 8002854:	4603      	mov	r3, r0
 8002856:	2b00      	cmp	r3, #0
 8002858:	d001      	beq.n	800285e <I2C_WaitOnBTFFlagUntilTimeout+0x1e>
    {
      return HAL_ERROR;
 800285a:	2301      	movs	r3, #1
 800285c:	e034      	b.n	80028c8 <I2C_WaitOnBTFFlagUntilTimeout+0x88>
    }

    /* Check for the Timeout */
    if (Timeout != HAL_MAX_DELAY)
 800285e:	68bb      	ldr	r3, [r7, #8]
 8002860:	f1b3 3fff 	cmp.w	r3, #4294967295
 8002864:	d028      	beq.n	80028b8 <I2C_WaitOnBTFFlagUntilTimeout+0x78>
    {
      if (((HAL_GetTick() - Tickstart) > Timeout) || (Timeout == 0U))
 8002866:	f7fe fdb1 	bl	80013cc <HAL_GetTick>
 800286a:	4602      	mov	r2, r0
 800286c:	687b      	ldr	r3, [r7, #4]
 800286e:	1ad3      	subs	r3, r2, r3
 8002870:	68ba      	ldr	r2, [r7, #8]
 8002872:	429a      	cmp	r2, r3
 8002874:	d302      	bcc.n	800287c <I2C_WaitOnBTFFlagUntilTimeout+0x3c>
 8002876:	68bb      	ldr	r3, [r7, #8]
 8002878:	2b00      	cmp	r3, #0
 800287a:	d11d      	bne.n	80028b8 <I2C_WaitOnBTFFlagUntilTimeout+0x78>
      {
        if ((__HAL_I2C_GET_FLAG(hi2c, I2C_FLAG_BTF) == RESET))
 800287c:	68fb      	ldr	r3, [r7, #12]
 800287e:	681b      	ldr	r3, [r3, #0]
 8002880:	695b      	ldr	r3, [r3, #20]
 8002882:	f003 0304 	and.w	r3, r3, #4
 8002886:	2b04      	cmp	r3, #4
 8002888:	d016      	beq.n	80028b8 <I2C_WaitOnBTFFlagUntilTimeout+0x78>
        {
          hi2c->PreviousState       = I2C_STATE_NONE;
 800288a:	68fb      	ldr	r3, [r7, #12]
 800288c:	2200      	movs	r2, #0
 800288e:	631a      	str	r2, [r3, #48]	@ 0x30
          hi2c->State               = HAL_I2C_STATE_READY;
 8002890:	68fb      	ldr	r3, [r7, #12]
 8002892:	2220      	movs	r2, #32
 8002894:	f883 203d 	strb.w	r2, [r3, #61]	@ 0x3d
          hi2c->Mode                = HAL_I2C_MODE_NONE;
 8002898:	68fb      	ldr	r3, [r7, #12]
 800289a:	2200      	movs	r2, #0
 800289c:	f883 203e 	strb.w	r2, [r3, #62]	@ 0x3e
          hi2c->ErrorCode           |= HAL_I2C_ERROR_TIMEOUT;
 80028a0:	68fb      	ldr	r3, [r7, #12]
 80028a2:	6c1b      	ldr	r3, [r3, #64]	@ 0x40
 80028a4:	f043 0220 	orr.w	r2, r3, #32
 80028a8:	68fb      	ldr	r3, [r7, #12]
 80028aa:	641a      	str	r2, [r3, #64]	@ 0x40

          /* Process Unlocked */
          __HAL_UNLOCK(hi2c);
 80028ac:	68fb      	ldr	r3, [r7, #12]
 80028ae:	2200      	movs	r2, #0
 80028b0:	f883 203c 	strb.w	r2, [r3, #60]	@ 0x3c

          return HAL_ERROR;
 80028b4:	2301      	movs	r3, #1
 80028b6:	e007      	b.n	80028c8 <I2C_WaitOnBTFFlagUntilTimeout+0x88>
  while (__HAL_I2C_GET_FLAG(hi2c, I2C_FLAG_BTF) == RESET)
 80028b8:	68fb      	ldr	r3, [r7, #12]
 80028ba:	681b      	ldr	r3, [r3, #0]
 80028bc:	695b      	ldr	r3, [r3, #20]
 80028be:	f003 0304 	and.w	r3, r3, #4
 80028c2:	2b04      	cmp	r3, #4
 80028c4:	d1c3      	bne.n	800284e <I2C_WaitOnBTFFlagUntilTimeout+0xe>
        }
      }
    }
  }
  return HAL_OK;
 80028c6:	2300      	movs	r3, #0
}
 80028c8:	4618      	mov	r0, r3
 80028ca:	3710      	adds	r7, #16
 80028cc:	46bd      	mov	sp, r7
 80028ce:	bd80      	pop	{r7, pc}

080028d0 <I2C_WaitOnRXNEFlagUntilTimeout>:
  * @param  Timeout Timeout duration
  * @param  Tickstart Tick start value
  * @retval HAL status
  */
static HAL_StatusTypeDef I2C_WaitOnRXNEFlagUntilTimeout(I2C_HandleTypeDef *hi2c, uint32_t Timeout, uint32_t Tickstart)
{
 80028d0:	b580      	push	{r7, lr}
 80028d2:	b084      	sub	sp, #16
 80028d4:	af00      	add	r7, sp, #0
 80028d6:	60f8      	str	r0, [r7, #12]
 80028d8:	60b9      	str	r1, [r7, #8]
 80028da:	607a      	str	r2, [r7, #4]

  while (__HAL_I2C_GET_FLAG(hi2c, I2C_FLAG_RXNE) == RESET)
 80028dc:	e049      	b.n	8002972 <I2C_WaitOnRXNEFlagUntilTimeout+0xa2>
  {
    /* Check if a STOPF is detected */
    if (__HAL_I2C_GET_FLAG(hi2c, I2C_FLAG_STOPF) == SET)
 80028de:	68fb      	ldr	r3, [r7, #12]
 80028e0:	681b      	ldr	r3, [r3, #0]
 80028e2:	695b      	ldr	r3, [r3, #20]
 80028e4:	f003 0310 	and.w	r3, r3, #16
 80028e8:	2b10      	cmp	r3, #16
 80028ea:	d119      	bne.n	8002920 <I2C_WaitOnRXNEFlagUntilTimeout+0x50>
    {
      /* Clear STOP Flag */
      __HAL_I2C_CLEAR_FLAG(hi2c, I2C_FLAG_STOPF);
 80028ec:	68fb      	ldr	r3, [r7, #12]
 80028ee:	681b      	ldr	r3, [r3, #0]
 80028f0:	f06f 0210 	mvn.w	r2, #16
 80028f4:	615a      	str	r2, [r3, #20]

      hi2c->PreviousState       = I2C_STATE_NONE;
 80028f6:	68fb      	ldr	r3, [r7, #12]
 80028f8:	2200      	movs	r2, #0
 80028fa:	631a      	str	r2, [r3, #48]	@ 0x30
      hi2c->State               = HAL_I2C_STATE_READY;
 80028fc:	68fb      	ldr	r3, [r7, #12]
 80028fe:	2220      	movs	r2, #32
 8002900:	f883 203d 	strb.w	r2, [r3, #61]	@ 0x3d
      hi2c->Mode                = HAL_I2C_MODE_NONE;
 8002904:	68fb      	ldr	r3, [r7, #12]
 8002906:	2200      	movs	r2, #0
 8002908:	f883 203e 	strb.w	r2, [r3, #62]	@ 0x3e
      hi2c->ErrorCode           |= HAL_I2C_ERROR_NONE;
 800290c:	68fb      	ldr	r3, [r7, #12]
 800290e:	6c1a      	ldr	r2, [r3, #64]	@ 0x40
 8002910:	68fb      	ldr	r3, [r7, #12]
 8002912:	641a      	str	r2, [r3, #64]	@ 0x40

      /* Process Unlocked */
      __HAL_UNLOCK(hi2c);
 8002914:	68fb      	ldr	r3, [r7, #12]
 8002916:	2200      	movs	r2, #0
 8002918:	f883 203c 	strb.w	r2, [r3, #60]	@ 0x3c

      return HAL_ERROR;
 800291c:	2301      	movs	r3, #1
 800291e:	e030      	b.n	8002982 <I2C_WaitOnRXNEFlagUntilTimeout+0xb2>
    }

    /* Check for the Timeout */
    if (((HAL_GetTick() - Tickstart) > Timeout) || (Timeout == 0U))
 8002920:	f7fe fd54 	bl	80013cc <HAL_GetTick>
 8002924:	4602      	mov	r2, r0
 8002926:	687b      	ldr	r3, [r7, #4]
 8002928:	1ad3      	subs	r3, r2, r3
 800292a:	68ba      	ldr	r2, [r7, #8]
 800292c:	429a      	cmp	r2, r3
 800292e:	d302      	bcc.n	8002936 <I2C_WaitOnRXNEFlagUntilTimeout+0x66>
 8002930:	68bb      	ldr	r3, [r7, #8]
 8002932:	2b00      	cmp	r3, #0
 8002934:	d11d      	bne.n	8002972 <I2C_WaitOnRXNEFlagUntilTimeout+0xa2>
    {
      if ((__HAL_I2C_GET_FLAG(hi2c, I2C_FLAG_RXNE) == RESET))
 8002936:	68fb      	ldr	r3, [r7, #12]
 8002938:	681b      	ldr	r3, [r3, #0]
 800293a:	695b      	ldr	r3, [r3, #20]
 800293c:	f003 0340 	and.w	r3, r3, #64	@ 0x40
 8002940:	2b40      	cmp	r3, #64	@ 0x40
 8002942:	d016      	beq.n	8002972 <I2C_WaitOnRXNEFlagUntilTimeout+0xa2>
      {
        hi2c->PreviousState       = I2C_STATE_NONE;
 8002944:	68fb      	ldr	r3, [r7, #12]
 8002946:	2200      	movs	r2, #0
 8002948:	631a      	str	r2, [r3, #48]	@ 0x30
        hi2c->State               = HAL_I2C_STATE_READY;
 800294a:	68fb      	ldr	r3, [r7, #12]
 800294c:	2220      	movs	r2, #32
 800294e:	f883 203d 	strb.w	r2, [r3, #61]	@ 0x3d
        hi2c->Mode                = HAL_I2C_MODE_NONE;
 8002952:	68fb      	ldr	r3, [r7, #12]
 8002954:	2200      	movs	r2, #0
 8002956:	f883 203e 	strb.w	r2, [r3, #62]	@ 0x3e
        hi2c->ErrorCode           |= HAL_I2C_ERROR_TIMEOUT;
 800295a:	68fb      	ldr	r3, [r7, #12]
 800295c:	6c1b      	ldr	r3, [r3, #64]	@ 0x40
 800295e:	f043 0220 	orr.w	r2, r3, #32
 8002962:	68fb      	ldr	r3, [r7, #12]
 8002964:	641a      	str	r2, [r3, #64]	@ 0x40

        /* Process Unlocked */
        __HAL_UNLOCK(hi2c);
 8002966:	68fb      	ldr	r3, [r7, #12]
 8002968:	2200      	movs	r2, #0
 800296a:	f883 203c 	strb.w	r2, [r3, #60]	@ 0x3c

        return HAL_ERROR;
 800296e:	2301      	movs	r3, #1
 8002970:	e007      	b.n	8002982 <I2C_WaitOnRXNEFlagUntilTimeout+0xb2>
  while (__HAL_I2C_GET_FLAG(hi2c, I2C_FLAG_RXNE) == RESET)
 8002972:	68fb      	ldr	r3, [r7, #12]
 8002974:	681b      	ldr	r3, [r3, #0]
 8002976:	695b      	ldr	r3, [r3, #20]
 8002978:	f003 0340 	and.w	r3, r3, #64	@ 0x40
 800297c:	2b40      	cmp	r3, #64	@ 0x40
 800297e:	d1ae      	bne.n	80028de <I2C_WaitOnRXNEFlagUntilTimeout+0xe>
      }
    }
  }
  return HAL_OK;
 8002980:	2300      	movs	r3, #0
}
 8002982:	4618      	mov	r0, r3
 8002984:	3710      	adds	r7, #16
 8002986:	46bd      	mov	sp, r7
 8002988:	bd80      	pop	{r7, pc}

0800298a <I2C_IsAcknowledgeFailed>:
  * @param  hi2c Pointer to a I2C_HandleTypeDef structure that contains
  *                the configuration information for the specified I2C.
  * @retval HAL status
  */
static HAL_StatusTypeDef I2C_IsAcknowledgeFailed(I2C_HandleTypeDef *hi2c)
{
 800298a:	b480      	push	{r7}
 800298c:	b083      	sub	sp, #12
 800298e:	af00      	add	r7, sp, #0
 8002990:	6078      	str	r0, [r7, #4]
  if (__HAL_I2C_GET_FLAG(hi2c, I2C_FLAG_AF) == SET)
 8002992:	687b      	ldr	r3, [r7, #4]
 8002994:	681b      	ldr	r3, [r3, #0]
 8002996:	695b      	ldr	r3, [r3, #20]
 8002998:	f403 6380 	and.w	r3, r3, #1024	@ 0x400
 800299c:	f5b3 6f80 	cmp.w	r3, #1024	@ 0x400
 80029a0:	d11b      	bne.n	80029da <I2C_IsAcknowledgeFailed+0x50>
  {
    /* Clear NACKF Flag */
    __HAL_I2C_CLEAR_FLAG(hi2c, I2C_FLAG_AF);
 80029a2:	687b      	ldr	r3, [r7, #4]
 80029a4:	681b      	ldr	r3, [r3, #0]
 80029a6:	f46f 6280 	mvn.w	r2, #1024	@ 0x400
 80029aa:	615a      	str	r2, [r3, #20]

    hi2c->PreviousState       = I2C_STATE_NONE;
 80029ac:	687b      	ldr	r3, [r7, #4]
 80029ae:	2200      	movs	r2, #0
 80029b0:	631a      	str	r2, [r3, #48]	@ 0x30
    hi2c->State               = HAL_I2C_STATE_READY;
 80029b2:	687b      	ldr	r3, [r7, #4]
 80029b4:	2220      	movs	r2, #32
 80029b6:	f883 203d 	strb.w	r2, [r3, #61]	@ 0x3d
    hi2c->Mode                = HAL_I2C_MODE_NONE;
 80029ba:	687b      	ldr	r3, [r7, #4]
 80029bc:	2200      	movs	r2, #0
 80029be:	f883 203e 	strb.w	r2, [r3, #62]	@ 0x3e
    hi2c->ErrorCode           |= HAL_I2C_ERROR_AF;
 80029c2:	687b      	ldr	r3, [r7, #4]
 80029c4:	6c1b      	ldr	r3, [r3, #64]	@ 0x40
 80029c6:	f043 0204 	orr.w	r2, r3, #4
 80029ca:	687b      	ldr	r3, [r7, #4]
 80029cc:	641a      	str	r2, [r3, #64]	@ 0x40

    /* Process Unlocked */
    __HAL_UNLOCK(hi2c);
 80029ce:	687b      	ldr	r3, [r7, #4]
 80029d0:	2200      	movs	r2, #0
 80029d2:	f883 203c 	strb.w	r2, [r3, #60]	@ 0x3c

    return HAL_ERROR;
 80029d6:	2301      	movs	r3, #1
 80029d8:	e000      	b.n	80029dc <I2C_IsAcknowledgeFailed+0x52>
  }
  return HAL_OK;
 80029da:	2300      	movs	r3, #0
}
 80029dc:	4618      	mov	r0, r3
 80029de:	370c      	adds	r7, #12
 80029e0:	46bd      	mov	sp, r7
 80029e2:	bc80      	pop	{r7}
 80029e4:	4770      	bx	lr
	...

080029e8 <HAL_RCC_OscConfig>:
  *         supported by this macro. User should request a transition to HSE Off
  *         first and then HSE On or HSE Bypass.
  * @retval HAL status
  */
HAL_StatusTypeDef HAL_RCC_OscConfig(RCC_OscInitTypeDef  *RCC_OscInitStruct)
{
 80029e8:	b580      	push	{r7, lr}
 80029ea:	b086      	sub	sp, #24
 80029ec:	af00      	add	r7, sp, #0
 80029ee:	6078      	str	r0, [r7, #4]
  uint32_t tickstart;
  uint32_t pll_config;

  /* Check Null pointer */
  if (RCC_OscInitStruct == NULL)
 80029f0:	687b      	ldr	r3, [r7, #4]
 80029f2:	2b00      	cmp	r3, #0
 80029f4:	d101      	bne.n	80029fa <HAL_RCC_OscConfig+0x12>
  {
    return HAL_ERROR;
 80029f6:	2301      	movs	r3, #1
 80029f8:	e272      	b.n	8002ee0 <HAL_RCC_OscConfig+0x4f8>

  /* Check the parameters */
  assert_param(IS_RCC_OSCILLATORTYPE(RCC_OscInitStruct->OscillatorType));

  /*------------------------------- HSE Configuration ------------------------*/
  if (((RCC_OscInitStruct->OscillatorType) & RCC_OSCILLATORTYPE_HSE) == RCC_OSCILLATORTYPE_HSE)
 80029fa:	687b      	ldr	r3, [r7, #4]
 80029fc:	681b      	ldr	r3, [r3, #0]
 80029fe:	f003 0301 	and.w	r3, r3, #1
 8002a02:	2b00      	cmp	r3, #0
 8002a04:	f000 8087 	beq.w	8002b16 <HAL_RCC_OscConfig+0x12e>
  {
    /* Check the parameters */
    assert_param(IS_RCC_HSE(RCC_OscInitStruct->HSEState));

    /* When the HSE is used as system clock or clock source for PLL in these cases it is not allowed to be disabled */
    if ((__HAL_RCC_GET_SYSCLK_SOURCE() == RCC_SYSCLKSOURCE_STATUS_HSE)
 8002a08:	4b92      	ldr	r3, [pc, #584]	@ (8002c54 <HAL_RCC_OscConfig+0x26c>)
 8002a0a:	685b      	ldr	r3, [r3, #4]
 8002a0c:	f003 030c 	and.w	r3, r3, #12
 8002a10:	2b04      	cmp	r3, #4
 8002a12:	d00c      	beq.n	8002a2e <HAL_RCC_OscConfig+0x46>
        || ((__HAL_RCC_GET_SYSCLK_SOURCE() == RCC_SYSCLKSOURCE_STATUS_PLLCLK) && (__HAL_RCC_GET_PLL_OSCSOURCE() == RCC_PLLSOURCE_HSE)))
 8002a14:	4b8f      	ldr	r3, [pc, #572]	@ (8002c54 <HAL_RCC_OscConfig+0x26c>)
 8002a16:	685b      	ldr	r3, [r3, #4]
 8002a18:	f003 030c 	and.w	r3, r3, #12
 8002a1c:	2b08      	cmp	r3, #8
 8002a1e:	d112      	bne.n	8002a46 <HAL_RCC_OscConfig+0x5e>
 8002a20:	4b8c      	ldr	r3, [pc, #560]	@ (8002c54 <HAL_RCC_OscConfig+0x26c>)
 8002a22:	685b      	ldr	r3, [r3, #4]
 8002a24:	f403 3380 	and.w	r3, r3, #65536	@ 0x10000
 8002a28:	f5b3 3f80 	cmp.w	r3, #65536	@ 0x10000
 8002a2c:	d10b      	bne.n	8002a46 <HAL_RCC_OscConfig+0x5e>
    {
      if ((__HAL_RCC_GET_FLAG(RCC_FLAG_HSERDY) != RESET) && (RCC_OscInitStruct->HSEState == RCC_HSE_OFF))
 8002a2e:	4b89      	ldr	r3, [pc, #548]	@ (8002c54 <HAL_RCC_OscConfig+0x26c>)
 8002a30:	681b      	ldr	r3, [r3, #0]
 8002a32:	f403 3300 	and.w	r3, r3, #131072	@ 0x20000
 8002a36:	2b00      	cmp	r3, #0
 8002a38:	d06c      	beq.n	8002b14 <HAL_RCC_OscConfig+0x12c>
 8002a3a:	687b      	ldr	r3, [r7, #4]
 8002a3c:	685b      	ldr	r3, [r3, #4]
 8002a3e:	2b00      	cmp	r3, #0
 8002a40:	d168      	bne.n	8002b14 <HAL_RCC_OscConfig+0x12c>
      {
        return HAL_ERROR;
 8002a42:	2301      	movs	r3, #1
 8002a44:	e24c      	b.n	8002ee0 <HAL_RCC_OscConfig+0x4f8>
      }
    }
    else
    {
      /* Set the new HSE configuration ---------------------------------------*/
      __HAL_RCC_HSE_CONFIG(RCC_OscInitStruct->HSEState);
 8002a46:	687b      	ldr	r3, [r7, #4]
 8002a48:	685b      	ldr	r3, [r3, #4]
 8002a4a:	f5b3 3f80 	cmp.w	r3, #65536	@ 0x10000
 8002a4e:	d106      	bne.n	8002a5e <HAL_RCC_OscConfig+0x76>
 8002a50:	4b80      	ldr	r3, [pc, #512]	@ (8002c54 <HAL_RCC_OscConfig+0x26c>)
 8002a52:	681b      	ldr	r3, [r3, #0]
 8002a54:	4a7f      	ldr	r2, [pc, #508]	@ (8002c54 <HAL_RCC_OscConfig+0x26c>)
 8002a56:	f443 3380 	orr.w	r3, r3, #65536	@ 0x10000
 8002a5a:	6013      	str	r3, [r2, #0]
 8002a5c:	e02e      	b.n	8002abc <HAL_RCC_OscConfig+0xd4>
 8002a5e:	687b      	ldr	r3, [r7, #4]
 8002a60:	685b      	ldr	r3, [r3, #4]
 8002a62:	2b00      	cmp	r3, #0
 8002a64:	d10c      	bne.n	8002a80 <HAL_RCC_OscConfig+0x98>
 8002a66:	4b7b      	ldr	r3, [pc, #492]	@ (8002c54 <HAL_RCC_OscConfig+0x26c>)
 8002a68:	681b      	ldr	r3, [r3, #0]
 8002a6a:	4a7a      	ldr	r2, [pc, #488]	@ (8002c54 <HAL_RCC_OscConfig+0x26c>)
 8002a6c:	f423 3380 	bic.w	r3, r3, #65536	@ 0x10000
 8002a70:	6013      	str	r3, [r2, #0]
 8002a72:	4b78      	ldr	r3, [pc, #480]	@ (8002c54 <HAL_RCC_OscConfig+0x26c>)
 8002a74:	681b      	ldr	r3, [r3, #0]
 8002a76:	4a77      	ldr	r2, [pc, #476]	@ (8002c54 <HAL_RCC_OscConfig+0x26c>)
 8002a78:	f423 2380 	bic.w	r3, r3, #262144	@ 0x40000
 8002a7c:	6013      	str	r3, [r2, #0]
 8002a7e:	e01d      	b.n	8002abc <HAL_RCC_OscConfig+0xd4>
 8002a80:	687b      	ldr	r3, [r7, #4]
 8002a82:	685b      	ldr	r3, [r3, #4]
 8002a84:	f5b3 2fa0 	cmp.w	r3, #327680	@ 0x50000
 8002a88:	d10c      	bne.n	8002aa4 <HAL_RCC_OscConfig+0xbc>
 8002a8a:	4b72      	ldr	r3, [pc, #456]	@ (8002c54 <HAL_RCC_OscConfig+0x26c>)
 8002a8c:	681b      	ldr	r3, [r3, #0]
 8002a8e:	4a71      	ldr	r2, [pc, #452]	@ (8002c54 <HAL_RCC_OscConfig+0x26c>)
 8002a90:	f443 2380 	orr.w	r3, r3, #262144	@ 0x40000
 8002a94:	6013      	str	r3, [r2, #0]
 8002a96:	4b6f      	ldr	r3, [pc, #444]	@ (8002c54 <HAL_RCC_OscConfig+0x26c>)
 8002a98:	681b      	ldr	r3, [r3, #0]
 8002a9a:	4a6e      	ldr	r2, [pc, #440]	@ (8002c54 <HAL_RCC_OscConfig+0x26c>)
 8002a9c:	f443 3380 	orr.w	r3, r3, #65536	@ 0x10000
 8002aa0:	6013      	str	r3, [r2, #0]
 8002aa2:	e00b      	b.n	8002abc <HAL_RCC_OscConfig+0xd4>
 8002aa4:	4b6b      	ldr	r3, [pc, #428]	@ (8002c54 <HAL_RCC_OscConfig+0x26c>)
 8002aa6:	681b      	ldr	r3, [r3, #0]
 8002aa8:	4a6a      	ldr	r2, [pc, #424]	@ (8002c54 <HAL_RCC_OscConfig+0x26c>)
 8002aaa:	f423 3380 	bic.w	r3, r3, #65536	@ 0x10000
 8002aae:	6013      	str	r3, [r2, #0]
 8002ab0:	4b68      	ldr	r3, [pc, #416]	@ (8002c54 <HAL_RCC_OscConfig+0x26c>)
 8002ab2:	681b      	ldr	r3, [r3, #0]
 8002ab4:	4a67      	ldr	r2, [pc, #412]	@ (8002c54 <HAL_RCC_OscConfig+0x26c>)
 8002ab6:	f423 2380 	bic.w	r3, r3, #262144	@ 0x40000
 8002aba:	6013      	str	r3, [r2, #0]


      /* Check the HSE State */
      if (RCC_OscInitStruct->HSEState != RCC_HSE_OFF)
 8002abc:	687b      	ldr	r3, [r7, #4]
 8002abe:	685b      	ldr	r3, [r3, #4]
 8002ac0:	2b00      	cmp	r3, #0
 8002ac2:	d013      	beq.n	8002aec <HAL_RCC_OscConfig+0x104>
      {
        /* Get Start Tick */
        tickstart = HAL_GetTick();
 8002ac4:	f7fe fc82 	bl	80013cc <HAL_GetTick>
 8002ac8:	6138      	str	r0, [r7, #16]

        /* Wait till HSE is ready */
        while (__HAL_RCC_GET_FLAG(RCC_FLAG_HSERDY) == RESET)
 8002aca:	e008      	b.n	8002ade <HAL_RCC_OscConfig+0xf6>
        {
          if ((HAL_GetTick() - tickstart) > HSE_TIMEOUT_VALUE)
 8002acc:	f7fe fc7e 	bl	80013cc <HAL_GetTick>
 8002ad0:	4602      	mov	r2, r0
 8002ad2:	693b      	ldr	r3, [r7, #16]
 8002ad4:	1ad3      	subs	r3, r2, r3
 8002ad6:	2b64      	cmp	r3, #100	@ 0x64
 8002ad8:	d901      	bls.n	8002ade <HAL_RCC_OscConfig+0xf6>
          {
            return HAL_TIMEOUT;
 8002ada:	2303      	movs	r3, #3
 8002adc:	e200      	b.n	8002ee0 <HAL_RCC_OscConfig+0x4f8>
        while (__HAL_RCC_GET_FLAG(RCC_FLAG_HSERDY) == RESET)
 8002ade:	4b5d      	ldr	r3, [pc, #372]	@ (8002c54 <HAL_RCC_OscConfig+0x26c>)
 8002ae0:	681b      	ldr	r3, [r3, #0]
 8002ae2:	f403 3300 	and.w	r3, r3, #131072	@ 0x20000
 8002ae6:	2b00      	cmp	r3, #0
 8002ae8:	d0f0      	beq.n	8002acc <HAL_RCC_OscConfig+0xe4>
 8002aea:	e014      	b.n	8002b16 <HAL_RCC_OscConfig+0x12e>
        }
      }
      else
      {
        /* Get Start Tick */
        tickstart = HAL_GetTick();
 8002aec:	f7fe fc6e 	bl	80013cc <HAL_GetTick>
 8002af0:	6138      	str	r0, [r7, #16]

        /* Wait till HSE is disabled */
        while (__HAL_RCC_GET_FLAG(RCC_FLAG_HSERDY) != RESET)
 8002af2:	e008      	b.n	8002b06 <HAL_RCC_OscConfig+0x11e>
        {
          if ((HAL_GetTick() - tickstart) > HSE_TIMEOUT_VALUE)
 8002af4:	f7fe fc6a 	bl	80013cc <HAL_GetTick>
 8002af8:	4602      	mov	r2, r0
 8002afa:	693b      	ldr	r3, [r7, #16]
 8002afc:	1ad3      	subs	r3, r2, r3
 8002afe:	2b64      	cmp	r3, #100	@ 0x64
 8002b00:	d901      	bls.n	8002b06 <HAL_RCC_OscConfig+0x11e>
          {
            return HAL_TIMEOUT;
 8002b02:	2303      	movs	r3, #3
 8002b04:	e1ec      	b.n	8002ee0 <HAL_RCC_OscConfig+0x4f8>
        while (__HAL_RCC_GET_FLAG(RCC_FLAG_HSERDY) != RESET)
 8002b06:	4b53      	ldr	r3, [pc, #332]	@ (8002c54 <HAL_RCC_OscConfig+0x26c>)
 8002b08:	681b      	ldr	r3, [r3, #0]
 8002b0a:	f403 3300 	and.w	r3, r3, #131072	@ 0x20000
 8002b0e:	2b00      	cmp	r3, #0
 8002b10:	d1f0      	bne.n	8002af4 <HAL_RCC_OscConfig+0x10c>
 8002b12:	e000      	b.n	8002b16 <HAL_RCC_OscConfig+0x12e>
      if ((__HAL_RCC_GET_FLAG(RCC_FLAG_HSERDY) != RESET) && (RCC_OscInitStruct->HSEState == RCC_HSE_OFF))
 8002b14:	bf00      	nop
        }
      }
    }
  }
  /*----------------------------- HSI Configuration --------------------------*/
  if (((RCC_OscInitStruct->OscillatorType) & RCC_OSCILLATORTYPE_HSI) == RCC_OSCILLATORTYPE_HSI)
 8002b16:	687b      	ldr	r3, [r7, #4]
 8002b18:	681b      	ldr	r3, [r3, #0]
 8002b1a:	f003 0302 	and.w	r3, r3, #2
 8002b1e:	2b00      	cmp	r3, #0
 8002b20:	d063      	beq.n	8002bea <HAL_RCC_OscConfig+0x202>
    /* Check the parameters */
    assert_param(IS_RCC_HSI(RCC_OscInitStruct->HSIState));
    assert_param(IS_RCC_CALIBRATION_VALUE(RCC_OscInitStruct->HSICalibrationValue));

    /* Check if HSI is used as system clock or as PLL source when PLL is selected as system clock */
    if ((__HAL_RCC_GET_SYSCLK_SOURCE() == RCC_SYSCLKSOURCE_STATUS_HSI)
 8002b22:	4b4c      	ldr	r3, [pc, #304]	@ (8002c54 <HAL_RCC_OscConfig+0x26c>)
 8002b24:	685b      	ldr	r3, [r3, #4]
 8002b26:	f003 030c 	and.w	r3, r3, #12
 8002b2a:	2b00      	cmp	r3, #0
 8002b2c:	d00b      	beq.n	8002b46 <HAL_RCC_OscConfig+0x15e>
        || ((__HAL_RCC_GET_SYSCLK_SOURCE() == RCC_SYSCLKSOURCE_STATUS_PLLCLK) && (__HAL_RCC_GET_PLL_OSCSOURCE() == RCC_PLLSOURCE_HSI_DIV2)))
 8002b2e:	4b49      	ldr	r3, [pc, #292]	@ (8002c54 <HAL_RCC_OscConfig+0x26c>)
 8002b30:	685b      	ldr	r3, [r3, #4]
 8002b32:	f003 030c 	and.w	r3, r3, #12
 8002b36:	2b08      	cmp	r3, #8
 8002b38:	d11c      	bne.n	8002b74 <HAL_RCC_OscConfig+0x18c>
 8002b3a:	4b46      	ldr	r3, [pc, #280]	@ (8002c54 <HAL_RCC_OscConfig+0x26c>)
 8002b3c:	685b      	ldr	r3, [r3, #4]
 8002b3e:	f403 3380 	and.w	r3, r3, #65536	@ 0x10000
 8002b42:	2b00      	cmp	r3, #0
 8002b44:	d116      	bne.n	8002b74 <HAL_RCC_OscConfig+0x18c>
    {
      /* When HSI is used as system clock it will not disabled */
      if ((__HAL_RCC_GET_FLAG(RCC_FLAG_HSIRDY) != RESET) && (RCC_OscInitStruct->HSIState != RCC_HSI_ON))
 8002b46:	4b43      	ldr	r3, [pc, #268]	@ (8002c54 <HAL_RCC_OscConfig+0x26c>)
 8002b48:	681b      	ldr	r3, [r3, #0]
 8002b4a:	f003 0302 	and.w	r3, r3, #2
 8002b4e:	2b00      	cmp	r3, #0
 8002b50:	d005      	beq.n	8002b5e <HAL_RCC_OscConfig+0x176>
 8002b52:	687b      	ldr	r3, [r7, #4]
 8002b54:	691b      	ldr	r3, [r3, #16]
 8002b56:	2b01      	cmp	r3, #1
 8002b58:	d001      	beq.n	8002b5e <HAL_RCC_OscConfig+0x176>
      {
        return HAL_ERROR;
 8002b5a:	2301      	movs	r3, #1
 8002b5c:	e1c0      	b.n	8002ee0 <HAL_RCC_OscConfig+0x4f8>
      }
      /* Otherwise, just the calibration is allowed */
      else
      {
        /* Adjusts the Internal High Speed oscillator (HSI) calibration value.*/
        __HAL_RCC_HSI_CALIBRATIONVALUE_ADJUST(RCC_OscInitStruct->HSICalibrationValue);
 8002b5e:	4b3d      	ldr	r3, [pc, #244]	@ (8002c54 <HAL_RCC_OscConfig+0x26c>)
 8002b60:	681b      	ldr	r3, [r3, #0]
 8002b62:	f023 02f8 	bic.w	r2, r3, #248	@ 0xf8
 8002b66:	687b      	ldr	r3, [r7, #4]
 8002b68:	695b      	ldr	r3, [r3, #20]
 8002b6a:	00db      	lsls	r3, r3, #3
 8002b6c:	4939      	ldr	r1, [pc, #228]	@ (8002c54 <HAL_RCC_OscConfig+0x26c>)
 8002b6e:	4313      	orrs	r3, r2
 8002b70:	600b      	str	r3, [r1, #0]
      if ((__HAL_RCC_GET_FLAG(RCC_FLAG_HSIRDY) != RESET) && (RCC_OscInitStruct->HSIState != RCC_HSI_ON))
 8002b72:	e03a      	b.n	8002bea <HAL_RCC_OscConfig+0x202>
      }
    }
    else
    {
      /* Check the HSI State */
      if (RCC_OscInitStruct->HSIState != RCC_HSI_OFF)
 8002b74:	687b      	ldr	r3, [r7, #4]
 8002b76:	691b      	ldr	r3, [r3, #16]
 8002b78:	2b00      	cmp	r3, #0
 8002b7a:	d020      	beq.n	8002bbe <HAL_RCC_OscConfig+0x1d6>
      {
        /* Enable the Internal High Speed oscillator (HSI). */
        __HAL_RCC_HSI_ENABLE();
 8002b7c:	4b36      	ldr	r3, [pc, #216]	@ (8002c58 <HAL_RCC_OscConfig+0x270>)
 8002b7e:	2201      	movs	r2, #1
 8002b80:	601a      	str	r2, [r3, #0]

        /* Get Start Tick */
        tickstart = HAL_GetTick();
 8002b82:	f7fe fc23 	bl	80013cc <HAL_GetTick>
 8002b86:	6138      	str	r0, [r7, #16]

        /* Wait till HSI is ready */
        while (__HAL_RCC_GET_FLAG(RCC_FLAG_HSIRDY) == RESET)
 8002b88:	e008      	b.n	8002b9c <HAL_RCC_OscConfig+0x1b4>
        {
          if ((HAL_GetTick() - tickstart) > HSI_TIMEOUT_VALUE)
 8002b8a:	f7fe fc1f 	bl	80013cc <HAL_GetTick>
 8002b8e:	4602      	mov	r2, r0
 8002b90:	693b      	ldr	r3, [r7, #16]
 8002b92:	1ad3      	subs	r3, r2, r3
 8002b94:	2b02      	cmp	r3, #2
 8002b96:	d901      	bls.n	8002b9c <HAL_RCC_OscConfig+0x1b4>
          {
            return HAL_TIMEOUT;
 8002b98:	2303      	movs	r3, #3
 8002b9a:	e1a1      	b.n	8002ee0 <HAL_RCC_OscConfig+0x4f8>
        while (__HAL_RCC_GET_FLAG(RCC_FLAG_HSIRDY) == RESET)
 8002b9c:	4b2d      	ldr	r3, [pc, #180]	@ (8002c54 <HAL_RCC_OscConfig+0x26c>)
 8002b9e:	681b      	ldr	r3, [r3, #0]
 8002ba0:	f003 0302 	and.w	r3, r3, #2
 8002ba4:	2b00      	cmp	r3, #0
 8002ba6:	d0f0      	beq.n	8002b8a <HAL_RCC_OscConfig+0x1a2>
          }
        }

        /* Adjusts the Internal High Speed oscillator (HSI) calibration value.*/
        __HAL_RCC_HSI_CALIBRATIONVALUE_ADJUST(RCC_OscInitStruct->HSICalibrationValue);
 8002ba8:	4b2a      	ldr	r3, [pc, #168]	@ (8002c54 <HAL_RCC_OscConfig+0x26c>)
 8002baa:	681b      	ldr	r3, [r3, #0]
 8002bac:	f023 02f8 	bic.w	r2, r3, #248	@ 0xf8
 8002bb0:	687b      	ldr	r3, [r7, #4]
 8002bb2:	695b      	ldr	r3, [r3, #20]
 8002bb4:	00db      	lsls	r3, r3, #3
 8002bb6:	4927      	ldr	r1, [pc, #156]	@ (8002c54 <HAL_RCC_OscConfig+0x26c>)
 8002bb8:	4313      	orrs	r3, r2
 8002bba:	600b      	str	r3, [r1, #0]
 8002bbc:	e015      	b.n	8002bea <HAL_RCC_OscConfig+0x202>
      }
      else
      {
        /* Disable the Internal High Speed oscillator (HSI). */
        __HAL_RCC_HSI_DISABLE();
 8002bbe:	4b26      	ldr	r3, [pc, #152]	@ (8002c58 <HAL_RCC_OscConfig+0x270>)
 8002bc0:	2200      	movs	r2, #0
 8002bc2:	601a      	str	r2, [r3, #0]

        /* Get Start Tick */
        tickstart = HAL_GetTick();
 8002bc4:	f7fe fc02 	bl	80013cc <HAL_GetTick>
 8002bc8:	6138      	str	r0, [r7, #16]

        /* Wait till HSI is disabled */
        while (__HAL_RCC_GET_FLAG(RCC_FLAG_HSIRDY) != RESET)
 8002bca:	e008      	b.n	8002bde <HAL_RCC_OscConfig+0x1f6>
        {
          if ((HAL_GetTick() - tickstart) > HSI_TIMEOUT_VALUE)
 8002bcc:	f7fe fbfe 	bl	80013cc <HAL_GetTick>
 8002bd0:	4602      	mov	r2, r0
 8002bd2:	693b      	ldr	r3, [r7, #16]
 8002bd4:	1ad3      	subs	r3, r2, r3
 8002bd6:	2b02      	cmp	r3, #2
 8002bd8:	d901      	bls.n	8002bde <HAL_RCC_OscConfig+0x1f6>
          {
            return HAL_TIMEOUT;
 8002bda:	2303      	movs	r3, #3
 8002bdc:	e180      	b.n	8002ee0 <HAL_RCC_OscConfig+0x4f8>
        while (__HAL_RCC_GET_FLAG(RCC_FLAG_HSIRDY) != RESET)
 8002bde:	4b1d      	ldr	r3, [pc, #116]	@ (8002c54 <HAL_RCC_OscConfig+0x26c>)
 8002be0:	681b      	ldr	r3, [r3, #0]
 8002be2:	f003 0302 	and.w	r3, r3, #2
 8002be6:	2b00      	cmp	r3, #0
 8002be8:	d1f0      	bne.n	8002bcc <HAL_RCC_OscConfig+0x1e4>
        }
      }
    }
  }
  /*------------------------------ LSI Configuration -------------------------*/
  if (((RCC_OscInitStruct->OscillatorType) & RCC_OSCILLATORTYPE_LSI) == RCC_OSCILLATORTYPE_LSI)
 8002bea:	687b      	ldr	r3, [r7, #4]
 8002bec:	681b      	ldr	r3, [r3, #0]
 8002bee:	f003 0308 	and.w	r3, r3, #8
 8002bf2:	2b00      	cmp	r3, #0
 8002bf4:	d03a      	beq.n	8002c6c <HAL_RCC_OscConfig+0x284>
  {
    /* Check the parameters */
    assert_param(IS_RCC_LSI(RCC_OscInitStruct->LSIState));

    /* Check the LSI State */
    if (RCC_OscInitStruct->LSIState != RCC_LSI_OFF)
 8002bf6:	687b      	ldr	r3, [r7, #4]
 8002bf8:	699b      	ldr	r3, [r3, #24]
 8002bfa:	2b00      	cmp	r3, #0
 8002bfc:	d019      	beq.n	8002c32 <HAL_RCC_OscConfig+0x24a>
    {
      /* Enable the Internal Low Speed oscillator (LSI). */
      __HAL_RCC_LSI_ENABLE();
 8002bfe:	4b17      	ldr	r3, [pc, #92]	@ (8002c5c <HAL_RCC_OscConfig+0x274>)
 8002c00:	2201      	movs	r2, #1
 8002c02:	601a      	str	r2, [r3, #0]

      /* Get Start Tick */
      tickstart = HAL_GetTick();
 8002c04:	f7fe fbe2 	bl	80013cc <HAL_GetTick>
 8002c08:	6138      	str	r0, [r7, #16]

      /* Wait till LSI is ready */
      while (__HAL_RCC_GET_FLAG(RCC_FLAG_LSIRDY) == RESET)
 8002c0a:	e008      	b.n	8002c1e <HAL_RCC_OscConfig+0x236>
      {
        if ((HAL_GetTick() - tickstart) > LSI_TIMEOUT_VALUE)
 8002c0c:	f7fe fbde 	bl	80013cc <HAL_GetTick>
 8002c10:	4602      	mov	r2, r0
 8002c12:	693b      	ldr	r3, [r7, #16]
 8002c14:	1ad3      	subs	r3, r2, r3
 8002c16:	2b02      	cmp	r3, #2
 8002c18:	d901      	bls.n	8002c1e <HAL_RCC_OscConfig+0x236>
        {
          return HAL_TIMEOUT;
 8002c1a:	2303      	movs	r3, #3
 8002c1c:	e160      	b.n	8002ee0 <HAL_RCC_OscConfig+0x4f8>
      while (__HAL_RCC_GET_FLAG(RCC_FLAG_LSIRDY) == RESET)
 8002c1e:	4b0d      	ldr	r3, [pc, #52]	@ (8002c54 <HAL_RCC_OscConfig+0x26c>)
 8002c20:	6a5b      	ldr	r3, [r3, #36]	@ 0x24
 8002c22:	f003 0302 	and.w	r3, r3, #2
 8002c26:	2b00      	cmp	r3, #0
 8002c28:	d0f0      	beq.n	8002c0c <HAL_RCC_OscConfig+0x224>
        }
      }
      /*  To have a fully stabilized clock in the specified range, a software delay of 1ms
          should be added.*/
      RCC_Delay(1);
 8002c2a:	2001      	movs	r0, #1
 8002c2c:	f000 face 	bl	80031cc <RCC_Delay>
 8002c30:	e01c      	b.n	8002c6c <HAL_RCC_OscConfig+0x284>
    }
    else
    {
      /* Disable the Internal Low Speed oscillator (LSI). */
      __HAL_RCC_LSI_DISABLE();
 8002c32:	4b0a      	ldr	r3, [pc, #40]	@ (8002c5c <HAL_RCC_OscConfig+0x274>)
 8002c34:	2200      	movs	r2, #0
 8002c36:	601a      	str	r2, [r3, #0]

      /* Get Start Tick */
      tickstart = HAL_GetTick();
 8002c38:	f7fe fbc8 	bl	80013cc <HAL_GetTick>
 8002c3c:	6138      	str	r0, [r7, #16]

      /* Wait till LSI is disabled */
      while (__HAL_RCC_GET_FLAG(RCC_FLAG_LSIRDY) != RESET)
 8002c3e:	e00f      	b.n	8002c60 <HAL_RCC_OscConfig+0x278>
      {
        if ((HAL_GetTick() - tickstart) > LSI_TIMEOUT_VALUE)
 8002c40:	f7fe fbc4 	bl	80013cc <HAL_GetTick>
 8002c44:	4602      	mov	r2, r0
 8002c46:	693b      	ldr	r3, [r7, #16]
 8002c48:	1ad3      	subs	r3, r2, r3
 8002c4a:	2b02      	cmp	r3, #2
 8002c4c:	d908      	bls.n	8002c60 <HAL_RCC_OscConfig+0x278>
        {
          return HAL_TIMEOUT;
 8002c4e:	2303      	movs	r3, #3
 8002c50:	e146      	b.n	8002ee0 <HAL_RCC_OscConfig+0x4f8>
 8002c52:	bf00      	nop
 8002c54:	40021000 	.word	0x40021000
 8002c58:	42420000 	.word	0x42420000
 8002c5c:	42420480 	.word	0x42420480
      while (__HAL_RCC_GET_FLAG(RCC_FLAG_LSIRDY) != RESET)
 8002c60:	4b92      	ldr	r3, [pc, #584]	@ (8002eac <HAL_RCC_OscConfig+0x4c4>)
 8002c62:	6a5b      	ldr	r3, [r3, #36]	@ 0x24
 8002c64:	f003 0302 	and.w	r3, r3, #2
 8002c68:	2b00      	cmp	r3, #0
 8002c6a:	d1e9      	bne.n	8002c40 <HAL_RCC_OscConfig+0x258>
        }
      }
    }
  }
  /*------------------------------ LSE Configuration -------------------------*/
  if (((RCC_OscInitStruct->OscillatorType) & RCC_OSCILLATORTYPE_LSE) == RCC_OSCILLATORTYPE_LSE)
 8002c6c:	687b      	ldr	r3, [r7, #4]
 8002c6e:	681b      	ldr	r3, [r3, #0]
 8002c70:	f003 0304 	and.w	r3, r3, #4
 8002c74:	2b00      	cmp	r3, #0
 8002c76:	f000 80a6 	beq.w	8002dc6 <HAL_RCC_OscConfig+0x3de>
  {
    FlagStatus       pwrclkchanged = RESET;
 8002c7a:	2300      	movs	r3, #0
 8002c7c:	75fb      	strb	r3, [r7, #23]
    /* Check the parameters */
    assert_param(IS_RCC_LSE(RCC_OscInitStruct->LSEState));

    /* Update LSE configuration in Backup Domain control register    */
    /* Requires to enable write access to Backup Domain of necessary */
    if (__HAL_RCC_PWR_IS_CLK_DISABLED())
 8002c7e:	4b8b      	ldr	r3, [pc, #556]	@ (8002eac <HAL_RCC_OscConfig+0x4c4>)
 8002c80:	69db      	ldr	r3, [r3, #28]
 8002c82:	f003 5380 	and.w	r3, r3, #268435456	@ 0x10000000
 8002c86:	2b00      	cmp	r3, #0
 8002c88:	d10d      	bne.n	8002ca6 <HAL_RCC_OscConfig+0x2be>
    {
      __HAL_RCC_PWR_CLK_ENABLE();
 8002c8a:	4b88      	ldr	r3, [pc, #544]	@ (8002eac <HAL_RCC_OscConfig+0x4c4>)
 8002c8c:	69db      	ldr	r3, [r3, #28]
 8002c8e:	4a87      	ldr	r2, [pc, #540]	@ (8002eac <HAL_RCC_OscConfig+0x4c4>)
 8002c90:	f043 5380 	orr.w	r3, r3, #268435456	@ 0x10000000
 8002c94:	61d3      	str	r3, [r2, #28]
 8002c96:	4b85      	ldr	r3, [pc, #532]	@ (8002eac <HAL_RCC_OscConfig+0x4c4>)
 8002c98:	69db      	ldr	r3, [r3, #28]
 8002c9a:	f003 5380 	and.w	r3, r3, #268435456	@ 0x10000000
 8002c9e:	60bb      	str	r3, [r7, #8]
 8002ca0:	68bb      	ldr	r3, [r7, #8]
      pwrclkchanged = SET;
 8002ca2:	2301      	movs	r3, #1
 8002ca4:	75fb      	strb	r3, [r7, #23]
    }

    if (HAL_IS_BIT_CLR(PWR->CR, PWR_CR_DBP))
 8002ca6:	4b82      	ldr	r3, [pc, #520]	@ (8002eb0 <HAL_RCC_OscConfig+0x4c8>)
 8002ca8:	681b      	ldr	r3, [r3, #0]
 8002caa:	f403 7380 	and.w	r3, r3, #256	@ 0x100
 8002cae:	2b00      	cmp	r3, #0
 8002cb0:	d118      	bne.n	8002ce4 <HAL_RCC_OscConfig+0x2fc>
    {
      /* Enable write access to Backup domain */
      SET_BIT(PWR->CR, PWR_CR_DBP);
 8002cb2:	4b7f      	ldr	r3, [pc, #508]	@ (8002eb0 <HAL_RCC_OscConfig+0x4c8>)
 8002cb4:	681b      	ldr	r3, [r3, #0]
 8002cb6:	4a7e      	ldr	r2, [pc, #504]	@ (8002eb0 <HAL_RCC_OscConfig+0x4c8>)
 8002cb8:	f443 7380 	orr.w	r3, r3, #256	@ 0x100
 8002cbc:	6013      	str	r3, [r2, #0]

      /* Wait for Backup domain Write protection disable */
      tickstart = HAL_GetTick();
 8002cbe:	f7fe fb85 	bl	80013cc <HAL_GetTick>
 8002cc2:	6138      	str	r0, [r7, #16]

      while (HAL_IS_BIT_CLR(PWR->CR, PWR_CR_DBP))
 8002cc4:	e008      	b.n	8002cd8 <HAL_RCC_OscConfig+0x2f0>
      {
        if ((HAL_GetTick() - tickstart) > RCC_DBP_TIMEOUT_VALUE)
 8002cc6:	f7fe fb81 	bl	80013cc <HAL_GetTick>
 8002cca:	4602      	mov	r2, r0
 8002ccc:	693b      	ldr	r3, [r7, #16]
 8002cce:	1ad3      	subs	r3, r2, r3
 8002cd0:	2b64      	cmp	r3, #100	@ 0x64
 8002cd2:	d901      	bls.n	8002cd8 <HAL_RCC_OscConfig+0x2f0>
        {
          return HAL_TIMEOUT;
 8002cd4:	2303      	movs	r3, #3
 8002cd6:	e103      	b.n	8002ee0 <HAL_RCC_OscConfig+0x4f8>
      while (HAL_IS_BIT_CLR(PWR->CR, PWR_CR_DBP))
 8002cd8:	4b75      	ldr	r3, [pc, #468]	@ (8002eb0 <HAL_RCC_OscConfig+0x4c8>)
 8002cda:	681b      	ldr	r3, [r3, #0]
 8002cdc:	f403 7380 	and.w	r3, r3, #256	@ 0x100
 8002ce0:	2b00      	cmp	r3, #0
 8002ce2:	d0f0      	beq.n	8002cc6 <HAL_RCC_OscConfig+0x2de>
        }
      }
    }

    /* Set the new LSE configuration -----------------------------------------*/
    __HAL_RCC_LSE_CONFIG(RCC_OscInitStruct->LSEState);
 8002ce4:	687b      	ldr	r3, [r7, #4]
 8002ce6:	68db      	ldr	r3, [r3, #12]
 8002ce8:	2b01      	cmp	r3, #1
 8002cea:	d106      	bne.n	8002cfa <HAL_RCC_OscConfig+0x312>
 8002cec:	4b6f      	ldr	r3, [pc, #444]	@ (8002eac <HAL_RCC_OscConfig+0x4c4>)
 8002cee:	6a1b      	ldr	r3, [r3, #32]
 8002cf0:	4a6e      	ldr	r2, [pc, #440]	@ (8002eac <HAL_RCC_OscConfig+0x4c4>)
 8002cf2:	f043 0301 	orr.w	r3, r3, #1
 8002cf6:	6213      	str	r3, [r2, #32]
 8002cf8:	e02d      	b.n	8002d56 <HAL_RCC_OscConfig+0x36e>
 8002cfa:	687b      	ldr	r3, [r7, #4]
 8002cfc:	68db      	ldr	r3, [r3, #12]
 8002cfe:	2b00      	cmp	r3, #0
 8002d00:	d10c      	bne.n	8002d1c <HAL_RCC_OscConfig+0x334>
 8002d02:	4b6a      	ldr	r3, [pc, #424]	@ (8002eac <HAL_RCC_OscConfig+0x4c4>)
 8002d04:	6a1b      	ldr	r3, [r3, #32]
 8002d06:	4a69      	ldr	r2, [pc, #420]	@ (8002eac <HAL_RCC_OscConfig+0x4c4>)
 8002d08:	f023 0301 	bic.w	r3, r3, #1
 8002d0c:	6213      	str	r3, [r2, #32]
 8002d0e:	4b67      	ldr	r3, [pc, #412]	@ (8002eac <HAL_RCC_OscConfig+0x4c4>)
 8002d10:	6a1b      	ldr	r3, [r3, #32]
 8002d12:	4a66      	ldr	r2, [pc, #408]	@ (8002eac <HAL_RCC_OscConfig+0x4c4>)
 8002d14:	f023 0304 	bic.w	r3, r3, #4
 8002d18:	6213      	str	r3, [r2, #32]
 8002d1a:	e01c      	b.n	8002d56 <HAL_RCC_OscConfig+0x36e>
 8002d1c:	687b      	ldr	r3, [r7, #4]
 8002d1e:	68db      	ldr	r3, [r3, #12]
 8002d20:	2b05      	cmp	r3, #5
 8002d22:	d10c      	bne.n	8002d3e <HAL_RCC_OscConfig+0x356>
 8002d24:	4b61      	ldr	r3, [pc, #388]	@ (8002eac <HAL_RCC_OscConfig+0x4c4>)
 8002d26:	6a1b      	ldr	r3, [r3, #32]
 8002d28:	4a60      	ldr	r2, [pc, #384]	@ (8002eac <HAL_RCC_OscConfig+0x4c4>)
 8002d2a:	f043 0304 	orr.w	r3, r3, #4
 8002d2e:	6213      	str	r3, [r2, #32]
 8002d30:	4b5e      	ldr	r3, [pc, #376]	@ (8002eac <HAL_RCC_OscConfig+0x4c4>)
 8002d32:	6a1b      	ldr	r3, [r3, #32]
 8002d34:	4a5d      	ldr	r2, [pc, #372]	@ (8002eac <HAL_RCC_OscConfig+0x4c4>)
 8002d36:	f043 0301 	orr.w	r3, r3, #1
 8002d3a:	6213      	str	r3, [r2, #32]
 8002d3c:	e00b      	b.n	8002d56 <HAL_RCC_OscConfig+0x36e>
 8002d3e:	4b5b      	ldr	r3, [pc, #364]	@ (8002eac <HAL_RCC_OscConfig+0x4c4>)
 8002d40:	6a1b      	ldr	r3, [r3, #32]
 8002d42:	4a5a      	ldr	r2, [pc, #360]	@ (8002eac <HAL_RCC_OscConfig+0x4c4>)
 8002d44:	f023 0301 	bic.w	r3, r3, #1
 8002d48:	6213      	str	r3, [r2, #32]
 8002d4a:	4b58      	ldr	r3, [pc, #352]	@ (8002eac <HAL_RCC_OscConfig+0x4c4>)
 8002d4c:	6a1b      	ldr	r3, [r3, #32]
 8002d4e:	4a57      	ldr	r2, [pc, #348]	@ (8002eac <HAL_RCC_OscConfig+0x4c4>)
 8002d50:	f023 0304 	bic.w	r3, r3, #4
 8002d54:	6213      	str	r3, [r2, #32]
    /* Check the LSE State */
    if (RCC_OscInitStruct->LSEState != RCC_LSE_OFF)
 8002d56:	687b      	ldr	r3, [r7, #4]
 8002d58:	68db      	ldr	r3, [r3, #12]
 8002d5a:	2b00      	cmp	r3, #0
 8002d5c:	d015      	beq.n	8002d8a <HAL_RCC_OscConfig+0x3a2>
    {
      /* Get Start Tick */
      tickstart = HAL_GetTick();
 8002d5e:	f7fe fb35 	bl	80013cc <HAL_GetTick>
 8002d62:	6138      	str	r0, [r7, #16]

      /* Wait till LSE is ready */
      while (__HAL_RCC_GET_FLAG(RCC_FLAG_LSERDY) == RESET)
 8002d64:	e00a      	b.n	8002d7c <HAL_RCC_OscConfig+0x394>
      {
        if ((HAL_GetTick() - tickstart) > RCC_LSE_TIMEOUT_VALUE)
 8002d66:	f7fe fb31 	bl	80013cc <HAL_GetTick>
 8002d6a:	4602      	mov	r2, r0
 8002d6c:	693b      	ldr	r3, [r7, #16]
 8002d6e:	1ad3      	subs	r3, r2, r3
 8002d70:	f241 3288 	movw	r2, #5000	@ 0x1388
 8002d74:	4293      	cmp	r3, r2
 8002d76:	d901      	bls.n	8002d7c <HAL_RCC_OscConfig+0x394>
        {
          return HAL_TIMEOUT;
 8002d78:	2303      	movs	r3, #3
 8002d7a:	e0b1      	b.n	8002ee0 <HAL_RCC_OscConfig+0x4f8>
      while (__HAL_RCC_GET_FLAG(RCC_FLAG_LSERDY) == RESET)
 8002d7c:	4b4b      	ldr	r3, [pc, #300]	@ (8002eac <HAL_RCC_OscConfig+0x4c4>)
 8002d7e:	6a1b      	ldr	r3, [r3, #32]
 8002d80:	f003 0302 	and.w	r3, r3, #2
 8002d84:	2b00      	cmp	r3, #0
 8002d86:	d0ee      	beq.n	8002d66 <HAL_RCC_OscConfig+0x37e>
 8002d88:	e014      	b.n	8002db4 <HAL_RCC_OscConfig+0x3cc>
      }
    }
    else
    {
      /* Get Start Tick */
      tickstart = HAL_GetTick();
 8002d8a:	f7fe fb1f 	bl	80013cc <HAL_GetTick>
 8002d8e:	6138      	str	r0, [r7, #16]

      /* Wait till LSE is disabled */
      while (__HAL_RCC_GET_FLAG(RCC_FLAG_LSERDY) != RESET)
 8002d90:	e00a      	b.n	8002da8 <HAL_RCC_OscConfig+0x3c0>
      {
        if ((HAL_GetTick() - tickstart) > RCC_LSE_TIMEOUT_VALUE)
 8002d92:	f7fe fb1b 	bl	80013cc <HAL_GetTick>
 8002d96:	4602      	mov	r2, r0
 8002d98:	693b      	ldr	r3, [r7, #16]
 8002d9a:	1ad3      	subs	r3, r2, r3
 8002d9c:	f241 3288 	movw	r2, #5000	@ 0x1388
 8002da0:	4293      	cmp	r3, r2
 8002da2:	d901      	bls.n	8002da8 <HAL_RCC_OscConfig+0x3c0>
        {
          return HAL_TIMEOUT;
 8002da4:	2303      	movs	r3, #3
 8002da6:	e09b      	b.n	8002ee0 <HAL_RCC_OscConfig+0x4f8>
      while (__HAL_RCC_GET_FLAG(RCC_FLAG_LSERDY) != RESET)
 8002da8:	4b40      	ldr	r3, [pc, #256]	@ (8002eac <HAL_RCC_OscConfig+0x4c4>)
 8002daa:	6a1b      	ldr	r3, [r3, #32]
 8002dac:	f003 0302 	and.w	r3, r3, #2
 8002db0:	2b00      	cmp	r3, #0
 8002db2:	d1ee      	bne.n	8002d92 <HAL_RCC_OscConfig+0x3aa>
        }
      }
    }

    /* Require to disable power clock if necessary */
    if (pwrclkchanged == SET)
 8002db4:	7dfb      	ldrb	r3, [r7, #23]
 8002db6:	2b01      	cmp	r3, #1
 8002db8:	d105      	bne.n	8002dc6 <HAL_RCC_OscConfig+0x3de>
    {
      __HAL_RCC_PWR_CLK_DISABLE();
 8002dba:	4b3c      	ldr	r3, [pc, #240]	@ (8002eac <HAL_RCC_OscConfig+0x4c4>)
 8002dbc:	69db      	ldr	r3, [r3, #28]
 8002dbe:	4a3b      	ldr	r2, [pc, #236]	@ (8002eac <HAL_RCC_OscConfig+0x4c4>)
 8002dc0:	f023 5380 	bic.w	r3, r3, #268435456	@ 0x10000000
 8002dc4:	61d3      	str	r3, [r2, #28]

#endif /* RCC_CR_PLL2ON */
  /*-------------------------------- PLL Configuration -----------------------*/
  /* Check the parameters */
  assert_param(IS_RCC_PLL(RCC_OscInitStruct->PLL.PLLState));
  if ((RCC_OscInitStruct->PLL.PLLState) != RCC_PLL_NONE)
 8002dc6:	687b      	ldr	r3, [r7, #4]
 8002dc8:	69db      	ldr	r3, [r3, #28]
 8002dca:	2b00      	cmp	r3, #0
 8002dcc:	f000 8087 	beq.w	8002ede <HAL_RCC_OscConfig+0x4f6>
  {
    /* Check if the PLL is used as system clock or not */
    if (__HAL_RCC_GET_SYSCLK_SOURCE() != RCC_SYSCLKSOURCE_STATUS_PLLCLK)
 8002dd0:	4b36      	ldr	r3, [pc, #216]	@ (8002eac <HAL_RCC_OscConfig+0x4c4>)
 8002dd2:	685b      	ldr	r3, [r3, #4]
 8002dd4:	f003 030c 	and.w	r3, r3, #12
 8002dd8:	2b08      	cmp	r3, #8
 8002dda:	d061      	beq.n	8002ea0 <HAL_RCC_OscConfig+0x4b8>
    {
      if ((RCC_OscInitStruct->PLL.PLLState) == RCC_PLL_ON)
 8002ddc:	687b      	ldr	r3, [r7, #4]
 8002dde:	69db      	ldr	r3, [r3, #28]
 8002de0:	2b02      	cmp	r3, #2
 8002de2:	d146      	bne.n	8002e72 <HAL_RCC_OscConfig+0x48a>
        /* Check the parameters */
        assert_param(IS_RCC_PLLSOURCE(RCC_OscInitStruct->PLL.PLLSource));
        assert_param(IS_RCC_PLL_MUL(RCC_OscInitStruct->PLL.PLLMUL));

        /* Disable the main PLL. */
        __HAL_RCC_PLL_DISABLE();
 8002de4:	4b33      	ldr	r3, [pc, #204]	@ (8002eb4 <HAL_RCC_OscConfig+0x4cc>)
 8002de6:	2200      	movs	r2, #0
 8002de8:	601a      	str	r2, [r3, #0]

        /* Get Start Tick */
        tickstart = HAL_GetTick();
 8002dea:	f7fe faef 	bl	80013cc <HAL_GetTick>
 8002dee:	6138      	str	r0, [r7, #16]

        /* Wait till PLL is disabled */
        while (__HAL_RCC_GET_FLAG(RCC_FLAG_PLLRDY)  != RESET)
 8002df0:	e008      	b.n	8002e04 <HAL_RCC_OscConfig+0x41c>
        {
          if ((HAL_GetTick() - tickstart) > PLL_TIMEOUT_VALUE)
 8002df2:	f7fe faeb 	bl	80013cc <HAL_GetTick>
 8002df6:	4602      	mov	r2, r0
 8002df8:	693b      	ldr	r3, [r7, #16]
 8002dfa:	1ad3      	subs	r3, r2, r3
 8002dfc:	2b02      	cmp	r3, #2
 8002dfe:	d901      	bls.n	8002e04 <HAL_RCC_OscConfig+0x41c>
          {
            return HAL_TIMEOUT;
 8002e00:	2303      	movs	r3, #3
 8002e02:	e06d      	b.n	8002ee0 <HAL_RCC_OscConfig+0x4f8>
        while (__HAL_RCC_GET_FLAG(RCC_FLAG_PLLRDY)  != RESET)
 8002e04:	4b29      	ldr	r3, [pc, #164]	@ (8002eac <HAL_RCC_OscConfig+0x4c4>)
 8002e06:	681b      	ldr	r3, [r3, #0]
 8002e08:	f003 7300 	and.w	r3, r3, #33554432	@ 0x2000000
 8002e0c:	2b00      	cmp	r3, #0
 8002e0e:	d1f0      	bne.n	8002df2 <HAL_RCC_OscConfig+0x40a>
          }
        }

        /* Configure the HSE prediv factor --------------------------------*/
        /* It can be written only when the PLL is disabled. Not used in PLL source is different than HSE */
        if (RCC_OscInitStruct->PLL.PLLSource == RCC_PLLSOURCE_HSE)
 8002e10:	687b      	ldr	r3, [r7, #4]
 8002e12:	6a1b      	ldr	r3, [r3, #32]
 8002e14:	f5b3 3f80 	cmp.w	r3, #65536	@ 0x10000
 8002e18:	d108      	bne.n	8002e2c <HAL_RCC_OscConfig+0x444>
          /* Set PREDIV1 source */
          SET_BIT(RCC->CFGR2, RCC_OscInitStruct->Prediv1Source);
#endif /* RCC_CFGR2_PREDIV1SRC */

          /* Set PREDIV1 Value */
          __HAL_RCC_HSE_PREDIV_CONFIG(RCC_OscInitStruct->HSEPredivValue);
 8002e1a:	4b24      	ldr	r3, [pc, #144]	@ (8002eac <HAL_RCC_OscConfig+0x4c4>)
 8002e1c:	685b      	ldr	r3, [r3, #4]
 8002e1e:	f423 3200 	bic.w	r2, r3, #131072	@ 0x20000
 8002e22:	687b      	ldr	r3, [r7, #4]
 8002e24:	689b      	ldr	r3, [r3, #8]
 8002e26:	4921      	ldr	r1, [pc, #132]	@ (8002eac <HAL_RCC_OscConfig+0x4c4>)
 8002e28:	4313      	orrs	r3, r2
 8002e2a:	604b      	str	r3, [r1, #4]
        }

        /* Configure the main PLL clock source and multiplication factors. */
        __HAL_RCC_PLL_CONFIG(RCC_OscInitStruct->PLL.PLLSource,
 8002e2c:	4b1f      	ldr	r3, [pc, #124]	@ (8002eac <HAL_RCC_OscConfig+0x4c4>)
 8002e2e:	685b      	ldr	r3, [r3, #4]
 8002e30:	f423 1274 	bic.w	r2, r3, #3997696	@ 0x3d0000
 8002e34:	687b      	ldr	r3, [r7, #4]
 8002e36:	6a19      	ldr	r1, [r3, #32]
 8002e38:	687b      	ldr	r3, [r7, #4]
 8002e3a:	6a5b      	ldr	r3, [r3, #36]	@ 0x24
 8002e3c:	430b      	orrs	r3, r1
 8002e3e:	491b      	ldr	r1, [pc, #108]	@ (8002eac <HAL_RCC_OscConfig+0x4c4>)
 8002e40:	4313      	orrs	r3, r2
 8002e42:	604b      	str	r3, [r1, #4]
                             RCC_OscInitStruct->PLL.PLLMUL);
        /* Enable the main PLL. */
        __HAL_RCC_PLL_ENABLE();
 8002e44:	4b1b      	ldr	r3, [pc, #108]	@ (8002eb4 <HAL_RCC_OscConfig+0x4cc>)
 8002e46:	2201      	movs	r2, #1
 8002e48:	601a      	str	r2, [r3, #0]

        /* Get Start Tick */
        tickstart = HAL_GetTick();
 8002e4a:	f7fe fabf 	bl	80013cc <HAL_GetTick>
 8002e4e:	6138      	str	r0, [r7, #16]

        /* Wait till PLL is ready */
        while (__HAL_RCC_GET_FLAG(RCC_FLAG_PLLRDY)  == RESET)
 8002e50:	e008      	b.n	8002e64 <HAL_RCC_OscConfig+0x47c>
        {
          if ((HAL_GetTick() - tickstart) > PLL_TIMEOUT_VALUE)
 8002e52:	f7fe fabb 	bl	80013cc <HAL_GetTick>
 8002e56:	4602      	mov	r2, r0
 8002e58:	693b      	ldr	r3, [r7, #16]
 8002e5a:	1ad3      	subs	r3, r2, r3
 8002e5c:	2b02      	cmp	r3, #2
 8002e5e:	d901      	bls.n	8002e64 <HAL_RCC_OscConfig+0x47c>
          {
            return HAL_TIMEOUT;
 8002e60:	2303      	movs	r3, #3
 8002e62:	e03d      	b.n	8002ee0 <HAL_RCC_OscConfig+0x4f8>
        while (__HAL_RCC_GET_FLAG(RCC_FLAG_PLLRDY)  == RESET)
 8002e64:	4b11      	ldr	r3, [pc, #68]	@ (8002eac <HAL_RCC_OscConfig+0x4c4>)
 8002e66:	681b      	ldr	r3, [r3, #0]
 8002e68:	f003 7300 	and.w	r3, r3, #33554432	@ 0x2000000
 8002e6c:	2b00      	cmp	r3, #0
 8002e6e:	d0f0      	beq.n	8002e52 <HAL_RCC_OscConfig+0x46a>
 8002e70:	e035      	b.n	8002ede <HAL_RCC_OscConfig+0x4f6>
        }
      }
      else
      {
        /* Disable the main PLL. */
        __HAL_RCC_PLL_DISABLE();
 8002e72:	4b10      	ldr	r3, [pc, #64]	@ (8002eb4 <HAL_RCC_OscConfig+0x4cc>)
 8002e74:	2200      	movs	r2, #0
 8002e76:	601a      	str	r2, [r3, #0]

        /* Get Start Tick */
        tickstart = HAL_GetTick();
 8002e78:	f7fe faa8 	bl	80013cc <HAL_GetTick>
 8002e7c:	6138      	str	r0, [r7, #16]

        /* Wait till PLL is disabled */
        while (__HAL_RCC_GET_FLAG(RCC_FLAG_PLLRDY)  != RESET)
 8002e7e:	e008      	b.n	8002e92 <HAL_RCC_OscConfig+0x4aa>
        {
          if ((HAL_GetTick() - tickstart) > PLL_TIMEOUT_VALUE)
 8002e80:	f7fe faa4 	bl	80013cc <HAL_GetTick>
 8002e84:	4602      	mov	r2, r0
 8002e86:	693b      	ldr	r3, [r7, #16]
 8002e88:	1ad3      	subs	r3, r2, r3
 8002e8a:	2b02      	cmp	r3, #2
 8002e8c:	d901      	bls.n	8002e92 <HAL_RCC_OscConfig+0x4aa>
          {
            return HAL_TIMEOUT;
 8002e8e:	2303      	movs	r3, #3
 8002e90:	e026      	b.n	8002ee0 <HAL_RCC_OscConfig+0x4f8>
        while (__HAL_RCC_GET_FLAG(RCC_FLAG_PLLRDY)  != RESET)
 8002e92:	4b06      	ldr	r3, [pc, #24]	@ (8002eac <HAL_RCC_OscConfig+0x4c4>)
 8002e94:	681b      	ldr	r3, [r3, #0]
 8002e96:	f003 7300 	and.w	r3, r3, #33554432	@ 0x2000000
 8002e9a:	2b00      	cmp	r3, #0
 8002e9c:	d1f0      	bne.n	8002e80 <HAL_RCC_OscConfig+0x498>
 8002e9e:	e01e      	b.n	8002ede <HAL_RCC_OscConfig+0x4f6>
      }
    }
    else
    {
      /* Check if there is a request to disable the PLL used as System clock source */
      if ((RCC_OscInitStruct->PLL.PLLState) == RCC_PLL_OFF)
 8002ea0:	687b      	ldr	r3, [r7, #4]
 8002ea2:	69db      	ldr	r3, [r3, #28]
 8002ea4:	2b01      	cmp	r3, #1
 8002ea6:	d107      	bne.n	8002eb8 <HAL_RCC_OscConfig+0x4d0>
      {
        return HAL_ERROR;
 8002ea8:	2301      	movs	r3, #1
 8002eaa:	e019      	b.n	8002ee0 <HAL_RCC_OscConfig+0x4f8>
 8002eac:	40021000 	.word	0x40021000
 8002eb0:	40007000 	.word	0x40007000
 8002eb4:	42420060 	.word	0x42420060
      }
      else
      {
        /* Do not return HAL_ERROR if request repeats the current configuration */
        pll_config = RCC->CFGR;
 8002eb8:	4b0b      	ldr	r3, [pc, #44]	@ (8002ee8 <HAL_RCC_OscConfig+0x500>)
 8002eba:	685b      	ldr	r3, [r3, #4]
 8002ebc:	60fb      	str	r3, [r7, #12]
        if ((READ_BIT(pll_config, RCC_CFGR_PLLSRC) != RCC_OscInitStruct->PLL.PLLSource) ||
 8002ebe:	68fb      	ldr	r3, [r7, #12]
 8002ec0:	f403 3280 	and.w	r2, r3, #65536	@ 0x10000
 8002ec4:	687b      	ldr	r3, [r7, #4]
 8002ec6:	6a1b      	ldr	r3, [r3, #32]
 8002ec8:	429a      	cmp	r2, r3
 8002eca:	d106      	bne.n	8002eda <HAL_RCC_OscConfig+0x4f2>
            (READ_BIT(pll_config, RCC_CFGR_PLLMULL) != RCC_OscInitStruct->PLL.PLLMUL))
 8002ecc:	68fb      	ldr	r3, [r7, #12]
 8002ece:	f403 1270 	and.w	r2, r3, #3932160	@ 0x3c0000
 8002ed2:	687b      	ldr	r3, [r7, #4]
 8002ed4:	6a5b      	ldr	r3, [r3, #36]	@ 0x24
        if ((READ_BIT(pll_config, RCC_CFGR_PLLSRC) != RCC_OscInitStruct->PLL.PLLSource) ||
 8002ed6:	429a      	cmp	r2, r3
 8002ed8:	d001      	beq.n	8002ede <HAL_RCC_OscConfig+0x4f6>
        {
          return HAL_ERROR;
 8002eda:	2301      	movs	r3, #1
 8002edc:	e000      	b.n	8002ee0 <HAL_RCC_OscConfig+0x4f8>
        }
      }
    }
  }

  return HAL_OK;
 8002ede:	2300      	movs	r3, #0
}
 8002ee0:	4618      	mov	r0, r3
 8002ee2:	3718      	adds	r7, #24
 8002ee4:	46bd      	mov	sp, r7
 8002ee6:	bd80      	pop	{r7, pc}
 8002ee8:	40021000 	.word	0x40021000

08002eec <HAL_RCC_ClockConfig>:
  *         You can use @ref HAL_RCC_GetClockConfig() function to know which clock is
  *         currently used as system clock source.
  * @retval HAL status
  */
HAL_StatusTypeDef HAL_RCC_ClockConfig(RCC_ClkInitTypeDef  *RCC_ClkInitStruct, uint32_t FLatency)
{
 8002eec:	b580      	push	{r7, lr}
 8002eee:	b084      	sub	sp, #16
 8002ef0:	af00      	add	r7, sp, #0
 8002ef2:	6078      	str	r0, [r7, #4]
 8002ef4:	6039      	str	r1, [r7, #0]
  uint32_t tickstart;

  /* Check Null pointer */
  if (RCC_ClkInitStruct == NULL)
 8002ef6:	687b      	ldr	r3, [r7, #4]
 8002ef8:	2b00      	cmp	r3, #0
 8002efa:	d101      	bne.n	8002f00 <HAL_RCC_ClockConfig+0x14>
  {
    return HAL_ERROR;
 8002efc:	2301      	movs	r3, #1
 8002efe:	e0d0      	b.n	80030a2 <HAL_RCC_ClockConfig+0x1b6>
  must be correctly programmed according to the frequency of the CPU clock
    (HCLK) of the device. */

#if defined(FLASH_ACR_LATENCY)
  /* Increasing the number of wait states because of higher CPU frequency */
  if (FLatency > __HAL_FLASH_GET_LATENCY())
 8002f00:	4b6a      	ldr	r3, [pc, #424]	@ (80030ac <HAL_RCC_ClockConfig+0x1c0>)
 8002f02:	681b      	ldr	r3, [r3, #0]
 8002f04:	f003 0307 	and.w	r3, r3, #7
 8002f08:	683a      	ldr	r2, [r7, #0]
 8002f0a:	429a      	cmp	r2, r3
 8002f0c:	d910      	bls.n	8002f30 <HAL_RCC_ClockConfig+0x44>
  {
    /* Program the new number of wait states to the LATENCY bits in the FLASH_ACR register */
    __HAL_FLASH_SET_LATENCY(FLatency);
 8002f0e:	4b67      	ldr	r3, [pc, #412]	@ (80030ac <HAL_RCC_ClockConfig+0x1c0>)
 8002f10:	681b      	ldr	r3, [r3, #0]
 8002f12:	f023 0207 	bic.w	r2, r3, #7
 8002f16:	4965      	ldr	r1, [pc, #404]	@ (80030ac <HAL_RCC_ClockConfig+0x1c0>)
 8002f18:	683b      	ldr	r3, [r7, #0]
 8002f1a:	4313      	orrs	r3, r2
 8002f1c:	600b      	str	r3, [r1, #0]

    /* Check that the new number of wait states is taken into account to access the Flash
    memory by reading the FLASH_ACR register */
    if (__HAL_FLASH_GET_LATENCY() != FLatency)
 8002f1e:	4b63      	ldr	r3, [pc, #396]	@ (80030ac <HAL_RCC_ClockConfig+0x1c0>)
 8002f20:	681b      	ldr	r3, [r3, #0]
 8002f22:	f003 0307 	and.w	r3, r3, #7
 8002f26:	683a      	ldr	r2, [r7, #0]
 8002f28:	429a      	cmp	r2, r3
 8002f2a:	d001      	beq.n	8002f30 <HAL_RCC_ClockConfig+0x44>
  {
    return HAL_ERROR;
 8002f2c:	2301      	movs	r3, #1
 8002f2e:	e0b8      	b.n	80030a2 <HAL_RCC_ClockConfig+0x1b6>
  }
}

#endif /* FLASH_ACR_LATENCY */
/*-------------------------- HCLK Configuration --------------------------*/
if (((RCC_ClkInitStruct->ClockType) & RCC_CLOCKTYPE_HCLK) == RCC_CLOCKTYPE_HCLK)
 8002f30:	687b      	ldr	r3, [r7, #4]
 8002f32:	681b      	ldr	r3, [r3, #0]
 8002f34:	f003 0302 	and.w	r3, r3, #2
 8002f38:	2b00      	cmp	r3, #0
 8002f3a:	d020      	beq.n	8002f7e <HAL_RCC_ClockConfig+0x92>
  {
    /* Set the highest APBx dividers in order to ensure that we do not go through
    a non-spec phase whatever we decrease or increase HCLK. */
    if (((RCC_ClkInitStruct->ClockType) & RCC_CLOCKTYPE_PCLK1) == RCC_CLOCKTYPE_PCLK1)
 8002f3c:	687b      	ldr	r3, [r7, #4]
 8002f3e:	681b      	ldr	r3, [r3, #0]
 8002f40:	f003 0304 	and.w	r3, r3, #4
 8002f44:	2b00      	cmp	r3, #0
 8002f46:	d005      	beq.n	8002f54 <HAL_RCC_ClockConfig+0x68>
    {
      MODIFY_REG(RCC->CFGR, RCC_CFGR_PPRE1, RCC_HCLK_DIV16);
 8002f48:	4b59      	ldr	r3, [pc, #356]	@ (80030b0 <HAL_RCC_ClockConfig+0x1c4>)
 8002f4a:	685b      	ldr	r3, [r3, #4]
 8002f4c:	4a58      	ldr	r2, [pc, #352]	@ (80030b0 <HAL_RCC_ClockConfig+0x1c4>)
 8002f4e:	f443 63e0 	orr.w	r3, r3, #1792	@ 0x700
 8002f52:	6053      	str	r3, [r2, #4]
    }

    if (((RCC_ClkInitStruct->ClockType) & RCC_CLOCKTYPE_PCLK2) == RCC_CLOCKTYPE_PCLK2)
 8002f54:	687b      	ldr	r3, [r7, #4]
 8002f56:	681b      	ldr	r3, [r3, #0]
 8002f58:	f003 0308 	and.w	r3, r3, #8
 8002f5c:	2b00      	cmp	r3, #0
 8002f5e:	d005      	beq.n	8002f6c <HAL_RCC_ClockConfig+0x80>
    {
      MODIFY_REG(RCC->CFGR, RCC_CFGR_PPRE2, (RCC_HCLK_DIV16 << 3));
 8002f60:	4b53      	ldr	r3, [pc, #332]	@ (80030b0 <HAL_RCC_ClockConfig+0x1c4>)
 8002f62:	685b      	ldr	r3, [r3, #4]
 8002f64:	4a52      	ldr	r2, [pc, #328]	@ (80030b0 <HAL_RCC_ClockConfig+0x1c4>)
 8002f66:	f443 5360 	orr.w	r3, r3, #14336	@ 0x3800
 8002f6a:	6053      	str	r3, [r2, #4]
    }

    /* Set the new HCLK clock divider */
    assert_param(IS_RCC_HCLK(RCC_ClkInitStruct->AHBCLKDivider));
    MODIFY_REG(RCC->CFGR, RCC_CFGR_HPRE, RCC_ClkInitStruct->AHBCLKDivider);
 8002f6c:	4b50      	ldr	r3, [pc, #320]	@ (80030b0 <HAL_RCC_ClockConfig+0x1c4>)
 8002f6e:	685b      	ldr	r3, [r3, #4]
 8002f70:	f023 02f0 	bic.w	r2, r3, #240	@ 0xf0
 8002f74:	687b      	ldr	r3, [r7, #4]
 8002f76:	689b      	ldr	r3, [r3, #8]
 8002f78:	494d      	ldr	r1, [pc, #308]	@ (80030b0 <HAL_RCC_ClockConfig+0x1c4>)
 8002f7a:	4313      	orrs	r3, r2
 8002f7c:	604b      	str	r3, [r1, #4]
  }

  /*------------------------- SYSCLK Configuration ---------------------------*/
  if (((RCC_ClkInitStruct->ClockType) & RCC_CLOCKTYPE_SYSCLK) == RCC_CLOCKTYPE_SYSCLK)
 8002f7e:	687b      	ldr	r3, [r7, #4]
 8002f80:	681b      	ldr	r3, [r3, #0]
 8002f82:	f003 0301 	and.w	r3, r3, #1
 8002f86:	2b00      	cmp	r3, #0
 8002f88:	d040      	beq.n	800300c <HAL_RCC_ClockConfig+0x120>
  {
    assert_param(IS_RCC_SYSCLKSOURCE(RCC_ClkInitStruct->SYSCLKSource));

    /* HSE is selected as System Clock Source */
    if (RCC_ClkInitStruct->SYSCLKSource == RCC_SYSCLKSOURCE_HSE)
 8002f8a:	687b      	ldr	r3, [r7, #4]
 8002f8c:	685b      	ldr	r3, [r3, #4]
 8002f8e:	2b01      	cmp	r3, #1
 8002f90:	d107      	bne.n	8002fa2 <HAL_RCC_ClockConfig+0xb6>
    {
      /* Check the HSE ready flag */
      if (__HAL_RCC_GET_FLAG(RCC_FLAG_HSERDY) == RESET)
 8002f92:	4b47      	ldr	r3, [pc, #284]	@ (80030b0 <HAL_RCC_ClockConfig+0x1c4>)
 8002f94:	681b      	ldr	r3, [r3, #0]
 8002f96:	f403 3300 	and.w	r3, r3, #131072	@ 0x20000
 8002f9a:	2b00      	cmp	r3, #0
 8002f9c:	d115      	bne.n	8002fca <HAL_RCC_ClockConfig+0xde>
      {
        return HAL_ERROR;
 8002f9e:	2301      	movs	r3, #1
 8002fa0:	e07f      	b.n	80030a2 <HAL_RCC_ClockConfig+0x1b6>
      }
    }
    /* PLL is selected as System Clock Source */
    else if (RCC_ClkInitStruct->SYSCLKSource == RCC_SYSCLKSOURCE_PLLCLK)
 8002fa2:	687b      	ldr	r3, [r7, #4]
 8002fa4:	685b      	ldr	r3, [r3, #4]
 8002fa6:	2b02      	cmp	r3, #2
 8002fa8:	d107      	bne.n	8002fba <HAL_RCC_ClockConfig+0xce>
    {
      /* Check the PLL ready flag */
      if (__HAL_RCC_GET_FLAG(RCC_FLAG_PLLRDY) == RESET)
 8002faa:	4b41      	ldr	r3, [pc, #260]	@ (80030b0 <HAL_RCC_ClockConfig+0x1c4>)
 8002fac:	681b      	ldr	r3, [r3, #0]
 8002fae:	f003 7300 	and.w	r3, r3, #33554432	@ 0x2000000
 8002fb2:	2b00      	cmp	r3, #0
 8002fb4:	d109      	bne.n	8002fca <HAL_RCC_ClockConfig+0xde>
      {
        return HAL_ERROR;
 8002fb6:	2301      	movs	r3, #1
 8002fb8:	e073      	b.n	80030a2 <HAL_RCC_ClockConfig+0x1b6>
    }
    /* HSI is selected as System Clock Source */
    else
    {
      /* Check the HSI ready flag */
      if (__HAL_RCC_GET_FLAG(RCC_FLAG_HSIRDY) == RESET)
 8002fba:	4b3d      	ldr	r3, [pc, #244]	@ (80030b0 <HAL_RCC_ClockConfig+0x1c4>)
 8002fbc:	681b      	ldr	r3, [r3, #0]
 8002fbe:	f003 0302 	and.w	r3, r3, #2
 8002fc2:	2b00      	cmp	r3, #0
 8002fc4:	d101      	bne.n	8002fca <HAL_RCC_ClockConfig+0xde>
      {
        return HAL_ERROR;
 8002fc6:	2301      	movs	r3, #1
 8002fc8:	e06b      	b.n	80030a2 <HAL_RCC_ClockConfig+0x1b6>
      }
    }
    __HAL_RCC_SYSCLK_CONFIG(RCC_ClkInitStruct->SYSCLKSource);
 8002fca:	4b39      	ldr	r3, [pc, #228]	@ (80030b0 <HAL_RCC_ClockConfig+0x1c4>)
 8002fcc:	685b      	ldr	r3, [r3, #4]
 8002fce:	f023 0203 	bic.w	r2, r3, #3
 8002fd2:	687b      	ldr	r3, [r7, #4]
 8002fd4:	685b      	ldr	r3, [r3, #4]
 8002fd6:	4936      	ldr	r1, [pc, #216]	@ (80030b0 <HAL_RCC_ClockConfig+0x1c4>)
 8002fd8:	4313      	orrs	r3, r2
 8002fda:	604b      	str	r3, [r1, #4]

    /* Get Start Tick */
    tickstart = HAL_GetTick();
 8002fdc:	f7fe f9f6 	bl	80013cc <HAL_GetTick>
 8002fe0:	60f8      	str	r0, [r7, #12]

    while (__HAL_RCC_GET_SYSCLK_SOURCE() != (RCC_ClkInitStruct->SYSCLKSource << RCC_CFGR_SWS_Pos))
 8002fe2:	e00a      	b.n	8002ffa <HAL_RCC_ClockConfig+0x10e>
    {
      if ((HAL_GetTick() - tickstart) > CLOCKSWITCH_TIMEOUT_VALUE)
 8002fe4:	f7fe f9f2 	bl	80013cc <HAL_GetTick>
 8002fe8:	4602      	mov	r2, r0
 8002fea:	68fb      	ldr	r3, [r7, #12]
 8002fec:	1ad3      	subs	r3, r2, r3
 8002fee:	f241 3288 	movw	r2, #5000	@ 0x1388
 8002ff2:	4293      	cmp	r3, r2
 8002ff4:	d901      	bls.n	8002ffa <HAL_RCC_ClockConfig+0x10e>
      {
        return HAL_TIMEOUT;
 8002ff6:	2303      	movs	r3, #3
 8002ff8:	e053      	b.n	80030a2 <HAL_RCC_ClockConfig+0x1b6>
    while (__HAL_RCC_GET_SYSCLK_SOURCE() != (RCC_ClkInitStruct->SYSCLKSource << RCC_CFGR_SWS_Pos))
 8002ffa:	4b2d      	ldr	r3, [pc, #180]	@ (80030b0 <HAL_RCC_ClockConfig+0x1c4>)
 8002ffc:	685b      	ldr	r3, [r3, #4]
 8002ffe:	f003 020c 	and.w	r2, r3, #12
 8003002:	687b      	ldr	r3, [r7, #4]
 8003004:	685b      	ldr	r3, [r3, #4]
 8003006:	009b      	lsls	r3, r3, #2
 8003008:	429a      	cmp	r2, r3
 800300a:	d1eb      	bne.n	8002fe4 <HAL_RCC_ClockConfig+0xf8>
    }
  }

#if defined(FLASH_ACR_LATENCY)
  /* Decreasing the number of wait states because of lower CPU frequency */
  if (FLatency < __HAL_FLASH_GET_LATENCY())
 800300c:	4b27      	ldr	r3, [pc, #156]	@ (80030ac <HAL_RCC_ClockConfig+0x1c0>)
 800300e:	681b      	ldr	r3, [r3, #0]
 8003010:	f003 0307 	and.w	r3, r3, #7
 8003014:	683a      	ldr	r2, [r7, #0]
 8003016:	429a      	cmp	r2, r3
 8003018:	d210      	bcs.n	800303c <HAL_RCC_ClockConfig+0x150>
  {
    /* Program the new number of wait states to the LATENCY bits in the FLASH_ACR register */
    __HAL_FLASH_SET_LATENCY(FLatency);
 800301a:	4b24      	ldr	r3, [pc, #144]	@ (80030ac <HAL_RCC_ClockConfig+0x1c0>)
 800301c:	681b      	ldr	r3, [r3, #0]
 800301e:	f023 0207 	bic.w	r2, r3, #7
 8003022:	4922      	ldr	r1, [pc, #136]	@ (80030ac <HAL_RCC_ClockConfig+0x1c0>)
 8003024:	683b      	ldr	r3, [r7, #0]
 8003026:	4313      	orrs	r3, r2
 8003028:	600b      	str	r3, [r1, #0]

    /* Check that the new number of wait states is taken into account to access the Flash
    memory by reading the FLASH_ACR register */
    if (__HAL_FLASH_GET_LATENCY() != FLatency)
 800302a:	4b20      	ldr	r3, [pc, #128]	@ (80030ac <HAL_RCC_ClockConfig+0x1c0>)
 800302c:	681b      	ldr	r3, [r3, #0]
 800302e:	f003 0307 	and.w	r3, r3, #7
 8003032:	683a      	ldr	r2, [r7, #0]
 8003034:	429a      	cmp	r2, r3
 8003036:	d001      	beq.n	800303c <HAL_RCC_ClockConfig+0x150>
  {
    return HAL_ERROR;
 8003038:	2301      	movs	r3, #1
 800303a:	e032      	b.n	80030a2 <HAL_RCC_ClockConfig+0x1b6>
  }
}
#endif /* FLASH_ACR_LATENCY */

/*-------------------------- PCLK1 Configuration ---------------------------*/
if (((RCC_ClkInitStruct->ClockType) & RCC_CLOCKTYPE_PCLK1) == RCC_CLOCKTYPE_PCLK1)
 800303c:	687b      	ldr	r3, [r7, #4]
 800303e:	681b      	ldr	r3, [r3, #0]
 8003040:	f003 0304 	and.w	r3, r3, #4
 8003044:	2b00      	cmp	r3, #0
 8003046:	d008      	beq.n	800305a <HAL_RCC_ClockConfig+0x16e>
  {
    assert_param(IS_RCC_PCLK(RCC_ClkInitStruct->APB1CLKDivider));
    MODIFY_REG(RCC->CFGR, RCC_CFGR_PPRE1, RCC_ClkInitStruct->APB1CLKDivider);
 8003048:	4b19      	ldr	r3, [pc, #100]	@ (80030b0 <HAL_RCC_ClockConfig+0x1c4>)
 800304a:	685b      	ldr	r3, [r3, #4]
 800304c:	f423 62e0 	bic.w	r2, r3, #1792	@ 0x700
 8003050:	687b      	ldr	r3, [r7, #4]
 8003052:	68db      	ldr	r3, [r3, #12]
 8003054:	4916      	ldr	r1, [pc, #88]	@ (80030b0 <HAL_RCC_ClockConfig+0x1c4>)
 8003056:	4313      	orrs	r3, r2
 8003058:	604b      	str	r3, [r1, #4]
  }

  /*-------------------------- PCLK2 Configuration ---------------------------*/
  if (((RCC_ClkInitStruct->ClockType) & RCC_CLOCKTYPE_PCLK2) == RCC_CLOCKTYPE_PCLK2)
 800305a:	687b      	ldr	r3, [r7, #4]
 800305c:	681b      	ldr	r3, [r3, #0]
 800305e:	f003 0308 	and.w	r3, r3, #8
 8003062:	2b00      	cmp	r3, #0
 8003064:	d009      	beq.n	800307a <HAL_RCC_ClockConfig+0x18e>
  {
    assert_param(IS_RCC_PCLK(RCC_ClkInitStruct->APB2CLKDivider));
    MODIFY_REG(RCC->CFGR, RCC_CFGR_PPRE2, ((RCC_ClkInitStruct->APB2CLKDivider) << 3));
 8003066:	4b12      	ldr	r3, [pc, #72]	@ (80030b0 <HAL_RCC_ClockConfig+0x1c4>)
 8003068:	685b      	ldr	r3, [r3, #4]
 800306a:	f423 5260 	bic.w	r2, r3, #14336	@ 0x3800
 800306e:	687b      	ldr	r3, [r7, #4]
 8003070:	691b      	ldr	r3, [r3, #16]
 8003072:	00db      	lsls	r3, r3, #3
 8003074:	490e      	ldr	r1, [pc, #56]	@ (80030b0 <HAL_RCC_ClockConfig+0x1c4>)
 8003076:	4313      	orrs	r3, r2
 8003078:	604b      	str	r3, [r1, #4]
  }

  /* Update the SystemCoreClock global variable */
  SystemCoreClock = HAL_RCC_GetSysClockFreq() >> AHBPrescTable[(RCC->CFGR & RCC_CFGR_HPRE) >> RCC_CFGR_HPRE_Pos];
 800307a:	f000 f821 	bl	80030c0 <HAL_RCC_GetSysClockFreq>
 800307e:	4602      	mov	r2, r0
 8003080:	4b0b      	ldr	r3, [pc, #44]	@ (80030b0 <HAL_RCC_ClockConfig+0x1c4>)
 8003082:	685b      	ldr	r3, [r3, #4]
 8003084:	091b      	lsrs	r3, r3, #4
 8003086:	f003 030f 	and.w	r3, r3, #15
 800308a:	490a      	ldr	r1, [pc, #40]	@ (80030b4 <HAL_RCC_ClockConfig+0x1c8>)
 800308c:	5ccb      	ldrb	r3, [r1, r3]
 800308e:	fa22 f303 	lsr.w	r3, r2, r3
 8003092:	4a09      	ldr	r2, [pc, #36]	@ (80030b8 <HAL_RCC_ClockConfig+0x1cc>)
 8003094:	6013      	str	r3, [r2, #0]

  /* Configure the source of time base considering new system clocks settings*/
  HAL_InitTick(uwTickPrio);
 8003096:	4b09      	ldr	r3, [pc, #36]	@ (80030bc <HAL_RCC_ClockConfig+0x1d0>)
 8003098:	681b      	ldr	r3, [r3, #0]
 800309a:	4618      	mov	r0, r3
 800309c:	f7fe f954 	bl	8001348 <HAL_InitTick>

  return HAL_OK;
 80030a0:	2300      	movs	r3, #0
}
 80030a2:	4618      	mov	r0, r3
 80030a4:	3710      	adds	r7, #16
 80030a6:	46bd      	mov	sp, r7
 80030a8:	bd80      	pop	{r7, pc}
 80030aa:	bf00      	nop
 80030ac:	40022000 	.word	0x40022000
 80030b0:	40021000 	.word	0x40021000
 80030b4:	08004300 	.word	0x08004300
 80030b8:	20000000 	.word	0x20000000
 80030bc:	20000004 	.word	0x20000004

080030c0 <HAL_RCC_GetSysClockFreq>:
  *         right SYSCLK value. Otherwise, any configuration based on this function will be incorrect.
  *
  * @retval SYSCLK frequency
  */
uint32_t HAL_RCC_GetSysClockFreq(void)
{
 80030c0:	b480      	push	{r7}
 80030c2:	b087      	sub	sp, #28
 80030c4:	af00      	add	r7, sp, #0
#else
  static const uint8_t aPredivFactorTable[2U] = {1, 2};
#endif /*RCC_CFGR2_PREDIV1*/

#endif
  uint32_t tmpreg = 0U, prediv = 0U, pllclk = 0U, pllmul = 0U;
 80030c6:	2300      	movs	r3, #0
 80030c8:	60fb      	str	r3, [r7, #12]
 80030ca:	2300      	movs	r3, #0
 80030cc:	60bb      	str	r3, [r7, #8]
 80030ce:	2300      	movs	r3, #0
 80030d0:	617b      	str	r3, [r7, #20]
 80030d2:	2300      	movs	r3, #0
 80030d4:	607b      	str	r3, [r7, #4]
  uint32_t sysclockfreq = 0U;
 80030d6:	2300      	movs	r3, #0
 80030d8:	613b      	str	r3, [r7, #16]
#if defined(RCC_CFGR2_PREDIV1SRC)
  uint32_t prediv2 = 0U, pll2mul = 0U;
#endif /*RCC_CFGR2_PREDIV1SRC*/

  tmpreg = RCC->CFGR;
 80030da:	4b1e      	ldr	r3, [pc, #120]	@ (8003154 <HAL_RCC_GetSysClockFreq+0x94>)
 80030dc:	685b      	ldr	r3, [r3, #4]
 80030de:	60fb      	str	r3, [r7, #12]

  /* Get SYSCLK source -------------------------------------------------------*/
  switch (tmpreg & RCC_CFGR_SWS)
 80030e0:	68fb      	ldr	r3, [r7, #12]
 80030e2:	f003 030c 	and.w	r3, r3, #12
 80030e6:	2b04      	cmp	r3, #4
 80030e8:	d002      	beq.n	80030f0 <HAL_RCC_GetSysClockFreq+0x30>
 80030ea:	2b08      	cmp	r3, #8
 80030ec:	d003      	beq.n	80030f6 <HAL_RCC_GetSysClockFreq+0x36>
 80030ee:	e027      	b.n	8003140 <HAL_RCC_GetSysClockFreq+0x80>
  {
    case RCC_SYSCLKSOURCE_STATUS_HSE:  /* HSE used as system clock */
    {
      sysclockfreq = HSE_VALUE;
 80030f0:	4b19      	ldr	r3, [pc, #100]	@ (8003158 <HAL_RCC_GetSysClockFreq+0x98>)
 80030f2:	613b      	str	r3, [r7, #16]
      break;
 80030f4:	e027      	b.n	8003146 <HAL_RCC_GetSysClockFreq+0x86>
    }
    case RCC_SYSCLKSOURCE_STATUS_PLLCLK:  /* PLL used as system clock */
    {
      pllmul = aPLLMULFactorTable[(uint32_t)(tmpreg & RCC_CFGR_PLLMULL) >> RCC_CFGR_PLLMULL_Pos];
 80030f6:	68fb      	ldr	r3, [r7, #12]
 80030f8:	0c9b      	lsrs	r3, r3, #18
 80030fa:	f003 030f 	and.w	r3, r3, #15
 80030fe:	4a17      	ldr	r2, [pc, #92]	@ (800315c <HAL_RCC_GetSysClockFreq+0x9c>)
 8003100:	5cd3      	ldrb	r3, [r2, r3]
 8003102:	607b      	str	r3, [r7, #4]
      if ((tmpreg & RCC_CFGR_PLLSRC) != RCC_PLLSOURCE_HSI_DIV2)
 8003104:	68fb      	ldr	r3, [r7, #12]
 8003106:	f403 3380 	and.w	r3, r3, #65536	@ 0x10000
 800310a:	2b00      	cmp	r3, #0
 800310c:	d010      	beq.n	8003130 <HAL_RCC_GetSysClockFreq+0x70>
      {
#if defined(RCC_CFGR2_PREDIV1)
        prediv = aPredivFactorTable[(uint32_t)(RCC->CFGR2 & RCC_CFGR2_PREDIV1) >> RCC_CFGR2_PREDIV1_Pos];
#else
        prediv = aPredivFactorTable[(uint32_t)(RCC->CFGR & RCC_CFGR_PLLXTPRE) >> RCC_CFGR_PLLXTPRE_Pos];
 800310e:	4b11      	ldr	r3, [pc, #68]	@ (8003154 <HAL_RCC_GetSysClockFreq+0x94>)
 8003110:	685b      	ldr	r3, [r3, #4]
 8003112:	0c5b      	lsrs	r3, r3, #17
 8003114:	f003 0301 	and.w	r3, r3, #1
 8003118:	4a11      	ldr	r2, [pc, #68]	@ (8003160 <HAL_RCC_GetSysClockFreq+0xa0>)
 800311a:	5cd3      	ldrb	r3, [r2, r3]
 800311c:	60bb      	str	r3, [r7, #8]
        {
          pllclk = pllclk / 2;
        }
#else
        /* HSE used as PLL clock source : PLLCLK = HSE/PREDIV1 * PLLMUL */
        pllclk = (uint32_t)((HSE_VALUE  * pllmul) / prediv);
 800311e:	687b      	ldr	r3, [r7, #4]
 8003120:	4a0d      	ldr	r2, [pc, #52]	@ (8003158 <HAL_RCC_GetSysClockFreq+0x98>)
 8003122:	fb03 f202 	mul.w	r2, r3, r2
 8003126:	68bb      	ldr	r3, [r7, #8]
 8003128:	fbb2 f3f3 	udiv	r3, r2, r3
 800312c:	617b      	str	r3, [r7, #20]
 800312e:	e004      	b.n	800313a <HAL_RCC_GetSysClockFreq+0x7a>
#endif /*RCC_CFGR2_PREDIV1SRC*/
      }
      else
      {
        /* HSI used as PLL clock source : PLLCLK = HSI/2 * PLLMUL */
        pllclk = (uint32_t)((HSI_VALUE >> 1) * pllmul);
 8003130:	687b      	ldr	r3, [r7, #4]
 8003132:	4a0c      	ldr	r2, [pc, #48]	@ (8003164 <HAL_RCC_GetSysClockFreq+0xa4>)
 8003134:	fb02 f303 	mul.w	r3, r2, r3
 8003138:	617b      	str	r3, [r7, #20]
      }
      sysclockfreq = pllclk;
 800313a:	697b      	ldr	r3, [r7, #20]
 800313c:	613b      	str	r3, [r7, #16]
      break;
 800313e:	e002      	b.n	8003146 <HAL_RCC_GetSysClockFreq+0x86>
    }
    case RCC_SYSCLKSOURCE_STATUS_HSI:  /* HSI used as system clock source */
    default: /* HSI used as system clock */
    {
      sysclockfreq = HSI_VALUE;
 8003140:	4b05      	ldr	r3, [pc, #20]	@ (8003158 <HAL_RCC_GetSysClockFreq+0x98>)
 8003142:	613b      	str	r3, [r7, #16]
      break;
 8003144:	bf00      	nop
    }
  }
  return sysclockfreq;
 8003146:	693b      	ldr	r3, [r7, #16]
}
 8003148:	4618      	mov	r0, r3
 800314a:	371c      	adds	r7, #28
 800314c:	46bd      	mov	sp, r7
 800314e:	bc80      	pop	{r7}
 8003150:	4770      	bx	lr
 8003152:	bf00      	nop
 8003154:	40021000 	.word	0x40021000
 8003158:	007a1200 	.word	0x007a1200
 800315c:	08004318 	.word	0x08004318
 8003160:	08004328 	.word	0x08004328
 8003164:	003d0900 	.word	0x003d0900

08003168 <HAL_RCC_GetHCLKFreq>:
  * @note   The SystemCoreClock CMSIS variable is used to store System Clock Frequency
  *         and updated within this function
  * @retval HCLK frequency
  */
uint32_t HAL_RCC_GetHCLKFreq(void)
{
 8003168:	b480      	push	{r7}
 800316a:	af00      	add	r7, sp, #0
  return SystemCoreClock;
 800316c:	4b02      	ldr	r3, [pc, #8]	@ (8003178 <HAL_RCC_GetHCLKFreq+0x10>)
 800316e:	681b      	ldr	r3, [r3, #0]
}
 8003170:	4618      	mov	r0, r3
 8003172:	46bd      	mov	sp, r7
 8003174:	bc80      	pop	{r7}
 8003176:	4770      	bx	lr
 8003178:	20000000 	.word	0x20000000

0800317c <HAL_RCC_GetPCLK1Freq>:
  * @note   Each time PCLK1 changes, this function must be called to update the
  *         right PCLK1 value. Otherwise, any configuration based on this function will be incorrect.
  * @retval PCLK1 frequency
  */
uint32_t HAL_RCC_GetPCLK1Freq(void)
{
 800317c:	b580      	push	{r7, lr}
 800317e:	af00      	add	r7, sp, #0
  /* Get HCLK source and Compute PCLK1 frequency ---------------------------*/
  return (HAL_RCC_GetHCLKFreq() >> APBPrescTable[(RCC->CFGR & RCC_CFGR_PPRE1) >> RCC_CFGR_PPRE1_Pos]);
 8003180:	f7ff fff2 	bl	8003168 <HAL_RCC_GetHCLKFreq>
 8003184:	4602      	mov	r2, r0
 8003186:	4b05      	ldr	r3, [pc, #20]	@ (800319c <HAL_RCC_GetPCLK1Freq+0x20>)
 8003188:	685b      	ldr	r3, [r3, #4]
 800318a:	0a1b      	lsrs	r3, r3, #8
 800318c:	f003 0307 	and.w	r3, r3, #7
 8003190:	4903      	ldr	r1, [pc, #12]	@ (80031a0 <HAL_RCC_GetPCLK1Freq+0x24>)
 8003192:	5ccb      	ldrb	r3, [r1, r3]
 8003194:	fa22 f303 	lsr.w	r3, r2, r3
}
 8003198:	4618      	mov	r0, r3
 800319a:	bd80      	pop	{r7, pc}
 800319c:	40021000 	.word	0x40021000
 80031a0:	08004310 	.word	0x08004310

080031a4 <HAL_RCC_GetPCLK2Freq>:
  * @note   Each time PCLK2 changes, this function must be called to update the
  *         right PCLK2 value. Otherwise, any configuration based on this function will be incorrect.
  * @retval PCLK2 frequency
  */
uint32_t HAL_RCC_GetPCLK2Freq(void)
{
 80031a4:	b580      	push	{r7, lr}
 80031a6:	af00      	add	r7, sp, #0
  /* Get HCLK source and Compute PCLK2 frequency ---------------------------*/
  return (HAL_RCC_GetHCLKFreq() >> APBPrescTable[(RCC->CFGR & RCC_CFGR_PPRE2) >> RCC_CFGR_PPRE2_Pos]);
 80031a8:	f7ff ffde 	bl	8003168 <HAL_RCC_GetHCLKFreq>
 80031ac:	4602      	mov	r2, r0
 80031ae:	4b05      	ldr	r3, [pc, #20]	@ (80031c4 <HAL_RCC_GetPCLK2Freq+0x20>)
 80031b0:	685b      	ldr	r3, [r3, #4]
 80031b2:	0adb      	lsrs	r3, r3, #11
 80031b4:	f003 0307 	and.w	r3, r3, #7
 80031b8:	4903      	ldr	r1, [pc, #12]	@ (80031c8 <HAL_RCC_GetPCLK2Freq+0x24>)
 80031ba:	5ccb      	ldrb	r3, [r1, r3]
 80031bc:	fa22 f303 	lsr.w	r3, r2, r3
}
 80031c0:	4618      	mov	r0, r3
 80031c2:	bd80      	pop	{r7, pc}
 80031c4:	40021000 	.word	0x40021000
 80031c8:	08004310 	.word	0x08004310

080031cc <RCC_Delay>:
  * @brief  This function provides delay (in milliseconds) based on CPU cycles method.
  * @param  mdelay: specifies the delay time length, in milliseconds.
  * @retval None
  */
static void RCC_Delay(uint32_t mdelay)
{
 80031cc:	b480      	push	{r7}
 80031ce:	b085      	sub	sp, #20
 80031d0:	af00      	add	r7, sp, #0
 80031d2:	6078      	str	r0, [r7, #4]
  __IO uint32_t Delay = mdelay * (SystemCoreClock / 8U / 1000U);
 80031d4:	4b0a      	ldr	r3, [pc, #40]	@ (8003200 <RCC_Delay+0x34>)
 80031d6:	681b      	ldr	r3, [r3, #0]
 80031d8:	4a0a      	ldr	r2, [pc, #40]	@ (8003204 <RCC_Delay+0x38>)
 80031da:	fba2 2303 	umull	r2, r3, r2, r3
 80031de:	0a5b      	lsrs	r3, r3, #9
 80031e0:	687a      	ldr	r2, [r7, #4]
 80031e2:	fb02 f303 	mul.w	r3, r2, r3
 80031e6:	60fb      	str	r3, [r7, #12]
  do
  {
    __NOP();
 80031e8:	bf00      	nop
  }
  while (Delay --);
 80031ea:	68fb      	ldr	r3, [r7, #12]
 80031ec:	1e5a      	subs	r2, r3, #1
 80031ee:	60fa      	str	r2, [r7, #12]
 80031f0:	2b00      	cmp	r3, #0
 80031f2:	d1f9      	bne.n	80031e8 <RCC_Delay+0x1c>
}
 80031f4:	bf00      	nop
 80031f6:	bf00      	nop
 80031f8:	3714      	adds	r7, #20
 80031fa:	46bd      	mov	sp, r7
 80031fc:	bc80      	pop	{r7}
 80031fe:	4770      	bx	lr
 8003200:	20000000 	.word	0x20000000
 8003204:	10624dd3 	.word	0x10624dd3

08003208 <HAL_TIM_Base_Init>:
  *         Ex: call @ref HAL_TIM_Base_DeInit() before HAL_TIM_Base_Init()
  * @param  htim TIM Base handle
  * @retval HAL status
  */
HAL_StatusTypeDef HAL_TIM_Base_Init(TIM_HandleTypeDef *htim)
{
 8003208:	b580      	push	{r7, lr}
 800320a:	b082      	sub	sp, #8
 800320c:	af00      	add	r7, sp, #0
 800320e:	6078      	str	r0, [r7, #4]
  /* Check the TIM handle allocation */
  if (htim == NULL)
 8003210:	687b      	ldr	r3, [r7, #4]
 8003212:	2b00      	cmp	r3, #0
 8003214:	d101      	bne.n	800321a <HAL_TIM_Base_Init+0x12>
  {
    return HAL_ERROR;
 8003216:	2301      	movs	r3, #1
 8003218:	e041      	b.n	800329e <HAL_TIM_Base_Init+0x96>
  assert_param(IS_TIM_COUNTER_MODE(htim->Init.CounterMode));
  assert_param(IS_TIM_CLOCKDIVISION_DIV(htim->Init.ClockDivision));
  assert_param(IS_TIM_PERIOD(htim->Init.Period));
  assert_param(IS_TIM_AUTORELOAD_PRELOAD(htim->Init.AutoReloadPreload));

  if (htim->State == HAL_TIM_STATE_RESET)
 800321a:	687b      	ldr	r3, [r7, #4]
 800321c:	f893 303d 	ldrb.w	r3, [r3, #61]	@ 0x3d
 8003220:	b2db      	uxtb	r3, r3
 8003222:	2b00      	cmp	r3, #0
 8003224:	d106      	bne.n	8003234 <HAL_TIM_Base_Init+0x2c>
  {
    /* Allocate lock resource and initialize it */
    htim->Lock = HAL_UNLOCKED;
 8003226:	687b      	ldr	r3, [r7, #4]
 8003228:	2200      	movs	r2, #0
 800322a:	f883 203c 	strb.w	r2, [r3, #60]	@ 0x3c
    }
    /* Init the low level hardware : GPIO, CLOCK, NVIC */
    htim->Base_MspInitCallback(htim);
#else
    /* Init the low level hardware : GPIO, CLOCK, NVIC */
    HAL_TIM_Base_MspInit(htim);
 800322e:	6878      	ldr	r0, [r7, #4]
 8003230:	f7fd ff08 	bl	8001044 <HAL_TIM_Base_MspInit>
#endif /* USE_HAL_TIM_REGISTER_CALLBACKS */
  }

  /* Set the TIM state */
  htim->State = HAL_TIM_STATE_BUSY;
 8003234:	687b      	ldr	r3, [r7, #4]
 8003236:	2202      	movs	r2, #2
 8003238:	f883 203d 	strb.w	r2, [r3, #61]	@ 0x3d

  /* Set the Time Base configuration */
  TIM_Base_SetConfig(htim->Instance, &htim->Init);
 800323c:	687b      	ldr	r3, [r7, #4]
 800323e:	681a      	ldr	r2, [r3, #0]
 8003240:	687b      	ldr	r3, [r7, #4]
 8003242:	3304      	adds	r3, #4
 8003244:	4619      	mov	r1, r3
 8003246:	4610      	mov	r0, r2
 8003248:	f000 fc30 	bl	8003aac <TIM_Base_SetConfig>

  /* Initialize the DMA burst operation state */
  htim->DMABurstState = HAL_DMA_BURST_STATE_READY;
 800324c:	687b      	ldr	r3, [r7, #4]
 800324e:	2201      	movs	r2, #1
 8003250:	f883 2046 	strb.w	r2, [r3, #70]	@ 0x46

  /* Initialize the TIM channels state */
  TIM_CHANNEL_STATE_SET_ALL(htim, HAL_TIM_CHANNEL_STATE_READY);
 8003254:	687b      	ldr	r3, [r7, #4]
 8003256:	2201      	movs	r2, #1
 8003258:	f883 203e 	strb.w	r2, [r3, #62]	@ 0x3e
 800325c:	687b      	ldr	r3, [r7, #4]
 800325e:	2201      	movs	r2, #1
 8003260:	f883 203f 	strb.w	r2, [r3, #63]	@ 0x3f
 8003264:	687b      	ldr	r3, [r7, #4]
 8003266:	2201      	movs	r2, #1
 8003268:	f883 2040 	strb.w	r2, [r3, #64]	@ 0x40
 800326c:	687b      	ldr	r3, [r7, #4]
 800326e:	2201      	movs	r2, #1
 8003270:	f883 2041 	strb.w	r2, [r3, #65]	@ 0x41
  TIM_CHANNEL_N_STATE_SET_ALL(htim, HAL_TIM_CHANNEL_STATE_READY);
 8003274:	687b      	ldr	r3, [r7, #4]
 8003276:	2201      	movs	r2, #1
 8003278:	f883 2042 	strb.w	r2, [r3, #66]	@ 0x42
 800327c:	687b      	ldr	r3, [r7, #4]
 800327e:	2201      	movs	r2, #1
 8003280:	f883 2043 	strb.w	r2, [r3, #67]	@ 0x43
 8003284:	687b      	ldr	r3, [r7, #4]
 8003286:	2201      	movs	r2, #1
 8003288:	f883 2044 	strb.w	r2, [r3, #68]	@ 0x44
 800328c:	687b      	ldr	r3, [r7, #4]
 800328e:	2201      	movs	r2, #1
 8003290:	f883 2045 	strb.w	r2, [r3, #69]	@ 0x45

  /* Initialize the TIM state*/
  htim->State = HAL_TIM_STATE_READY;
 8003294:	687b      	ldr	r3, [r7, #4]
 8003296:	2201      	movs	r2, #1
 8003298:	f883 203d 	strb.w	r2, [r3, #61]	@ 0x3d

  return HAL_OK;
 800329c:	2300      	movs	r3, #0
}
 800329e:	4618      	mov	r0, r3
 80032a0:	3708      	adds	r7, #8
 80032a2:	46bd      	mov	sp, r7
 80032a4:	bd80      	pop	{r7, pc}
	...

080032a8 <HAL_TIM_Base_Start_IT>:
  * @brief  Starts the TIM Base generation in interrupt mode.
  * @param  htim TIM Base handle
  * @retval HAL status
  */
HAL_StatusTypeDef HAL_TIM_Base_Start_IT(TIM_HandleTypeDef *htim)
{
 80032a8:	b480      	push	{r7}
 80032aa:	b085      	sub	sp, #20
 80032ac:	af00      	add	r7, sp, #0
 80032ae:	6078      	str	r0, [r7, #4]

  /* Check the parameters */
  assert_param(IS_TIM_INSTANCE(htim->Instance));

  /* Check the TIM state */
  if (htim->State != HAL_TIM_STATE_READY)
 80032b0:	687b      	ldr	r3, [r7, #4]
 80032b2:	f893 303d 	ldrb.w	r3, [r3, #61]	@ 0x3d
 80032b6:	b2db      	uxtb	r3, r3
 80032b8:	2b01      	cmp	r3, #1
 80032ba:	d001      	beq.n	80032c0 <HAL_TIM_Base_Start_IT+0x18>
  {
    return HAL_ERROR;
 80032bc:	2301      	movs	r3, #1
 80032be:	e03a      	b.n	8003336 <HAL_TIM_Base_Start_IT+0x8e>
  }

  /* Set the TIM state */
  htim->State = HAL_TIM_STATE_BUSY;
 80032c0:	687b      	ldr	r3, [r7, #4]
 80032c2:	2202      	movs	r2, #2
 80032c4:	f883 203d 	strb.w	r2, [r3, #61]	@ 0x3d

  /* Enable the TIM Update interrupt */
  __HAL_TIM_ENABLE_IT(htim, TIM_IT_UPDATE);
 80032c8:	687b      	ldr	r3, [r7, #4]
 80032ca:	681b      	ldr	r3, [r3, #0]
 80032cc:	68da      	ldr	r2, [r3, #12]
 80032ce:	687b      	ldr	r3, [r7, #4]
 80032d0:	681b      	ldr	r3, [r3, #0]
 80032d2:	f042 0201 	orr.w	r2, r2, #1
 80032d6:	60da      	str	r2, [r3, #12]

  /* Enable the Peripheral, except in trigger mode where enable is automatically done with trigger */
  if (IS_TIM_SLAVE_INSTANCE(htim->Instance))
 80032d8:	687b      	ldr	r3, [r7, #4]
 80032da:	681b      	ldr	r3, [r3, #0]
 80032dc:	4a18      	ldr	r2, [pc, #96]	@ (8003340 <HAL_TIM_Base_Start_IT+0x98>)
 80032de:	4293      	cmp	r3, r2
 80032e0:	d00e      	beq.n	8003300 <HAL_TIM_Base_Start_IT+0x58>
 80032e2:	687b      	ldr	r3, [r7, #4]
 80032e4:	681b      	ldr	r3, [r3, #0]
 80032e6:	f1b3 4f80 	cmp.w	r3, #1073741824	@ 0x40000000
 80032ea:	d009      	beq.n	8003300 <HAL_TIM_Base_Start_IT+0x58>
 80032ec:	687b      	ldr	r3, [r7, #4]
 80032ee:	681b      	ldr	r3, [r3, #0]
 80032f0:	4a14      	ldr	r2, [pc, #80]	@ (8003344 <HAL_TIM_Base_Start_IT+0x9c>)
 80032f2:	4293      	cmp	r3, r2
 80032f4:	d004      	beq.n	8003300 <HAL_TIM_Base_Start_IT+0x58>
 80032f6:	687b      	ldr	r3, [r7, #4]
 80032f8:	681b      	ldr	r3, [r3, #0]
 80032fa:	4a13      	ldr	r2, [pc, #76]	@ (8003348 <HAL_TIM_Base_Start_IT+0xa0>)
 80032fc:	4293      	cmp	r3, r2
 80032fe:	d111      	bne.n	8003324 <HAL_TIM_Base_Start_IT+0x7c>
  {
    tmpsmcr = htim->Instance->SMCR & TIM_SMCR_SMS;
 8003300:	687b      	ldr	r3, [r7, #4]
 8003302:	681b      	ldr	r3, [r3, #0]
 8003304:	689b      	ldr	r3, [r3, #8]
 8003306:	f003 0307 	and.w	r3, r3, #7
 800330a:	60fb      	str	r3, [r7, #12]
    if (!IS_TIM_SLAVEMODE_TRIGGER_ENABLED(tmpsmcr))
 800330c:	68fb      	ldr	r3, [r7, #12]
 800330e:	2b06      	cmp	r3, #6
 8003310:	d010      	beq.n	8003334 <HAL_TIM_Base_Start_IT+0x8c>
    {
      __HAL_TIM_ENABLE(htim);
 8003312:	687b      	ldr	r3, [r7, #4]
 8003314:	681b      	ldr	r3, [r3, #0]
 8003316:	681a      	ldr	r2, [r3, #0]
 8003318:	687b      	ldr	r3, [r7, #4]
 800331a:	681b      	ldr	r3, [r3, #0]
 800331c:	f042 0201 	orr.w	r2, r2, #1
 8003320:	601a      	str	r2, [r3, #0]
    if (!IS_TIM_SLAVEMODE_TRIGGER_ENABLED(tmpsmcr))
 8003322:	e007      	b.n	8003334 <HAL_TIM_Base_Start_IT+0x8c>
    }
  }
  else
  {
    __HAL_TIM_ENABLE(htim);
 8003324:	687b      	ldr	r3, [r7, #4]
 8003326:	681b      	ldr	r3, [r3, #0]
 8003328:	681a      	ldr	r2, [r3, #0]
 800332a:	687b      	ldr	r3, [r7, #4]
 800332c:	681b      	ldr	r3, [r3, #0]
 800332e:	f042 0201 	orr.w	r2, r2, #1
 8003332:	601a      	str	r2, [r3, #0]
  }

  /* Return function status */
  return HAL_OK;
 8003334:	2300      	movs	r3, #0
}
 8003336:	4618      	mov	r0, r3
 8003338:	3714      	adds	r7, #20
 800333a:	46bd      	mov	sp, r7
 800333c:	bc80      	pop	{r7}
 800333e:	4770      	bx	lr
 8003340:	40012c00 	.word	0x40012c00
 8003344:	40000400 	.word	0x40000400
 8003348:	40000800 	.word	0x40000800

0800334c <HAL_TIM_PWM_Init>:
  *         Ex: call @ref HAL_TIM_PWM_DeInit() before HAL_TIM_PWM_Init()
  * @param  htim TIM PWM handle
  * @retval HAL status
  */
HAL_StatusTypeDef HAL_TIM_PWM_Init(TIM_HandleTypeDef *htim)
{
 800334c:	b580      	push	{r7, lr}
 800334e:	b082      	sub	sp, #8
 8003350:	af00      	add	r7, sp, #0
 8003352:	6078      	str	r0, [r7, #4]
  /* Check the TIM handle allocation */
  if (htim == NULL)
 8003354:	687b      	ldr	r3, [r7, #4]
 8003356:	2b00      	cmp	r3, #0
 8003358:	d101      	bne.n	800335e <HAL_TIM_PWM_Init+0x12>
  {
    return HAL_ERROR;
 800335a:	2301      	movs	r3, #1
 800335c:	e041      	b.n	80033e2 <HAL_TIM_PWM_Init+0x96>
  assert_param(IS_TIM_COUNTER_MODE(htim->Init.CounterMode));
  assert_param(IS_TIM_CLOCKDIVISION_DIV(htim->Init.ClockDivision));
  assert_param(IS_TIM_PERIOD(htim->Init.Period));
  assert_param(IS_TIM_AUTORELOAD_PRELOAD(htim->Init.AutoReloadPreload));

  if (htim->State == HAL_TIM_STATE_RESET)
 800335e:	687b      	ldr	r3, [r7, #4]
 8003360:	f893 303d 	ldrb.w	r3, [r3, #61]	@ 0x3d
 8003364:	b2db      	uxtb	r3, r3
 8003366:	2b00      	cmp	r3, #0
 8003368:	d106      	bne.n	8003378 <HAL_TIM_PWM_Init+0x2c>
  {
    /* Allocate lock resource and initialize it */
    htim->Lock = HAL_UNLOCKED;
 800336a:	687b      	ldr	r3, [r7, #4]
 800336c:	2200      	movs	r2, #0
 800336e:	f883 203c 	strb.w	r2, [r3, #60]	@ 0x3c
    }
    /* Init the low level hardware : GPIO, CLOCK, NVIC */
    htim->PWM_MspInitCallback(htim);
#else
    /* Init the low level hardware : GPIO, CLOCK, NVIC and DMA */
    HAL_TIM_PWM_MspInit(htim);
 8003372:	6878      	ldr	r0, [r7, #4]
 8003374:	f7fd fe8c 	bl	8001090 <HAL_TIM_PWM_MspInit>
#endif /* USE_HAL_TIM_REGISTER_CALLBACKS */
  }

  /* Set the TIM state */
  htim->State = HAL_TIM_STATE_BUSY;
 8003378:	687b      	ldr	r3, [r7, #4]
 800337a:	2202      	movs	r2, #2
 800337c:	f883 203d 	strb.w	r2, [r3, #61]	@ 0x3d

  /* Init the base time for the PWM */
  TIM_Base_SetConfig(htim->Instance, &htim->Init);
 8003380:	687b      	ldr	r3, [r7, #4]
 8003382:	681a      	ldr	r2, [r3, #0]
 8003384:	687b      	ldr	r3, [r7, #4]
 8003386:	3304      	adds	r3, #4
 8003388:	4619      	mov	r1, r3
 800338a:	4610      	mov	r0, r2
 800338c:	f000 fb8e 	bl	8003aac <TIM_Base_SetConfig>

  /* Initialize the DMA burst operation state */
  htim->DMABurstState = HAL_DMA_BURST_STATE_READY;
 8003390:	687b      	ldr	r3, [r7, #4]
 8003392:	2201      	movs	r2, #1
 8003394:	f883 2046 	strb.w	r2, [r3, #70]	@ 0x46

  /* Initialize the TIM channels state */
  TIM_CHANNEL_STATE_SET_ALL(htim, HAL_TIM_CHANNEL_STATE_READY);
 8003398:	687b      	ldr	r3, [r7, #4]
 800339a:	2201      	movs	r2, #1
 800339c:	f883 203e 	strb.w	r2, [r3, #62]	@ 0x3e
 80033a0:	687b      	ldr	r3, [r7, #4]
 80033a2:	2201      	movs	r2, #1
 80033a4:	f883 203f 	strb.w	r2, [r3, #63]	@ 0x3f
 80033a8:	687b      	ldr	r3, [r7, #4]
 80033aa:	2201      	movs	r2, #1
 80033ac:	f883 2040 	strb.w	r2, [r3, #64]	@ 0x40
 80033b0:	687b      	ldr	r3, [r7, #4]
 80033b2:	2201      	movs	r2, #1
 80033b4:	f883 2041 	strb.w	r2, [r3, #65]	@ 0x41
  TIM_CHANNEL_N_STATE_SET_ALL(htim, HAL_TIM_CHANNEL_STATE_READY);
 80033b8:	687b      	ldr	r3, [r7, #4]
 80033ba:	2201      	movs	r2, #1
 80033bc:	f883 2042 	strb.w	r2, [r3, #66]	@ 0x42
 80033c0:	687b      	ldr	r3, [r7, #4]
 80033c2:	2201      	movs	r2, #1
 80033c4:	f883 2043 	strb.w	r2, [r3, #67]	@ 0x43
 80033c8:	687b      	ldr	r3, [r7, #4]
 80033ca:	2201      	movs	r2, #1
 80033cc:	f883 2044 	strb.w	r2, [r3, #68]	@ 0x44
 80033d0:	687b      	ldr	r3, [r7, #4]
 80033d2:	2201      	movs	r2, #1
 80033d4:	f883 2045 	strb.w	r2, [r3, #69]	@ 0x45

  /* Initialize the TIM state*/
  htim->State = HAL_TIM_STATE_READY;
 80033d8:	687b      	ldr	r3, [r7, #4]
 80033da:	2201      	movs	r2, #1
 80033dc:	f883 203d 	strb.w	r2, [r3, #61]	@ 0x3d

  return HAL_OK;
 80033e0:	2300      	movs	r3, #0
}
 80033e2:	4618      	mov	r0, r3
 80033e4:	3708      	adds	r7, #8
 80033e6:	46bd      	mov	sp, r7
 80033e8:	bd80      	pop	{r7, pc}
	...

080033ec <HAL_TIM_PWM_Start>:
  *            @arg TIM_CHANNEL_3: TIM Channel 3 selected
  *            @arg TIM_CHANNEL_4: TIM Channel 4 selected
  * @retval HAL status
  */
HAL_StatusTypeDef HAL_TIM_PWM_Start(TIM_HandleTypeDef *htim, uint32_t Channel)
{
 80033ec:	b580      	push	{r7, lr}
 80033ee:	b084      	sub	sp, #16
 80033f0:	af00      	add	r7, sp, #0
 80033f2:	6078      	str	r0, [r7, #4]
 80033f4:	6039      	str	r1, [r7, #0]

  /* Check the parameters */
  assert_param(IS_TIM_CCX_INSTANCE(htim->Instance, Channel));

  /* Check the TIM channel state */
  if (TIM_CHANNEL_STATE_GET(htim, Channel) != HAL_TIM_CHANNEL_STATE_READY)
 80033f6:	683b      	ldr	r3, [r7, #0]
 80033f8:	2b00      	cmp	r3, #0
 80033fa:	d109      	bne.n	8003410 <HAL_TIM_PWM_Start+0x24>
 80033fc:	687b      	ldr	r3, [r7, #4]
 80033fe:	f893 303e 	ldrb.w	r3, [r3, #62]	@ 0x3e
 8003402:	b2db      	uxtb	r3, r3
 8003404:	2b01      	cmp	r3, #1
 8003406:	bf14      	ite	ne
 8003408:	2301      	movne	r3, #1
 800340a:	2300      	moveq	r3, #0
 800340c:	b2db      	uxtb	r3, r3
 800340e:	e022      	b.n	8003456 <HAL_TIM_PWM_Start+0x6a>
 8003410:	683b      	ldr	r3, [r7, #0]
 8003412:	2b04      	cmp	r3, #4
 8003414:	d109      	bne.n	800342a <HAL_TIM_PWM_Start+0x3e>
 8003416:	687b      	ldr	r3, [r7, #4]
 8003418:	f893 303f 	ldrb.w	r3, [r3, #63]	@ 0x3f
 800341c:	b2db      	uxtb	r3, r3
 800341e:	2b01      	cmp	r3, #1
 8003420:	bf14      	ite	ne
 8003422:	2301      	movne	r3, #1
 8003424:	2300      	moveq	r3, #0
 8003426:	b2db      	uxtb	r3, r3
 8003428:	e015      	b.n	8003456 <HAL_TIM_PWM_Start+0x6a>
 800342a:	683b      	ldr	r3, [r7, #0]
 800342c:	2b08      	cmp	r3, #8
 800342e:	d109      	bne.n	8003444 <HAL_TIM_PWM_Start+0x58>
 8003430:	687b      	ldr	r3, [r7, #4]
 8003432:	f893 3040 	ldrb.w	r3, [r3, #64]	@ 0x40
 8003436:	b2db      	uxtb	r3, r3
 8003438:	2b01      	cmp	r3, #1
 800343a:	bf14      	ite	ne
 800343c:	2301      	movne	r3, #1
 800343e:	2300      	moveq	r3, #0
 8003440:	b2db      	uxtb	r3, r3
 8003442:	e008      	b.n	8003456 <HAL_TIM_PWM_Start+0x6a>
 8003444:	687b      	ldr	r3, [r7, #4]
 8003446:	f893 3041 	ldrb.w	r3, [r3, #65]	@ 0x41
 800344a:	b2db      	uxtb	r3, r3
 800344c:	2b01      	cmp	r3, #1
 800344e:	bf14      	ite	ne
 8003450:	2301      	movne	r3, #1
 8003452:	2300      	moveq	r3, #0
 8003454:	b2db      	uxtb	r3, r3
 8003456:	2b00      	cmp	r3, #0
 8003458:	d001      	beq.n	800345e <HAL_TIM_PWM_Start+0x72>
  {
    return HAL_ERROR;
 800345a:	2301      	movs	r3, #1
 800345c:	e05e      	b.n	800351c <HAL_TIM_PWM_Start+0x130>
  }

  /* Set the TIM channel state */
  TIM_CHANNEL_STATE_SET(htim, Channel, HAL_TIM_CHANNEL_STATE_BUSY);
 800345e:	683b      	ldr	r3, [r7, #0]
 8003460:	2b00      	cmp	r3, #0
 8003462:	d104      	bne.n	800346e <HAL_TIM_PWM_Start+0x82>
 8003464:	687b      	ldr	r3, [r7, #4]
 8003466:	2202      	movs	r2, #2
 8003468:	f883 203e 	strb.w	r2, [r3, #62]	@ 0x3e
 800346c:	e013      	b.n	8003496 <HAL_TIM_PWM_Start+0xaa>
 800346e:	683b      	ldr	r3, [r7, #0]
 8003470:	2b04      	cmp	r3, #4
 8003472:	d104      	bne.n	800347e <HAL_TIM_PWM_Start+0x92>
 8003474:	687b      	ldr	r3, [r7, #4]
 8003476:	2202      	movs	r2, #2
 8003478:	f883 203f 	strb.w	r2, [r3, #63]	@ 0x3f
 800347c:	e00b      	b.n	8003496 <HAL_TIM_PWM_Start+0xaa>
 800347e:	683b      	ldr	r3, [r7, #0]
 8003480:	2b08      	cmp	r3, #8
 8003482:	d104      	bne.n	800348e <HAL_TIM_PWM_Start+0xa2>
 8003484:	687b      	ldr	r3, [r7, #4]
 8003486:	2202      	movs	r2, #2
 8003488:	f883 2040 	strb.w	r2, [r3, #64]	@ 0x40
 800348c:	e003      	b.n	8003496 <HAL_TIM_PWM_Start+0xaa>
 800348e:	687b      	ldr	r3, [r7, #4]
 8003490:	2202      	movs	r2, #2
 8003492:	f883 2041 	strb.w	r2, [r3, #65]	@ 0x41

  /* Enable the Capture compare channel */
  TIM_CCxChannelCmd(htim->Instance, Channel, TIM_CCx_ENABLE);
 8003496:	687b      	ldr	r3, [r7, #4]
 8003498:	681b      	ldr	r3, [r3, #0]
 800349a:	2201      	movs	r2, #1
 800349c:	6839      	ldr	r1, [r7, #0]
 800349e:	4618      	mov	r0, r3
 80034a0:	f000 fd84 	bl	8003fac <TIM_CCxChannelCmd>

  if (IS_TIM_BREAK_INSTANCE(htim->Instance) != RESET)
 80034a4:	687b      	ldr	r3, [r7, #4]
 80034a6:	681b      	ldr	r3, [r3, #0]
 80034a8:	4a1e      	ldr	r2, [pc, #120]	@ (8003524 <HAL_TIM_PWM_Start+0x138>)
 80034aa:	4293      	cmp	r3, r2
 80034ac:	d107      	bne.n	80034be <HAL_TIM_PWM_Start+0xd2>
  {
    /* Enable the main output */
    __HAL_TIM_MOE_ENABLE(htim);
 80034ae:	687b      	ldr	r3, [r7, #4]
 80034b0:	681b      	ldr	r3, [r3, #0]
 80034b2:	6c5a      	ldr	r2, [r3, #68]	@ 0x44
 80034b4:	687b      	ldr	r3, [r7, #4]
 80034b6:	681b      	ldr	r3, [r3, #0]
 80034b8:	f442 4200 	orr.w	r2, r2, #32768	@ 0x8000
 80034bc:	645a      	str	r2, [r3, #68]	@ 0x44
  }

  /* Enable the Peripheral, except in trigger mode where enable is automatically done with trigger */
  if (IS_TIM_SLAVE_INSTANCE(htim->Instance))
 80034be:	687b      	ldr	r3, [r7, #4]
 80034c0:	681b      	ldr	r3, [r3, #0]
 80034c2:	4a18      	ldr	r2, [pc, #96]	@ (8003524 <HAL_TIM_PWM_Start+0x138>)
 80034c4:	4293      	cmp	r3, r2
 80034c6:	d00e      	beq.n	80034e6 <HAL_TIM_PWM_Start+0xfa>
 80034c8:	687b      	ldr	r3, [r7, #4]
 80034ca:	681b      	ldr	r3, [r3, #0]
 80034cc:	f1b3 4f80 	cmp.w	r3, #1073741824	@ 0x40000000
 80034d0:	d009      	beq.n	80034e6 <HAL_TIM_PWM_Start+0xfa>
 80034d2:	687b      	ldr	r3, [r7, #4]
 80034d4:	681b      	ldr	r3, [r3, #0]
 80034d6:	4a14      	ldr	r2, [pc, #80]	@ (8003528 <HAL_TIM_PWM_Start+0x13c>)
 80034d8:	4293      	cmp	r3, r2
 80034da:	d004      	beq.n	80034e6 <HAL_TIM_PWM_Start+0xfa>
 80034dc:	687b      	ldr	r3, [r7, #4]
 80034de:	681b      	ldr	r3, [r3, #0]
 80034e0:	4a12      	ldr	r2, [pc, #72]	@ (800352c <HAL_TIM_PWM_Start+0x140>)
 80034e2:	4293      	cmp	r3, r2
 80034e4:	d111      	bne.n	800350a <HAL_TIM_PWM_Start+0x11e>
  {
    tmpsmcr = htim->Instance->SMCR & TIM_SMCR_SMS;
 80034e6:	687b      	ldr	r3, [r7, #4]
 80034e8:	681b      	ldr	r3, [r3, #0]
 80034ea:	689b      	ldr	r3, [r3, #8]
 80034ec:	f003 0307 	and.w	r3, r3, #7
 80034f0:	60fb      	str	r3, [r7, #12]
    if (!IS_TIM_SLAVEMODE_TRIGGER_ENABLED(tmpsmcr))
 80034f2:	68fb      	ldr	r3, [r7, #12]
 80034f4:	2b06      	cmp	r3, #6
 80034f6:	d010      	beq.n	800351a <HAL_TIM_PWM_Start+0x12e>
    {
      __HAL_TIM_ENABLE(htim);
 80034f8:	687b      	ldr	r3, [r7, #4]
 80034fa:	681b      	ldr	r3, [r3, #0]
 80034fc:	681a      	ldr	r2, [r3, #0]
 80034fe:	687b      	ldr	r3, [r7, #4]
 8003500:	681b      	ldr	r3, [r3, #0]
 8003502:	f042 0201 	orr.w	r2, r2, #1
 8003506:	601a      	str	r2, [r3, #0]
    if (!IS_TIM_SLAVEMODE_TRIGGER_ENABLED(tmpsmcr))
 8003508:	e007      	b.n	800351a <HAL_TIM_PWM_Start+0x12e>
    }
  }
  else
  {
    __HAL_TIM_ENABLE(htim);
 800350a:	687b      	ldr	r3, [r7, #4]
 800350c:	681b      	ldr	r3, [r3, #0]
 800350e:	681a      	ldr	r2, [r3, #0]
 8003510:	687b      	ldr	r3, [r7, #4]
 8003512:	681b      	ldr	r3, [r3, #0]
 8003514:	f042 0201 	orr.w	r2, r2, #1
 8003518:	601a      	str	r2, [r3, #0]
  }

  /* Return function status */
  return HAL_OK;
 800351a:	2300      	movs	r3, #0
}
 800351c:	4618      	mov	r0, r3
 800351e:	3710      	adds	r7, #16
 8003520:	46bd      	mov	sp, r7
 8003522:	bd80      	pop	{r7, pc}
 8003524:	40012c00 	.word	0x40012c00
 8003528:	40000400 	.word	0x40000400
 800352c:	40000800 	.word	0x40000800

08003530 <HAL_TIM_IRQHandler>:
  * @brief  This function handles TIM interrupts requests.
  * @param  htim TIM  handle
  * @retval None
  */
void HAL_TIM_IRQHandler(TIM_HandleTypeDef *htim)
{
 8003530:	b580      	push	{r7, lr}
 8003532:	b082      	sub	sp, #8
 8003534:	af00      	add	r7, sp, #0
 8003536:	6078      	str	r0, [r7, #4]
  /* Capture compare 1 event */
  if (__HAL_TIM_GET_FLAG(htim, TIM_FLAG_CC1) != RESET)
 8003538:	687b      	ldr	r3, [r7, #4]
 800353a:	681b      	ldr	r3, [r3, #0]
 800353c:	691b      	ldr	r3, [r3, #16]
 800353e:	f003 0302 	and.w	r3, r3, #2
 8003542:	2b02      	cmp	r3, #2
 8003544:	d122      	bne.n	800358c <HAL_TIM_IRQHandler+0x5c>
  {
    if (__HAL_TIM_GET_IT_SOURCE(htim, TIM_IT_CC1) != RESET)
 8003546:	687b      	ldr	r3, [r7, #4]
 8003548:	681b      	ldr	r3, [r3, #0]
 800354a:	68db      	ldr	r3, [r3, #12]
 800354c:	f003 0302 	and.w	r3, r3, #2
 8003550:	2b02      	cmp	r3, #2
 8003552:	d11b      	bne.n	800358c <HAL_TIM_IRQHandler+0x5c>
    {
      {
        __HAL_TIM_CLEAR_IT(htim, TIM_IT_CC1);
 8003554:	687b      	ldr	r3, [r7, #4]
 8003556:	681b      	ldr	r3, [r3, #0]
 8003558:	f06f 0202 	mvn.w	r2, #2
 800355c:	611a      	str	r2, [r3, #16]
        htim->Channel = HAL_TIM_ACTIVE_CHANNEL_1;
 800355e:	687b      	ldr	r3, [r7, #4]
 8003560:	2201      	movs	r2, #1
 8003562:	771a      	strb	r2, [r3, #28]

        /* Input capture event */
        if ((htim->Instance->CCMR1 & TIM_CCMR1_CC1S) != 0x00U)
 8003564:	687b      	ldr	r3, [r7, #4]
 8003566:	681b      	ldr	r3, [r3, #0]
 8003568:	699b      	ldr	r3, [r3, #24]
 800356a:	f003 0303 	and.w	r3, r3, #3
 800356e:	2b00      	cmp	r3, #0
 8003570:	d003      	beq.n	800357a <HAL_TIM_IRQHandler+0x4a>
        {
#if (USE_HAL_TIM_REGISTER_CALLBACKS == 1)
          htim->IC_CaptureCallback(htim);
#else
          HAL_TIM_IC_CaptureCallback(htim);
 8003572:	6878      	ldr	r0, [r7, #4]
 8003574:	f000 fa7f 	bl	8003a76 <HAL_TIM_IC_CaptureCallback>
 8003578:	e005      	b.n	8003586 <HAL_TIM_IRQHandler+0x56>
        {
#if (USE_HAL_TIM_REGISTER_CALLBACKS == 1)
          htim->OC_DelayElapsedCallback(htim);
          htim->PWM_PulseFinishedCallback(htim);
#else
          HAL_TIM_OC_DelayElapsedCallback(htim);
 800357a:	6878      	ldr	r0, [r7, #4]
 800357c:	f000 fa72 	bl	8003a64 <HAL_TIM_OC_DelayElapsedCallback>
          HAL_TIM_PWM_PulseFinishedCallback(htim);
 8003580:	6878      	ldr	r0, [r7, #4]
 8003582:	f000 fa81 	bl	8003a88 <HAL_TIM_PWM_PulseFinishedCallback>
#endif /* USE_HAL_TIM_REGISTER_CALLBACKS */
        }
        htim->Channel = HAL_TIM_ACTIVE_CHANNEL_CLEARED;
 8003586:	687b      	ldr	r3, [r7, #4]
 8003588:	2200      	movs	r2, #0
 800358a:	771a      	strb	r2, [r3, #28]
      }
    }
  }
  /* Capture compare 2 event */
  if (__HAL_TIM_GET_FLAG(htim, TIM_FLAG_CC2) != RESET)
 800358c:	687b      	ldr	r3, [r7, #4]
 800358e:	681b      	ldr	r3, [r3, #0]
 8003590:	691b      	ldr	r3, [r3, #16]
 8003592:	f003 0304 	and.w	r3, r3, #4
 8003596:	2b04      	cmp	r3, #4
 8003598:	d122      	bne.n	80035e0 <HAL_TIM_IRQHandler+0xb0>
  {
    if (__HAL_TIM_GET_IT_SOURCE(htim, TIM_IT_CC2) != RESET)
 800359a:	687b      	ldr	r3, [r7, #4]
 800359c:	681b      	ldr	r3, [r3, #0]
 800359e:	68db      	ldr	r3, [r3, #12]
 80035a0:	f003 0304 	and.w	r3, r3, #4
 80035a4:	2b04      	cmp	r3, #4
 80035a6:	d11b      	bne.n	80035e0 <HAL_TIM_IRQHandler+0xb0>
    {
      __HAL_TIM_CLEAR_IT(htim, TIM_IT_CC2);
 80035a8:	687b      	ldr	r3, [r7, #4]
 80035aa:	681b      	ldr	r3, [r3, #0]
 80035ac:	f06f 0204 	mvn.w	r2, #4
 80035b0:	611a      	str	r2, [r3, #16]
      htim->Channel = HAL_TIM_ACTIVE_CHANNEL_2;
 80035b2:	687b      	ldr	r3, [r7, #4]
 80035b4:	2202      	movs	r2, #2
 80035b6:	771a      	strb	r2, [r3, #28]
      /* Input capture event */
      if ((htim->Instance->CCMR1 & TIM_CCMR1_CC2S) != 0x00U)
 80035b8:	687b      	ldr	r3, [r7, #4]
 80035ba:	681b      	ldr	r3, [r3, #0]
 80035bc:	699b      	ldr	r3, [r3, #24]
 80035be:	f403 7340 	and.w	r3, r3, #768	@ 0x300
 80035c2:	2b00      	cmp	r3, #0
 80035c4:	d003      	beq.n	80035ce <HAL_TIM_IRQHandler+0x9e>
      {
#if (USE_HAL_TIM_REGISTER_CALLBACKS == 1)
        htim->IC_CaptureCallback(htim);
#else
        HAL_TIM_IC_CaptureCallback(htim);
 80035c6:	6878      	ldr	r0, [r7, #4]
 80035c8:	f000 fa55 	bl	8003a76 <HAL_TIM_IC_CaptureCallback>
 80035cc:	e005      	b.n	80035da <HAL_TIM_IRQHandler+0xaa>
      {
#if (USE_HAL_TIM_REGISTER_CALLBACKS == 1)
        htim->OC_DelayElapsedCallback(htim);
        htim->PWM_PulseFinishedCallback(htim);
#else
        HAL_TIM_OC_DelayElapsedCallback(htim);
 80035ce:	6878      	ldr	r0, [r7, #4]
 80035d0:	f000 fa48 	bl	8003a64 <HAL_TIM_OC_DelayElapsedCallback>
        HAL_TIM_PWM_PulseFinishedCallback(htim);
 80035d4:	6878      	ldr	r0, [r7, #4]
 80035d6:	f000 fa57 	bl	8003a88 <HAL_TIM_PWM_PulseFinishedCallback>
#endif /* USE_HAL_TIM_REGISTER_CALLBACKS */
      }
      htim->Channel = HAL_TIM_ACTIVE_CHANNEL_CLEARED;
 80035da:	687b      	ldr	r3, [r7, #4]
 80035dc:	2200      	movs	r2, #0
 80035de:	771a      	strb	r2, [r3, #28]
    }
  }
  /* Capture compare 3 event */
  if (__HAL_TIM_GET_FLAG(htim, TIM_FLAG_CC3) != RESET)
 80035e0:	687b      	ldr	r3, [r7, #4]
 80035e2:	681b      	ldr	r3, [r3, #0]
 80035e4:	691b      	ldr	r3, [r3, #16]
 80035e6:	f003 0308 	and.w	r3, r3, #8
 80035ea:	2b08      	cmp	r3, #8
 80035ec:	d122      	bne.n	8003634 <HAL_TIM_IRQHandler+0x104>
  {
    if (__HAL_TIM_GET_IT_SOURCE(htim, TIM_IT_CC3) != RESET)
 80035ee:	687b      	ldr	r3, [r7, #4]
 80035f0:	681b      	ldr	r3, [r3, #0]
 80035f2:	68db      	ldr	r3, [r3, #12]
 80035f4:	f003 0308 	and.w	r3, r3, #8
 80035f8:	2b08      	cmp	r3, #8
 80035fa:	d11b      	bne.n	8003634 <HAL_TIM_IRQHandler+0x104>
    {
      __HAL_TIM_CLEAR_IT(htim, TIM_IT_CC3);
 80035fc:	687b      	ldr	r3, [r7, #4]
 80035fe:	681b      	ldr	r3, [r3, #0]
 8003600:	f06f 0208 	mvn.w	r2, #8
 8003604:	611a      	str	r2, [r3, #16]
      htim->Channel = HAL_TIM_ACTIVE_CHANNEL_3;
 8003606:	687b      	ldr	r3, [r7, #4]
 8003608:	2204      	movs	r2, #4
 800360a:	771a      	strb	r2, [r3, #28]
      /* Input capture event */
      if ((htim->Instance->CCMR2 & TIM_CCMR2_CC3S) != 0x00U)
 800360c:	687b      	ldr	r3, [r7, #4]
 800360e:	681b      	ldr	r3, [r3, #0]
 8003610:	69db      	ldr	r3, [r3, #28]
 8003612:	f003 0303 	and.w	r3, r3, #3
 8003616:	2b00      	cmp	r3, #0
 8003618:	d003      	beq.n	8003622 <HAL_TIM_IRQHandler+0xf2>
      {
#if (USE_HAL_TIM_REGISTER_CALLBACKS == 1)
        htim->IC_CaptureCallback(htim);
#else
        HAL_TIM_IC_CaptureCallback(htim);
 800361a:	6878      	ldr	r0, [r7, #4]
 800361c:	f000 fa2b 	bl	8003a76 <HAL_TIM_IC_CaptureCallback>
 8003620:	e005      	b.n	800362e <HAL_TIM_IRQHandler+0xfe>
      {
#if (USE_HAL_TIM_REGISTER_CALLBACKS == 1)
        htim->OC_DelayElapsedCallback(htim);
        htim->PWM_PulseFinishedCallback(htim);
#else
        HAL_TIM_OC_DelayElapsedCallback(htim);
 8003622:	6878      	ldr	r0, [r7, #4]
 8003624:	f000 fa1e 	bl	8003a64 <HAL_TIM_OC_DelayElapsedCallback>
        HAL_TIM_PWM_PulseFinishedCallback(htim);
 8003628:	6878      	ldr	r0, [r7, #4]
 800362a:	f000 fa2d 	bl	8003a88 <HAL_TIM_PWM_PulseFinishedCallback>
#endif /* USE_HAL_TIM_REGISTER_CALLBACKS */
      }
      htim->Channel = HAL_TIM_ACTIVE_CHANNEL_CLEARED;
 800362e:	687b      	ldr	r3, [r7, #4]
 8003630:	2200      	movs	r2, #0
 8003632:	771a      	strb	r2, [r3, #28]
    }
  }
  /* Capture compare 4 event */
  if (__HAL_TIM_GET_FLAG(htim, TIM_FLAG_CC4) != RESET)
 8003634:	687b      	ldr	r3, [r7, #4]
 8003636:	681b      	ldr	r3, [r3, #0]
 8003638:	691b      	ldr	r3, [r3, #16]
 800363a:	f003 0310 	and.w	r3, r3, #16
 800363e:	2b10      	cmp	r3, #16
 8003640:	d122      	bne.n	8003688 <HAL_TIM_IRQHandler+0x158>
  {
    if (__HAL_TIM_GET_IT_SOURCE(htim, TIM_IT_CC4) != RESET)
 8003642:	687b      	ldr	r3, [r7, #4]
 8003644:	681b      	ldr	r3, [r3, #0]
 8003646:	68db      	ldr	r3, [r3, #12]
 8003648:	f003 0310 	and.w	r3, r3, #16
 800364c:	2b10      	cmp	r3, #16
 800364e:	d11b      	bne.n	8003688 <HAL_TIM_IRQHandler+0x158>
    {
      __HAL_TIM_CLEAR_IT(htim, TIM_IT_CC4);
 8003650:	687b      	ldr	r3, [r7, #4]
 8003652:	681b      	ldr	r3, [r3, #0]
 8003654:	f06f 0210 	mvn.w	r2, #16
 8003658:	611a      	str	r2, [r3, #16]
      htim->Channel = HAL_TIM_ACTIVE_CHANNEL_4;
 800365a:	687b      	ldr	r3, [r7, #4]
 800365c:	2208      	movs	r2, #8
 800365e:	771a      	strb	r2, [r3, #28]
      /* Input capture event */
      if ((htim->Instance->CCMR2 & TIM_CCMR2_CC4S) != 0x00U)
 8003660:	687b      	ldr	r3, [r7, #4]
 8003662:	681b      	ldr	r3, [r3, #0]
 8003664:	69db      	ldr	r3, [r3, #28]
 8003666:	f403 7340 	and.w	r3, r3, #768	@ 0x300
 800366a:	2b00      	cmp	r3, #0
 800366c:	d003      	beq.n	8003676 <HAL_TIM_IRQHandler+0x146>
      {
#if (USE_HAL_TIM_REGISTER_CALLBACKS == 1)
        htim->IC_CaptureCallback(htim);
#else
        HAL_TIM_IC_CaptureCallback(htim);
 800366e:	6878      	ldr	r0, [r7, #4]
 8003670:	f000 fa01 	bl	8003a76 <HAL_TIM_IC_CaptureCallback>
 8003674:	e005      	b.n	8003682 <HAL_TIM_IRQHandler+0x152>
      {
#if (USE_HAL_TIM_REGISTER_CALLBACKS == 1)
        htim->OC_DelayElapsedCallback(htim);
        htim->PWM_PulseFinishedCallback(htim);
#else
        HAL_TIM_OC_DelayElapsedCallback(htim);
 8003676:	6878      	ldr	r0, [r7, #4]
 8003678:	f000 f9f4 	bl	8003a64 <HAL_TIM_OC_DelayElapsedCallback>
        HAL_TIM_PWM_PulseFinishedCallback(htim);
 800367c:	6878      	ldr	r0, [r7, #4]
 800367e:	f000 fa03 	bl	8003a88 <HAL_TIM_PWM_PulseFinishedCallback>
#endif /* USE_HAL_TIM_REGISTER_CALLBACKS */
      }
      htim->Channel = HAL_TIM_ACTIVE_CHANNEL_CLEARED;
 8003682:	687b      	ldr	r3, [r7, #4]
 8003684:	2200      	movs	r2, #0
 8003686:	771a      	strb	r2, [r3, #28]
    }
  }
  /* TIM Update event */
  if (__HAL_TIM_GET_FLAG(htim, TIM_FLAG_UPDATE) != RESET)
 8003688:	687b      	ldr	r3, [r7, #4]
 800368a:	681b      	ldr	r3, [r3, #0]
 800368c:	691b      	ldr	r3, [r3, #16]
 800368e:	f003 0301 	and.w	r3, r3, #1
 8003692:	2b01      	cmp	r3, #1
 8003694:	d10e      	bne.n	80036b4 <HAL_TIM_IRQHandler+0x184>
  {
    if (__HAL_TIM_GET_IT_SOURCE(htim, TIM_IT_UPDATE) != RESET)
 8003696:	687b      	ldr	r3, [r7, #4]
 8003698:	681b      	ldr	r3, [r3, #0]
 800369a:	68db      	ldr	r3, [r3, #12]
 800369c:	f003 0301 	and.w	r3, r3, #1
 80036a0:	2b01      	cmp	r3, #1
 80036a2:	d107      	bne.n	80036b4 <HAL_TIM_IRQHandler+0x184>
    {
      __HAL_TIM_CLEAR_IT(htim, TIM_IT_UPDATE);
 80036a4:	687b      	ldr	r3, [r7, #4]
 80036a6:	681b      	ldr	r3, [r3, #0]
 80036a8:	f06f 0201 	mvn.w	r2, #1
 80036ac:	611a      	str	r2, [r3, #16]
#if (USE_HAL_TIM_REGISTER_CALLBACKS == 1)
      htim->PeriodElapsedCallback(htim);
#else
      HAL_TIM_PeriodElapsedCallback(htim);
 80036ae:	6878      	ldr	r0, [r7, #4]
 80036b0:	f000 f9cf 	bl	8003a52 <HAL_TIM_PeriodElapsedCallback>
#endif /* USE_HAL_TIM_REGISTER_CALLBACKS */
    }
  }
  /* TIM Break input event */
  if (__HAL_TIM_GET_FLAG(htim, TIM_FLAG_BREAK) != RESET)
 80036b4:	687b      	ldr	r3, [r7, #4]
 80036b6:	681b      	ldr	r3, [r3, #0]
 80036b8:	691b      	ldr	r3, [r3, #16]
 80036ba:	f003 0380 	and.w	r3, r3, #128	@ 0x80
 80036be:	2b80      	cmp	r3, #128	@ 0x80
 80036c0:	d10e      	bne.n	80036e0 <HAL_TIM_IRQHandler+0x1b0>
  {
    if (__HAL_TIM_GET_IT_SOURCE(htim, TIM_IT_BREAK) != RESET)
 80036c2:	687b      	ldr	r3, [r7, #4]
 80036c4:	681b      	ldr	r3, [r3, #0]
 80036c6:	68db      	ldr	r3, [r3, #12]
 80036c8:	f003 0380 	and.w	r3, r3, #128	@ 0x80
 80036cc:	2b80      	cmp	r3, #128	@ 0x80
 80036ce:	d107      	bne.n	80036e0 <HAL_TIM_IRQHandler+0x1b0>
    {
      __HAL_TIM_CLEAR_IT(htim, TIM_IT_BREAK);
 80036d0:	687b      	ldr	r3, [r7, #4]
 80036d2:	681b      	ldr	r3, [r3, #0]
 80036d4:	f06f 0280 	mvn.w	r2, #128	@ 0x80
 80036d8:	611a      	str	r2, [r3, #16]
#if (USE_HAL_TIM_REGISTER_CALLBACKS == 1)
      htim->BreakCallback(htim);
#else
      HAL_TIMEx_BreakCallback(htim);
 80036da:	6878      	ldr	r0, [r7, #4]
 80036dc:	f000 fcf1 	bl	80040c2 <HAL_TIMEx_BreakCallback>
#endif /* USE_HAL_TIM_REGISTER_CALLBACKS */
    }
  }
  /* TIM Trigger detection event */
  if (__HAL_TIM_GET_FLAG(htim, TIM_FLAG_TRIGGER) != RESET)
 80036e0:	687b      	ldr	r3, [r7, #4]
 80036e2:	681b      	ldr	r3, [r3, #0]
 80036e4:	691b      	ldr	r3, [r3, #16]
 80036e6:	f003 0340 	and.w	r3, r3, #64	@ 0x40
 80036ea:	2b40      	cmp	r3, #64	@ 0x40
 80036ec:	d10e      	bne.n	800370c <HAL_TIM_IRQHandler+0x1dc>
  {
    if (__HAL_TIM_GET_IT_SOURCE(htim, TIM_IT_TRIGGER) != RESET)
 80036ee:	687b      	ldr	r3, [r7, #4]
 80036f0:	681b      	ldr	r3, [r3, #0]
 80036f2:	68db      	ldr	r3, [r3, #12]
 80036f4:	f003 0340 	and.w	r3, r3, #64	@ 0x40
 80036f8:	2b40      	cmp	r3, #64	@ 0x40
 80036fa:	d107      	bne.n	800370c <HAL_TIM_IRQHandler+0x1dc>
    {
      __HAL_TIM_CLEAR_IT(htim, TIM_IT_TRIGGER);
 80036fc:	687b      	ldr	r3, [r7, #4]
 80036fe:	681b      	ldr	r3, [r3, #0]
 8003700:	f06f 0240 	mvn.w	r2, #64	@ 0x40
 8003704:	611a      	str	r2, [r3, #16]
#if (USE_HAL_TIM_REGISTER_CALLBACKS == 1)
      htim->TriggerCallback(htim);
#else
      HAL_TIM_TriggerCallback(htim);
 8003706:	6878      	ldr	r0, [r7, #4]
 8003708:	f000 f9c7 	bl	8003a9a <HAL_TIM_TriggerCallback>
#endif /* USE_HAL_TIM_REGISTER_CALLBACKS */
    }
  }
  /* TIM commutation event */
  if (__HAL_TIM_GET_FLAG(htim, TIM_FLAG_COM) != RESET)
 800370c:	687b      	ldr	r3, [r7, #4]
 800370e:	681b      	ldr	r3, [r3, #0]
 8003710:	691b      	ldr	r3, [r3, #16]
 8003712:	f003 0320 	and.w	r3, r3, #32
 8003716:	2b20      	cmp	r3, #32
 8003718:	d10e      	bne.n	8003738 <HAL_TIM_IRQHandler+0x208>
  {
    if (__HAL_TIM_GET_IT_SOURCE(htim, TIM_IT_COM) != RESET)
 800371a:	687b      	ldr	r3, [r7, #4]
 800371c:	681b      	ldr	r3, [r3, #0]
 800371e:	68db      	ldr	r3, [r3, #12]
 8003720:	f003 0320 	and.w	r3, r3, #32
 8003724:	2b20      	cmp	r3, #32
 8003726:	d107      	bne.n	8003738 <HAL_TIM_IRQHandler+0x208>
    {
      __HAL_TIM_CLEAR_IT(htim, TIM_FLAG_COM);
 8003728:	687b      	ldr	r3, [r7, #4]
 800372a:	681b      	ldr	r3, [r3, #0]
 800372c:	f06f 0220 	mvn.w	r2, #32
 8003730:	611a      	str	r2, [r3, #16]
#if (USE_HAL_TIM_REGISTER_CALLBACKS == 1)
      htim->CommutationCallback(htim);
#else
      HAL_TIMEx_CommutCallback(htim);
 8003732:	6878      	ldr	r0, [r7, #4]
 8003734:	f000 fcbc 	bl	80040b0 <HAL_TIMEx_CommutCallback>
#endif /* USE_HAL_TIM_REGISTER_CALLBACKS */
    }
  }
}
 8003738:	bf00      	nop
 800373a:	3708      	adds	r7, #8
 800373c:	46bd      	mov	sp, r7
 800373e:	bd80      	pop	{r7, pc}

08003740 <HAL_TIM_PWM_ConfigChannel>:
  * @retval HAL status
  */
HAL_StatusTypeDef HAL_TIM_PWM_ConfigChannel(TIM_HandleTypeDef *htim,
                                            const TIM_OC_InitTypeDef *sConfig,
                                            uint32_t Channel)
{
 8003740:	b580      	push	{r7, lr}
 8003742:	b086      	sub	sp, #24
 8003744:	af00      	add	r7, sp, #0
 8003746:	60f8      	str	r0, [r7, #12]
 8003748:	60b9      	str	r1, [r7, #8]
 800374a:	607a      	str	r2, [r7, #4]
  HAL_StatusTypeDef status = HAL_OK;
 800374c:	2300      	movs	r3, #0
 800374e:	75fb      	strb	r3, [r7, #23]
  assert_param(IS_TIM_PWM_MODE(sConfig->OCMode));
  assert_param(IS_TIM_OC_POLARITY(sConfig->OCPolarity));
  assert_param(IS_TIM_FAST_STATE(sConfig->OCFastMode));

  /* Process Locked */
  __HAL_LOCK(htim);
 8003750:	68fb      	ldr	r3, [r7, #12]
 8003752:	f893 303c 	ldrb.w	r3, [r3, #60]	@ 0x3c
 8003756:	2b01      	cmp	r3, #1
 8003758:	d101      	bne.n	800375e <HAL_TIM_PWM_ConfigChannel+0x1e>
 800375a:	2302      	movs	r3, #2
 800375c:	e0ae      	b.n	80038bc <HAL_TIM_PWM_ConfigChannel+0x17c>
 800375e:	68fb      	ldr	r3, [r7, #12]
 8003760:	2201      	movs	r2, #1
 8003762:	f883 203c 	strb.w	r2, [r3, #60]	@ 0x3c

  switch (Channel)
 8003766:	687b      	ldr	r3, [r7, #4]
 8003768:	2b0c      	cmp	r3, #12
 800376a:	f200 809f 	bhi.w	80038ac <HAL_TIM_PWM_ConfigChannel+0x16c>
 800376e:	a201      	add	r2, pc, #4	@ (adr r2, 8003774 <HAL_TIM_PWM_ConfigChannel+0x34>)
 8003770:	f852 f023 	ldr.w	pc, [r2, r3, lsl #2]
 8003774:	080037a9 	.word	0x080037a9
 8003778:	080038ad 	.word	0x080038ad
 800377c:	080038ad 	.word	0x080038ad
 8003780:	080038ad 	.word	0x080038ad
 8003784:	080037e9 	.word	0x080037e9
 8003788:	080038ad 	.word	0x080038ad
 800378c:	080038ad 	.word	0x080038ad
 8003790:	080038ad 	.word	0x080038ad
 8003794:	0800382b 	.word	0x0800382b
 8003798:	080038ad 	.word	0x080038ad
 800379c:	080038ad 	.word	0x080038ad
 80037a0:	080038ad 	.word	0x080038ad
 80037a4:	0800386b 	.word	0x0800386b
    {
      /* Check the parameters */
      assert_param(IS_TIM_CC1_INSTANCE(htim->Instance));

      /* Configure the Channel 1 in PWM mode */
      TIM_OC1_SetConfig(htim->Instance, sConfig);
 80037a8:	68fb      	ldr	r3, [r7, #12]
 80037aa:	681b      	ldr	r3, [r3, #0]
 80037ac:	68b9      	ldr	r1, [r7, #8]
 80037ae:	4618      	mov	r0, r3
 80037b0:	f000 f9de 	bl	8003b70 <TIM_OC1_SetConfig>

      /* Set the Preload enable bit for channel1 */
      htim->Instance->CCMR1 |= TIM_CCMR1_OC1PE;
 80037b4:	68fb      	ldr	r3, [r7, #12]
 80037b6:	681b      	ldr	r3, [r3, #0]
 80037b8:	699a      	ldr	r2, [r3, #24]
 80037ba:	68fb      	ldr	r3, [r7, #12]
 80037bc:	681b      	ldr	r3, [r3, #0]
 80037be:	f042 0208 	orr.w	r2, r2, #8
 80037c2:	619a      	str	r2, [r3, #24]

      /* Configure the Output Fast mode */
      htim->Instance->CCMR1 &= ~TIM_CCMR1_OC1FE;
 80037c4:	68fb      	ldr	r3, [r7, #12]
 80037c6:	681b      	ldr	r3, [r3, #0]
 80037c8:	699a      	ldr	r2, [r3, #24]
 80037ca:	68fb      	ldr	r3, [r7, #12]
 80037cc:	681b      	ldr	r3, [r3, #0]
 80037ce:	f022 0204 	bic.w	r2, r2, #4
 80037d2:	619a      	str	r2, [r3, #24]
      htim->Instance->CCMR1 |= sConfig->OCFastMode;
 80037d4:	68fb      	ldr	r3, [r7, #12]
 80037d6:	681b      	ldr	r3, [r3, #0]
 80037d8:	6999      	ldr	r1, [r3, #24]
 80037da:	68bb      	ldr	r3, [r7, #8]
 80037dc:	691a      	ldr	r2, [r3, #16]
 80037de:	68fb      	ldr	r3, [r7, #12]
 80037e0:	681b      	ldr	r3, [r3, #0]
 80037e2:	430a      	orrs	r2, r1
 80037e4:	619a      	str	r2, [r3, #24]
      break;
 80037e6:	e064      	b.n	80038b2 <HAL_TIM_PWM_ConfigChannel+0x172>
    {
      /* Check the parameters */
      assert_param(IS_TIM_CC2_INSTANCE(htim->Instance));

      /* Configure the Channel 2 in PWM mode */
      TIM_OC2_SetConfig(htim->Instance, sConfig);
 80037e8:	68fb      	ldr	r3, [r7, #12]
 80037ea:	681b      	ldr	r3, [r3, #0]
 80037ec:	68b9      	ldr	r1, [r7, #8]
 80037ee:	4618      	mov	r0, r3
 80037f0:	f000 fa24 	bl	8003c3c <TIM_OC2_SetConfig>

      /* Set the Preload enable bit for channel2 */
      htim->Instance->CCMR1 |= TIM_CCMR1_OC2PE;
 80037f4:	68fb      	ldr	r3, [r7, #12]
 80037f6:	681b      	ldr	r3, [r3, #0]
 80037f8:	699a      	ldr	r2, [r3, #24]
 80037fa:	68fb      	ldr	r3, [r7, #12]
 80037fc:	681b      	ldr	r3, [r3, #0]
 80037fe:	f442 6200 	orr.w	r2, r2, #2048	@ 0x800
 8003802:	619a      	str	r2, [r3, #24]

      /* Configure the Output Fast mode */
      htim->Instance->CCMR1 &= ~TIM_CCMR1_OC2FE;
 8003804:	68fb      	ldr	r3, [r7, #12]
 8003806:	681b      	ldr	r3, [r3, #0]
 8003808:	699a      	ldr	r2, [r3, #24]
 800380a:	68fb      	ldr	r3, [r7, #12]
 800380c:	681b      	ldr	r3, [r3, #0]
 800380e:	f422 6280 	bic.w	r2, r2, #1024	@ 0x400
 8003812:	619a      	str	r2, [r3, #24]
      htim->Instance->CCMR1 |= sConfig->OCFastMode << 8U;
 8003814:	68fb      	ldr	r3, [r7, #12]
 8003816:	681b      	ldr	r3, [r3, #0]
 8003818:	6999      	ldr	r1, [r3, #24]
 800381a:	68bb      	ldr	r3, [r7, #8]
 800381c:	691b      	ldr	r3, [r3, #16]
 800381e:	021a      	lsls	r2, r3, #8
 8003820:	68fb      	ldr	r3, [r7, #12]
 8003822:	681b      	ldr	r3, [r3, #0]
 8003824:	430a      	orrs	r2, r1
 8003826:	619a      	str	r2, [r3, #24]
      break;
 8003828:	e043      	b.n	80038b2 <HAL_TIM_PWM_ConfigChannel+0x172>
    {
      /* Check the parameters */
      assert_param(IS_TIM_CC3_INSTANCE(htim->Instance));

      /* Configure the Channel 3 in PWM mode */
      TIM_OC3_SetConfig(htim->Instance, sConfig);
 800382a:	68fb      	ldr	r3, [r7, #12]
 800382c:	681b      	ldr	r3, [r3, #0]
 800382e:	68b9      	ldr	r1, [r7, #8]
 8003830:	4618      	mov	r0, r3
 8003832:	f000 fa6d 	bl	8003d10 <TIM_OC3_SetConfig>

      /* Set the Preload enable bit for channel3 */
      htim->Instance->CCMR2 |= TIM_CCMR2_OC3PE;
 8003836:	68fb      	ldr	r3, [r7, #12]
 8003838:	681b      	ldr	r3, [r3, #0]
 800383a:	69da      	ldr	r2, [r3, #28]
 800383c:	68fb      	ldr	r3, [r7, #12]
 800383e:	681b      	ldr	r3, [r3, #0]
 8003840:	f042 0208 	orr.w	r2, r2, #8
 8003844:	61da      	str	r2, [r3, #28]

      /* Configure the Output Fast mode */
      htim->Instance->CCMR2 &= ~TIM_CCMR2_OC3FE;
 8003846:	68fb      	ldr	r3, [r7, #12]
 8003848:	681b      	ldr	r3, [r3, #0]
 800384a:	69da      	ldr	r2, [r3, #28]
 800384c:	68fb      	ldr	r3, [r7, #12]
 800384e:	681b      	ldr	r3, [r3, #0]
 8003850:	f022 0204 	bic.w	r2, r2, #4
 8003854:	61da      	str	r2, [r3, #28]
      htim->Instance->CCMR2 |= sConfig->OCFastMode;
 8003856:	68fb      	ldr	r3, [r7, #12]
 8003858:	681b      	ldr	r3, [r3, #0]
 800385a:	69d9      	ldr	r1, [r3, #28]
 800385c:	68bb      	ldr	r3, [r7, #8]
 800385e:	691a      	ldr	r2, [r3, #16]
 8003860:	68fb      	ldr	r3, [r7, #12]
 8003862:	681b      	ldr	r3, [r3, #0]
 8003864:	430a      	orrs	r2, r1
 8003866:	61da      	str	r2, [r3, #28]
      break;
 8003868:	e023      	b.n	80038b2 <HAL_TIM_PWM_ConfigChannel+0x172>
    {
      /* Check the parameters */
      assert_param(IS_TIM_CC4_INSTANCE(htim->Instance));

      /* Configure the Channel 4 in PWM mode */
      TIM_OC4_SetConfig(htim->Instance, sConfig);
 800386a:	68fb      	ldr	r3, [r7, #12]
 800386c:	681b      	ldr	r3, [r3, #0]
 800386e:	68b9      	ldr	r1, [r7, #8]
 8003870:	4618      	mov	r0, r3
 8003872:	f000 fab7 	bl	8003de4 <TIM_OC4_SetConfig>

      /* Set the Preload enable bit for channel4 */
      htim->Instance->CCMR2 |= TIM_CCMR2_OC4PE;
 8003876:	68fb      	ldr	r3, [r7, #12]
 8003878:	681b      	ldr	r3, [r3, #0]
 800387a:	69da      	ldr	r2, [r3, #28]
 800387c:	68fb      	ldr	r3, [r7, #12]
 800387e:	681b      	ldr	r3, [r3, #0]
 8003880:	f442 6200 	orr.w	r2, r2, #2048	@ 0x800
 8003884:	61da      	str	r2, [r3, #28]

      /* Configure the Output Fast mode */
      htim->Instance->CCMR2 &= ~TIM_CCMR2_OC4FE;
 8003886:	68fb      	ldr	r3, [r7, #12]
 8003888:	681b      	ldr	r3, [r3, #0]
 800388a:	69da      	ldr	r2, [r3, #28]
 800388c:	68fb      	ldr	r3, [r7, #12]
 800388e:	681b      	ldr	r3, [r3, #0]
 8003890:	f422 6280 	bic.w	r2, r2, #1024	@ 0x400
 8003894:	61da      	str	r2, [r3, #28]
      htim->Instance->CCMR2 |= sConfig->OCFastMode << 8U;
 8003896:	68fb      	ldr	r3, [r7, #12]
 8003898:	681b      	ldr	r3, [r3, #0]
 800389a:	69d9      	ldr	r1, [r3, #28]
 800389c:	68bb      	ldr	r3, [r7, #8]
 800389e:	691b      	ldr	r3, [r3, #16]
 80038a0:	021a      	lsls	r2, r3, #8
 80038a2:	68fb      	ldr	r3, [r7, #12]
 80038a4:	681b      	ldr	r3, [r3, #0]
 80038a6:	430a      	orrs	r2, r1
 80038a8:	61da      	str	r2, [r3, #28]
      break;
 80038aa:	e002      	b.n	80038b2 <HAL_TIM_PWM_ConfigChannel+0x172>
    }

    default:
      status = HAL_ERROR;
 80038ac:	2301      	movs	r3, #1
 80038ae:	75fb      	strb	r3, [r7, #23]
      break;
 80038b0:	bf00      	nop
  }

  __HAL_UNLOCK(htim);
 80038b2:	68fb      	ldr	r3, [r7, #12]
 80038b4:	2200      	movs	r2, #0
 80038b6:	f883 203c 	strb.w	r2, [r3, #60]	@ 0x3c

  return status;
 80038ba:	7dfb      	ldrb	r3, [r7, #23]
}
 80038bc:	4618      	mov	r0, r3
 80038be:	3718      	adds	r7, #24
 80038c0:	46bd      	mov	sp, r7
 80038c2:	bd80      	pop	{r7, pc}

080038c4 <HAL_TIM_ConfigClockSource>:
  * @param  sClockSourceConfig pointer to a TIM_ClockConfigTypeDef structure that
  *         contains the clock source information for the TIM peripheral.
  * @retval HAL status
  */
HAL_StatusTypeDef HAL_TIM_ConfigClockSource(TIM_HandleTypeDef *htim, const TIM_ClockConfigTypeDef *sClockSourceConfig)
{
 80038c4:	b580      	push	{r7, lr}
 80038c6:	b084      	sub	sp, #16
 80038c8:	af00      	add	r7, sp, #0
 80038ca:	6078      	str	r0, [r7, #4]
 80038cc:	6039      	str	r1, [r7, #0]
  HAL_StatusTypeDef status = HAL_OK;
 80038ce:	2300      	movs	r3, #0
 80038d0:	73fb      	strb	r3, [r7, #15]
  uint32_t tmpsmcr;

  /* Process Locked */
  __HAL_LOCK(htim);
 80038d2:	687b      	ldr	r3, [r7, #4]
 80038d4:	f893 303c 	ldrb.w	r3, [r3, #60]	@ 0x3c
 80038d8:	2b01      	cmp	r3, #1
 80038da:	d101      	bne.n	80038e0 <HAL_TIM_ConfigClockSource+0x1c>
 80038dc:	2302      	movs	r3, #2
 80038de:	e0b4      	b.n	8003a4a <HAL_TIM_ConfigClockSource+0x186>
 80038e0:	687b      	ldr	r3, [r7, #4]
 80038e2:	2201      	movs	r2, #1
 80038e4:	f883 203c 	strb.w	r2, [r3, #60]	@ 0x3c

  htim->State = HAL_TIM_STATE_BUSY;
 80038e8:	687b      	ldr	r3, [r7, #4]
 80038ea:	2202      	movs	r2, #2
 80038ec:	f883 203d 	strb.w	r2, [r3, #61]	@ 0x3d

  /* Check the parameters */
  assert_param(IS_TIM_CLOCKSOURCE(sClockSourceConfig->ClockSource));

  /* Reset the SMS, TS, ECE, ETPS and ETRF bits */
  tmpsmcr = htim->Instance->SMCR;
 80038f0:	687b      	ldr	r3, [r7, #4]
 80038f2:	681b      	ldr	r3, [r3, #0]
 80038f4:	689b      	ldr	r3, [r3, #8]
 80038f6:	60bb      	str	r3, [r7, #8]
  tmpsmcr &= ~(TIM_SMCR_SMS | TIM_SMCR_TS);
 80038f8:	68bb      	ldr	r3, [r7, #8]
 80038fa:	f023 0377 	bic.w	r3, r3, #119	@ 0x77
 80038fe:	60bb      	str	r3, [r7, #8]
  tmpsmcr &= ~(TIM_SMCR_ETF | TIM_SMCR_ETPS | TIM_SMCR_ECE | TIM_SMCR_ETP);
 8003900:	68bb      	ldr	r3, [r7, #8]
 8003902:	f423 437f 	bic.w	r3, r3, #65280	@ 0xff00
 8003906:	60bb      	str	r3, [r7, #8]
  htim->Instance->SMCR = tmpsmcr;
 8003908:	687b      	ldr	r3, [r7, #4]
 800390a:	681b      	ldr	r3, [r3, #0]
 800390c:	68ba      	ldr	r2, [r7, #8]
 800390e:	609a      	str	r2, [r3, #8]

  switch (sClockSourceConfig->ClockSource)
 8003910:	683b      	ldr	r3, [r7, #0]
 8003912:	681b      	ldr	r3, [r3, #0]
 8003914:	f5b3 5f00 	cmp.w	r3, #8192	@ 0x2000
 8003918:	d03e      	beq.n	8003998 <HAL_TIM_ConfigClockSource+0xd4>
 800391a:	f5b3 5f00 	cmp.w	r3, #8192	@ 0x2000
 800391e:	f200 8087 	bhi.w	8003a30 <HAL_TIM_ConfigClockSource+0x16c>
 8003922:	f5b3 5f80 	cmp.w	r3, #4096	@ 0x1000
 8003926:	f000 8086 	beq.w	8003a36 <HAL_TIM_ConfigClockSource+0x172>
 800392a:	f5b3 5f80 	cmp.w	r3, #4096	@ 0x1000
 800392e:	d87f      	bhi.n	8003a30 <HAL_TIM_ConfigClockSource+0x16c>
 8003930:	2b70      	cmp	r3, #112	@ 0x70
 8003932:	d01a      	beq.n	800396a <HAL_TIM_ConfigClockSource+0xa6>
 8003934:	2b70      	cmp	r3, #112	@ 0x70
 8003936:	d87b      	bhi.n	8003a30 <HAL_TIM_ConfigClockSource+0x16c>
 8003938:	2b60      	cmp	r3, #96	@ 0x60
 800393a:	d050      	beq.n	80039de <HAL_TIM_ConfigClockSource+0x11a>
 800393c:	2b60      	cmp	r3, #96	@ 0x60
 800393e:	d877      	bhi.n	8003a30 <HAL_TIM_ConfigClockSource+0x16c>
 8003940:	2b50      	cmp	r3, #80	@ 0x50
 8003942:	d03c      	beq.n	80039be <HAL_TIM_ConfigClockSource+0xfa>
 8003944:	2b50      	cmp	r3, #80	@ 0x50
 8003946:	d873      	bhi.n	8003a30 <HAL_TIM_ConfigClockSource+0x16c>
 8003948:	2b40      	cmp	r3, #64	@ 0x40
 800394a:	d058      	beq.n	80039fe <HAL_TIM_ConfigClockSource+0x13a>
 800394c:	2b40      	cmp	r3, #64	@ 0x40
 800394e:	d86f      	bhi.n	8003a30 <HAL_TIM_ConfigClockSource+0x16c>
 8003950:	2b30      	cmp	r3, #48	@ 0x30
 8003952:	d064      	beq.n	8003a1e <HAL_TIM_ConfigClockSource+0x15a>
 8003954:	2b30      	cmp	r3, #48	@ 0x30
 8003956:	d86b      	bhi.n	8003a30 <HAL_TIM_ConfigClockSource+0x16c>
 8003958:	2b20      	cmp	r3, #32
 800395a:	d060      	beq.n	8003a1e <HAL_TIM_ConfigClockSource+0x15a>
 800395c:	2b20      	cmp	r3, #32
 800395e:	d867      	bhi.n	8003a30 <HAL_TIM_ConfigClockSource+0x16c>
 8003960:	2b00      	cmp	r3, #0
 8003962:	d05c      	beq.n	8003a1e <HAL_TIM_ConfigClockSource+0x15a>
 8003964:	2b10      	cmp	r3, #16
 8003966:	d05a      	beq.n	8003a1e <HAL_TIM_ConfigClockSource+0x15a>
 8003968:	e062      	b.n	8003a30 <HAL_TIM_ConfigClockSource+0x16c>
      assert_param(IS_TIM_CLOCKPRESCALER(sClockSourceConfig->ClockPrescaler));
      assert_param(IS_TIM_CLOCKPOLARITY(sClockSourceConfig->ClockPolarity));
      assert_param(IS_TIM_CLOCKFILTER(sClockSourceConfig->ClockFilter));

      /* Configure the ETR Clock source */
      TIM_ETR_SetConfig(htim->Instance,
 800396a:	687b      	ldr	r3, [r7, #4]
 800396c:	6818      	ldr	r0, [r3, #0]
                        sClockSourceConfig->ClockPrescaler,
 800396e:	683b      	ldr	r3, [r7, #0]
 8003970:	6899      	ldr	r1, [r3, #8]
                        sClockSourceConfig->ClockPolarity,
 8003972:	683b      	ldr	r3, [r7, #0]
 8003974:	685a      	ldr	r2, [r3, #4]
                        sClockSourceConfig->ClockFilter);
 8003976:	683b      	ldr	r3, [r7, #0]
 8003978:	68db      	ldr	r3, [r3, #12]
      TIM_ETR_SetConfig(htim->Instance,
 800397a:	f000 faf8 	bl	8003f6e <TIM_ETR_SetConfig>

      /* Select the External clock mode1 and the ETRF trigger */
      tmpsmcr = htim->Instance->SMCR;
 800397e:	687b      	ldr	r3, [r7, #4]
 8003980:	681b      	ldr	r3, [r3, #0]
 8003982:	689b      	ldr	r3, [r3, #8]
 8003984:	60bb      	str	r3, [r7, #8]
      tmpsmcr |= (TIM_SLAVEMODE_EXTERNAL1 | TIM_CLOCKSOURCE_ETRMODE1);
 8003986:	68bb      	ldr	r3, [r7, #8]
 8003988:	f043 0377 	orr.w	r3, r3, #119	@ 0x77
 800398c:	60bb      	str	r3, [r7, #8]
      /* Write to TIMx SMCR */
      htim->Instance->SMCR = tmpsmcr;
 800398e:	687b      	ldr	r3, [r7, #4]
 8003990:	681b      	ldr	r3, [r3, #0]
 8003992:	68ba      	ldr	r2, [r7, #8]
 8003994:	609a      	str	r2, [r3, #8]
      break;
 8003996:	e04f      	b.n	8003a38 <HAL_TIM_ConfigClockSource+0x174>
      assert_param(IS_TIM_CLOCKPRESCALER(sClockSourceConfig->ClockPrescaler));
      assert_param(IS_TIM_CLOCKPOLARITY(sClockSourceConfig->ClockPolarity));
      assert_param(IS_TIM_CLOCKFILTER(sClockSourceConfig->ClockFilter));

      /* Configure the ETR Clock source */
      TIM_ETR_SetConfig(htim->Instance,
 8003998:	687b      	ldr	r3, [r7, #4]
 800399a:	6818      	ldr	r0, [r3, #0]
                        sClockSourceConfig->ClockPrescaler,
 800399c:	683b      	ldr	r3, [r7, #0]
 800399e:	6899      	ldr	r1, [r3, #8]
                        sClockSourceConfig->ClockPolarity,
 80039a0:	683b      	ldr	r3, [r7, #0]
 80039a2:	685a      	ldr	r2, [r3, #4]
                        sClockSourceConfig->ClockFilter);
 80039a4:	683b      	ldr	r3, [r7, #0]
 80039a6:	68db      	ldr	r3, [r3, #12]
      TIM_ETR_SetConfig(htim->Instance,
 80039a8:	f000 fae1 	bl	8003f6e <TIM_ETR_SetConfig>
      /* Enable the External clock mode2 */
      htim->Instance->SMCR |= TIM_SMCR_ECE;
 80039ac:	687b      	ldr	r3, [r7, #4]
 80039ae:	681b      	ldr	r3, [r3, #0]
 80039b0:	689a      	ldr	r2, [r3, #8]
 80039b2:	687b      	ldr	r3, [r7, #4]
 80039b4:	681b      	ldr	r3, [r3, #0]
 80039b6:	f442 4280 	orr.w	r2, r2, #16384	@ 0x4000
 80039ba:	609a      	str	r2, [r3, #8]
      break;
 80039bc:	e03c      	b.n	8003a38 <HAL_TIM_ConfigClockSource+0x174>

      /* Check TI1 input conditioning related parameters */
      assert_param(IS_TIM_CLOCKPOLARITY(sClockSourceConfig->ClockPolarity));
      assert_param(IS_TIM_CLOCKFILTER(sClockSourceConfig->ClockFilter));

      TIM_TI1_ConfigInputStage(htim->Instance,
 80039be:	687b      	ldr	r3, [r7, #4]
 80039c0:	6818      	ldr	r0, [r3, #0]
                               sClockSourceConfig->ClockPolarity,
 80039c2:	683b      	ldr	r3, [r7, #0]
 80039c4:	6859      	ldr	r1, [r3, #4]
                               sClockSourceConfig->ClockFilter);
 80039c6:	683b      	ldr	r3, [r7, #0]
 80039c8:	68db      	ldr	r3, [r3, #12]
      TIM_TI1_ConfigInputStage(htim->Instance,
 80039ca:	461a      	mov	r2, r3
 80039cc:	f000 fa58 	bl	8003e80 <TIM_TI1_ConfigInputStage>
      TIM_ITRx_SetConfig(htim->Instance, TIM_CLOCKSOURCE_TI1);
 80039d0:	687b      	ldr	r3, [r7, #4]
 80039d2:	681b      	ldr	r3, [r3, #0]
 80039d4:	2150      	movs	r1, #80	@ 0x50
 80039d6:	4618      	mov	r0, r3
 80039d8:	f000 faaf 	bl	8003f3a <TIM_ITRx_SetConfig>
      break;
 80039dc:	e02c      	b.n	8003a38 <HAL_TIM_ConfigClockSource+0x174>

      /* Check TI2 input conditioning related parameters */
      assert_param(IS_TIM_CLOCKPOLARITY(sClockSourceConfig->ClockPolarity));
      assert_param(IS_TIM_CLOCKFILTER(sClockSourceConfig->ClockFilter));

      TIM_TI2_ConfigInputStage(htim->Instance,
 80039de:	687b      	ldr	r3, [r7, #4]
 80039e0:	6818      	ldr	r0, [r3, #0]
                               sClockSourceConfig->ClockPolarity,
 80039e2:	683b      	ldr	r3, [r7, #0]
 80039e4:	6859      	ldr	r1, [r3, #4]
                               sClockSourceConfig->ClockFilter);
 80039e6:	683b      	ldr	r3, [r7, #0]
 80039e8:	68db      	ldr	r3, [r3, #12]
      TIM_TI2_ConfigInputStage(htim->Instance,
 80039ea:	461a      	mov	r2, r3
 80039ec:	f000 fa76 	bl	8003edc <TIM_TI2_ConfigInputStage>
      TIM_ITRx_SetConfig(htim->Instance, TIM_CLOCKSOURCE_TI2);
 80039f0:	687b      	ldr	r3, [r7, #4]
 80039f2:	681b      	ldr	r3, [r3, #0]
 80039f4:	2160      	movs	r1, #96	@ 0x60
 80039f6:	4618      	mov	r0, r3
 80039f8:	f000 fa9f 	bl	8003f3a <TIM_ITRx_SetConfig>
      break;
 80039fc:	e01c      	b.n	8003a38 <HAL_TIM_ConfigClockSource+0x174>

      /* Check TI1 input conditioning related parameters */
      assert_param(IS_TIM_CLOCKPOLARITY(sClockSourceConfig->ClockPolarity));
      assert_param(IS_TIM_CLOCKFILTER(sClockSourceConfig->ClockFilter));

      TIM_TI1_ConfigInputStage(htim->Instance,
 80039fe:	687b      	ldr	r3, [r7, #4]
 8003a00:	6818      	ldr	r0, [r3, #0]
                               sClockSourceConfig->ClockPolarity,
 8003a02:	683b      	ldr	r3, [r7, #0]
 8003a04:	6859      	ldr	r1, [r3, #4]
                               sClockSourceConfig->ClockFilter);
 8003a06:	683b      	ldr	r3, [r7, #0]
 8003a08:	68db      	ldr	r3, [r3, #12]
      TIM_TI1_ConfigInputStage(htim->Instance,
 8003a0a:	461a      	mov	r2, r3
 8003a0c:	f000 fa38 	bl	8003e80 <TIM_TI1_ConfigInputStage>
      TIM_ITRx_SetConfig(htim->Instance, TIM_CLOCKSOURCE_TI1ED);
 8003a10:	687b      	ldr	r3, [r7, #4]
 8003a12:	681b      	ldr	r3, [r3, #0]
 8003a14:	2140      	movs	r1, #64	@ 0x40
 8003a16:	4618      	mov	r0, r3
 8003a18:	f000 fa8f 	bl	8003f3a <TIM_ITRx_SetConfig>
      break;
 8003a1c:	e00c      	b.n	8003a38 <HAL_TIM_ConfigClockSource+0x174>
    case TIM_CLOCKSOURCE_ITR3:
    {
      /* Check whether or not the timer instance supports internal trigger input */
      assert_param(IS_TIM_CLOCKSOURCE_ITRX_INSTANCE(htim->Instance));

      TIM_ITRx_SetConfig(htim->Instance, sClockSourceConfig->ClockSource);
 8003a1e:	687b      	ldr	r3, [r7, #4]
 8003a20:	681a      	ldr	r2, [r3, #0]
 8003a22:	683b      	ldr	r3, [r7, #0]
 8003a24:	681b      	ldr	r3, [r3, #0]
 8003a26:	4619      	mov	r1, r3
 8003a28:	4610      	mov	r0, r2
 8003a2a:	f000 fa86 	bl	8003f3a <TIM_ITRx_SetConfig>
      break;
 8003a2e:	e003      	b.n	8003a38 <HAL_TIM_ConfigClockSource+0x174>
    }

    default:
      status = HAL_ERROR;
 8003a30:	2301      	movs	r3, #1
 8003a32:	73fb      	strb	r3, [r7, #15]
      break;
 8003a34:	e000      	b.n	8003a38 <HAL_TIM_ConfigClockSource+0x174>
      break;
 8003a36:	bf00      	nop
  }
  htim->State = HAL_TIM_STATE_READY;
 8003a38:	687b      	ldr	r3, [r7, #4]
 8003a3a:	2201      	movs	r2, #1
 8003a3c:	f883 203d 	strb.w	r2, [r3, #61]	@ 0x3d

  __HAL_UNLOCK(htim);
 8003a40:	687b      	ldr	r3, [r7, #4]
 8003a42:	2200      	movs	r2, #0
 8003a44:	f883 203c 	strb.w	r2, [r3, #60]	@ 0x3c

  return status;
 8003a48:	7bfb      	ldrb	r3, [r7, #15]
}
 8003a4a:	4618      	mov	r0, r3
 8003a4c:	3710      	adds	r7, #16
 8003a4e:	46bd      	mov	sp, r7
 8003a50:	bd80      	pop	{r7, pc}

08003a52 <HAL_TIM_PeriodElapsedCallback>:
  * @brief  Period elapsed callback in non-blocking mode
  * @param  htim TIM handle
  * @retval None
  */
__weak void HAL_TIM_PeriodElapsedCallback(TIM_HandleTypeDef *htim)
{
 8003a52:	b480      	push	{r7}
 8003a54:	b083      	sub	sp, #12
 8003a56:	af00      	add	r7, sp, #0
 8003a58:	6078      	str	r0, [r7, #4]
  UNUSED(htim);

  /* NOTE : This function should not be modified, when the callback is needed,
            the HAL_TIM_PeriodElapsedCallback could be implemented in the user file
   */
}
 8003a5a:	bf00      	nop
 8003a5c:	370c      	adds	r7, #12
 8003a5e:	46bd      	mov	sp, r7
 8003a60:	bc80      	pop	{r7}
 8003a62:	4770      	bx	lr

08003a64 <HAL_TIM_OC_DelayElapsedCallback>:
  * @brief  Output Compare callback in non-blocking mode
  * @param  htim TIM OC handle
  * @retval None
  */
__weak void HAL_TIM_OC_DelayElapsedCallback(TIM_HandleTypeDef *htim)
{
 8003a64:	b480      	push	{r7}
 8003a66:	b083      	sub	sp, #12
 8003a68:	af00      	add	r7, sp, #0
 8003a6a:	6078      	str	r0, [r7, #4]
  UNUSED(htim);

  /* NOTE : This function should not be modified, when the callback is needed,
            the HAL_TIM_OC_DelayElapsedCallback could be implemented in the user file
   */
}
 8003a6c:	bf00      	nop
 8003a6e:	370c      	adds	r7, #12
 8003a70:	46bd      	mov	sp, r7
 8003a72:	bc80      	pop	{r7}
 8003a74:	4770      	bx	lr

08003a76 <HAL_TIM_IC_CaptureCallback>:
  * @brief  Input Capture callback in non-blocking mode
  * @param  htim TIM IC handle
  * @retval None
  */
__weak void HAL_TIM_IC_CaptureCallback(TIM_HandleTypeDef *htim)
{
 8003a76:	b480      	push	{r7}
 8003a78:	b083      	sub	sp, #12
 8003a7a:	af00      	add	r7, sp, #0
 8003a7c:	6078      	str	r0, [r7, #4]
  UNUSED(htim);

  /* NOTE : This function should not be modified, when the callback is needed,
            the HAL_TIM_IC_CaptureCallback could be implemented in the user file
   */
}
 8003a7e:	bf00      	nop
 8003a80:	370c      	adds	r7, #12
 8003a82:	46bd      	mov	sp, r7
 8003a84:	bc80      	pop	{r7}
 8003a86:	4770      	bx	lr

08003a88 <HAL_TIM_PWM_PulseFinishedCallback>:
  * @brief  PWM Pulse finished callback in non-blocking mode
  * @param  htim TIM handle
  * @retval None
  */
__weak void HAL_TIM_PWM_PulseFinishedCallback(TIM_HandleTypeDef *htim)
{
 8003a88:	b480      	push	{r7}
 8003a8a:	b083      	sub	sp, #12
 8003a8c:	af00      	add	r7, sp, #0
 8003a8e:	6078      	str	r0, [r7, #4]
  UNUSED(htim);

  /* NOTE : This function should not be modified, when the callback is needed,
            the HAL_TIM_PWM_PulseFinishedCallback could be implemented in the user file
   */
}
 8003a90:	bf00      	nop
 8003a92:	370c      	adds	r7, #12
 8003a94:	46bd      	mov	sp, r7
 8003a96:	bc80      	pop	{r7}
 8003a98:	4770      	bx	lr

08003a9a <HAL_TIM_TriggerCallback>:
  * @brief  Hall Trigger detection callback in non-blocking mode
  * @param  htim TIM handle
  * @retval None
  */
__weak void HAL_TIM_TriggerCallback(TIM_HandleTypeDef *htim)
{
 8003a9a:	b480      	push	{r7}
 8003a9c:	b083      	sub	sp, #12
 8003a9e:	af00      	add	r7, sp, #0
 8003aa0:	6078      	str	r0, [r7, #4]
  UNUSED(htim);

  /* NOTE : This function should not be modified, when the callback is needed,
            the HAL_TIM_TriggerCallback could be implemented in the user file
   */
}
 8003aa2:	bf00      	nop
 8003aa4:	370c      	adds	r7, #12
 8003aa6:	46bd      	mov	sp, r7
 8003aa8:	bc80      	pop	{r7}
 8003aaa:	4770      	bx	lr

08003aac <TIM_Base_SetConfig>:
  * @param  TIMx TIM peripheral
  * @param  Structure TIM Base configuration structure
  * @retval None
  */
void TIM_Base_SetConfig(TIM_TypeDef *TIMx, const TIM_Base_InitTypeDef *Structure)
{
 8003aac:	b480      	push	{r7}
 8003aae:	b085      	sub	sp, #20
 8003ab0:	af00      	add	r7, sp, #0
 8003ab2:	6078      	str	r0, [r7, #4]
 8003ab4:	6039      	str	r1, [r7, #0]
  uint32_t tmpcr1;
  tmpcr1 = TIMx->CR1;
 8003ab6:	687b      	ldr	r3, [r7, #4]
 8003ab8:	681b      	ldr	r3, [r3, #0]
 8003aba:	60fb      	str	r3, [r7, #12]

  /* Set TIM Time Base Unit parameters ---------------------------------------*/
  if (IS_TIM_COUNTER_MODE_SELECT_INSTANCE(TIMx))
 8003abc:	687b      	ldr	r3, [r7, #4]
 8003abe:	4a29      	ldr	r2, [pc, #164]	@ (8003b64 <TIM_Base_SetConfig+0xb8>)
 8003ac0:	4293      	cmp	r3, r2
 8003ac2:	d00b      	beq.n	8003adc <TIM_Base_SetConfig+0x30>
 8003ac4:	687b      	ldr	r3, [r7, #4]
 8003ac6:	f1b3 4f80 	cmp.w	r3, #1073741824	@ 0x40000000
 8003aca:	d007      	beq.n	8003adc <TIM_Base_SetConfig+0x30>
 8003acc:	687b      	ldr	r3, [r7, #4]
 8003ace:	4a26      	ldr	r2, [pc, #152]	@ (8003b68 <TIM_Base_SetConfig+0xbc>)
 8003ad0:	4293      	cmp	r3, r2
 8003ad2:	d003      	beq.n	8003adc <TIM_Base_SetConfig+0x30>
 8003ad4:	687b      	ldr	r3, [r7, #4]
 8003ad6:	4a25      	ldr	r2, [pc, #148]	@ (8003b6c <TIM_Base_SetConfig+0xc0>)
 8003ad8:	4293      	cmp	r3, r2
 8003ada:	d108      	bne.n	8003aee <TIM_Base_SetConfig+0x42>
  {
    /* Select the Counter Mode */
    tmpcr1 &= ~(TIM_CR1_DIR | TIM_CR1_CMS);
 8003adc:	68fb      	ldr	r3, [r7, #12]
 8003ade:	f023 0370 	bic.w	r3, r3, #112	@ 0x70
 8003ae2:	60fb      	str	r3, [r7, #12]
    tmpcr1 |= Structure->CounterMode;
 8003ae4:	683b      	ldr	r3, [r7, #0]
 8003ae6:	685b      	ldr	r3, [r3, #4]
 8003ae8:	68fa      	ldr	r2, [r7, #12]
 8003aea:	4313      	orrs	r3, r2
 8003aec:	60fb      	str	r3, [r7, #12]
  }

  if (IS_TIM_CLOCK_DIVISION_INSTANCE(TIMx))
 8003aee:	687b      	ldr	r3, [r7, #4]
 8003af0:	4a1c      	ldr	r2, [pc, #112]	@ (8003b64 <TIM_Base_SetConfig+0xb8>)
 8003af2:	4293      	cmp	r3, r2
 8003af4:	d00b      	beq.n	8003b0e <TIM_Base_SetConfig+0x62>
 8003af6:	687b      	ldr	r3, [r7, #4]
 8003af8:	f1b3 4f80 	cmp.w	r3, #1073741824	@ 0x40000000
 8003afc:	d007      	beq.n	8003b0e <TIM_Base_SetConfig+0x62>
 8003afe:	687b      	ldr	r3, [r7, #4]
 8003b00:	4a19      	ldr	r2, [pc, #100]	@ (8003b68 <TIM_Base_SetConfig+0xbc>)
 8003b02:	4293      	cmp	r3, r2
 8003b04:	d003      	beq.n	8003b0e <TIM_Base_SetConfig+0x62>
 8003b06:	687b      	ldr	r3, [r7, #4]
 8003b08:	4a18      	ldr	r2, [pc, #96]	@ (8003b6c <TIM_Base_SetConfig+0xc0>)
 8003b0a:	4293      	cmp	r3, r2
 8003b0c:	d108      	bne.n	8003b20 <TIM_Base_SetConfig+0x74>
  {
    /* Set the clock division */
    tmpcr1 &= ~TIM_CR1_CKD;
 8003b0e:	68fb      	ldr	r3, [r7, #12]
 8003b10:	f423 7340 	bic.w	r3, r3, #768	@ 0x300
 8003b14:	60fb      	str	r3, [r7, #12]
    tmpcr1 |= (uint32_t)Structure->ClockDivision;
 8003b16:	683b      	ldr	r3, [r7, #0]
 8003b18:	68db      	ldr	r3, [r3, #12]
 8003b1a:	68fa      	ldr	r2, [r7, #12]
 8003b1c:	4313      	orrs	r3, r2
 8003b1e:	60fb      	str	r3, [r7, #12]
  }

  /* Set the auto-reload preload */
  MODIFY_REG(tmpcr1, TIM_CR1_ARPE, Structure->AutoReloadPreload);
 8003b20:	68fb      	ldr	r3, [r7, #12]
 8003b22:	f023 0280 	bic.w	r2, r3, #128	@ 0x80
 8003b26:	683b      	ldr	r3, [r7, #0]
 8003b28:	695b      	ldr	r3, [r3, #20]
 8003b2a:	4313      	orrs	r3, r2
 8003b2c:	60fb      	str	r3, [r7, #12]

  TIMx->CR1 = tmpcr1;
 8003b2e:	687b      	ldr	r3, [r7, #4]
 8003b30:	68fa      	ldr	r2, [r7, #12]
 8003b32:	601a      	str	r2, [r3, #0]

  /* Set the Autoreload value */
  TIMx->ARR = (uint32_t)Structure->Period ;
 8003b34:	683b      	ldr	r3, [r7, #0]
 8003b36:	689a      	ldr	r2, [r3, #8]
 8003b38:	687b      	ldr	r3, [r7, #4]
 8003b3a:	62da      	str	r2, [r3, #44]	@ 0x2c

  /* Set the Prescaler value */
  TIMx->PSC = Structure->Prescaler;
 8003b3c:	683b      	ldr	r3, [r7, #0]
 8003b3e:	681a      	ldr	r2, [r3, #0]
 8003b40:	687b      	ldr	r3, [r7, #4]
 8003b42:	629a      	str	r2, [r3, #40]	@ 0x28

  if (IS_TIM_REPETITION_COUNTER_INSTANCE(TIMx))
 8003b44:	687b      	ldr	r3, [r7, #4]
 8003b46:	4a07      	ldr	r2, [pc, #28]	@ (8003b64 <TIM_Base_SetConfig+0xb8>)
 8003b48:	4293      	cmp	r3, r2
 8003b4a:	d103      	bne.n	8003b54 <TIM_Base_SetConfig+0xa8>
  {
    /* Set the Repetition Counter value */
    TIMx->RCR = Structure->RepetitionCounter;
 8003b4c:	683b      	ldr	r3, [r7, #0]
 8003b4e:	691a      	ldr	r2, [r3, #16]
 8003b50:	687b      	ldr	r3, [r7, #4]
 8003b52:	631a      	str	r2, [r3, #48]	@ 0x30
  }

  /* Generate an update event to reload the Prescaler
     and the repetition counter (only for advanced timer) value immediately */
  TIMx->EGR = TIM_EGR_UG;
 8003b54:	687b      	ldr	r3, [r7, #4]
 8003b56:	2201      	movs	r2, #1
 8003b58:	615a      	str	r2, [r3, #20]
}
 8003b5a:	bf00      	nop
 8003b5c:	3714      	adds	r7, #20
 8003b5e:	46bd      	mov	sp, r7
 8003b60:	bc80      	pop	{r7}
 8003b62:	4770      	bx	lr
 8003b64:	40012c00 	.word	0x40012c00
 8003b68:	40000400 	.word	0x40000400
 8003b6c:	40000800 	.word	0x40000800

08003b70 <TIM_OC1_SetConfig>:
  * @param  TIMx to select the TIM peripheral
  * @param  OC_Config The output configuration structure
  * @retval None
  */
static void TIM_OC1_SetConfig(TIM_TypeDef *TIMx, const TIM_OC_InitTypeDef *OC_Config)
{
 8003b70:	b480      	push	{r7}
 8003b72:	b087      	sub	sp, #28
 8003b74:	af00      	add	r7, sp, #0
 8003b76:	6078      	str	r0, [r7, #4]
 8003b78:	6039      	str	r1, [r7, #0]
  uint32_t tmpccmrx;
  uint32_t tmpccer;
  uint32_t tmpcr2;

  /* Get the TIMx CCER register value */
  tmpccer = TIMx->CCER;
 8003b7a:	687b      	ldr	r3, [r7, #4]
 8003b7c:	6a1b      	ldr	r3, [r3, #32]
 8003b7e:	617b      	str	r3, [r7, #20]

  /* Disable the Channel 1: Reset the CC1E Bit */
  TIMx->CCER &= ~TIM_CCER_CC1E;
 8003b80:	687b      	ldr	r3, [r7, #4]
 8003b82:	6a1b      	ldr	r3, [r3, #32]
 8003b84:	f023 0201 	bic.w	r2, r3, #1
 8003b88:	687b      	ldr	r3, [r7, #4]
 8003b8a:	621a      	str	r2, [r3, #32]

  /* Get the TIMx CR2 register value */
  tmpcr2 =  TIMx->CR2;
 8003b8c:	687b      	ldr	r3, [r7, #4]
 8003b8e:	685b      	ldr	r3, [r3, #4]
 8003b90:	613b      	str	r3, [r7, #16]

  /* Get the TIMx CCMR1 register value */
  tmpccmrx = TIMx->CCMR1;
 8003b92:	687b      	ldr	r3, [r7, #4]
 8003b94:	699b      	ldr	r3, [r3, #24]
 8003b96:	60fb      	str	r3, [r7, #12]

  /* Reset the Output Compare Mode Bits */
  tmpccmrx &= ~TIM_CCMR1_OC1M;
 8003b98:	68fb      	ldr	r3, [r7, #12]
 8003b9a:	f023 0370 	bic.w	r3, r3, #112	@ 0x70
 8003b9e:	60fb      	str	r3, [r7, #12]
  tmpccmrx &= ~TIM_CCMR1_CC1S;
 8003ba0:	68fb      	ldr	r3, [r7, #12]
 8003ba2:	f023 0303 	bic.w	r3, r3, #3
 8003ba6:	60fb      	str	r3, [r7, #12]
  /* Select the Output Compare Mode */
  tmpccmrx |= OC_Config->OCMode;
 8003ba8:	683b      	ldr	r3, [r7, #0]
 8003baa:	681b      	ldr	r3, [r3, #0]
 8003bac:	68fa      	ldr	r2, [r7, #12]
 8003bae:	4313      	orrs	r3, r2
 8003bb0:	60fb      	str	r3, [r7, #12]

  /* Reset the Output Polarity level */
  tmpccer &= ~TIM_CCER_CC1P;
 8003bb2:	697b      	ldr	r3, [r7, #20]
 8003bb4:	f023 0302 	bic.w	r3, r3, #2
 8003bb8:	617b      	str	r3, [r7, #20]
  /* Set the Output Compare Polarity */
  tmpccer |= OC_Config->OCPolarity;
 8003bba:	683b      	ldr	r3, [r7, #0]
 8003bbc:	689b      	ldr	r3, [r3, #8]
 8003bbe:	697a      	ldr	r2, [r7, #20]
 8003bc0:	4313      	orrs	r3, r2
 8003bc2:	617b      	str	r3, [r7, #20]

  if (IS_TIM_CCXN_INSTANCE(TIMx, TIM_CHANNEL_1))
 8003bc4:	687b      	ldr	r3, [r7, #4]
 8003bc6:	4a1c      	ldr	r2, [pc, #112]	@ (8003c38 <TIM_OC1_SetConfig+0xc8>)
 8003bc8:	4293      	cmp	r3, r2
 8003bca:	d10c      	bne.n	8003be6 <TIM_OC1_SetConfig+0x76>
  {
    /* Check parameters */
    assert_param(IS_TIM_OCN_POLARITY(OC_Config->OCNPolarity));

    /* Reset the Output N Polarity level */
    tmpccer &= ~TIM_CCER_CC1NP;
 8003bcc:	697b      	ldr	r3, [r7, #20]
 8003bce:	f023 0308 	bic.w	r3, r3, #8
 8003bd2:	617b      	str	r3, [r7, #20]
    /* Set the Output N Polarity */
    tmpccer |= OC_Config->OCNPolarity;
 8003bd4:	683b      	ldr	r3, [r7, #0]
 8003bd6:	68db      	ldr	r3, [r3, #12]
 8003bd8:	697a      	ldr	r2, [r7, #20]
 8003bda:	4313      	orrs	r3, r2
 8003bdc:	617b      	str	r3, [r7, #20]
    /* Reset the Output N State */
    tmpccer &= ~TIM_CCER_CC1NE;
 8003bde:	697b      	ldr	r3, [r7, #20]
 8003be0:	f023 0304 	bic.w	r3, r3, #4
 8003be4:	617b      	str	r3, [r7, #20]
  }

  if (IS_TIM_BREAK_INSTANCE(TIMx))
 8003be6:	687b      	ldr	r3, [r7, #4]
 8003be8:	4a13      	ldr	r2, [pc, #76]	@ (8003c38 <TIM_OC1_SetConfig+0xc8>)
 8003bea:	4293      	cmp	r3, r2
 8003bec:	d111      	bne.n	8003c12 <TIM_OC1_SetConfig+0xa2>
    /* Check parameters */
    assert_param(IS_TIM_OCNIDLE_STATE(OC_Config->OCNIdleState));
    assert_param(IS_TIM_OCIDLE_STATE(OC_Config->OCIdleState));

    /* Reset the Output Compare and Output Compare N IDLE State */
    tmpcr2 &= ~TIM_CR2_OIS1;
 8003bee:	693b      	ldr	r3, [r7, #16]
 8003bf0:	f423 7380 	bic.w	r3, r3, #256	@ 0x100
 8003bf4:	613b      	str	r3, [r7, #16]
    tmpcr2 &= ~TIM_CR2_OIS1N;
 8003bf6:	693b      	ldr	r3, [r7, #16]
 8003bf8:	f423 7300 	bic.w	r3, r3, #512	@ 0x200
 8003bfc:	613b      	str	r3, [r7, #16]
    /* Set the Output Idle state */
    tmpcr2 |= OC_Config->OCIdleState;
 8003bfe:	683b      	ldr	r3, [r7, #0]
 8003c00:	695b      	ldr	r3, [r3, #20]
 8003c02:	693a      	ldr	r2, [r7, #16]
 8003c04:	4313      	orrs	r3, r2
 8003c06:	613b      	str	r3, [r7, #16]
    /* Set the Output N Idle state */
    tmpcr2 |= OC_Config->OCNIdleState;
 8003c08:	683b      	ldr	r3, [r7, #0]
 8003c0a:	699b      	ldr	r3, [r3, #24]
 8003c0c:	693a      	ldr	r2, [r7, #16]
 8003c0e:	4313      	orrs	r3, r2
 8003c10:	613b      	str	r3, [r7, #16]
  }

  /* Write to TIMx CR2 */
  TIMx->CR2 = tmpcr2;
 8003c12:	687b      	ldr	r3, [r7, #4]
 8003c14:	693a      	ldr	r2, [r7, #16]
 8003c16:	605a      	str	r2, [r3, #4]

  /* Write to TIMx CCMR1 */
  TIMx->CCMR1 = tmpccmrx;
 8003c18:	687b      	ldr	r3, [r7, #4]
 8003c1a:	68fa      	ldr	r2, [r7, #12]
 8003c1c:	619a      	str	r2, [r3, #24]

  /* Set the Capture Compare Register value */
  TIMx->CCR1 = OC_Config->Pulse;
 8003c1e:	683b      	ldr	r3, [r7, #0]
 8003c20:	685a      	ldr	r2, [r3, #4]
 8003c22:	687b      	ldr	r3, [r7, #4]
 8003c24:	635a      	str	r2, [r3, #52]	@ 0x34

  /* Write to TIMx CCER */
  TIMx->CCER = tmpccer;
 8003c26:	687b      	ldr	r3, [r7, #4]
 8003c28:	697a      	ldr	r2, [r7, #20]
 8003c2a:	621a      	str	r2, [r3, #32]
}
 8003c2c:	bf00      	nop
 8003c2e:	371c      	adds	r7, #28
 8003c30:	46bd      	mov	sp, r7
 8003c32:	bc80      	pop	{r7}
 8003c34:	4770      	bx	lr
 8003c36:	bf00      	nop
 8003c38:	40012c00 	.word	0x40012c00

08003c3c <TIM_OC2_SetConfig>:
  * @param  TIMx to select the TIM peripheral
  * @param  OC_Config The output configuration structure
  * @retval None
  */
void TIM_OC2_SetConfig(TIM_TypeDef *TIMx, const TIM_OC_InitTypeDef *OC_Config)
{
 8003c3c:	b480      	push	{r7}
 8003c3e:	b087      	sub	sp, #28
 8003c40:	af00      	add	r7, sp, #0
 8003c42:	6078      	str	r0, [r7, #4]
 8003c44:	6039      	str	r1, [r7, #0]
  uint32_t tmpccmrx;
  uint32_t tmpccer;
  uint32_t tmpcr2;

  /* Get the TIMx CCER register value */
  tmpccer = TIMx->CCER;
 8003c46:	687b      	ldr	r3, [r7, #4]
 8003c48:	6a1b      	ldr	r3, [r3, #32]
 8003c4a:	617b      	str	r3, [r7, #20]

  /* Disable the Channel 2: Reset the CC2E Bit */
  TIMx->CCER &= ~TIM_CCER_CC2E;
 8003c4c:	687b      	ldr	r3, [r7, #4]
 8003c4e:	6a1b      	ldr	r3, [r3, #32]
 8003c50:	f023 0210 	bic.w	r2, r3, #16
 8003c54:	687b      	ldr	r3, [r7, #4]
 8003c56:	621a      	str	r2, [r3, #32]

  /* Get the TIMx CR2 register value */
  tmpcr2 =  TIMx->CR2;
 8003c58:	687b      	ldr	r3, [r7, #4]
 8003c5a:	685b      	ldr	r3, [r3, #4]
 8003c5c:	613b      	str	r3, [r7, #16]

  /* Get the TIMx CCMR1 register value */
  tmpccmrx = TIMx->CCMR1;
 8003c5e:	687b      	ldr	r3, [r7, #4]
 8003c60:	699b      	ldr	r3, [r3, #24]
 8003c62:	60fb      	str	r3, [r7, #12]

  /* Reset the Output Compare mode and Capture/Compare selection Bits */
  tmpccmrx &= ~TIM_CCMR1_OC2M;
 8003c64:	68fb      	ldr	r3, [r7, #12]
 8003c66:	f423 43e0 	bic.w	r3, r3, #28672	@ 0x7000
 8003c6a:	60fb      	str	r3, [r7, #12]
  tmpccmrx &= ~TIM_CCMR1_CC2S;
 8003c6c:	68fb      	ldr	r3, [r7, #12]
 8003c6e:	f423 7340 	bic.w	r3, r3, #768	@ 0x300
 8003c72:	60fb      	str	r3, [r7, #12]

  /* Select the Output Compare Mode */
  tmpccmrx |= (OC_Config->OCMode << 8U);
 8003c74:	683b      	ldr	r3, [r7, #0]
 8003c76:	681b      	ldr	r3, [r3, #0]
 8003c78:	021b      	lsls	r3, r3, #8
 8003c7a:	68fa      	ldr	r2, [r7, #12]
 8003c7c:	4313      	orrs	r3, r2
 8003c7e:	60fb      	str	r3, [r7, #12]

  /* Reset the Output Polarity level */
  tmpccer &= ~TIM_CCER_CC2P;
 8003c80:	697b      	ldr	r3, [r7, #20]
 8003c82:	f023 0320 	bic.w	r3, r3, #32
 8003c86:	617b      	str	r3, [r7, #20]
  /* Set the Output Compare Polarity */
  tmpccer |= (OC_Config->OCPolarity << 4U);
 8003c88:	683b      	ldr	r3, [r7, #0]
 8003c8a:	689b      	ldr	r3, [r3, #8]
 8003c8c:	011b      	lsls	r3, r3, #4
 8003c8e:	697a      	ldr	r2, [r7, #20]
 8003c90:	4313      	orrs	r3, r2
 8003c92:	617b      	str	r3, [r7, #20]

  if (IS_TIM_CCXN_INSTANCE(TIMx, TIM_CHANNEL_2))
 8003c94:	687b      	ldr	r3, [r7, #4]
 8003c96:	4a1d      	ldr	r2, [pc, #116]	@ (8003d0c <TIM_OC2_SetConfig+0xd0>)
 8003c98:	4293      	cmp	r3, r2
 8003c9a:	d10d      	bne.n	8003cb8 <TIM_OC2_SetConfig+0x7c>
  {
    assert_param(IS_TIM_OCN_POLARITY(OC_Config->OCNPolarity));

    /* Reset the Output N Polarity level */
    tmpccer &= ~TIM_CCER_CC2NP;
 8003c9c:	697b      	ldr	r3, [r7, #20]
 8003c9e:	f023 0380 	bic.w	r3, r3, #128	@ 0x80
 8003ca2:	617b      	str	r3, [r7, #20]
    /* Set the Output N Polarity */
    tmpccer |= (OC_Config->OCNPolarity << 4U);
 8003ca4:	683b      	ldr	r3, [r7, #0]
 8003ca6:	68db      	ldr	r3, [r3, #12]
 8003ca8:	011b      	lsls	r3, r3, #4
 8003caa:	697a      	ldr	r2, [r7, #20]
 8003cac:	4313      	orrs	r3, r2
 8003cae:	617b      	str	r3, [r7, #20]
    /* Reset the Output N State */
    tmpccer &= ~TIM_CCER_CC2NE;
 8003cb0:	697b      	ldr	r3, [r7, #20]
 8003cb2:	f023 0340 	bic.w	r3, r3, #64	@ 0x40
 8003cb6:	617b      	str	r3, [r7, #20]

  }

  if (IS_TIM_BREAK_INSTANCE(TIMx))
 8003cb8:	687b      	ldr	r3, [r7, #4]
 8003cba:	4a14      	ldr	r2, [pc, #80]	@ (8003d0c <TIM_OC2_SetConfig+0xd0>)
 8003cbc:	4293      	cmp	r3, r2
 8003cbe:	d113      	bne.n	8003ce8 <TIM_OC2_SetConfig+0xac>
    /* Check parameters */
    assert_param(IS_TIM_OCNIDLE_STATE(OC_Config->OCNIdleState));
    assert_param(IS_TIM_OCIDLE_STATE(OC_Config->OCIdleState));

    /* Reset the Output Compare and Output Compare N IDLE State */
    tmpcr2 &= ~TIM_CR2_OIS2;
 8003cc0:	693b      	ldr	r3, [r7, #16]
 8003cc2:	f423 6380 	bic.w	r3, r3, #1024	@ 0x400
 8003cc6:	613b      	str	r3, [r7, #16]
    tmpcr2 &= ~TIM_CR2_OIS2N;
 8003cc8:	693b      	ldr	r3, [r7, #16]
 8003cca:	f423 6300 	bic.w	r3, r3, #2048	@ 0x800
 8003cce:	613b      	str	r3, [r7, #16]
    /* Set the Output Idle state */
    tmpcr2 |= (OC_Config->OCIdleState << 2U);
 8003cd0:	683b      	ldr	r3, [r7, #0]
 8003cd2:	695b      	ldr	r3, [r3, #20]
 8003cd4:	009b      	lsls	r3, r3, #2
 8003cd6:	693a      	ldr	r2, [r7, #16]
 8003cd8:	4313      	orrs	r3, r2
 8003cda:	613b      	str	r3, [r7, #16]
    /* Set the Output N Idle state */
    tmpcr2 |= (OC_Config->OCNIdleState << 2U);
 8003cdc:	683b      	ldr	r3, [r7, #0]
 8003cde:	699b      	ldr	r3, [r3, #24]
 8003ce0:	009b      	lsls	r3, r3, #2
 8003ce2:	693a      	ldr	r2, [r7, #16]
 8003ce4:	4313      	orrs	r3, r2
 8003ce6:	613b      	str	r3, [r7, #16]
  }

  /* Write to TIMx CR2 */
  TIMx->CR2 = tmpcr2;
 8003ce8:	687b      	ldr	r3, [r7, #4]
 8003cea:	693a      	ldr	r2, [r7, #16]
 8003cec:	605a      	str	r2, [r3, #4]

  /* Write to TIMx CCMR1 */
  TIMx->CCMR1 = tmpccmrx;
 8003cee:	687b      	ldr	r3, [r7, #4]
 8003cf0:	68fa      	ldr	r2, [r7, #12]
 8003cf2:	619a      	str	r2, [r3, #24]

  /* Set the Capture Compare Register value */
  TIMx->CCR2 = OC_Config->Pulse;
 8003cf4:	683b      	ldr	r3, [r7, #0]
 8003cf6:	685a      	ldr	r2, [r3, #4]
 8003cf8:	687b      	ldr	r3, [r7, #4]
 8003cfa:	639a      	str	r2, [r3, #56]	@ 0x38

  /* Write to TIMx CCER */
  TIMx->CCER = tmpccer;
 8003cfc:	687b      	ldr	r3, [r7, #4]
 8003cfe:	697a      	ldr	r2, [r7, #20]
 8003d00:	621a      	str	r2, [r3, #32]
}
 8003d02:	bf00      	nop
 8003d04:	371c      	adds	r7, #28
 8003d06:	46bd      	mov	sp, r7
 8003d08:	bc80      	pop	{r7}
 8003d0a:	4770      	bx	lr
 8003d0c:	40012c00 	.word	0x40012c00

08003d10 <TIM_OC3_SetConfig>:
  * @param  TIMx to select the TIM peripheral
  * @param  OC_Config The output configuration structure
  * @retval None
  */
static void TIM_OC3_SetConfig(TIM_TypeDef *TIMx, const TIM_OC_InitTypeDef *OC_Config)
{
 8003d10:	b480      	push	{r7}
 8003d12:	b087      	sub	sp, #28
 8003d14:	af00      	add	r7, sp, #0
 8003d16:	6078      	str	r0, [r7, #4]
 8003d18:	6039      	str	r1, [r7, #0]
  uint32_t tmpccmrx;
  uint32_t tmpccer;
  uint32_t tmpcr2;

  /* Get the TIMx CCER register value */
  tmpccer = TIMx->CCER;
 8003d1a:	687b      	ldr	r3, [r7, #4]
 8003d1c:	6a1b      	ldr	r3, [r3, #32]
 8003d1e:	617b      	str	r3, [r7, #20]

  /* Disable the Channel 3: Reset the CC2E Bit */
  TIMx->CCER &= ~TIM_CCER_CC3E;
 8003d20:	687b      	ldr	r3, [r7, #4]
 8003d22:	6a1b      	ldr	r3, [r3, #32]
 8003d24:	f423 7280 	bic.w	r2, r3, #256	@ 0x100
 8003d28:	687b      	ldr	r3, [r7, #4]
 8003d2a:	621a      	str	r2, [r3, #32]

  /* Get the TIMx CR2 register value */
  tmpcr2 =  TIMx->CR2;
 8003d2c:	687b      	ldr	r3, [r7, #4]
 8003d2e:	685b      	ldr	r3, [r3, #4]
 8003d30:	613b      	str	r3, [r7, #16]

  /* Get the TIMx CCMR2 register value */
  tmpccmrx = TIMx->CCMR2;
 8003d32:	687b      	ldr	r3, [r7, #4]
 8003d34:	69db      	ldr	r3, [r3, #28]
 8003d36:	60fb      	str	r3, [r7, #12]

  /* Reset the Output Compare mode and Capture/Compare selection Bits */
  tmpccmrx &= ~TIM_CCMR2_OC3M;
 8003d38:	68fb      	ldr	r3, [r7, #12]
 8003d3a:	f023 0370 	bic.w	r3, r3, #112	@ 0x70
 8003d3e:	60fb      	str	r3, [r7, #12]
  tmpccmrx &= ~TIM_CCMR2_CC3S;
 8003d40:	68fb      	ldr	r3, [r7, #12]
 8003d42:	f023 0303 	bic.w	r3, r3, #3
 8003d46:	60fb      	str	r3, [r7, #12]
  /* Select the Output Compare Mode */
  tmpccmrx |= OC_Config->OCMode;
 8003d48:	683b      	ldr	r3, [r7, #0]
 8003d4a:	681b      	ldr	r3, [r3, #0]
 8003d4c:	68fa      	ldr	r2, [r7, #12]
 8003d4e:	4313      	orrs	r3, r2
 8003d50:	60fb      	str	r3, [r7, #12]

  /* Reset the Output Polarity level */
  tmpccer &= ~TIM_CCER_CC3P;
 8003d52:	697b      	ldr	r3, [r7, #20]
 8003d54:	f423 7300 	bic.w	r3, r3, #512	@ 0x200
 8003d58:	617b      	str	r3, [r7, #20]
  /* Set the Output Compare Polarity */
  tmpccer |= (OC_Config->OCPolarity << 8U);
 8003d5a:	683b      	ldr	r3, [r7, #0]
 8003d5c:	689b      	ldr	r3, [r3, #8]
 8003d5e:	021b      	lsls	r3, r3, #8
 8003d60:	697a      	ldr	r2, [r7, #20]
 8003d62:	4313      	orrs	r3, r2
 8003d64:	617b      	str	r3, [r7, #20]

  if (IS_TIM_CCXN_INSTANCE(TIMx, TIM_CHANNEL_3))
 8003d66:	687b      	ldr	r3, [r7, #4]
 8003d68:	4a1d      	ldr	r2, [pc, #116]	@ (8003de0 <TIM_OC3_SetConfig+0xd0>)
 8003d6a:	4293      	cmp	r3, r2
 8003d6c:	d10d      	bne.n	8003d8a <TIM_OC3_SetConfig+0x7a>
  {
    assert_param(IS_TIM_OCN_POLARITY(OC_Config->OCNPolarity));

    /* Reset the Output N Polarity level */
    tmpccer &= ~TIM_CCER_CC3NP;
 8003d6e:	697b      	ldr	r3, [r7, #20]
 8003d70:	f423 6300 	bic.w	r3, r3, #2048	@ 0x800
 8003d74:	617b      	str	r3, [r7, #20]
    /* Set the Output N Polarity */
    tmpccer |= (OC_Config->OCNPolarity << 8U);
 8003d76:	683b      	ldr	r3, [r7, #0]
 8003d78:	68db      	ldr	r3, [r3, #12]
 8003d7a:	021b      	lsls	r3, r3, #8
 8003d7c:	697a      	ldr	r2, [r7, #20]
 8003d7e:	4313      	orrs	r3, r2
 8003d80:	617b      	str	r3, [r7, #20]
    /* Reset the Output N State */
    tmpccer &= ~TIM_CCER_CC3NE;
 8003d82:	697b      	ldr	r3, [r7, #20]
 8003d84:	f423 6380 	bic.w	r3, r3, #1024	@ 0x400
 8003d88:	617b      	str	r3, [r7, #20]
  }

  if (IS_TIM_BREAK_INSTANCE(TIMx))
 8003d8a:	687b      	ldr	r3, [r7, #4]
 8003d8c:	4a14      	ldr	r2, [pc, #80]	@ (8003de0 <TIM_OC3_SetConfig+0xd0>)
 8003d8e:	4293      	cmp	r3, r2
 8003d90:	d113      	bne.n	8003dba <TIM_OC3_SetConfig+0xaa>
    /* Check parameters */
    assert_param(IS_TIM_OCNIDLE_STATE(OC_Config->OCNIdleState));
    assert_param(IS_TIM_OCIDLE_STATE(OC_Config->OCIdleState));

    /* Reset the Output Compare and Output Compare N IDLE State */
    tmpcr2 &= ~TIM_CR2_OIS3;
 8003d92:	693b      	ldr	r3, [r7, #16]
 8003d94:	f423 5380 	bic.w	r3, r3, #4096	@ 0x1000
 8003d98:	613b      	str	r3, [r7, #16]
    tmpcr2 &= ~TIM_CR2_OIS3N;
 8003d9a:	693b      	ldr	r3, [r7, #16]
 8003d9c:	f423 5300 	bic.w	r3, r3, #8192	@ 0x2000
 8003da0:	613b      	str	r3, [r7, #16]
    /* Set the Output Idle state */
    tmpcr2 |= (OC_Config->OCIdleState << 4U);
 8003da2:	683b      	ldr	r3, [r7, #0]
 8003da4:	695b      	ldr	r3, [r3, #20]
 8003da6:	011b      	lsls	r3, r3, #4
 8003da8:	693a      	ldr	r2, [r7, #16]
 8003daa:	4313      	orrs	r3, r2
 8003dac:	613b      	str	r3, [r7, #16]
    /* Set the Output N Idle state */
    tmpcr2 |= (OC_Config->OCNIdleState << 4U);
 8003dae:	683b      	ldr	r3, [r7, #0]
 8003db0:	699b      	ldr	r3, [r3, #24]
 8003db2:	011b      	lsls	r3, r3, #4
 8003db4:	693a      	ldr	r2, [r7, #16]
 8003db6:	4313      	orrs	r3, r2
 8003db8:	613b      	str	r3, [r7, #16]
  }

  /* Write to TIMx CR2 */
  TIMx->CR2 = tmpcr2;
 8003dba:	687b      	ldr	r3, [r7, #4]
 8003dbc:	693a      	ldr	r2, [r7, #16]
 8003dbe:	605a      	str	r2, [r3, #4]

  /* Write to TIMx CCMR2 */
  TIMx->CCMR2 = tmpccmrx;
 8003dc0:	687b      	ldr	r3, [r7, #4]
 8003dc2:	68fa      	ldr	r2, [r7, #12]
 8003dc4:	61da      	str	r2, [r3, #28]

  /* Set the Capture Compare Register value */
  TIMx->CCR3 = OC_Config->Pulse;
 8003dc6:	683b      	ldr	r3, [r7, #0]
 8003dc8:	685a      	ldr	r2, [r3, #4]
 8003dca:	687b      	ldr	r3, [r7, #4]
 8003dcc:	63da      	str	r2, [r3, #60]	@ 0x3c

  /* Write to TIMx CCER */
  TIMx->CCER = tmpccer;
 8003dce:	687b      	ldr	r3, [r7, #4]
 8003dd0:	697a      	ldr	r2, [r7, #20]
 8003dd2:	621a      	str	r2, [r3, #32]
}
 8003dd4:	bf00      	nop
 8003dd6:	371c      	adds	r7, #28
 8003dd8:	46bd      	mov	sp, r7
 8003dda:	bc80      	pop	{r7}
 8003ddc:	4770      	bx	lr
 8003dde:	bf00      	nop
 8003de0:	40012c00 	.word	0x40012c00

08003de4 <TIM_OC4_SetConfig>:
  * @param  TIMx to select the TIM peripheral
  * @param  OC_Config The output configuration structure
  * @retval None
  */
static void TIM_OC4_SetConfig(TIM_TypeDef *TIMx, const TIM_OC_InitTypeDef *OC_Config)
{
 8003de4:	b480      	push	{r7}
 8003de6:	b087      	sub	sp, #28
 8003de8:	af00      	add	r7, sp, #0
 8003dea:	6078      	str	r0, [r7, #4]
 8003dec:	6039      	str	r1, [r7, #0]
  uint32_t tmpccmrx;
  uint32_t tmpccer;
  uint32_t tmpcr2;

  /* Get the TIMx CCER register value */
  tmpccer = TIMx->CCER;
 8003dee:	687b      	ldr	r3, [r7, #4]
 8003df0:	6a1b      	ldr	r3, [r3, #32]
 8003df2:	613b      	str	r3, [r7, #16]

  /* Disable the Channel 4: Reset the CC4E Bit */
  TIMx->CCER &= ~TIM_CCER_CC4E;
 8003df4:	687b      	ldr	r3, [r7, #4]
 8003df6:	6a1b      	ldr	r3, [r3, #32]
 8003df8:	f423 5280 	bic.w	r2, r3, #4096	@ 0x1000
 8003dfc:	687b      	ldr	r3, [r7, #4]
 8003dfe:	621a      	str	r2, [r3, #32]

  /* Get the TIMx CR2 register value */
  tmpcr2 =  TIMx->CR2;
 8003e00:	687b      	ldr	r3, [r7, #4]
 8003e02:	685b      	ldr	r3, [r3, #4]
 8003e04:	617b      	str	r3, [r7, #20]

  /* Get the TIMx CCMR2 register value */
  tmpccmrx = TIMx->CCMR2;
 8003e06:	687b      	ldr	r3, [r7, #4]
 8003e08:	69db      	ldr	r3, [r3, #28]
 8003e0a:	60fb      	str	r3, [r7, #12]

  /* Reset the Output Compare mode and Capture/Compare selection Bits */
  tmpccmrx &= ~TIM_CCMR2_OC4M;
 8003e0c:	68fb      	ldr	r3, [r7, #12]
 8003e0e:	f423 43e0 	bic.w	r3, r3, #28672	@ 0x7000
 8003e12:	60fb      	str	r3, [r7, #12]
  tmpccmrx &= ~TIM_CCMR2_CC4S;
 8003e14:	68fb      	ldr	r3, [r7, #12]
 8003e16:	f423 7340 	bic.w	r3, r3, #768	@ 0x300
 8003e1a:	60fb      	str	r3, [r7, #12]

  /* Select the Output Compare Mode */
  tmpccmrx |= (OC_Config->OCMode << 8U);
 8003e1c:	683b      	ldr	r3, [r7, #0]
 8003e1e:	681b      	ldr	r3, [r3, #0]
 8003e20:	021b      	lsls	r3, r3, #8
 8003e22:	68fa      	ldr	r2, [r7, #12]
 8003e24:	4313      	orrs	r3, r2
 8003e26:	60fb      	str	r3, [r7, #12]

  /* Reset the Output Polarity level */
  tmpccer &= ~TIM_CCER_CC4P;
 8003e28:	693b      	ldr	r3, [r7, #16]
 8003e2a:	f423 5300 	bic.w	r3, r3, #8192	@ 0x2000
 8003e2e:	613b      	str	r3, [r7, #16]
  /* Set the Output Compare Polarity */
  tmpccer |= (OC_Config->OCPolarity << 12U);
 8003e30:	683b      	ldr	r3, [r7, #0]
 8003e32:	689b      	ldr	r3, [r3, #8]
 8003e34:	031b      	lsls	r3, r3, #12
 8003e36:	693a      	ldr	r2, [r7, #16]
 8003e38:	4313      	orrs	r3, r2
 8003e3a:	613b      	str	r3, [r7, #16]

  if (IS_TIM_BREAK_INSTANCE(TIMx))
 8003e3c:	687b      	ldr	r3, [r7, #4]
 8003e3e:	4a0f      	ldr	r2, [pc, #60]	@ (8003e7c <TIM_OC4_SetConfig+0x98>)
 8003e40:	4293      	cmp	r3, r2
 8003e42:	d109      	bne.n	8003e58 <TIM_OC4_SetConfig+0x74>
  {
    /* Check parameters */
    assert_param(IS_TIM_OCIDLE_STATE(OC_Config->OCIdleState));

    /* Reset the Output Compare IDLE State */
    tmpcr2 &= ~TIM_CR2_OIS4;
 8003e44:	697b      	ldr	r3, [r7, #20]
 8003e46:	f423 4380 	bic.w	r3, r3, #16384	@ 0x4000
 8003e4a:	617b      	str	r3, [r7, #20]

    /* Set the Output Idle state */
    tmpcr2 |= (OC_Config->OCIdleState << 6U);
 8003e4c:	683b      	ldr	r3, [r7, #0]
 8003e4e:	695b      	ldr	r3, [r3, #20]
 8003e50:	019b      	lsls	r3, r3, #6
 8003e52:	697a      	ldr	r2, [r7, #20]
 8003e54:	4313      	orrs	r3, r2
 8003e56:	617b      	str	r3, [r7, #20]
  }

  /* Write to TIMx CR2 */
  TIMx->CR2 = tmpcr2;
 8003e58:	687b      	ldr	r3, [r7, #4]
 8003e5a:	697a      	ldr	r2, [r7, #20]
 8003e5c:	605a      	str	r2, [r3, #4]

  /* Write to TIMx CCMR2 */
  TIMx->CCMR2 = tmpccmrx;
 8003e5e:	687b      	ldr	r3, [r7, #4]
 8003e60:	68fa      	ldr	r2, [r7, #12]
 8003e62:	61da      	str	r2, [r3, #28]

  /* Set the Capture Compare Register value */
  TIMx->CCR4 = OC_Config->Pulse;
 8003e64:	683b      	ldr	r3, [r7, #0]
 8003e66:	685a      	ldr	r2, [r3, #4]
 8003e68:	687b      	ldr	r3, [r7, #4]
 8003e6a:	641a      	str	r2, [r3, #64]	@ 0x40

  /* Write to TIMx CCER */
  TIMx->CCER = tmpccer;
 8003e6c:	687b      	ldr	r3, [r7, #4]
 8003e6e:	693a      	ldr	r2, [r7, #16]
 8003e70:	621a      	str	r2, [r3, #32]
}
 8003e72:	bf00      	nop
 8003e74:	371c      	adds	r7, #28
 8003e76:	46bd      	mov	sp, r7
 8003e78:	bc80      	pop	{r7}
 8003e7a:	4770      	bx	lr
 8003e7c:	40012c00 	.word	0x40012c00

08003e80 <TIM_TI1_ConfigInputStage>:
  * @param  TIM_ICFilter Specifies the Input Capture Filter.
  *          This parameter must be a value between 0x00 and 0x0F.
  * @retval None
  */
static void TIM_TI1_ConfigInputStage(TIM_TypeDef *TIMx, uint32_t TIM_ICPolarity, uint32_t TIM_ICFilter)
{
 8003e80:	b480      	push	{r7}
 8003e82:	b087      	sub	sp, #28
 8003e84:	af00      	add	r7, sp, #0
 8003e86:	60f8      	str	r0, [r7, #12]
 8003e88:	60b9      	str	r1, [r7, #8]
 8003e8a:	607a      	str	r2, [r7, #4]
  uint32_t tmpccmr1;
  uint32_t tmpccer;

  /* Disable the Channel 1: Reset the CC1E Bit */
  tmpccer = TIMx->CCER;
 8003e8c:	68fb      	ldr	r3, [r7, #12]
 8003e8e:	6a1b      	ldr	r3, [r3, #32]
 8003e90:	617b      	str	r3, [r7, #20]
  TIMx->CCER &= ~TIM_CCER_CC1E;
 8003e92:	68fb      	ldr	r3, [r7, #12]
 8003e94:	6a1b      	ldr	r3, [r3, #32]
 8003e96:	f023 0201 	bic.w	r2, r3, #1
 8003e9a:	68fb      	ldr	r3, [r7, #12]
 8003e9c:	621a      	str	r2, [r3, #32]
  tmpccmr1 = TIMx->CCMR1;
 8003e9e:	68fb      	ldr	r3, [r7, #12]
 8003ea0:	699b      	ldr	r3, [r3, #24]
 8003ea2:	613b      	str	r3, [r7, #16]

  /* Set the filter */
  tmpccmr1 &= ~TIM_CCMR1_IC1F;
 8003ea4:	693b      	ldr	r3, [r7, #16]
 8003ea6:	f023 03f0 	bic.w	r3, r3, #240	@ 0xf0
 8003eaa:	613b      	str	r3, [r7, #16]
  tmpccmr1 |= (TIM_ICFilter << 4U);
 8003eac:	687b      	ldr	r3, [r7, #4]
 8003eae:	011b      	lsls	r3, r3, #4
 8003eb0:	693a      	ldr	r2, [r7, #16]
 8003eb2:	4313      	orrs	r3, r2
 8003eb4:	613b      	str	r3, [r7, #16]

  /* Select the Polarity and set the CC1E Bit */
  tmpccer &= ~(TIM_CCER_CC1P | TIM_CCER_CC1NP);
 8003eb6:	697b      	ldr	r3, [r7, #20]
 8003eb8:	f023 030a 	bic.w	r3, r3, #10
 8003ebc:	617b      	str	r3, [r7, #20]
  tmpccer |= TIM_ICPolarity;
 8003ebe:	697a      	ldr	r2, [r7, #20]
 8003ec0:	68bb      	ldr	r3, [r7, #8]
 8003ec2:	4313      	orrs	r3, r2
 8003ec4:	617b      	str	r3, [r7, #20]

  /* Write to TIMx CCMR1 and CCER registers */
  TIMx->CCMR1 = tmpccmr1;
 8003ec6:	68fb      	ldr	r3, [r7, #12]
 8003ec8:	693a      	ldr	r2, [r7, #16]
 8003eca:	619a      	str	r2, [r3, #24]
  TIMx->CCER = tmpccer;
 8003ecc:	68fb      	ldr	r3, [r7, #12]
 8003ece:	697a      	ldr	r2, [r7, #20]
 8003ed0:	621a      	str	r2, [r3, #32]
}
 8003ed2:	bf00      	nop
 8003ed4:	371c      	adds	r7, #28
 8003ed6:	46bd      	mov	sp, r7
 8003ed8:	bc80      	pop	{r7}
 8003eda:	4770      	bx	lr

08003edc <TIM_TI2_ConfigInputStage>:
  * @param  TIM_ICFilter Specifies the Input Capture Filter.
  *          This parameter must be a value between 0x00 and 0x0F.
  * @retval None
  */
static void TIM_TI2_ConfigInputStage(TIM_TypeDef *TIMx, uint32_t TIM_ICPolarity, uint32_t TIM_ICFilter)
{
 8003edc:	b480      	push	{r7}
 8003ede:	b087      	sub	sp, #28
 8003ee0:	af00      	add	r7, sp, #0
 8003ee2:	60f8      	str	r0, [r7, #12]
 8003ee4:	60b9      	str	r1, [r7, #8]
 8003ee6:	607a      	str	r2, [r7, #4]
  uint32_t tmpccmr1;
  uint32_t tmpccer;

  /* Disable the Channel 2: Reset the CC2E Bit */
  tmpccer = TIMx->CCER;
 8003ee8:	68fb      	ldr	r3, [r7, #12]
 8003eea:	6a1b      	ldr	r3, [r3, #32]
 8003eec:	617b      	str	r3, [r7, #20]
  TIMx->CCER &= ~TIM_CCER_CC2E;
 8003eee:	68fb      	ldr	r3, [r7, #12]
 8003ef0:	6a1b      	ldr	r3, [r3, #32]
 8003ef2:	f023 0210 	bic.w	r2, r3, #16
 8003ef6:	68fb      	ldr	r3, [r7, #12]
 8003ef8:	621a      	str	r2, [r3, #32]
  tmpccmr1 = TIMx->CCMR1;
 8003efa:	68fb      	ldr	r3, [r7, #12]
 8003efc:	699b      	ldr	r3, [r3, #24]
 8003efe:	613b      	str	r3, [r7, #16]

  /* Set the filter */
  tmpccmr1 &= ~TIM_CCMR1_IC2F;
 8003f00:	693b      	ldr	r3, [r7, #16]
 8003f02:	f423 4370 	bic.w	r3, r3, #61440	@ 0xf000
 8003f06:	613b      	str	r3, [r7, #16]
  tmpccmr1 |= (TIM_ICFilter << 12U);
 8003f08:	687b      	ldr	r3, [r7, #4]
 8003f0a:	031b      	lsls	r3, r3, #12
 8003f0c:	693a      	ldr	r2, [r7, #16]
 8003f0e:	4313      	orrs	r3, r2
 8003f10:	613b      	str	r3, [r7, #16]

  /* Select the Polarity and set the CC2E Bit */
  tmpccer &= ~(TIM_CCER_CC2P | TIM_CCER_CC2NP);
 8003f12:	697b      	ldr	r3, [r7, #20]
 8003f14:	f023 03a0 	bic.w	r3, r3, #160	@ 0xa0
 8003f18:	617b      	str	r3, [r7, #20]
  tmpccer |= (TIM_ICPolarity << 4U);
 8003f1a:	68bb      	ldr	r3, [r7, #8]
 8003f1c:	011b      	lsls	r3, r3, #4
 8003f1e:	697a      	ldr	r2, [r7, #20]
 8003f20:	4313      	orrs	r3, r2
 8003f22:	617b      	str	r3, [r7, #20]

  /* Write to TIMx CCMR1 and CCER registers */
  TIMx->CCMR1 = tmpccmr1 ;
 8003f24:	68fb      	ldr	r3, [r7, #12]
 8003f26:	693a      	ldr	r2, [r7, #16]
 8003f28:	619a      	str	r2, [r3, #24]
  TIMx->CCER = tmpccer;
 8003f2a:	68fb      	ldr	r3, [r7, #12]
 8003f2c:	697a      	ldr	r2, [r7, #20]
 8003f2e:	621a      	str	r2, [r3, #32]
}
 8003f30:	bf00      	nop
 8003f32:	371c      	adds	r7, #28
 8003f34:	46bd      	mov	sp, r7
 8003f36:	bc80      	pop	{r7}
 8003f38:	4770      	bx	lr

08003f3a <TIM_ITRx_SetConfig>:
  *            @arg TIM_TS_TI2FP2: Filtered Timer Input 2
  *            @arg TIM_TS_ETRF: External Trigger input
  * @retval None
  */
static void TIM_ITRx_SetConfig(TIM_TypeDef *TIMx, uint32_t InputTriggerSource)
{
 8003f3a:	b480      	push	{r7}
 8003f3c:	b085      	sub	sp, #20
 8003f3e:	af00      	add	r7, sp, #0
 8003f40:	6078      	str	r0, [r7, #4]
 8003f42:	6039      	str	r1, [r7, #0]
  uint32_t tmpsmcr;

  /* Get the TIMx SMCR register value */
  tmpsmcr = TIMx->SMCR;
 8003f44:	687b      	ldr	r3, [r7, #4]
 8003f46:	689b      	ldr	r3, [r3, #8]
 8003f48:	60fb      	str	r3, [r7, #12]
  /* Reset the TS Bits */
  tmpsmcr &= ~TIM_SMCR_TS;
 8003f4a:	68fb      	ldr	r3, [r7, #12]
 8003f4c:	f023 0370 	bic.w	r3, r3, #112	@ 0x70
 8003f50:	60fb      	str	r3, [r7, #12]
  /* Set the Input Trigger source and the slave mode*/
  tmpsmcr |= (InputTriggerSource | TIM_SLAVEMODE_EXTERNAL1);
 8003f52:	683a      	ldr	r2, [r7, #0]
 8003f54:	68fb      	ldr	r3, [r7, #12]
 8003f56:	4313      	orrs	r3, r2
 8003f58:	f043 0307 	orr.w	r3, r3, #7
 8003f5c:	60fb      	str	r3, [r7, #12]
  /* Write to TIMx SMCR */
  TIMx->SMCR = tmpsmcr;
 8003f5e:	687b      	ldr	r3, [r7, #4]
 8003f60:	68fa      	ldr	r2, [r7, #12]
 8003f62:	609a      	str	r2, [r3, #8]
}
 8003f64:	bf00      	nop
 8003f66:	3714      	adds	r7, #20
 8003f68:	46bd      	mov	sp, r7
 8003f6a:	bc80      	pop	{r7}
 8003f6c:	4770      	bx	lr

08003f6e <TIM_ETR_SetConfig>:
  *          This parameter must be a value between 0x00 and 0x0F
  * @retval None
  */
void TIM_ETR_SetConfig(TIM_TypeDef *TIMx, uint32_t TIM_ExtTRGPrescaler,
                       uint32_t TIM_ExtTRGPolarity, uint32_t ExtTRGFilter)
{
 8003f6e:	b480      	push	{r7}
 8003f70:	b087      	sub	sp, #28
 8003f72:	af00      	add	r7, sp, #0
 8003f74:	60f8      	str	r0, [r7, #12]
 8003f76:	60b9      	str	r1, [r7, #8]
 8003f78:	607a      	str	r2, [r7, #4]
 8003f7a:	603b      	str	r3, [r7, #0]
  uint32_t tmpsmcr;

  tmpsmcr = TIMx->SMCR;
 8003f7c:	68fb      	ldr	r3, [r7, #12]
 8003f7e:	689b      	ldr	r3, [r3, #8]
 8003f80:	617b      	str	r3, [r7, #20]

  /* Reset the ETR Bits */
  tmpsmcr &= ~(TIM_SMCR_ETF | TIM_SMCR_ETPS | TIM_SMCR_ECE | TIM_SMCR_ETP);
 8003f82:	697b      	ldr	r3, [r7, #20]
 8003f84:	f423 437f 	bic.w	r3, r3, #65280	@ 0xff00
 8003f88:	617b      	str	r3, [r7, #20]

  /* Set the Prescaler, the Filter value and the Polarity */
  tmpsmcr |= (uint32_t)(TIM_ExtTRGPrescaler | (TIM_ExtTRGPolarity | (ExtTRGFilter << 8U)));
 8003f8a:	683b      	ldr	r3, [r7, #0]
 8003f8c:	021a      	lsls	r2, r3, #8
 8003f8e:	687b      	ldr	r3, [r7, #4]
 8003f90:	431a      	orrs	r2, r3
 8003f92:	68bb      	ldr	r3, [r7, #8]
 8003f94:	4313      	orrs	r3, r2
 8003f96:	697a      	ldr	r2, [r7, #20]
 8003f98:	4313      	orrs	r3, r2
 8003f9a:	617b      	str	r3, [r7, #20]

  /* Write to TIMx SMCR */
  TIMx->SMCR = tmpsmcr;
 8003f9c:	68fb      	ldr	r3, [r7, #12]
 8003f9e:	697a      	ldr	r2, [r7, #20]
 8003fa0:	609a      	str	r2, [r3, #8]
}
 8003fa2:	bf00      	nop
 8003fa4:	371c      	adds	r7, #28
 8003fa6:	46bd      	mov	sp, r7
 8003fa8:	bc80      	pop	{r7}
 8003faa:	4770      	bx	lr

08003fac <TIM_CCxChannelCmd>:
  * @param  ChannelState specifies the TIM Channel CCxE bit new state.
  *          This parameter can be: TIM_CCx_ENABLE or TIM_CCx_DISABLE.
  * @retval None
  */
void TIM_CCxChannelCmd(TIM_TypeDef *TIMx, uint32_t Channel, uint32_t ChannelState)
{
 8003fac:	b480      	push	{r7}
 8003fae:	b087      	sub	sp, #28
 8003fb0:	af00      	add	r7, sp, #0
 8003fb2:	60f8      	str	r0, [r7, #12]
 8003fb4:	60b9      	str	r1, [r7, #8]
 8003fb6:	607a      	str	r2, [r7, #4]

  /* Check the parameters */
  assert_param(IS_TIM_CC1_INSTANCE(TIMx));
  assert_param(IS_TIM_CHANNELS(Channel));

  tmp = TIM_CCER_CC1E << (Channel & 0x1FU); /* 0x1FU = 31 bits max shift */
 8003fb8:	68bb      	ldr	r3, [r7, #8]
 8003fba:	f003 031f 	and.w	r3, r3, #31
 8003fbe:	2201      	movs	r2, #1
 8003fc0:	fa02 f303 	lsl.w	r3, r2, r3
 8003fc4:	617b      	str	r3, [r7, #20]

  /* Reset the CCxE Bit */
  TIMx->CCER &= ~tmp;
 8003fc6:	68fb      	ldr	r3, [r7, #12]
 8003fc8:	6a1a      	ldr	r2, [r3, #32]
 8003fca:	697b      	ldr	r3, [r7, #20]
 8003fcc:	43db      	mvns	r3, r3
 8003fce:	401a      	ands	r2, r3
 8003fd0:	68fb      	ldr	r3, [r7, #12]
 8003fd2:	621a      	str	r2, [r3, #32]

  /* Set or reset the CCxE Bit */
  TIMx->CCER |= (uint32_t)(ChannelState << (Channel & 0x1FU)); /* 0x1FU = 31 bits max shift */
 8003fd4:	68fb      	ldr	r3, [r7, #12]
 8003fd6:	6a1a      	ldr	r2, [r3, #32]
 8003fd8:	68bb      	ldr	r3, [r7, #8]
 8003fda:	f003 031f 	and.w	r3, r3, #31
 8003fde:	6879      	ldr	r1, [r7, #4]
 8003fe0:	fa01 f303 	lsl.w	r3, r1, r3
 8003fe4:	431a      	orrs	r2, r3
 8003fe6:	68fb      	ldr	r3, [r7, #12]
 8003fe8:	621a      	str	r2, [r3, #32]
}
 8003fea:	bf00      	nop
 8003fec:	371c      	adds	r7, #28
 8003fee:	46bd      	mov	sp, r7
 8003ff0:	bc80      	pop	{r7}
 8003ff2:	4770      	bx	lr

08003ff4 <HAL_TIMEx_MasterConfigSynchronization>:
  *         mode.
  * @retval HAL status
  */
HAL_StatusTypeDef HAL_TIMEx_MasterConfigSynchronization(TIM_HandleTypeDef *htim,
                                                        const TIM_MasterConfigTypeDef *sMasterConfig)
{
 8003ff4:	b480      	push	{r7}
 8003ff6:	b085      	sub	sp, #20
 8003ff8:	af00      	add	r7, sp, #0
 8003ffa:	6078      	str	r0, [r7, #4]
 8003ffc:	6039      	str	r1, [r7, #0]
  assert_param(IS_TIM_MASTER_INSTANCE(htim->Instance));
  assert_param(IS_TIM_TRGO_SOURCE(sMasterConfig->MasterOutputTrigger));
  assert_param(IS_TIM_MSM_STATE(sMasterConfig->MasterSlaveMode));

  /* Check input state */
  __HAL_LOCK(htim);
 8003ffe:	687b      	ldr	r3, [r7, #4]
 8004000:	f893 303c 	ldrb.w	r3, [r3, #60]	@ 0x3c
 8004004:	2b01      	cmp	r3, #1
 8004006:	d101      	bne.n	800400c <HAL_TIMEx_MasterConfigSynchronization+0x18>
 8004008:	2302      	movs	r3, #2
 800400a:	e046      	b.n	800409a <HAL_TIMEx_MasterConfigSynchronization+0xa6>
 800400c:	687b      	ldr	r3, [r7, #4]
 800400e:	2201      	movs	r2, #1
 8004010:	f883 203c 	strb.w	r2, [r3, #60]	@ 0x3c

  /* Change the handler state */
  htim->State = HAL_TIM_STATE_BUSY;
 8004014:	687b      	ldr	r3, [r7, #4]
 8004016:	2202      	movs	r2, #2
 8004018:	f883 203d 	strb.w	r2, [r3, #61]	@ 0x3d

  /* Get the TIMx CR2 register value */
  tmpcr2 = htim->Instance->CR2;
 800401c:	687b      	ldr	r3, [r7, #4]
 800401e:	681b      	ldr	r3, [r3, #0]
 8004020:	685b      	ldr	r3, [r3, #4]
 8004022:	60fb      	str	r3, [r7, #12]

  /* Get the TIMx SMCR register value */
  tmpsmcr = htim->Instance->SMCR;
 8004024:	687b      	ldr	r3, [r7, #4]
 8004026:	681b      	ldr	r3, [r3, #0]
 8004028:	689b      	ldr	r3, [r3, #8]
 800402a:	60bb      	str	r3, [r7, #8]

  /* Reset the MMS Bits */
  tmpcr2 &= ~TIM_CR2_MMS;
 800402c:	68fb      	ldr	r3, [r7, #12]
 800402e:	f023 0370 	bic.w	r3, r3, #112	@ 0x70
 8004032:	60fb      	str	r3, [r7, #12]
  /* Select the TRGO source */
  tmpcr2 |=  sMasterConfig->MasterOutputTrigger;
 8004034:	683b      	ldr	r3, [r7, #0]
 8004036:	681b      	ldr	r3, [r3, #0]
 8004038:	68fa      	ldr	r2, [r7, #12]
 800403a:	4313      	orrs	r3, r2
 800403c:	60fb      	str	r3, [r7, #12]

  /* Update TIMx CR2 */
  htim->Instance->CR2 = tmpcr2;
 800403e:	687b      	ldr	r3, [r7, #4]
 8004040:	681b      	ldr	r3, [r3, #0]
 8004042:	68fa      	ldr	r2, [r7, #12]
 8004044:	605a      	str	r2, [r3, #4]

  if (IS_TIM_SLAVE_INSTANCE(htim->Instance))
 8004046:	687b      	ldr	r3, [r7, #4]
 8004048:	681b      	ldr	r3, [r3, #0]
 800404a:	4a16      	ldr	r2, [pc, #88]	@ (80040a4 <HAL_TIMEx_MasterConfigSynchronization+0xb0>)
 800404c:	4293      	cmp	r3, r2
 800404e:	d00e      	beq.n	800406e <HAL_TIMEx_MasterConfigSynchronization+0x7a>
 8004050:	687b      	ldr	r3, [r7, #4]
 8004052:	681b      	ldr	r3, [r3, #0]
 8004054:	f1b3 4f80 	cmp.w	r3, #1073741824	@ 0x40000000
 8004058:	d009      	beq.n	800406e <HAL_TIMEx_MasterConfigSynchronization+0x7a>
 800405a:	687b      	ldr	r3, [r7, #4]
 800405c:	681b      	ldr	r3, [r3, #0]
 800405e:	4a12      	ldr	r2, [pc, #72]	@ (80040a8 <HAL_TIMEx_MasterConfigSynchronization+0xb4>)
 8004060:	4293      	cmp	r3, r2
 8004062:	d004      	beq.n	800406e <HAL_TIMEx_MasterConfigSynchronization+0x7a>
 8004064:	687b      	ldr	r3, [r7, #4]
 8004066:	681b      	ldr	r3, [r3, #0]
 8004068:	4a10      	ldr	r2, [pc, #64]	@ (80040ac <HAL_TIMEx_MasterConfigSynchronization+0xb8>)
 800406a:	4293      	cmp	r3, r2
 800406c:	d10c      	bne.n	8004088 <HAL_TIMEx_MasterConfigSynchronization+0x94>
  {
    /* Reset the MSM Bit */
    tmpsmcr &= ~TIM_SMCR_MSM;
 800406e:	68bb      	ldr	r3, [r7, #8]
 8004070:	f023 0380 	bic.w	r3, r3, #128	@ 0x80
 8004074:	60bb      	str	r3, [r7, #8]
    /* Set master mode */
    tmpsmcr |= sMasterConfig->MasterSlaveMode;
 8004076:	683b      	ldr	r3, [r7, #0]
 8004078:	685b      	ldr	r3, [r3, #4]
 800407a:	68ba      	ldr	r2, [r7, #8]
 800407c:	4313      	orrs	r3, r2
 800407e:	60bb      	str	r3, [r7, #8]

    /* Update TIMx SMCR */
    htim->Instance->SMCR = tmpsmcr;
 8004080:	687b      	ldr	r3, [r7, #4]
 8004082:	681b      	ldr	r3, [r3, #0]
 8004084:	68ba      	ldr	r2, [r7, #8]
 8004086:	609a      	str	r2, [r3, #8]
  }

  /* Change the htim state */
  htim->State = HAL_TIM_STATE_READY;
 8004088:	687b      	ldr	r3, [r7, #4]
 800408a:	2201      	movs	r2, #1
 800408c:	f883 203d 	strb.w	r2, [r3, #61]	@ 0x3d

  __HAL_UNLOCK(htim);
 8004090:	687b      	ldr	r3, [r7, #4]
 8004092:	2200      	movs	r2, #0
 8004094:	f883 203c 	strb.w	r2, [r3, #60]	@ 0x3c

  return HAL_OK;
 8004098:	2300      	movs	r3, #0
}
 800409a:	4618      	mov	r0, r3
 800409c:	3714      	adds	r7, #20
 800409e:	46bd      	mov	sp, r7
 80040a0:	bc80      	pop	{r7}
 80040a2:	4770      	bx	lr
 80040a4:	40012c00 	.word	0x40012c00
 80040a8:	40000400 	.word	0x40000400
 80040ac:	40000800 	.word	0x40000800

080040b0 <HAL_TIMEx_CommutCallback>:
  * @brief  Hall commutation changed callback in non-blocking mode
  * @param  htim TIM handle
  * @retval None
  */
__weak void HAL_TIMEx_CommutCallback(TIM_HandleTypeDef *htim)
{
 80040b0:	b480      	push	{r7}
 80040b2:	b083      	sub	sp, #12
 80040b4:	af00      	add	r7, sp, #0
 80040b6:	6078      	str	r0, [r7, #4]
  UNUSED(htim);

  /* NOTE : This function should not be modified, when the callback is needed,
            the HAL_TIMEx_CommutCallback could be implemented in the user file
   */
}
 80040b8:	bf00      	nop
 80040ba:	370c      	adds	r7, #12
 80040bc:	46bd      	mov	sp, r7
 80040be:	bc80      	pop	{r7}
 80040c0:	4770      	bx	lr

080040c2 <HAL_TIMEx_BreakCallback>:
  * @brief  Hall Break detection callback in non-blocking mode
  * @param  htim TIM handle
  * @retval None
  */
__weak void HAL_TIMEx_BreakCallback(TIM_HandleTypeDef *htim)
{
 80040c2:	b480      	push	{r7}
 80040c4:	b083      	sub	sp, #12
 80040c6:	af00      	add	r7, sp, #0
 80040c8:	6078      	str	r0, [r7, #4]
  UNUSED(htim);

  /* NOTE : This function should not be modified, when the callback is needed,
            the HAL_TIMEx_BreakCallback could be implemented in the user file
   */
}
 80040ca:	bf00      	nop
 80040cc:	370c      	adds	r7, #12
 80040ce:	46bd      	mov	sp, r7
 80040d0:	bc80      	pop	{r7}
 80040d2:	4770      	bx	lr

080040d4 <HAL_UART_Init>:
  * @param  huart  Pointer to a UART_HandleTypeDef structure that contains
  *                the configuration information for the specified UART module.
  * @retval HAL status
  */
HAL_StatusTypeDef HAL_UART_Init(UART_HandleTypeDef *huart)
{
 80040d4:	b580      	push	{r7, lr}
 80040d6:	b082      	sub	sp, #8
 80040d8:	af00      	add	r7, sp, #0
 80040da:	6078      	str	r0, [r7, #4]
  /* Check the UART handle allocation */
  if (huart == NULL)
 80040dc:	687b      	ldr	r3, [r7, #4]
 80040de:	2b00      	cmp	r3, #0
 80040e0:	d101      	bne.n	80040e6 <HAL_UART_Init+0x12>
  {
    return HAL_ERROR;
 80040e2:	2301      	movs	r3, #1
 80040e4:	e042      	b.n	800416c <HAL_UART_Init+0x98>
  assert_param(IS_UART_WORD_LENGTH(huart->Init.WordLength));
#if defined(USART_CR1_OVER8)
  assert_param(IS_UART_OVERSAMPLING(huart->Init.OverSampling));
#endif /* USART_CR1_OVER8 */

  if (huart->gState == HAL_UART_STATE_RESET)
 80040e6:	687b      	ldr	r3, [r7, #4]
 80040e8:	f893 3041 	ldrb.w	r3, [r3, #65]	@ 0x41
 80040ec:	b2db      	uxtb	r3, r3
 80040ee:	2b00      	cmp	r3, #0
 80040f0:	d106      	bne.n	8004100 <HAL_UART_Init+0x2c>
  {
    /* Allocate lock resource and initialize it */
    huart->Lock = HAL_UNLOCKED;
 80040f2:	687b      	ldr	r3, [r7, #4]
 80040f4:	2200      	movs	r2, #0
 80040f6:	f883 2040 	strb.w	r2, [r3, #64]	@ 0x40

    /* Init the low level hardware */
    huart->MspInitCallback(huart);
#else
    /* Init the low level hardware : GPIO, CLOCK */
    HAL_UART_MspInit(huart);
 80040fa:	6878      	ldr	r0, [r7, #4]
 80040fc:	f7fd f860 	bl	80011c0 <HAL_UART_MspInit>
#endif /* (USE_HAL_UART_REGISTER_CALLBACKS) */
  }

  huart->gState = HAL_UART_STATE_BUSY;
 8004100:	687b      	ldr	r3, [r7, #4]
 8004102:	2224      	movs	r2, #36	@ 0x24
 8004104:	f883 2041 	strb.w	r2, [r3, #65]	@ 0x41

  /* Disable the peripheral */
  __HAL_UART_DISABLE(huart);
 8004108:	687b      	ldr	r3, [r7, #4]
 800410a:	681b      	ldr	r3, [r3, #0]
 800410c:	68da      	ldr	r2, [r3, #12]
 800410e:	687b      	ldr	r3, [r7, #4]
 8004110:	681b      	ldr	r3, [r3, #0]
 8004112:	f422 5200 	bic.w	r2, r2, #8192	@ 0x2000
 8004116:	60da      	str	r2, [r3, #12]

  /* Set the UART Communication parameters */
  UART_SetConfig(huart);
 8004118:	6878      	ldr	r0, [r7, #4]
 800411a:	f000 f82b 	bl	8004174 <UART_SetConfig>

  /* In asynchronous mode, the following bits must be kept cleared:
     - LINEN and CLKEN bits in the USART_CR2 register,
     - SCEN, HDSEL and IREN  bits in the USART_CR3 register.*/
  CLEAR_BIT(huart->Instance->CR2, (USART_CR2_LINEN | USART_CR2_CLKEN));
 800411e:	687b      	ldr	r3, [r7, #4]
 8004120:	681b      	ldr	r3, [r3, #0]
 8004122:	691a      	ldr	r2, [r3, #16]
 8004124:	687b      	ldr	r3, [r7, #4]
 8004126:	681b      	ldr	r3, [r3, #0]
 8004128:	f422 4290 	bic.w	r2, r2, #18432	@ 0x4800
 800412c:	611a      	str	r2, [r3, #16]
  CLEAR_BIT(huart->Instance->CR3, (USART_CR3_SCEN | USART_CR3_HDSEL | USART_CR3_IREN));
 800412e:	687b      	ldr	r3, [r7, #4]
 8004130:	681b      	ldr	r3, [r3, #0]
 8004132:	695a      	ldr	r2, [r3, #20]
 8004134:	687b      	ldr	r3, [r7, #4]
 8004136:	681b      	ldr	r3, [r3, #0]
 8004138:	f022 022a 	bic.w	r2, r2, #42	@ 0x2a
 800413c:	615a      	str	r2, [r3, #20]

  /* Enable the peripheral */
  __HAL_UART_ENABLE(huart);
 800413e:	687b      	ldr	r3, [r7, #4]
 8004140:	681b      	ldr	r3, [r3, #0]
 8004142:	68da      	ldr	r2, [r3, #12]
 8004144:	687b      	ldr	r3, [r7, #4]
 8004146:	681b      	ldr	r3, [r3, #0]
 8004148:	f442 5200 	orr.w	r2, r2, #8192	@ 0x2000
 800414c:	60da      	str	r2, [r3, #12]

  /* Initialize the UART state */
  huart->ErrorCode = HAL_UART_ERROR_NONE;
 800414e:	687b      	ldr	r3, [r7, #4]
 8004150:	2200      	movs	r2, #0
 8004152:	645a      	str	r2, [r3, #68]	@ 0x44
  huart->gState = HAL_UART_STATE_READY;
 8004154:	687b      	ldr	r3, [r7, #4]
 8004156:	2220      	movs	r2, #32
 8004158:	f883 2041 	strb.w	r2, [r3, #65]	@ 0x41
  huart->RxState = HAL_UART_STATE_READY;
 800415c:	687b      	ldr	r3, [r7, #4]
 800415e:	2220      	movs	r2, #32
 8004160:	f883 2042 	strb.w	r2, [r3, #66]	@ 0x42
  huart->RxEventType = HAL_UART_RXEVENT_TC;
 8004164:	687b      	ldr	r3, [r7, #4]
 8004166:	2200      	movs	r2, #0
 8004168:	635a      	str	r2, [r3, #52]	@ 0x34

  return HAL_OK;
 800416a:	2300      	movs	r3, #0
}
 800416c:	4618      	mov	r0, r3
 800416e:	3708      	adds	r7, #8
 8004170:	46bd      	mov	sp, r7
 8004172:	bd80      	pop	{r7, pc}

08004174 <UART_SetConfig>:
  * @param  huart  Pointer to a UART_HandleTypeDef structure that contains
  *                the configuration information for the specified UART module.
  * @retval None
  */
static void UART_SetConfig(UART_HandleTypeDef *huart)
{
 8004174:	b580      	push	{r7, lr}
 8004176:	b084      	sub	sp, #16
 8004178:	af00      	add	r7, sp, #0
 800417a:	6078      	str	r0, [r7, #4]
  assert_param(IS_UART_MODE(huart->Init.Mode));

  /*-------------------------- USART CR2 Configuration -----------------------*/
  /* Configure the UART Stop Bits: Set STOP[13:12] bits
     according to huart->Init.StopBits value */
  MODIFY_REG(huart->Instance->CR2, USART_CR2_STOP, huart->Init.StopBits);
 800417c:	687b      	ldr	r3, [r7, #4]
 800417e:	681b      	ldr	r3, [r3, #0]
 8004180:	691b      	ldr	r3, [r3, #16]
 8004182:	f423 5140 	bic.w	r1, r3, #12288	@ 0x3000
 8004186:	687b      	ldr	r3, [r7, #4]
 8004188:	68da      	ldr	r2, [r3, #12]
 800418a:	687b      	ldr	r3, [r7, #4]
 800418c:	681b      	ldr	r3, [r3, #0]
 800418e:	430a      	orrs	r2, r1
 8004190:	611a      	str	r2, [r3, #16]
  tmpreg = (uint32_t)huart->Init.WordLength | huart->Init.Parity | huart->Init.Mode | huart->Init.OverSampling;
  MODIFY_REG(huart->Instance->CR1,
             (uint32_t)(USART_CR1_M | USART_CR1_PCE | USART_CR1_PS | USART_CR1_TE | USART_CR1_RE | USART_CR1_OVER8),
             tmpreg);
#else
  tmpreg = (uint32_t)huart->Init.WordLength | huart->Init.Parity | huart->Init.Mode;
 8004192:	687b      	ldr	r3, [r7, #4]
 8004194:	689a      	ldr	r2, [r3, #8]
 8004196:	687b      	ldr	r3, [r7, #4]
 8004198:	691b      	ldr	r3, [r3, #16]
 800419a:	431a      	orrs	r2, r3
 800419c:	687b      	ldr	r3, [r7, #4]
 800419e:	695b      	ldr	r3, [r3, #20]
 80041a0:	4313      	orrs	r3, r2
 80041a2:	60bb      	str	r3, [r7, #8]
  MODIFY_REG(huart->Instance->CR1,
 80041a4:	687b      	ldr	r3, [r7, #4]
 80041a6:	681b      	ldr	r3, [r3, #0]
 80041a8:	68db      	ldr	r3, [r3, #12]
 80041aa:	f423 53b0 	bic.w	r3, r3, #5632	@ 0x1600
 80041ae:	f023 030c 	bic.w	r3, r3, #12
 80041b2:	687a      	ldr	r2, [r7, #4]
 80041b4:	6812      	ldr	r2, [r2, #0]
 80041b6:	68b9      	ldr	r1, [r7, #8]
 80041b8:	430b      	orrs	r3, r1
 80041ba:	60d3      	str	r3, [r2, #12]
             tmpreg);
#endif /* USART_CR1_OVER8 */

  /*-------------------------- USART CR3 Configuration -----------------------*/
  /* Configure the UART HFC: Set CTSE and RTSE bits according to huart->Init.HwFlowCtl value */
  MODIFY_REG(huart->Instance->CR3, (USART_CR3_RTSE | USART_CR3_CTSE), huart->Init.HwFlowCtl);
 80041bc:	687b      	ldr	r3, [r7, #4]
 80041be:	681b      	ldr	r3, [r3, #0]
 80041c0:	695b      	ldr	r3, [r3, #20]
 80041c2:	f423 7140 	bic.w	r1, r3, #768	@ 0x300
 80041c6:	687b      	ldr	r3, [r7, #4]
 80041c8:	699a      	ldr	r2, [r3, #24]
 80041ca:	687b      	ldr	r3, [r7, #4]
 80041cc:	681b      	ldr	r3, [r3, #0]
 80041ce:	430a      	orrs	r2, r1
 80041d0:	615a      	str	r2, [r3, #20]


  if(huart->Instance == USART1)
 80041d2:	687b      	ldr	r3, [r7, #4]
 80041d4:	681b      	ldr	r3, [r3, #0]
 80041d6:	4a2c      	ldr	r2, [pc, #176]	@ (8004288 <UART_SetConfig+0x114>)
 80041d8:	4293      	cmp	r3, r2
 80041da:	d103      	bne.n	80041e4 <UART_SetConfig+0x70>
  {
    pclk = HAL_RCC_GetPCLK2Freq();
 80041dc:	f7fe ffe2 	bl	80031a4 <HAL_RCC_GetPCLK2Freq>
 80041e0:	60f8      	str	r0, [r7, #12]
 80041e2:	e002      	b.n	80041ea <UART_SetConfig+0x76>
  }
  else
  {
    pclk = HAL_RCC_GetPCLK1Freq();
 80041e4:	f7fe ffca 	bl	800317c <HAL_RCC_GetPCLK1Freq>
 80041e8:	60f8      	str	r0, [r7, #12]
  else
  {
    huart->Instance->BRR = UART_BRR_SAMPLING16(pclk, huart->Init.BaudRate);
  }
#else
  huart->Instance->BRR = UART_BRR_SAMPLING16(pclk, huart->Init.BaudRate);
 80041ea:	68fa      	ldr	r2, [r7, #12]
 80041ec:	4613      	mov	r3, r2
 80041ee:	009b      	lsls	r3, r3, #2
 80041f0:	4413      	add	r3, r2
 80041f2:	009a      	lsls	r2, r3, #2
 80041f4:	441a      	add	r2, r3
 80041f6:	687b      	ldr	r3, [r7, #4]
 80041f8:	685b      	ldr	r3, [r3, #4]
 80041fa:	009b      	lsls	r3, r3, #2
 80041fc:	fbb2 f3f3 	udiv	r3, r2, r3
 8004200:	4a22      	ldr	r2, [pc, #136]	@ (800428c <UART_SetConfig+0x118>)
 8004202:	fba2 2303 	umull	r2, r3, r2, r3
 8004206:	095b      	lsrs	r3, r3, #5
 8004208:	0119      	lsls	r1, r3, #4
 800420a:	68fa      	ldr	r2, [r7, #12]
 800420c:	4613      	mov	r3, r2
 800420e:	009b      	lsls	r3, r3, #2
 8004210:	4413      	add	r3, r2
 8004212:	009a      	lsls	r2, r3, #2
 8004214:	441a      	add	r2, r3
 8004216:	687b      	ldr	r3, [r7, #4]
 8004218:	685b      	ldr	r3, [r3, #4]
 800421a:	009b      	lsls	r3, r3, #2
 800421c:	fbb2 f2f3 	udiv	r2, r2, r3
 8004220:	4b1a      	ldr	r3, [pc, #104]	@ (800428c <UART_SetConfig+0x118>)
 8004222:	fba3 0302 	umull	r0, r3, r3, r2
 8004226:	095b      	lsrs	r3, r3, #5
 8004228:	2064      	movs	r0, #100	@ 0x64
 800422a:	fb00 f303 	mul.w	r3, r0, r3
 800422e:	1ad3      	subs	r3, r2, r3
 8004230:	011b      	lsls	r3, r3, #4
 8004232:	3332      	adds	r3, #50	@ 0x32
 8004234:	4a15      	ldr	r2, [pc, #84]	@ (800428c <UART_SetConfig+0x118>)
 8004236:	fba2 2303 	umull	r2, r3, r2, r3
 800423a:	095b      	lsrs	r3, r3, #5
 800423c:	f003 03f0 	and.w	r3, r3, #240	@ 0xf0
 8004240:	4419      	add	r1, r3
 8004242:	68fa      	ldr	r2, [r7, #12]
 8004244:	4613      	mov	r3, r2
 8004246:	009b      	lsls	r3, r3, #2
 8004248:	4413      	add	r3, r2
 800424a:	009a      	lsls	r2, r3, #2
 800424c:	441a      	add	r2, r3
 800424e:	687b      	ldr	r3, [r7, #4]
 8004250:	685b      	ldr	r3, [r3, #4]
 8004252:	009b      	lsls	r3, r3, #2
 8004254:	fbb2 f2f3 	udiv	r2, r2, r3
 8004258:	4b0c      	ldr	r3, [pc, #48]	@ (800428c <UART_SetConfig+0x118>)
 800425a:	fba3 0302 	umull	r0, r3, r3, r2
 800425e:	095b      	lsrs	r3, r3, #5
 8004260:	2064      	movs	r0, #100	@ 0x64
 8004262:	fb00 f303 	mul.w	r3, r0, r3
 8004266:	1ad3      	subs	r3, r2, r3
 8004268:	011b      	lsls	r3, r3, #4
 800426a:	3332      	adds	r3, #50	@ 0x32
 800426c:	4a07      	ldr	r2, [pc, #28]	@ (800428c <UART_SetConfig+0x118>)
 800426e:	fba2 2303 	umull	r2, r3, r2, r3
 8004272:	095b      	lsrs	r3, r3, #5
 8004274:	f003 020f 	and.w	r2, r3, #15
 8004278:	687b      	ldr	r3, [r7, #4]
 800427a:	681b      	ldr	r3, [r3, #0]
 800427c:	440a      	add	r2, r1
 800427e:	609a      	str	r2, [r3, #8]
#endif /* USART_CR1_OVER8 */
}
 8004280:	bf00      	nop
 8004282:	3710      	adds	r7, #16
 8004284:	46bd      	mov	sp, r7
 8004286:	bd80      	pop	{r7, pc}
 8004288:	40013800 	.word	0x40013800
 800428c:	51eb851f 	.word	0x51eb851f

08004290 <memset>:
 8004290:	4603      	mov	r3, r0
 8004292:	4402      	add	r2, r0
 8004294:	4293      	cmp	r3, r2
 8004296:	d100      	bne.n	800429a <memset+0xa>
 8004298:	4770      	bx	lr
 800429a:	f803 1b01 	strb.w	r1, [r3], #1
 800429e:	e7f9      	b.n	8004294 <memset+0x4>

080042a0 <__libc_init_array>:
 80042a0:	b570      	push	{r4, r5, r6, lr}
 80042a2:	2600      	movs	r6, #0
 80042a4:	4d0c      	ldr	r5, [pc, #48]	@ (80042d8 <__libc_init_array+0x38>)
 80042a6:	4c0d      	ldr	r4, [pc, #52]	@ (80042dc <__libc_init_array+0x3c>)
 80042a8:	1b64      	subs	r4, r4, r5
 80042aa:	10a4      	asrs	r4, r4, #2
 80042ac:	42a6      	cmp	r6, r4
 80042ae:	d109      	bne.n	80042c4 <__libc_init_array+0x24>
 80042b0:	f000 f81a 	bl	80042e8 <_init>
 80042b4:	2600      	movs	r6, #0
 80042b6:	4d0a      	ldr	r5, [pc, #40]	@ (80042e0 <__libc_init_array+0x40>)
 80042b8:	4c0a      	ldr	r4, [pc, #40]	@ (80042e4 <__libc_init_array+0x44>)
 80042ba:	1b64      	subs	r4, r4, r5
 80042bc:	10a4      	asrs	r4, r4, #2
 80042be:	42a6      	cmp	r6, r4
 80042c0:	d105      	bne.n	80042ce <__libc_init_array+0x2e>
 80042c2:	bd70      	pop	{r4, r5, r6, pc}
 80042c4:	f855 3b04 	ldr.w	r3, [r5], #4
 80042c8:	4798      	blx	r3
 80042ca:	3601      	adds	r6, #1
 80042cc:	e7ee      	b.n	80042ac <__libc_init_array+0xc>
 80042ce:	f855 3b04 	ldr.w	r3, [r5], #4
 80042d2:	4798      	blx	r3
 80042d4:	3601      	adds	r6, #1
 80042d6:	e7f2      	b.n	80042be <__libc_init_array+0x1e>
 80042d8:	0800432c 	.word	0x0800432c
 80042dc:	0800432c 	.word	0x0800432c
 80042e0:	0800432c 	.word	0x0800432c
 80042e4:	08004330 	.word	0x08004330

080042e8 <_init>:
 80042e8:	b5f8      	push	{r3, r4, r5, r6, r7, lr}
 80042ea:	bf00      	nop
 80042ec:	bcf8      	pop	{r3, r4, r5, r6, r7}
 80042ee:	bc08      	pop	{r3}
 80042f0:	469e      	mov	lr, r3
 80042f2:	4770      	bx	lr

080042f4 <_fini>:
 80042f4:	b5f8      	push	{r3, r4, r5, r6, r7, lr}
 80042f6:	bf00      	nop
 80042f8:	bcf8      	pop	{r3, r4, r5, r6, r7}
 80042fa:	bc08      	pop	{r3}
 80042fc:	469e      	mov	lr, r3
 80042fe:	4770      	bx	lr
