
Fuzzy_Balancing_Robot.elf:     file format elf32-littlearm

Sections:
Idx Name          Size      VMA       LMA       File off  Algn
  0 .isr_vector   0000010c  08000000  08000000  00001000  2**0
                  CONTENTS, ALLOC, LOAD, READONLY, DATA
  1 .text         0000613c  08000110  08000110  00001110  2**3
                  CONTENTS, ALLOC, LOAD, READONLY, CODE
  2 .rodata       000000a0  08006250  08006250  00007250  2**3
                  CONTENTS, ALLOC, LOAD, READONLY, DATA
  3 .ARM.extab    00000000  080062f0  080062f0  00008100  2**0
                  CONTENTS
  4 .ARM          00000000  080062f0  080062f0  00008100  2**0
                  CONTENTS
  5 .preinit_array 00000000  080062f0  080062f0  00008100  2**0
                  CONTENTS, ALLOC, LOAD, DATA
  6 .init_array   00000004  080062f0  080062f0  000072f0  2**2
                  CONTENTS, ALLOC, LOAD, READONLY, DATA
  7 .fini_array   00000004  080062f4  080062f4  000072f4  2**2
                  CONTENTS, ALLOC, LOAD, READONLY, DATA
  8 .data         00000100  20000000  080062f8  00008000  2**3
                  CONTENTS, ALLOC, LOAD, DATA
  9 .bss          00000368  20000100  080063f8  00008100  2**3
                  ALLOC
 10 ._user_heap_stack 00000600  20000468  080063f8  00008468  2**0
                  ALLOC
 11 .ARM.attributes 00000029  00000000  00000000  00008100  2**0
                  CONTENTS, READONLY
 12 .debug_info   0000ef2a  00000000  00000000  00008129  2**0
                  CONTENTS, READONLY, DEBUGGING, OCTETS
 13 .debug_abbrev 00001f9b  00000000  00000000  00017053  2**0
                  CONTENTS, READONLY, DEBUGGING, OCTETS
 14 .debug_aranges 00000ef8  00000000  00000000  00018ff0  2**3
                  CONTENTS, READONLY, DEBUGGING, OCTETS
 15 .debug_rnglists 00000be7  00000000  00000000  00019ee8  2**0
                  CONTENTS, READONLY, DEBUGGING, OCTETS
 16 .debug_macro  00017d65  00000000  00000000  0001aacf  2**0
                  CONTENTS, READONLY, DEBUGGING, OCTETS
 17 .debug_line   0001136b  00000000  00000000  00032834  2**0
                  CONTENTS, READONLY, DEBUGGING, OCTETS
 18 .debug_str    0008cac2  00000000  00000000  00043b9f  2**0
                  CONTENTS, READONLY, DEBUGGING, OCTETS
 19 .comment      00000043  00000000  00000000  000d0661  2**0
                  CONTENTS, READONLY
 20 .debug_frame  000045f4  00000000  00000000  000d06a4  2**2
                  CONTENTS, READONLY, DEBUGGING, OCTETS
 21 .debug_line_str 00000056  00000000  00000000  000d4c98  2**0
                  CONTENTS, READONLY, DEBUGGING, OCTETS

Disassembly of section .text:

08000110 <__do_global_dtors_aux>:
 8000110:	b510      	push	{r4, lr}
 8000112:	4c05      	ldr	r4, [pc, #20]	@ (8000128 <__do_global_dtors_aux+0x18>)
 8000114:	7823      	ldrb	r3, [r4, #0]
 8000116:	b933      	cbnz	r3, 8000126 <__do_global_dtors_aux+0x16>
 8000118:	4b04      	ldr	r3, [pc, #16]	@ (800012c <__do_global_dtors_aux+0x1c>)
 800011a:	b113      	cbz	r3, 8000122 <__do_global_dtors_aux+0x12>
 800011c:	4804      	ldr	r0, [pc, #16]	@ (8000130 <__do_global_dtors_aux+0x20>)
 800011e:	f3af 8000 	nop.w
 8000122:	2301      	movs	r3, #1
 8000124:	7023      	strb	r3, [r4, #0]
 8000126:	bd10      	pop	{r4, pc}
 8000128:	20000100 	.word	0x20000100
 800012c:	00000000 	.word	0x00000000
 8000130:	08006234 	.word	0x08006234

08000134 <frame_dummy>:
 8000134:	b508      	push	{r3, lr}
 8000136:	4b03      	ldr	r3, [pc, #12]	@ (8000144 <frame_dummy+0x10>)
 8000138:	b11b      	cbz	r3, 8000142 <frame_dummy+0xe>
 800013a:	4903      	ldr	r1, [pc, #12]	@ (8000148 <frame_dummy+0x14>)
 800013c:	4803      	ldr	r0, [pc, #12]	@ (800014c <frame_dummy+0x18>)
 800013e:	f3af 8000 	nop.w
 8000142:	bd08      	pop	{r3, pc}
 8000144:	00000000 	.word	0x00000000
 8000148:	20000104 	.word	0x20000104
 800014c:	08006234 	.word	0x08006234

08000150 <__aeabi_drsub>:
 8000150:	f081 4100 	eor.w	r1, r1, #2147483648	@ 0x80000000
 8000154:	e002      	b.n	800015c <__adddf3>
 8000156:	bf00      	nop

08000158 <__aeabi_dsub>:
 8000158:	f083 4300 	eor.w	r3, r3, #2147483648	@ 0x80000000

0800015c <__adddf3>:
 800015c:	b530      	push	{r4, r5, lr}
 800015e:	ea4f 0441 	mov.w	r4, r1, lsl #1
 8000162:	ea4f 0543 	mov.w	r5, r3, lsl #1
 8000166:	ea94 0f05 	teq	r4, r5
 800016a:	bf08      	it	eq
 800016c:	ea90 0f02 	teqeq	r0, r2
 8000170:	bf1f      	itttt	ne
 8000172:	ea54 0c00 	orrsne.w	ip, r4, r0
 8000176:	ea55 0c02 	orrsne.w	ip, r5, r2
 800017a:	ea7f 5c64 	mvnsne.w	ip, r4, asr #21
 800017e:	ea7f 5c65 	mvnsne.w	ip, r5, asr #21
 8000182:	f000 80e2 	beq.w	800034a <__adddf3+0x1ee>
 8000186:	ea4f 5454 	mov.w	r4, r4, lsr #21
 800018a:	ebd4 5555 	rsbs	r5, r4, r5, lsr #21
 800018e:	bfb8      	it	lt
 8000190:	426d      	neglt	r5, r5
 8000192:	dd0c      	ble.n	80001ae <__adddf3+0x52>
 8000194:	442c      	add	r4, r5
 8000196:	ea80 0202 	eor.w	r2, r0, r2
 800019a:	ea81 0303 	eor.w	r3, r1, r3
 800019e:	ea82 0000 	eor.w	r0, r2, r0
 80001a2:	ea83 0101 	eor.w	r1, r3, r1
 80001a6:	ea80 0202 	eor.w	r2, r0, r2
 80001aa:	ea81 0303 	eor.w	r3, r1, r3
 80001ae:	2d36      	cmp	r5, #54	@ 0x36
 80001b0:	bf88      	it	hi
 80001b2:	bd30      	pophi	{r4, r5, pc}
 80001b4:	f011 4f00 	tst.w	r1, #2147483648	@ 0x80000000
 80001b8:	ea4f 3101 	mov.w	r1, r1, lsl #12
 80001bc:	f44f 1c80 	mov.w	ip, #1048576	@ 0x100000
 80001c0:	ea4c 3111 	orr.w	r1, ip, r1, lsr #12
 80001c4:	d002      	beq.n	80001cc <__adddf3+0x70>
 80001c6:	4240      	negs	r0, r0
 80001c8:	eb61 0141 	sbc.w	r1, r1, r1, lsl #1
 80001cc:	f013 4f00 	tst.w	r3, #2147483648	@ 0x80000000
 80001d0:	ea4f 3303 	mov.w	r3, r3, lsl #12
 80001d4:	ea4c 3313 	orr.w	r3, ip, r3, lsr #12
 80001d8:	d002      	beq.n	80001e0 <__adddf3+0x84>
 80001da:	4252      	negs	r2, r2
 80001dc:	eb63 0343 	sbc.w	r3, r3, r3, lsl #1
 80001e0:	ea94 0f05 	teq	r4, r5
 80001e4:	f000 80a7 	beq.w	8000336 <__adddf3+0x1da>
 80001e8:	f1a4 0401 	sub.w	r4, r4, #1
 80001ec:	f1d5 0e20 	rsbs	lr, r5, #32
 80001f0:	db0d      	blt.n	800020e <__adddf3+0xb2>
 80001f2:	fa02 fc0e 	lsl.w	ip, r2, lr
 80001f6:	fa22 f205 	lsr.w	r2, r2, r5
 80001fa:	1880      	adds	r0, r0, r2
 80001fc:	f141 0100 	adc.w	r1, r1, #0
 8000200:	fa03 f20e 	lsl.w	r2, r3, lr
 8000204:	1880      	adds	r0, r0, r2
 8000206:	fa43 f305 	asr.w	r3, r3, r5
 800020a:	4159      	adcs	r1, r3
 800020c:	e00e      	b.n	800022c <__adddf3+0xd0>
 800020e:	f1a5 0520 	sub.w	r5, r5, #32
 8000212:	f10e 0e20 	add.w	lr, lr, #32
 8000216:	2a01      	cmp	r2, #1
 8000218:	fa03 fc0e 	lsl.w	ip, r3, lr
 800021c:	bf28      	it	cs
 800021e:	f04c 0c02 	orrcs.w	ip, ip, #2
 8000222:	fa43 f305 	asr.w	r3, r3, r5
 8000226:	18c0      	adds	r0, r0, r3
 8000228:	eb51 71e3 	adcs.w	r1, r1, r3, asr #31
 800022c:	f001 4500 	and.w	r5, r1, #2147483648	@ 0x80000000
 8000230:	d507      	bpl.n	8000242 <__adddf3+0xe6>
 8000232:	f04f 0e00 	mov.w	lr, #0
 8000236:	f1dc 0c00 	rsbs	ip, ip, #0
 800023a:	eb7e 0000 	sbcs.w	r0, lr, r0
 800023e:	eb6e 0101 	sbc.w	r1, lr, r1
 8000242:	f5b1 1f80 	cmp.w	r1, #1048576	@ 0x100000
 8000246:	d31b      	bcc.n	8000280 <__adddf3+0x124>
 8000248:	f5b1 1f00 	cmp.w	r1, #2097152	@ 0x200000
 800024c:	d30c      	bcc.n	8000268 <__adddf3+0x10c>
 800024e:	0849      	lsrs	r1, r1, #1
 8000250:	ea5f 0030 	movs.w	r0, r0, rrx
 8000254:	ea4f 0c3c 	mov.w	ip, ip, rrx
 8000258:	f104 0401 	add.w	r4, r4, #1
 800025c:	ea4f 5244 	mov.w	r2, r4, lsl #21
 8000260:	f512 0f80 	cmn.w	r2, #4194304	@ 0x400000
 8000264:	f080 809a 	bcs.w	800039c <__adddf3+0x240>
 8000268:	f1bc 4f00 	cmp.w	ip, #2147483648	@ 0x80000000
 800026c:	bf08      	it	eq
 800026e:	ea5f 0c50 	movseq.w	ip, r0, lsr #1
 8000272:	f150 0000 	adcs.w	r0, r0, #0
 8000276:	eb41 5104 	adc.w	r1, r1, r4, lsl #20
 800027a:	ea41 0105 	orr.w	r1, r1, r5
 800027e:	bd30      	pop	{r4, r5, pc}
 8000280:	ea5f 0c4c 	movs.w	ip, ip, lsl #1
 8000284:	4140      	adcs	r0, r0
 8000286:	eb41 0101 	adc.w	r1, r1, r1
 800028a:	3c01      	subs	r4, #1
 800028c:	bf28      	it	cs
 800028e:	f5b1 1f80 	cmpcs.w	r1, #1048576	@ 0x100000
 8000292:	d2e9      	bcs.n	8000268 <__adddf3+0x10c>
 8000294:	f091 0f00 	teq	r1, #0
 8000298:	bf04      	itt	eq
 800029a:	4601      	moveq	r1, r0
 800029c:	2000      	moveq	r0, #0
 800029e:	fab1 f381 	clz	r3, r1
 80002a2:	bf08      	it	eq
 80002a4:	3320      	addeq	r3, #32
 80002a6:	f1a3 030b 	sub.w	r3, r3, #11
 80002aa:	f1b3 0220 	subs.w	r2, r3, #32
 80002ae:	da0c      	bge.n	80002ca <__adddf3+0x16e>
 80002b0:	320c      	adds	r2, #12
 80002b2:	dd08      	ble.n	80002c6 <__adddf3+0x16a>
 80002b4:	f102 0c14 	add.w	ip, r2, #20
 80002b8:	f1c2 020c 	rsb	r2, r2, #12
 80002bc:	fa01 f00c 	lsl.w	r0, r1, ip
 80002c0:	fa21 f102 	lsr.w	r1, r1, r2
 80002c4:	e00c      	b.n	80002e0 <__adddf3+0x184>
 80002c6:	f102 0214 	add.w	r2, r2, #20
 80002ca:	bfd8      	it	le
 80002cc:	f1c2 0c20 	rsble	ip, r2, #32
 80002d0:	fa01 f102 	lsl.w	r1, r1, r2
 80002d4:	fa20 fc0c 	lsr.w	ip, r0, ip
 80002d8:	bfdc      	itt	le
 80002da:	ea41 010c 	orrle.w	r1, r1, ip
 80002de:	4090      	lslle	r0, r2
 80002e0:	1ae4      	subs	r4, r4, r3
 80002e2:	bfa2      	ittt	ge
 80002e4:	eb01 5104 	addge.w	r1, r1, r4, lsl #20
 80002e8:	4329      	orrge	r1, r5
 80002ea:	bd30      	popge	{r4, r5, pc}
 80002ec:	ea6f 0404 	mvn.w	r4, r4
 80002f0:	3c1f      	subs	r4, #31
 80002f2:	da1c      	bge.n	800032e <__adddf3+0x1d2>
 80002f4:	340c      	adds	r4, #12
 80002f6:	dc0e      	bgt.n	8000316 <__adddf3+0x1ba>
 80002f8:	f104 0414 	add.w	r4, r4, #20
 80002fc:	f1c4 0220 	rsb	r2, r4, #32
 8000300:	fa20 f004 	lsr.w	r0, r0, r4
 8000304:	fa01 f302 	lsl.w	r3, r1, r2
 8000308:	ea40 0003 	orr.w	r0, r0, r3
 800030c:	fa21 f304 	lsr.w	r3, r1, r4
 8000310:	ea45 0103 	orr.w	r1, r5, r3
 8000314:	bd30      	pop	{r4, r5, pc}
 8000316:	f1c4 040c 	rsb	r4, r4, #12
 800031a:	f1c4 0220 	rsb	r2, r4, #32
 800031e:	fa20 f002 	lsr.w	r0, r0, r2
 8000322:	fa01 f304 	lsl.w	r3, r1, r4
 8000326:	ea40 0003 	orr.w	r0, r0, r3
 800032a:	4629      	mov	r1, r5
 800032c:	bd30      	pop	{r4, r5, pc}
 800032e:	fa21 f004 	lsr.w	r0, r1, r4
 8000332:	4629      	mov	r1, r5
 8000334:	bd30      	pop	{r4, r5, pc}
 8000336:	f094 0f00 	teq	r4, #0
 800033a:	f483 1380 	eor.w	r3, r3, #1048576	@ 0x100000
 800033e:	bf06      	itte	eq
 8000340:	f481 1180 	eoreq.w	r1, r1, #1048576	@ 0x100000
 8000344:	3401      	addeq	r4, #1
 8000346:	3d01      	subne	r5, #1
 8000348:	e74e      	b.n	80001e8 <__adddf3+0x8c>
 800034a:	ea7f 5c64 	mvns.w	ip, r4, asr #21
 800034e:	bf18      	it	ne
 8000350:	ea7f 5c65 	mvnsne.w	ip, r5, asr #21
 8000354:	d029      	beq.n	80003aa <__adddf3+0x24e>
 8000356:	ea94 0f05 	teq	r4, r5
 800035a:	bf08      	it	eq
 800035c:	ea90 0f02 	teqeq	r0, r2
 8000360:	d005      	beq.n	800036e <__adddf3+0x212>
 8000362:	ea54 0c00 	orrs.w	ip, r4, r0
 8000366:	bf04      	itt	eq
 8000368:	4619      	moveq	r1, r3
 800036a:	4610      	moveq	r0, r2
 800036c:	bd30      	pop	{r4, r5, pc}
 800036e:	ea91 0f03 	teq	r1, r3
 8000372:	bf1e      	ittt	ne
 8000374:	2100      	movne	r1, #0
 8000376:	2000      	movne	r0, #0
 8000378:	bd30      	popne	{r4, r5, pc}
 800037a:	ea5f 5c54 	movs.w	ip, r4, lsr #21
 800037e:	d105      	bne.n	800038c <__adddf3+0x230>
 8000380:	0040      	lsls	r0, r0, #1
 8000382:	4149      	adcs	r1, r1
 8000384:	bf28      	it	cs
 8000386:	f041 4100 	orrcs.w	r1, r1, #2147483648	@ 0x80000000
 800038a:	bd30      	pop	{r4, r5, pc}
 800038c:	f514 0480 	adds.w	r4, r4, #4194304	@ 0x400000
 8000390:	bf3c      	itt	cc
 8000392:	f501 1180 	addcc.w	r1, r1, #1048576	@ 0x100000
 8000396:	bd30      	popcc	{r4, r5, pc}
 8000398:	f001 4500 	and.w	r5, r1, #2147483648	@ 0x80000000
 800039c:	f045 41fe 	orr.w	r1, r5, #2130706432	@ 0x7f000000
 80003a0:	f441 0170 	orr.w	r1, r1, #15728640	@ 0xf00000
 80003a4:	f04f 0000 	mov.w	r0, #0
 80003a8:	bd30      	pop	{r4, r5, pc}
 80003aa:	ea7f 5c64 	mvns.w	ip, r4, asr #21
 80003ae:	bf1a      	itte	ne
 80003b0:	4619      	movne	r1, r3
 80003b2:	4610      	movne	r0, r2
 80003b4:	ea7f 5c65 	mvnseq.w	ip, r5, asr #21
 80003b8:	bf1c      	itt	ne
 80003ba:	460b      	movne	r3, r1
 80003bc:	4602      	movne	r2, r0
 80003be:	ea50 3401 	orrs.w	r4, r0, r1, lsl #12
 80003c2:	bf06      	itte	eq
 80003c4:	ea52 3503 	orrseq.w	r5, r2, r3, lsl #12
 80003c8:	ea91 0f03 	teqeq	r1, r3
 80003cc:	f441 2100 	orrne.w	r1, r1, #524288	@ 0x80000
 80003d0:	bd30      	pop	{r4, r5, pc}
 80003d2:	bf00      	nop

080003d4 <__aeabi_ui2d>:
 80003d4:	f090 0f00 	teq	r0, #0
 80003d8:	bf04      	itt	eq
 80003da:	2100      	moveq	r1, #0
 80003dc:	4770      	bxeq	lr
 80003de:	b530      	push	{r4, r5, lr}
 80003e0:	f44f 6480 	mov.w	r4, #1024	@ 0x400
 80003e4:	f104 0432 	add.w	r4, r4, #50	@ 0x32
 80003e8:	f04f 0500 	mov.w	r5, #0
 80003ec:	f04f 0100 	mov.w	r1, #0
 80003f0:	e750      	b.n	8000294 <__adddf3+0x138>
 80003f2:	bf00      	nop

080003f4 <__aeabi_i2d>:
 80003f4:	f090 0f00 	teq	r0, #0
 80003f8:	bf04      	itt	eq
 80003fa:	2100      	moveq	r1, #0
 80003fc:	4770      	bxeq	lr
 80003fe:	b530      	push	{r4, r5, lr}
 8000400:	f44f 6480 	mov.w	r4, #1024	@ 0x400
 8000404:	f104 0432 	add.w	r4, r4, #50	@ 0x32
 8000408:	f010 4500 	ands.w	r5, r0, #2147483648	@ 0x80000000
 800040c:	bf48      	it	mi
 800040e:	4240      	negmi	r0, r0
 8000410:	f04f 0100 	mov.w	r1, #0
 8000414:	e73e      	b.n	8000294 <__adddf3+0x138>
 8000416:	bf00      	nop

08000418 <__aeabi_f2d>:
 8000418:	0042      	lsls	r2, r0, #1
 800041a:	ea4f 01e2 	mov.w	r1, r2, asr #3
 800041e:	ea4f 0131 	mov.w	r1, r1, rrx
 8000422:	ea4f 7002 	mov.w	r0, r2, lsl #28
 8000426:	bf1f      	itttt	ne
 8000428:	f012 437f 	andsne.w	r3, r2, #4278190080	@ 0xff000000
 800042c:	f093 4f7f 	teqne	r3, #4278190080	@ 0xff000000
 8000430:	f081 5160 	eorne.w	r1, r1, #939524096	@ 0x38000000
 8000434:	4770      	bxne	lr
 8000436:	f032 427f 	bics.w	r2, r2, #4278190080	@ 0xff000000
 800043a:	bf08      	it	eq
 800043c:	4770      	bxeq	lr
 800043e:	f093 4f7f 	teq	r3, #4278190080	@ 0xff000000
 8000442:	bf04      	itt	eq
 8000444:	f441 2100 	orreq.w	r1, r1, #524288	@ 0x80000
 8000448:	4770      	bxeq	lr
 800044a:	b530      	push	{r4, r5, lr}
 800044c:	f44f 7460 	mov.w	r4, #896	@ 0x380
 8000450:	f001 4500 	and.w	r5, r1, #2147483648	@ 0x80000000
 8000454:	f021 4100 	bic.w	r1, r1, #2147483648	@ 0x80000000
 8000458:	e71c      	b.n	8000294 <__adddf3+0x138>
 800045a:	bf00      	nop

0800045c <__aeabi_ul2d>:
 800045c:	ea50 0201 	orrs.w	r2, r0, r1
 8000460:	bf08      	it	eq
 8000462:	4770      	bxeq	lr
 8000464:	b530      	push	{r4, r5, lr}
 8000466:	f04f 0500 	mov.w	r5, #0
 800046a:	e00a      	b.n	8000482 <__aeabi_l2d+0x16>

0800046c <__aeabi_l2d>:
 800046c:	ea50 0201 	orrs.w	r2, r0, r1
 8000470:	bf08      	it	eq
 8000472:	4770      	bxeq	lr
 8000474:	b530      	push	{r4, r5, lr}
 8000476:	f011 4500 	ands.w	r5, r1, #2147483648	@ 0x80000000
 800047a:	d502      	bpl.n	8000482 <__aeabi_l2d+0x16>
 800047c:	4240      	negs	r0, r0
 800047e:	eb61 0141 	sbc.w	r1, r1, r1, lsl #1
 8000482:	f44f 6480 	mov.w	r4, #1024	@ 0x400
 8000486:	f104 0432 	add.w	r4, r4, #50	@ 0x32
 800048a:	ea5f 5c91 	movs.w	ip, r1, lsr #22
 800048e:	f43f aed8 	beq.w	8000242 <__adddf3+0xe6>
 8000492:	f04f 0203 	mov.w	r2, #3
 8000496:	ea5f 0cdc 	movs.w	ip, ip, lsr #3
 800049a:	bf18      	it	ne
 800049c:	3203      	addne	r2, #3
 800049e:	ea5f 0cdc 	movs.w	ip, ip, lsr #3
 80004a2:	bf18      	it	ne
 80004a4:	3203      	addne	r2, #3
 80004a6:	eb02 02dc 	add.w	r2, r2, ip, lsr #3
 80004aa:	f1c2 0320 	rsb	r3, r2, #32
 80004ae:	fa00 fc03 	lsl.w	ip, r0, r3
 80004b2:	fa20 f002 	lsr.w	r0, r0, r2
 80004b6:	fa01 fe03 	lsl.w	lr, r1, r3
 80004ba:	ea40 000e 	orr.w	r0, r0, lr
 80004be:	fa21 f102 	lsr.w	r1, r1, r2
 80004c2:	4414      	add	r4, r2
 80004c4:	e6bd      	b.n	8000242 <__adddf3+0xe6>
 80004c6:	bf00      	nop

080004c8 <__aeabi_dmul>:
 80004c8:	b570      	push	{r4, r5, r6, lr}
 80004ca:	f04f 0cff 	mov.w	ip, #255	@ 0xff
 80004ce:	f44c 6ce0 	orr.w	ip, ip, #1792	@ 0x700
 80004d2:	ea1c 5411 	ands.w	r4, ip, r1, lsr #20
 80004d6:	bf1d      	ittte	ne
 80004d8:	ea1c 5513 	andsne.w	r5, ip, r3, lsr #20
 80004dc:	ea94 0f0c 	teqne	r4, ip
 80004e0:	ea95 0f0c 	teqne	r5, ip
 80004e4:	f000 f8de 	bleq	80006a4 <__aeabi_dmul+0x1dc>
 80004e8:	442c      	add	r4, r5
 80004ea:	ea81 0603 	eor.w	r6, r1, r3
 80004ee:	ea21 514c 	bic.w	r1, r1, ip, lsl #21
 80004f2:	ea23 534c 	bic.w	r3, r3, ip, lsl #21
 80004f6:	ea50 3501 	orrs.w	r5, r0, r1, lsl #12
 80004fa:	bf18      	it	ne
 80004fc:	ea52 3503 	orrsne.w	r5, r2, r3, lsl #12
 8000500:	f441 1180 	orr.w	r1, r1, #1048576	@ 0x100000
 8000504:	f443 1380 	orr.w	r3, r3, #1048576	@ 0x100000
 8000508:	d038      	beq.n	800057c <__aeabi_dmul+0xb4>
 800050a:	fba0 ce02 	umull	ip, lr, r0, r2
 800050e:	f04f 0500 	mov.w	r5, #0
 8000512:	fbe1 e502 	umlal	lr, r5, r1, r2
 8000516:	f006 4200 	and.w	r2, r6, #2147483648	@ 0x80000000
 800051a:	fbe0 e503 	umlal	lr, r5, r0, r3
 800051e:	f04f 0600 	mov.w	r6, #0
 8000522:	fbe1 5603 	umlal	r5, r6, r1, r3
 8000526:	f09c 0f00 	teq	ip, #0
 800052a:	bf18      	it	ne
 800052c:	f04e 0e01 	orrne.w	lr, lr, #1
 8000530:	f1a4 04ff 	sub.w	r4, r4, #255	@ 0xff
 8000534:	f5b6 7f00 	cmp.w	r6, #512	@ 0x200
 8000538:	f564 7440 	sbc.w	r4, r4, #768	@ 0x300
 800053c:	d204      	bcs.n	8000548 <__aeabi_dmul+0x80>
 800053e:	ea5f 0e4e 	movs.w	lr, lr, lsl #1
 8000542:	416d      	adcs	r5, r5
 8000544:	eb46 0606 	adc.w	r6, r6, r6
 8000548:	ea42 21c6 	orr.w	r1, r2, r6, lsl #11
 800054c:	ea41 5155 	orr.w	r1, r1, r5, lsr #21
 8000550:	ea4f 20c5 	mov.w	r0, r5, lsl #11
 8000554:	ea40 505e 	orr.w	r0, r0, lr, lsr #21
 8000558:	ea4f 2ece 	mov.w	lr, lr, lsl #11
 800055c:	f1b4 0cfd 	subs.w	ip, r4, #253	@ 0xfd
 8000560:	bf88      	it	hi
 8000562:	f5bc 6fe0 	cmphi.w	ip, #1792	@ 0x700
 8000566:	d81e      	bhi.n	80005a6 <__aeabi_dmul+0xde>
 8000568:	f1be 4f00 	cmp.w	lr, #2147483648	@ 0x80000000
 800056c:	bf08      	it	eq
 800056e:	ea5f 0e50 	movseq.w	lr, r0, lsr #1
 8000572:	f150 0000 	adcs.w	r0, r0, #0
 8000576:	eb41 5104 	adc.w	r1, r1, r4, lsl #20
 800057a:	bd70      	pop	{r4, r5, r6, pc}
 800057c:	f006 4600 	and.w	r6, r6, #2147483648	@ 0x80000000
 8000580:	ea46 0101 	orr.w	r1, r6, r1
 8000584:	ea40 0002 	orr.w	r0, r0, r2
 8000588:	ea81 0103 	eor.w	r1, r1, r3
 800058c:	ebb4 045c 	subs.w	r4, r4, ip, lsr #1
 8000590:	bfc2      	ittt	gt
 8000592:	ebd4 050c 	rsbsgt	r5, r4, ip
 8000596:	ea41 5104 	orrgt.w	r1, r1, r4, lsl #20
 800059a:	bd70      	popgt	{r4, r5, r6, pc}
 800059c:	f441 1180 	orr.w	r1, r1, #1048576	@ 0x100000
 80005a0:	f04f 0e00 	mov.w	lr, #0
 80005a4:	3c01      	subs	r4, #1
 80005a6:	f300 80ab 	bgt.w	8000700 <__aeabi_dmul+0x238>
 80005aa:	f114 0f36 	cmn.w	r4, #54	@ 0x36
 80005ae:	bfde      	ittt	le
 80005b0:	2000      	movle	r0, #0
 80005b2:	f001 4100 	andle.w	r1, r1, #2147483648	@ 0x80000000
 80005b6:	bd70      	pople	{r4, r5, r6, pc}
 80005b8:	f1c4 0400 	rsb	r4, r4, #0
 80005bc:	3c20      	subs	r4, #32
 80005be:	da35      	bge.n	800062c <__aeabi_dmul+0x164>
 80005c0:	340c      	adds	r4, #12
 80005c2:	dc1b      	bgt.n	80005fc <__aeabi_dmul+0x134>
 80005c4:	f104 0414 	add.w	r4, r4, #20
 80005c8:	f1c4 0520 	rsb	r5, r4, #32
 80005cc:	fa00 f305 	lsl.w	r3, r0, r5
 80005d0:	fa20 f004 	lsr.w	r0, r0, r4
 80005d4:	fa01 f205 	lsl.w	r2, r1, r5
 80005d8:	ea40 0002 	orr.w	r0, r0, r2
 80005dc:	f001 4200 	and.w	r2, r1, #2147483648	@ 0x80000000
 80005e0:	f021 4100 	bic.w	r1, r1, #2147483648	@ 0x80000000
 80005e4:	eb10 70d3 	adds.w	r0, r0, r3, lsr #31
 80005e8:	fa21 f604 	lsr.w	r6, r1, r4
 80005ec:	eb42 0106 	adc.w	r1, r2, r6
 80005f0:	ea5e 0e43 	orrs.w	lr, lr, r3, lsl #1
 80005f4:	bf08      	it	eq
 80005f6:	ea20 70d3 	biceq.w	r0, r0, r3, lsr #31
 80005fa:	bd70      	pop	{r4, r5, r6, pc}
 80005fc:	f1c4 040c 	rsb	r4, r4, #12
 8000600:	f1c4 0520 	rsb	r5, r4, #32
 8000604:	fa00 f304 	lsl.w	r3, r0, r4
 8000608:	fa20 f005 	lsr.w	r0, r0, r5
 800060c:	fa01 f204 	lsl.w	r2, r1, r4
 8000610:	ea40 0002 	orr.w	r0, r0, r2
 8000614:	f001 4100 	and.w	r1, r1, #2147483648	@ 0x80000000
 8000618:	eb10 70d3 	adds.w	r0, r0, r3, lsr #31
 800061c:	f141 0100 	adc.w	r1, r1, #0
 8000620:	ea5e 0e43 	orrs.w	lr, lr, r3, lsl #1
 8000624:	bf08      	it	eq
 8000626:	ea20 70d3 	biceq.w	r0, r0, r3, lsr #31
 800062a:	bd70      	pop	{r4, r5, r6, pc}
 800062c:	f1c4 0520 	rsb	r5, r4, #32
 8000630:	fa00 f205 	lsl.w	r2, r0, r5
 8000634:	ea4e 0e02 	orr.w	lr, lr, r2
 8000638:	fa20 f304 	lsr.w	r3, r0, r4
 800063c:	fa01 f205 	lsl.w	r2, r1, r5
 8000640:	ea43 0302 	orr.w	r3, r3, r2
 8000644:	fa21 f004 	lsr.w	r0, r1, r4
 8000648:	f001 4100 	and.w	r1, r1, #2147483648	@ 0x80000000
 800064c:	fa21 f204 	lsr.w	r2, r1, r4
 8000650:	ea20 0002 	bic.w	r0, r0, r2
 8000654:	eb00 70d3 	add.w	r0, r0, r3, lsr #31
 8000658:	ea5e 0e43 	orrs.w	lr, lr, r3, lsl #1
 800065c:	bf08      	it	eq
 800065e:	ea20 70d3 	biceq.w	r0, r0, r3, lsr #31
 8000662:	bd70      	pop	{r4, r5, r6, pc}
 8000664:	f094 0f00 	teq	r4, #0
 8000668:	d10f      	bne.n	800068a <__aeabi_dmul+0x1c2>
 800066a:	f001 4600 	and.w	r6, r1, #2147483648	@ 0x80000000
 800066e:	0040      	lsls	r0, r0, #1
 8000670:	eb41 0101 	adc.w	r1, r1, r1
 8000674:	f411 1f80 	tst.w	r1, #1048576	@ 0x100000
 8000678:	bf08      	it	eq
 800067a:	3c01      	subeq	r4, #1
 800067c:	d0f7      	beq.n	800066e <__aeabi_dmul+0x1a6>
 800067e:	ea41 0106 	orr.w	r1, r1, r6
 8000682:	f095 0f00 	teq	r5, #0
 8000686:	bf18      	it	ne
 8000688:	4770      	bxne	lr
 800068a:	f003 4600 	and.w	r6, r3, #2147483648	@ 0x80000000
 800068e:	0052      	lsls	r2, r2, #1
 8000690:	eb43 0303 	adc.w	r3, r3, r3
 8000694:	f413 1f80 	tst.w	r3, #1048576	@ 0x100000
 8000698:	bf08      	it	eq
 800069a:	3d01      	subeq	r5, #1
 800069c:	d0f7      	beq.n	800068e <__aeabi_dmul+0x1c6>
 800069e:	ea43 0306 	orr.w	r3, r3, r6
 80006a2:	4770      	bx	lr
 80006a4:	ea94 0f0c 	teq	r4, ip
 80006a8:	ea0c 5513 	and.w	r5, ip, r3, lsr #20
 80006ac:	bf18      	it	ne
 80006ae:	ea95 0f0c 	teqne	r5, ip
 80006b2:	d00c      	beq.n	80006ce <__aeabi_dmul+0x206>
 80006b4:	ea50 0641 	orrs.w	r6, r0, r1, lsl #1
 80006b8:	bf18      	it	ne
 80006ba:	ea52 0643 	orrsne.w	r6, r2, r3, lsl #1
 80006be:	d1d1      	bne.n	8000664 <__aeabi_dmul+0x19c>
 80006c0:	ea81 0103 	eor.w	r1, r1, r3
 80006c4:	f001 4100 	and.w	r1, r1, #2147483648	@ 0x80000000
 80006c8:	f04f 0000 	mov.w	r0, #0
 80006cc:	bd70      	pop	{r4, r5, r6, pc}
 80006ce:	ea50 0641 	orrs.w	r6, r0, r1, lsl #1
 80006d2:	bf06      	itte	eq
 80006d4:	4610      	moveq	r0, r2
 80006d6:	4619      	moveq	r1, r3
 80006d8:	ea52 0643 	orrsne.w	r6, r2, r3, lsl #1
 80006dc:	d019      	beq.n	8000712 <__aeabi_dmul+0x24a>
 80006de:	ea94 0f0c 	teq	r4, ip
 80006e2:	d102      	bne.n	80006ea <__aeabi_dmul+0x222>
 80006e4:	ea50 3601 	orrs.w	r6, r0, r1, lsl #12
 80006e8:	d113      	bne.n	8000712 <__aeabi_dmul+0x24a>
 80006ea:	ea95 0f0c 	teq	r5, ip
 80006ee:	d105      	bne.n	80006fc <__aeabi_dmul+0x234>
 80006f0:	ea52 3603 	orrs.w	r6, r2, r3, lsl #12
 80006f4:	bf1c      	itt	ne
 80006f6:	4610      	movne	r0, r2
 80006f8:	4619      	movne	r1, r3
 80006fa:	d10a      	bne.n	8000712 <__aeabi_dmul+0x24a>
 80006fc:	ea81 0103 	eor.w	r1, r1, r3
 8000700:	f001 4100 	and.w	r1, r1, #2147483648	@ 0x80000000
 8000704:	f041 41fe 	orr.w	r1, r1, #2130706432	@ 0x7f000000
 8000708:	f441 0170 	orr.w	r1, r1, #15728640	@ 0xf00000
 800070c:	f04f 0000 	mov.w	r0, #0
 8000710:	bd70      	pop	{r4, r5, r6, pc}
 8000712:	f041 41fe 	orr.w	r1, r1, #2130706432	@ 0x7f000000
 8000716:	f441 0178 	orr.w	r1, r1, #16252928	@ 0xf80000
 800071a:	bd70      	pop	{r4, r5, r6, pc}

0800071c <__aeabi_ddiv>:
 800071c:	b570      	push	{r4, r5, r6, lr}
 800071e:	f04f 0cff 	mov.w	ip, #255	@ 0xff
 8000722:	f44c 6ce0 	orr.w	ip, ip, #1792	@ 0x700
 8000726:	ea1c 5411 	ands.w	r4, ip, r1, lsr #20
 800072a:	bf1d      	ittte	ne
 800072c:	ea1c 5513 	andsne.w	r5, ip, r3, lsr #20
 8000730:	ea94 0f0c 	teqne	r4, ip
 8000734:	ea95 0f0c 	teqne	r5, ip
 8000738:	f000 f8a7 	bleq	800088a <__aeabi_ddiv+0x16e>
 800073c:	eba4 0405 	sub.w	r4, r4, r5
 8000740:	ea81 0e03 	eor.w	lr, r1, r3
 8000744:	ea52 3503 	orrs.w	r5, r2, r3, lsl #12
 8000748:	ea4f 3101 	mov.w	r1, r1, lsl #12
 800074c:	f000 8088 	beq.w	8000860 <__aeabi_ddiv+0x144>
 8000750:	ea4f 3303 	mov.w	r3, r3, lsl #12
 8000754:	f04f 5580 	mov.w	r5, #268435456	@ 0x10000000
 8000758:	ea45 1313 	orr.w	r3, r5, r3, lsr #4
 800075c:	ea43 6312 	orr.w	r3, r3, r2, lsr #24
 8000760:	ea4f 2202 	mov.w	r2, r2, lsl #8
 8000764:	ea45 1511 	orr.w	r5, r5, r1, lsr #4
 8000768:	ea45 6510 	orr.w	r5, r5, r0, lsr #24
 800076c:	ea4f 2600 	mov.w	r6, r0, lsl #8
 8000770:	f00e 4100 	and.w	r1, lr, #2147483648	@ 0x80000000
 8000774:	429d      	cmp	r5, r3
 8000776:	bf08      	it	eq
 8000778:	4296      	cmpeq	r6, r2
 800077a:	f144 04fd 	adc.w	r4, r4, #253	@ 0xfd
 800077e:	f504 7440 	add.w	r4, r4, #768	@ 0x300
 8000782:	d202      	bcs.n	800078a <__aeabi_ddiv+0x6e>
 8000784:	085b      	lsrs	r3, r3, #1
 8000786:	ea4f 0232 	mov.w	r2, r2, rrx
 800078a:	1ab6      	subs	r6, r6, r2
 800078c:	eb65 0503 	sbc.w	r5, r5, r3
 8000790:	085b      	lsrs	r3, r3, #1
 8000792:	ea4f 0232 	mov.w	r2, r2, rrx
 8000796:	f44f 1080 	mov.w	r0, #1048576	@ 0x100000
 800079a:	f44f 2c00 	mov.w	ip, #524288	@ 0x80000
 800079e:	ebb6 0e02 	subs.w	lr, r6, r2
 80007a2:	eb75 0e03 	sbcs.w	lr, r5, r3
 80007a6:	bf22      	ittt	cs
 80007a8:	1ab6      	subcs	r6, r6, r2
 80007aa:	4675      	movcs	r5, lr
 80007ac:	ea40 000c 	orrcs.w	r0, r0, ip
 80007b0:	085b      	lsrs	r3, r3, #1
 80007b2:	ea4f 0232 	mov.w	r2, r2, rrx
 80007b6:	ebb6 0e02 	subs.w	lr, r6, r2
 80007ba:	eb75 0e03 	sbcs.w	lr, r5, r3
 80007be:	bf22      	ittt	cs
 80007c0:	1ab6      	subcs	r6, r6, r2
 80007c2:	4675      	movcs	r5, lr
 80007c4:	ea40 005c 	orrcs.w	r0, r0, ip, lsr #1
 80007c8:	085b      	lsrs	r3, r3, #1
 80007ca:	ea4f 0232 	mov.w	r2, r2, rrx
 80007ce:	ebb6 0e02 	subs.w	lr, r6, r2
 80007d2:	eb75 0e03 	sbcs.w	lr, r5, r3
 80007d6:	bf22      	ittt	cs
 80007d8:	1ab6      	subcs	r6, r6, r2
 80007da:	4675      	movcs	r5, lr
 80007dc:	ea40 009c 	orrcs.w	r0, r0, ip, lsr #2
 80007e0:	085b      	lsrs	r3, r3, #1
 80007e2:	ea4f 0232 	mov.w	r2, r2, rrx
 80007e6:	ebb6 0e02 	subs.w	lr, r6, r2
 80007ea:	eb75 0e03 	sbcs.w	lr, r5, r3
 80007ee:	bf22      	ittt	cs
 80007f0:	1ab6      	subcs	r6, r6, r2
 80007f2:	4675      	movcs	r5, lr
 80007f4:	ea40 00dc 	orrcs.w	r0, r0, ip, lsr #3
 80007f8:	ea55 0e06 	orrs.w	lr, r5, r6
 80007fc:	d018      	beq.n	8000830 <__aeabi_ddiv+0x114>
 80007fe:	ea4f 1505 	mov.w	r5, r5, lsl #4
 8000802:	ea45 7516 	orr.w	r5, r5, r6, lsr #28
 8000806:	ea4f 1606 	mov.w	r6, r6, lsl #4
 800080a:	ea4f 03c3 	mov.w	r3, r3, lsl #3
 800080e:	ea43 7352 	orr.w	r3, r3, r2, lsr #29
 8000812:	ea4f 02c2 	mov.w	r2, r2, lsl #3
 8000816:	ea5f 1c1c 	movs.w	ip, ip, lsr #4
 800081a:	d1c0      	bne.n	800079e <__aeabi_ddiv+0x82>
 800081c:	f411 1f80 	tst.w	r1, #1048576	@ 0x100000
 8000820:	d10b      	bne.n	800083a <__aeabi_ddiv+0x11e>
 8000822:	ea41 0100 	orr.w	r1, r1, r0
 8000826:	f04f 0000 	mov.w	r0, #0
 800082a:	f04f 4c00 	mov.w	ip, #2147483648	@ 0x80000000
 800082e:	e7b6      	b.n	800079e <__aeabi_ddiv+0x82>
 8000830:	f411 1f80 	tst.w	r1, #1048576	@ 0x100000
 8000834:	bf04      	itt	eq
 8000836:	4301      	orreq	r1, r0
 8000838:	2000      	moveq	r0, #0
 800083a:	f1b4 0cfd 	subs.w	ip, r4, #253	@ 0xfd
 800083e:	bf88      	it	hi
 8000840:	f5bc 6fe0 	cmphi.w	ip, #1792	@ 0x700
 8000844:	f63f aeaf 	bhi.w	80005a6 <__aeabi_dmul+0xde>
 8000848:	ebb5 0c03 	subs.w	ip, r5, r3
 800084c:	bf04      	itt	eq
 800084e:	ebb6 0c02 	subseq.w	ip, r6, r2
 8000852:	ea5f 0c50 	movseq.w	ip, r0, lsr #1
 8000856:	f150 0000 	adcs.w	r0, r0, #0
 800085a:	eb41 5104 	adc.w	r1, r1, r4, lsl #20
 800085e:	bd70      	pop	{r4, r5, r6, pc}
 8000860:	f00e 4e00 	and.w	lr, lr, #2147483648	@ 0x80000000
 8000864:	ea4e 3111 	orr.w	r1, lr, r1, lsr #12
 8000868:	eb14 045c 	adds.w	r4, r4, ip, lsr #1
 800086c:	bfc2      	ittt	gt
 800086e:	ebd4 050c 	rsbsgt	r5, r4, ip
 8000872:	ea41 5104 	orrgt.w	r1, r1, r4, lsl #20
 8000876:	bd70      	popgt	{r4, r5, r6, pc}
 8000878:	f441 1180 	orr.w	r1, r1, #1048576	@ 0x100000
 800087c:	f04f 0e00 	mov.w	lr, #0
 8000880:	3c01      	subs	r4, #1
 8000882:	e690      	b.n	80005a6 <__aeabi_dmul+0xde>
 8000884:	ea45 0e06 	orr.w	lr, r5, r6
 8000888:	e68d      	b.n	80005a6 <__aeabi_dmul+0xde>
 800088a:	ea0c 5513 	and.w	r5, ip, r3, lsr #20
 800088e:	ea94 0f0c 	teq	r4, ip
 8000892:	bf08      	it	eq
 8000894:	ea95 0f0c 	teqeq	r5, ip
 8000898:	f43f af3b 	beq.w	8000712 <__aeabi_dmul+0x24a>
 800089c:	ea94 0f0c 	teq	r4, ip
 80008a0:	d10a      	bne.n	80008b8 <__aeabi_ddiv+0x19c>
 80008a2:	ea50 3401 	orrs.w	r4, r0, r1, lsl #12
 80008a6:	f47f af34 	bne.w	8000712 <__aeabi_dmul+0x24a>
 80008aa:	ea95 0f0c 	teq	r5, ip
 80008ae:	f47f af25 	bne.w	80006fc <__aeabi_dmul+0x234>
 80008b2:	4610      	mov	r0, r2
 80008b4:	4619      	mov	r1, r3
 80008b6:	e72c      	b.n	8000712 <__aeabi_dmul+0x24a>
 80008b8:	ea95 0f0c 	teq	r5, ip
 80008bc:	d106      	bne.n	80008cc <__aeabi_ddiv+0x1b0>
 80008be:	ea52 3503 	orrs.w	r5, r2, r3, lsl #12
 80008c2:	f43f aefd 	beq.w	80006c0 <__aeabi_dmul+0x1f8>
 80008c6:	4610      	mov	r0, r2
 80008c8:	4619      	mov	r1, r3
 80008ca:	e722      	b.n	8000712 <__aeabi_dmul+0x24a>
 80008cc:	ea50 0641 	orrs.w	r6, r0, r1, lsl #1
 80008d0:	bf18      	it	ne
 80008d2:	ea52 0643 	orrsne.w	r6, r2, r3, lsl #1
 80008d6:	f47f aec5 	bne.w	8000664 <__aeabi_dmul+0x19c>
 80008da:	ea50 0441 	orrs.w	r4, r0, r1, lsl #1
 80008de:	f47f af0d 	bne.w	80006fc <__aeabi_dmul+0x234>
 80008e2:	ea52 0543 	orrs.w	r5, r2, r3, lsl #1
 80008e6:	f47f aeeb 	bne.w	80006c0 <__aeabi_dmul+0x1f8>
 80008ea:	e712      	b.n	8000712 <__aeabi_dmul+0x24a>

080008ec <__gedf2>:
 80008ec:	f04f 3cff 	mov.w	ip, #4294967295
 80008f0:	e006      	b.n	8000900 <__cmpdf2+0x4>
 80008f2:	bf00      	nop

080008f4 <__ledf2>:
 80008f4:	f04f 0c01 	mov.w	ip, #1
 80008f8:	e002      	b.n	8000900 <__cmpdf2+0x4>
 80008fa:	bf00      	nop

080008fc <__cmpdf2>:
 80008fc:	f04f 0c01 	mov.w	ip, #1
 8000900:	f84d cd04 	str.w	ip, [sp, #-4]!
 8000904:	ea4f 0c41 	mov.w	ip, r1, lsl #1
 8000908:	ea7f 5c6c 	mvns.w	ip, ip, asr #21
 800090c:	ea4f 0c43 	mov.w	ip, r3, lsl #1
 8000910:	bf18      	it	ne
 8000912:	ea7f 5c6c 	mvnsne.w	ip, ip, asr #21
 8000916:	d01b      	beq.n	8000950 <__cmpdf2+0x54>
 8000918:	b001      	add	sp, #4
 800091a:	ea50 0c41 	orrs.w	ip, r0, r1, lsl #1
 800091e:	bf0c      	ite	eq
 8000920:	ea52 0c43 	orrseq.w	ip, r2, r3, lsl #1
 8000924:	ea91 0f03 	teqne	r1, r3
 8000928:	bf02      	ittt	eq
 800092a:	ea90 0f02 	teqeq	r0, r2
 800092e:	2000      	moveq	r0, #0
 8000930:	4770      	bxeq	lr
 8000932:	f110 0f00 	cmn.w	r0, #0
 8000936:	ea91 0f03 	teq	r1, r3
 800093a:	bf58      	it	pl
 800093c:	4299      	cmppl	r1, r3
 800093e:	bf08      	it	eq
 8000940:	4290      	cmpeq	r0, r2
 8000942:	bf2c      	ite	cs
 8000944:	17d8      	asrcs	r0, r3, #31
 8000946:	ea6f 70e3 	mvncc.w	r0, r3, asr #31
 800094a:	f040 0001 	orr.w	r0, r0, #1
 800094e:	4770      	bx	lr
 8000950:	ea4f 0c41 	mov.w	ip, r1, lsl #1
 8000954:	ea7f 5c6c 	mvns.w	ip, ip, asr #21
 8000958:	d102      	bne.n	8000960 <__cmpdf2+0x64>
 800095a:	ea50 3c01 	orrs.w	ip, r0, r1, lsl #12
 800095e:	d107      	bne.n	8000970 <__cmpdf2+0x74>
 8000960:	ea4f 0c43 	mov.w	ip, r3, lsl #1
 8000964:	ea7f 5c6c 	mvns.w	ip, ip, asr #21
 8000968:	d1d6      	bne.n	8000918 <__cmpdf2+0x1c>
 800096a:	ea52 3c03 	orrs.w	ip, r2, r3, lsl #12
 800096e:	d0d3      	beq.n	8000918 <__cmpdf2+0x1c>
 8000970:	f85d 0b04 	ldr.w	r0, [sp], #4
 8000974:	4770      	bx	lr
 8000976:	bf00      	nop

08000978 <__aeabi_cdrcmple>:
 8000978:	4684      	mov	ip, r0
 800097a:	4610      	mov	r0, r2
 800097c:	4662      	mov	r2, ip
 800097e:	468c      	mov	ip, r1
 8000980:	4619      	mov	r1, r3
 8000982:	4663      	mov	r3, ip
 8000984:	e000      	b.n	8000988 <__aeabi_cdcmpeq>
 8000986:	bf00      	nop

08000988 <__aeabi_cdcmpeq>:
 8000988:	b501      	push	{r0, lr}
 800098a:	f7ff ffb7 	bl	80008fc <__cmpdf2>
 800098e:	2800      	cmp	r0, #0
 8000990:	bf48      	it	mi
 8000992:	f110 0f00 	cmnmi.w	r0, #0
 8000996:	bd01      	pop	{r0, pc}

08000998 <__aeabi_dcmpeq>:
 8000998:	f84d ed08 	str.w	lr, [sp, #-8]!
 800099c:	f7ff fff4 	bl	8000988 <__aeabi_cdcmpeq>
 80009a0:	bf0c      	ite	eq
 80009a2:	2001      	moveq	r0, #1
 80009a4:	2000      	movne	r0, #0
 80009a6:	f85d fb08 	ldr.w	pc, [sp], #8
 80009aa:	bf00      	nop

080009ac <__aeabi_dcmplt>:
 80009ac:	f84d ed08 	str.w	lr, [sp, #-8]!
 80009b0:	f7ff ffea 	bl	8000988 <__aeabi_cdcmpeq>
 80009b4:	bf34      	ite	cc
 80009b6:	2001      	movcc	r0, #1
 80009b8:	2000      	movcs	r0, #0
 80009ba:	f85d fb08 	ldr.w	pc, [sp], #8
 80009be:	bf00      	nop

080009c0 <__aeabi_dcmple>:
 80009c0:	f84d ed08 	str.w	lr, [sp, #-8]!
 80009c4:	f7ff ffe0 	bl	8000988 <__aeabi_cdcmpeq>
 80009c8:	bf94      	ite	ls
 80009ca:	2001      	movls	r0, #1
 80009cc:	2000      	movhi	r0, #0
 80009ce:	f85d fb08 	ldr.w	pc, [sp], #8
 80009d2:	bf00      	nop

080009d4 <__aeabi_dcmpge>:
 80009d4:	f84d ed08 	str.w	lr, [sp, #-8]!
 80009d8:	f7ff ffce 	bl	8000978 <__aeabi_cdrcmple>
 80009dc:	bf94      	ite	ls
 80009de:	2001      	movls	r0, #1
 80009e0:	2000      	movhi	r0, #0
 80009e2:	f85d fb08 	ldr.w	pc, [sp], #8
 80009e6:	bf00      	nop

080009e8 <__aeabi_dcmpgt>:
 80009e8:	f84d ed08 	str.w	lr, [sp, #-8]!
 80009ec:	f7ff ffc4 	bl	8000978 <__aeabi_cdrcmple>
 80009f0:	bf34      	ite	cc
 80009f2:	2001      	movcc	r0, #1
 80009f4:	2000      	movcs	r0, #0
 80009f6:	f85d fb08 	ldr.w	pc, [sp], #8
 80009fa:	bf00      	nop

080009fc <__aeabi_dcmpun>:
 80009fc:	ea4f 0c41 	mov.w	ip, r1, lsl #1
 8000a00:	ea7f 5c6c 	mvns.w	ip, ip, asr #21
 8000a04:	d102      	bne.n	8000a0c <__aeabi_dcmpun+0x10>
 8000a06:	ea50 3c01 	orrs.w	ip, r0, r1, lsl #12
 8000a0a:	d10a      	bne.n	8000a22 <__aeabi_dcmpun+0x26>
 8000a0c:	ea4f 0c43 	mov.w	ip, r3, lsl #1
 8000a10:	ea7f 5c6c 	mvns.w	ip, ip, asr #21
 8000a14:	d102      	bne.n	8000a1c <__aeabi_dcmpun+0x20>
 8000a16:	ea52 3c03 	orrs.w	ip, r2, r3, lsl #12
 8000a1a:	d102      	bne.n	8000a22 <__aeabi_dcmpun+0x26>
 8000a1c:	f04f 0000 	mov.w	r0, #0
 8000a20:	4770      	bx	lr
 8000a22:	f04f 0001 	mov.w	r0, #1
 8000a26:	4770      	bx	lr

08000a28 <__aeabi_d2uiz>:
 8000a28:	004a      	lsls	r2, r1, #1
 8000a2a:	d211      	bcs.n	8000a50 <__aeabi_d2uiz+0x28>
 8000a2c:	f512 1200 	adds.w	r2, r2, #2097152	@ 0x200000
 8000a30:	d211      	bcs.n	8000a56 <__aeabi_d2uiz+0x2e>
 8000a32:	d50d      	bpl.n	8000a50 <__aeabi_d2uiz+0x28>
 8000a34:	f46f 7378 	mvn.w	r3, #992	@ 0x3e0
 8000a38:	ebb3 5262 	subs.w	r2, r3, r2, asr #21
 8000a3c:	d40e      	bmi.n	8000a5c <__aeabi_d2uiz+0x34>
 8000a3e:	ea4f 23c1 	mov.w	r3, r1, lsl #11
 8000a42:	f043 4300 	orr.w	r3, r3, #2147483648	@ 0x80000000
 8000a46:	ea43 5350 	orr.w	r3, r3, r0, lsr #21
 8000a4a:	fa23 f002 	lsr.w	r0, r3, r2
 8000a4e:	4770      	bx	lr
 8000a50:	f04f 0000 	mov.w	r0, #0
 8000a54:	4770      	bx	lr
 8000a56:	ea50 3001 	orrs.w	r0, r0, r1, lsl #12
 8000a5a:	d102      	bne.n	8000a62 <__aeabi_d2uiz+0x3a>
 8000a5c:	f04f 30ff 	mov.w	r0, #4294967295
 8000a60:	4770      	bx	lr
 8000a62:	f04f 0000 	mov.w	r0, #0
 8000a66:	4770      	bx	lr

08000a68 <__aeabi_d2f>:
 8000a68:	ea4f 0241 	mov.w	r2, r1, lsl #1
 8000a6c:	f1b2 43e0 	subs.w	r3, r2, #1879048192	@ 0x70000000
 8000a70:	bf24      	itt	cs
 8000a72:	f5b3 1c00 	subscs.w	ip, r3, #2097152	@ 0x200000
 8000a76:	f1dc 5cfe 	rsbscs	ip, ip, #532676608	@ 0x1fc00000
 8000a7a:	d90d      	bls.n	8000a98 <__aeabi_d2f+0x30>
 8000a7c:	f001 4c00 	and.w	ip, r1, #2147483648	@ 0x80000000
 8000a80:	ea4f 02c0 	mov.w	r2, r0, lsl #3
 8000a84:	ea4c 7050 	orr.w	r0, ip, r0, lsr #29
 8000a88:	f1b2 4f00 	cmp.w	r2, #2147483648	@ 0x80000000
 8000a8c:	eb40 0083 	adc.w	r0, r0, r3, lsl #2
 8000a90:	bf08      	it	eq
 8000a92:	f020 0001 	biceq.w	r0, r0, #1
 8000a96:	4770      	bx	lr
 8000a98:	f011 4f80 	tst.w	r1, #1073741824	@ 0x40000000
 8000a9c:	d121      	bne.n	8000ae2 <__aeabi_d2f+0x7a>
 8000a9e:	f113 7238 	adds.w	r2, r3, #48234496	@ 0x2e00000
 8000aa2:	bfbc      	itt	lt
 8000aa4:	f001 4000 	andlt.w	r0, r1, #2147483648	@ 0x80000000
 8000aa8:	4770      	bxlt	lr
 8000aaa:	f441 1180 	orr.w	r1, r1, #1048576	@ 0x100000
 8000aae:	ea4f 5252 	mov.w	r2, r2, lsr #21
 8000ab2:	f1c2 0218 	rsb	r2, r2, #24
 8000ab6:	f1c2 0c20 	rsb	ip, r2, #32
 8000aba:	fa10 f30c 	lsls.w	r3, r0, ip
 8000abe:	fa20 f002 	lsr.w	r0, r0, r2
 8000ac2:	bf18      	it	ne
 8000ac4:	f040 0001 	orrne.w	r0, r0, #1
 8000ac8:	ea4f 23c1 	mov.w	r3, r1, lsl #11
 8000acc:	ea4f 23d3 	mov.w	r3, r3, lsr #11
 8000ad0:	fa03 fc0c 	lsl.w	ip, r3, ip
 8000ad4:	ea40 000c 	orr.w	r0, r0, ip
 8000ad8:	fa23 f302 	lsr.w	r3, r3, r2
 8000adc:	ea4f 0343 	mov.w	r3, r3, lsl #1
 8000ae0:	e7cc      	b.n	8000a7c <__aeabi_d2f+0x14>
 8000ae2:	ea7f 5362 	mvns.w	r3, r2, asr #21
 8000ae6:	d107      	bne.n	8000af8 <__aeabi_d2f+0x90>
 8000ae8:	ea50 3301 	orrs.w	r3, r0, r1, lsl #12
 8000aec:	bf1e      	ittt	ne
 8000aee:	f04f 40fe 	movne.w	r0, #2130706432	@ 0x7f000000
 8000af2:	f440 0040 	orrne.w	r0, r0, #12582912	@ 0xc00000
 8000af6:	4770      	bxne	lr
 8000af8:	f001 4000 	and.w	r0, r1, #2147483648	@ 0x80000000
 8000afc:	f040 40fe 	orr.w	r0, r0, #2130706432	@ 0x7f000000
 8000b00:	f440 0000 	orr.w	r0, r0, #8388608	@ 0x800000
 8000b04:	4770      	bx	lr
 8000b06:	bf00      	nop

08000b08 <__aeabi_frsub>:
 8000b08:	f080 4000 	eor.w	r0, r0, #2147483648	@ 0x80000000
 8000b0c:	e002      	b.n	8000b14 <__addsf3>
 8000b0e:	bf00      	nop

08000b10 <__aeabi_fsub>:
 8000b10:	f081 4100 	eor.w	r1, r1, #2147483648	@ 0x80000000

08000b14 <__addsf3>:
 8000b14:	0042      	lsls	r2, r0, #1
 8000b16:	bf1f      	itttt	ne
 8000b18:	ea5f 0341 	movsne.w	r3, r1, lsl #1
 8000b1c:	ea92 0f03 	teqne	r2, r3
 8000b20:	ea7f 6c22 	mvnsne.w	ip, r2, asr #24
 8000b24:	ea7f 6c23 	mvnsne.w	ip, r3, asr #24
 8000b28:	d06a      	beq.n	8000c00 <__addsf3+0xec>
 8000b2a:	ea4f 6212 	mov.w	r2, r2, lsr #24
 8000b2e:	ebd2 6313 	rsbs	r3, r2, r3, lsr #24
 8000b32:	bfc1      	itttt	gt
 8000b34:	18d2      	addgt	r2, r2, r3
 8000b36:	4041      	eorgt	r1, r0
 8000b38:	4048      	eorgt	r0, r1
 8000b3a:	4041      	eorgt	r1, r0
 8000b3c:	bfb8      	it	lt
 8000b3e:	425b      	neglt	r3, r3
 8000b40:	2b19      	cmp	r3, #25
 8000b42:	bf88      	it	hi
 8000b44:	4770      	bxhi	lr
 8000b46:	f010 4f00 	tst.w	r0, #2147483648	@ 0x80000000
 8000b4a:	f440 0000 	orr.w	r0, r0, #8388608	@ 0x800000
 8000b4e:	f020 407f 	bic.w	r0, r0, #4278190080	@ 0xff000000
 8000b52:	bf18      	it	ne
 8000b54:	4240      	negne	r0, r0
 8000b56:	f011 4f00 	tst.w	r1, #2147483648	@ 0x80000000
 8000b5a:	f441 0100 	orr.w	r1, r1, #8388608	@ 0x800000
 8000b5e:	f021 417f 	bic.w	r1, r1, #4278190080	@ 0xff000000
 8000b62:	bf18      	it	ne
 8000b64:	4249      	negne	r1, r1
 8000b66:	ea92 0f03 	teq	r2, r3
 8000b6a:	d03f      	beq.n	8000bec <__addsf3+0xd8>
 8000b6c:	f1a2 0201 	sub.w	r2, r2, #1
 8000b70:	fa41 fc03 	asr.w	ip, r1, r3
 8000b74:	eb10 000c 	adds.w	r0, r0, ip
 8000b78:	f1c3 0320 	rsb	r3, r3, #32
 8000b7c:	fa01 f103 	lsl.w	r1, r1, r3
 8000b80:	f000 4300 	and.w	r3, r0, #2147483648	@ 0x80000000
 8000b84:	d502      	bpl.n	8000b8c <__addsf3+0x78>
 8000b86:	4249      	negs	r1, r1
 8000b88:	eb60 0040 	sbc.w	r0, r0, r0, lsl #1
 8000b8c:	f5b0 0f00 	cmp.w	r0, #8388608	@ 0x800000
 8000b90:	d313      	bcc.n	8000bba <__addsf3+0xa6>
 8000b92:	f1b0 7f80 	cmp.w	r0, #16777216	@ 0x1000000
 8000b96:	d306      	bcc.n	8000ba6 <__addsf3+0x92>
 8000b98:	0840      	lsrs	r0, r0, #1
 8000b9a:	ea4f 0131 	mov.w	r1, r1, rrx
 8000b9e:	f102 0201 	add.w	r2, r2, #1
 8000ba2:	2afe      	cmp	r2, #254	@ 0xfe
 8000ba4:	d251      	bcs.n	8000c4a <__addsf3+0x136>
 8000ba6:	f1b1 4f00 	cmp.w	r1, #2147483648	@ 0x80000000
 8000baa:	eb40 50c2 	adc.w	r0, r0, r2, lsl #23
 8000bae:	bf08      	it	eq
 8000bb0:	f020 0001 	biceq.w	r0, r0, #1
 8000bb4:	ea40 0003 	orr.w	r0, r0, r3
 8000bb8:	4770      	bx	lr
 8000bba:	0049      	lsls	r1, r1, #1
 8000bbc:	eb40 0000 	adc.w	r0, r0, r0
 8000bc0:	3a01      	subs	r2, #1
 8000bc2:	bf28      	it	cs
 8000bc4:	f5b0 0f00 	cmpcs.w	r0, #8388608	@ 0x800000
 8000bc8:	d2ed      	bcs.n	8000ba6 <__addsf3+0x92>
 8000bca:	fab0 fc80 	clz	ip, r0
 8000bce:	f1ac 0c08 	sub.w	ip, ip, #8
 8000bd2:	ebb2 020c 	subs.w	r2, r2, ip
 8000bd6:	fa00 f00c 	lsl.w	r0, r0, ip
 8000bda:	bfaa      	itet	ge
 8000bdc:	eb00 50c2 	addge.w	r0, r0, r2, lsl #23
 8000be0:	4252      	neglt	r2, r2
 8000be2:	4318      	orrge	r0, r3
 8000be4:	bfbc      	itt	lt
 8000be6:	40d0      	lsrlt	r0, r2
 8000be8:	4318      	orrlt	r0, r3
 8000bea:	4770      	bx	lr
 8000bec:	f092 0f00 	teq	r2, #0
 8000bf0:	f481 0100 	eor.w	r1, r1, #8388608	@ 0x800000
 8000bf4:	bf06      	itte	eq
 8000bf6:	f480 0000 	eoreq.w	r0, r0, #8388608	@ 0x800000
 8000bfa:	3201      	addeq	r2, #1
 8000bfc:	3b01      	subne	r3, #1
 8000bfe:	e7b5      	b.n	8000b6c <__addsf3+0x58>
 8000c00:	ea4f 0341 	mov.w	r3, r1, lsl #1
 8000c04:	ea7f 6c22 	mvns.w	ip, r2, asr #24
 8000c08:	bf18      	it	ne
 8000c0a:	ea7f 6c23 	mvnsne.w	ip, r3, asr #24
 8000c0e:	d021      	beq.n	8000c54 <__addsf3+0x140>
 8000c10:	ea92 0f03 	teq	r2, r3
 8000c14:	d004      	beq.n	8000c20 <__addsf3+0x10c>
 8000c16:	f092 0f00 	teq	r2, #0
 8000c1a:	bf08      	it	eq
 8000c1c:	4608      	moveq	r0, r1
 8000c1e:	4770      	bx	lr
 8000c20:	ea90 0f01 	teq	r0, r1
 8000c24:	bf1c      	itt	ne
 8000c26:	2000      	movne	r0, #0
 8000c28:	4770      	bxne	lr
 8000c2a:	f012 4f7f 	tst.w	r2, #4278190080	@ 0xff000000
 8000c2e:	d104      	bne.n	8000c3a <__addsf3+0x126>
 8000c30:	0040      	lsls	r0, r0, #1
 8000c32:	bf28      	it	cs
 8000c34:	f040 4000 	orrcs.w	r0, r0, #2147483648	@ 0x80000000
 8000c38:	4770      	bx	lr
 8000c3a:	f112 7200 	adds.w	r2, r2, #33554432	@ 0x2000000
 8000c3e:	bf3c      	itt	cc
 8000c40:	f500 0000 	addcc.w	r0, r0, #8388608	@ 0x800000
 8000c44:	4770      	bxcc	lr
 8000c46:	f000 4300 	and.w	r3, r0, #2147483648	@ 0x80000000
 8000c4a:	f043 40fe 	orr.w	r0, r3, #2130706432	@ 0x7f000000
 8000c4e:	f440 0000 	orr.w	r0, r0, #8388608	@ 0x800000
 8000c52:	4770      	bx	lr
 8000c54:	ea7f 6222 	mvns.w	r2, r2, asr #24
 8000c58:	bf16      	itet	ne
 8000c5a:	4608      	movne	r0, r1
 8000c5c:	ea7f 6323 	mvnseq.w	r3, r3, asr #24
 8000c60:	4601      	movne	r1, r0
 8000c62:	0242      	lsls	r2, r0, #9
 8000c64:	bf06      	itte	eq
 8000c66:	ea5f 2341 	movseq.w	r3, r1, lsl #9
 8000c6a:	ea90 0f01 	teqeq	r0, r1
 8000c6e:	f440 0080 	orrne.w	r0, r0, #4194304	@ 0x400000
 8000c72:	4770      	bx	lr

08000c74 <__aeabi_ui2f>:
 8000c74:	f04f 0300 	mov.w	r3, #0
 8000c78:	e004      	b.n	8000c84 <__aeabi_i2f+0x8>
 8000c7a:	bf00      	nop

08000c7c <__aeabi_i2f>:
 8000c7c:	f010 4300 	ands.w	r3, r0, #2147483648	@ 0x80000000
 8000c80:	bf48      	it	mi
 8000c82:	4240      	negmi	r0, r0
 8000c84:	ea5f 0c00 	movs.w	ip, r0
 8000c88:	bf08      	it	eq
 8000c8a:	4770      	bxeq	lr
 8000c8c:	f043 4396 	orr.w	r3, r3, #1258291200	@ 0x4b000000
 8000c90:	4601      	mov	r1, r0
 8000c92:	f04f 0000 	mov.w	r0, #0
 8000c96:	e01c      	b.n	8000cd2 <__aeabi_l2f+0x2a>

08000c98 <__aeabi_ul2f>:
 8000c98:	ea50 0201 	orrs.w	r2, r0, r1
 8000c9c:	bf08      	it	eq
 8000c9e:	4770      	bxeq	lr
 8000ca0:	f04f 0300 	mov.w	r3, #0
 8000ca4:	e00a      	b.n	8000cbc <__aeabi_l2f+0x14>
 8000ca6:	bf00      	nop

08000ca8 <__aeabi_l2f>:
 8000ca8:	ea50 0201 	orrs.w	r2, r0, r1
 8000cac:	bf08      	it	eq
 8000cae:	4770      	bxeq	lr
 8000cb0:	f011 4300 	ands.w	r3, r1, #2147483648	@ 0x80000000
 8000cb4:	d502      	bpl.n	8000cbc <__aeabi_l2f+0x14>
 8000cb6:	4240      	negs	r0, r0
 8000cb8:	eb61 0141 	sbc.w	r1, r1, r1, lsl #1
 8000cbc:	ea5f 0c01 	movs.w	ip, r1
 8000cc0:	bf02      	ittt	eq
 8000cc2:	4684      	moveq	ip, r0
 8000cc4:	4601      	moveq	r1, r0
 8000cc6:	2000      	moveq	r0, #0
 8000cc8:	f043 43b6 	orr.w	r3, r3, #1526726656	@ 0x5b000000
 8000ccc:	bf08      	it	eq
 8000cce:	f1a3 5380 	subeq.w	r3, r3, #268435456	@ 0x10000000
 8000cd2:	f5a3 0300 	sub.w	r3, r3, #8388608	@ 0x800000
 8000cd6:	fabc f28c 	clz	r2, ip
 8000cda:	3a08      	subs	r2, #8
 8000cdc:	eba3 53c2 	sub.w	r3, r3, r2, lsl #23
 8000ce0:	db10      	blt.n	8000d04 <__aeabi_l2f+0x5c>
 8000ce2:	fa01 fc02 	lsl.w	ip, r1, r2
 8000ce6:	4463      	add	r3, ip
 8000ce8:	fa00 fc02 	lsl.w	ip, r0, r2
 8000cec:	f1c2 0220 	rsb	r2, r2, #32
 8000cf0:	f1bc 4f00 	cmp.w	ip, #2147483648	@ 0x80000000
 8000cf4:	fa20 f202 	lsr.w	r2, r0, r2
 8000cf8:	eb43 0002 	adc.w	r0, r3, r2
 8000cfc:	bf08      	it	eq
 8000cfe:	f020 0001 	biceq.w	r0, r0, #1
 8000d02:	4770      	bx	lr
 8000d04:	f102 0220 	add.w	r2, r2, #32
 8000d08:	fa01 fc02 	lsl.w	ip, r1, r2
 8000d0c:	f1c2 0220 	rsb	r2, r2, #32
 8000d10:	ea50 004c 	orrs.w	r0, r0, ip, lsl #1
 8000d14:	fa21 f202 	lsr.w	r2, r1, r2
 8000d18:	eb43 0002 	adc.w	r0, r3, r2
 8000d1c:	bf08      	it	eq
 8000d1e:	ea20 70dc 	biceq.w	r0, r0, ip, lsr #31
 8000d22:	4770      	bx	lr

08000d24 <__aeabi_fmul>:
 8000d24:	f04f 0cff 	mov.w	ip, #255	@ 0xff
 8000d28:	ea1c 52d0 	ands.w	r2, ip, r0, lsr #23
 8000d2c:	bf1e      	ittt	ne
 8000d2e:	ea1c 53d1 	andsne.w	r3, ip, r1, lsr #23
 8000d32:	ea92 0f0c 	teqne	r2, ip
 8000d36:	ea93 0f0c 	teqne	r3, ip
 8000d3a:	d06f      	beq.n	8000e1c <__aeabi_fmul+0xf8>
 8000d3c:	441a      	add	r2, r3
 8000d3e:	ea80 0c01 	eor.w	ip, r0, r1
 8000d42:	0240      	lsls	r0, r0, #9
 8000d44:	bf18      	it	ne
 8000d46:	ea5f 2141 	movsne.w	r1, r1, lsl #9
 8000d4a:	d01e      	beq.n	8000d8a <__aeabi_fmul+0x66>
 8000d4c:	f04f 6300 	mov.w	r3, #134217728	@ 0x8000000
 8000d50:	ea43 1050 	orr.w	r0, r3, r0, lsr #5
 8000d54:	ea43 1151 	orr.w	r1, r3, r1, lsr #5
 8000d58:	fba0 3101 	umull	r3, r1, r0, r1
 8000d5c:	f00c 4000 	and.w	r0, ip, #2147483648	@ 0x80000000
 8000d60:	f5b1 0f00 	cmp.w	r1, #8388608	@ 0x800000
 8000d64:	bf3e      	ittt	cc
 8000d66:	0049      	lslcc	r1, r1, #1
 8000d68:	ea41 71d3 	orrcc.w	r1, r1, r3, lsr #31
 8000d6c:	005b      	lslcc	r3, r3, #1
 8000d6e:	ea40 0001 	orr.w	r0, r0, r1
 8000d72:	f162 027f 	sbc.w	r2, r2, #127	@ 0x7f
 8000d76:	2afd      	cmp	r2, #253	@ 0xfd
 8000d78:	d81d      	bhi.n	8000db6 <__aeabi_fmul+0x92>
 8000d7a:	f1b3 4f00 	cmp.w	r3, #2147483648	@ 0x80000000
 8000d7e:	eb40 50c2 	adc.w	r0, r0, r2, lsl #23
 8000d82:	bf08      	it	eq
 8000d84:	f020 0001 	biceq.w	r0, r0, #1
 8000d88:	4770      	bx	lr
 8000d8a:	f090 0f00 	teq	r0, #0
 8000d8e:	f00c 4c00 	and.w	ip, ip, #2147483648	@ 0x80000000
 8000d92:	bf08      	it	eq
 8000d94:	0249      	lsleq	r1, r1, #9
 8000d96:	ea4c 2050 	orr.w	r0, ip, r0, lsr #9
 8000d9a:	ea40 2051 	orr.w	r0, r0, r1, lsr #9
 8000d9e:	3a7f      	subs	r2, #127	@ 0x7f
 8000da0:	bfc2      	ittt	gt
 8000da2:	f1d2 03ff 	rsbsgt	r3, r2, #255	@ 0xff
 8000da6:	ea40 50c2 	orrgt.w	r0, r0, r2, lsl #23
 8000daa:	4770      	bxgt	lr
 8000dac:	f440 0000 	orr.w	r0, r0, #8388608	@ 0x800000
 8000db0:	f04f 0300 	mov.w	r3, #0
 8000db4:	3a01      	subs	r2, #1
 8000db6:	dc5d      	bgt.n	8000e74 <__aeabi_fmul+0x150>
 8000db8:	f112 0f19 	cmn.w	r2, #25
 8000dbc:	bfdc      	itt	le
 8000dbe:	f000 4000 	andle.w	r0, r0, #2147483648	@ 0x80000000
 8000dc2:	4770      	bxle	lr
 8000dc4:	f1c2 0200 	rsb	r2, r2, #0
 8000dc8:	0041      	lsls	r1, r0, #1
 8000dca:	fa21 f102 	lsr.w	r1, r1, r2
 8000dce:	f1c2 0220 	rsb	r2, r2, #32
 8000dd2:	fa00 fc02 	lsl.w	ip, r0, r2
 8000dd6:	ea5f 0031 	movs.w	r0, r1, rrx
 8000dda:	f140 0000 	adc.w	r0, r0, #0
 8000dde:	ea53 034c 	orrs.w	r3, r3, ip, lsl #1
 8000de2:	bf08      	it	eq
 8000de4:	ea20 70dc 	biceq.w	r0, r0, ip, lsr #31
 8000de8:	4770      	bx	lr
 8000dea:	f092 0f00 	teq	r2, #0
 8000dee:	f000 4c00 	and.w	ip, r0, #2147483648	@ 0x80000000
 8000df2:	bf02      	ittt	eq
 8000df4:	0040      	lsleq	r0, r0, #1
 8000df6:	f410 0f00 	tsteq.w	r0, #8388608	@ 0x800000
 8000dfa:	3a01      	subeq	r2, #1
 8000dfc:	d0f9      	beq.n	8000df2 <__aeabi_fmul+0xce>
 8000dfe:	ea40 000c 	orr.w	r0, r0, ip
 8000e02:	f093 0f00 	teq	r3, #0
 8000e06:	f001 4c00 	and.w	ip, r1, #2147483648	@ 0x80000000
 8000e0a:	bf02      	ittt	eq
 8000e0c:	0049      	lsleq	r1, r1, #1
 8000e0e:	f411 0f00 	tsteq.w	r1, #8388608	@ 0x800000
 8000e12:	3b01      	subeq	r3, #1
 8000e14:	d0f9      	beq.n	8000e0a <__aeabi_fmul+0xe6>
 8000e16:	ea41 010c 	orr.w	r1, r1, ip
 8000e1a:	e78f      	b.n	8000d3c <__aeabi_fmul+0x18>
 8000e1c:	ea0c 53d1 	and.w	r3, ip, r1, lsr #23
 8000e20:	ea92 0f0c 	teq	r2, ip
 8000e24:	bf18      	it	ne
 8000e26:	ea93 0f0c 	teqne	r3, ip
 8000e2a:	d00a      	beq.n	8000e42 <__aeabi_fmul+0x11e>
 8000e2c:	f030 4c00 	bics.w	ip, r0, #2147483648	@ 0x80000000
 8000e30:	bf18      	it	ne
 8000e32:	f031 4c00 	bicsne.w	ip, r1, #2147483648	@ 0x80000000
 8000e36:	d1d8      	bne.n	8000dea <__aeabi_fmul+0xc6>
 8000e38:	ea80 0001 	eor.w	r0, r0, r1
 8000e3c:	f000 4000 	and.w	r0, r0, #2147483648	@ 0x80000000
 8000e40:	4770      	bx	lr
 8000e42:	f090 0f00 	teq	r0, #0
 8000e46:	bf17      	itett	ne
 8000e48:	f090 4f00 	teqne	r0, #2147483648	@ 0x80000000
 8000e4c:	4608      	moveq	r0, r1
 8000e4e:	f091 0f00 	teqne	r1, #0
 8000e52:	f091 4f00 	teqne	r1, #2147483648	@ 0x80000000
 8000e56:	d014      	beq.n	8000e82 <__aeabi_fmul+0x15e>
 8000e58:	ea92 0f0c 	teq	r2, ip
 8000e5c:	d101      	bne.n	8000e62 <__aeabi_fmul+0x13e>
 8000e5e:	0242      	lsls	r2, r0, #9
 8000e60:	d10f      	bne.n	8000e82 <__aeabi_fmul+0x15e>
 8000e62:	ea93 0f0c 	teq	r3, ip
 8000e66:	d103      	bne.n	8000e70 <__aeabi_fmul+0x14c>
 8000e68:	024b      	lsls	r3, r1, #9
 8000e6a:	bf18      	it	ne
 8000e6c:	4608      	movne	r0, r1
 8000e6e:	d108      	bne.n	8000e82 <__aeabi_fmul+0x15e>
 8000e70:	ea80 0001 	eor.w	r0, r0, r1
 8000e74:	f000 4000 	and.w	r0, r0, #2147483648	@ 0x80000000
 8000e78:	f040 40fe 	orr.w	r0, r0, #2130706432	@ 0x7f000000
 8000e7c:	f440 0000 	orr.w	r0, r0, #8388608	@ 0x800000
 8000e80:	4770      	bx	lr
 8000e82:	f040 40fe 	orr.w	r0, r0, #2130706432	@ 0x7f000000
 8000e86:	f440 0040 	orr.w	r0, r0, #12582912	@ 0xc00000
 8000e8a:	4770      	bx	lr

08000e8c <__aeabi_fdiv>:
 8000e8c:	f04f 0cff 	mov.w	ip, #255	@ 0xff
 8000e90:	ea1c 52d0 	ands.w	r2, ip, r0, lsr #23
 8000e94:	bf1e      	ittt	ne
 8000e96:	ea1c 53d1 	andsne.w	r3, ip, r1, lsr #23
 8000e9a:	ea92 0f0c 	teqne	r2, ip
 8000e9e:	ea93 0f0c 	teqne	r3, ip
 8000ea2:	d069      	beq.n	8000f78 <__aeabi_fdiv+0xec>
 8000ea4:	eba2 0203 	sub.w	r2, r2, r3
 8000ea8:	ea80 0c01 	eor.w	ip, r0, r1
 8000eac:	0249      	lsls	r1, r1, #9
 8000eae:	ea4f 2040 	mov.w	r0, r0, lsl #9
 8000eb2:	d037      	beq.n	8000f24 <__aeabi_fdiv+0x98>
 8000eb4:	f04f 5380 	mov.w	r3, #268435456	@ 0x10000000
 8000eb8:	ea43 1111 	orr.w	r1, r3, r1, lsr #4
 8000ebc:	ea43 1310 	orr.w	r3, r3, r0, lsr #4
 8000ec0:	f00c 4000 	and.w	r0, ip, #2147483648	@ 0x80000000
 8000ec4:	428b      	cmp	r3, r1
 8000ec6:	bf38      	it	cc
 8000ec8:	005b      	lslcc	r3, r3, #1
 8000eca:	f142 027d 	adc.w	r2, r2, #125	@ 0x7d
 8000ece:	f44f 0c00 	mov.w	ip, #8388608	@ 0x800000
 8000ed2:	428b      	cmp	r3, r1
 8000ed4:	bf24      	itt	cs
 8000ed6:	1a5b      	subcs	r3, r3, r1
 8000ed8:	ea40 000c 	orrcs.w	r0, r0, ip
 8000edc:	ebb3 0f51 	cmp.w	r3, r1, lsr #1
 8000ee0:	bf24      	itt	cs
 8000ee2:	eba3 0351 	subcs.w	r3, r3, r1, lsr #1
 8000ee6:	ea40 005c 	orrcs.w	r0, r0, ip, lsr #1
 8000eea:	ebb3 0f91 	cmp.w	r3, r1, lsr #2
 8000eee:	bf24      	itt	cs
 8000ef0:	eba3 0391 	subcs.w	r3, r3, r1, lsr #2
 8000ef4:	ea40 009c 	orrcs.w	r0, r0, ip, lsr #2
 8000ef8:	ebb3 0fd1 	cmp.w	r3, r1, lsr #3
 8000efc:	bf24      	itt	cs
 8000efe:	eba3 03d1 	subcs.w	r3, r3, r1, lsr #3
 8000f02:	ea40 00dc 	orrcs.w	r0, r0, ip, lsr #3
 8000f06:	011b      	lsls	r3, r3, #4
 8000f08:	bf18      	it	ne
 8000f0a:	ea5f 1c1c 	movsne.w	ip, ip, lsr #4
 8000f0e:	d1e0      	bne.n	8000ed2 <__aeabi_fdiv+0x46>
 8000f10:	2afd      	cmp	r2, #253	@ 0xfd
 8000f12:	f63f af50 	bhi.w	8000db6 <__aeabi_fmul+0x92>
 8000f16:	428b      	cmp	r3, r1
 8000f18:	eb40 50c2 	adc.w	r0, r0, r2, lsl #23
 8000f1c:	bf08      	it	eq
 8000f1e:	f020 0001 	biceq.w	r0, r0, #1
 8000f22:	4770      	bx	lr
 8000f24:	f00c 4c00 	and.w	ip, ip, #2147483648	@ 0x80000000
 8000f28:	ea4c 2050 	orr.w	r0, ip, r0, lsr #9
 8000f2c:	327f      	adds	r2, #127	@ 0x7f
 8000f2e:	bfc2      	ittt	gt
 8000f30:	f1d2 03ff 	rsbsgt	r3, r2, #255	@ 0xff
 8000f34:	ea40 50c2 	orrgt.w	r0, r0, r2, lsl #23
 8000f38:	4770      	bxgt	lr
 8000f3a:	f440 0000 	orr.w	r0, r0, #8388608	@ 0x800000
 8000f3e:	f04f 0300 	mov.w	r3, #0
 8000f42:	3a01      	subs	r2, #1
 8000f44:	e737      	b.n	8000db6 <__aeabi_fmul+0x92>
 8000f46:	f092 0f00 	teq	r2, #0
 8000f4a:	f000 4c00 	and.w	ip, r0, #2147483648	@ 0x80000000
 8000f4e:	bf02      	ittt	eq
 8000f50:	0040      	lsleq	r0, r0, #1
 8000f52:	f410 0f00 	tsteq.w	r0, #8388608	@ 0x800000
 8000f56:	3a01      	subeq	r2, #1
 8000f58:	d0f9      	beq.n	8000f4e <__aeabi_fdiv+0xc2>
 8000f5a:	ea40 000c 	orr.w	r0, r0, ip
 8000f5e:	f093 0f00 	teq	r3, #0
 8000f62:	f001 4c00 	and.w	ip, r1, #2147483648	@ 0x80000000
 8000f66:	bf02      	ittt	eq
 8000f68:	0049      	lsleq	r1, r1, #1
 8000f6a:	f411 0f00 	tsteq.w	r1, #8388608	@ 0x800000
 8000f6e:	3b01      	subeq	r3, #1
 8000f70:	d0f9      	beq.n	8000f66 <__aeabi_fdiv+0xda>
 8000f72:	ea41 010c 	orr.w	r1, r1, ip
 8000f76:	e795      	b.n	8000ea4 <__aeabi_fdiv+0x18>
 8000f78:	ea0c 53d1 	and.w	r3, ip, r1, lsr #23
 8000f7c:	ea92 0f0c 	teq	r2, ip
 8000f80:	d108      	bne.n	8000f94 <__aeabi_fdiv+0x108>
 8000f82:	0242      	lsls	r2, r0, #9
 8000f84:	f47f af7d 	bne.w	8000e82 <__aeabi_fmul+0x15e>
 8000f88:	ea93 0f0c 	teq	r3, ip
 8000f8c:	f47f af70 	bne.w	8000e70 <__aeabi_fmul+0x14c>
 8000f90:	4608      	mov	r0, r1
 8000f92:	e776      	b.n	8000e82 <__aeabi_fmul+0x15e>
 8000f94:	ea93 0f0c 	teq	r3, ip
 8000f98:	d104      	bne.n	8000fa4 <__aeabi_fdiv+0x118>
 8000f9a:	024b      	lsls	r3, r1, #9
 8000f9c:	f43f af4c 	beq.w	8000e38 <__aeabi_fmul+0x114>
 8000fa0:	4608      	mov	r0, r1
 8000fa2:	e76e      	b.n	8000e82 <__aeabi_fmul+0x15e>
 8000fa4:	f030 4c00 	bics.w	ip, r0, #2147483648	@ 0x80000000
 8000fa8:	bf18      	it	ne
 8000faa:	f031 4c00 	bicsne.w	ip, r1, #2147483648	@ 0x80000000
 8000fae:	d1ca      	bne.n	8000f46 <__aeabi_fdiv+0xba>
 8000fb0:	f030 4200 	bics.w	r2, r0, #2147483648	@ 0x80000000
 8000fb4:	f47f af5c 	bne.w	8000e70 <__aeabi_fmul+0x14c>
 8000fb8:	f031 4300 	bics.w	r3, r1, #2147483648	@ 0x80000000
 8000fbc:	f47f af3c 	bne.w	8000e38 <__aeabi_fmul+0x114>
 8000fc0:	e75f      	b.n	8000e82 <__aeabi_fmul+0x15e>
 8000fc2:	bf00      	nop

08000fc4 <__gesf2>:
 8000fc4:	f04f 3cff 	mov.w	ip, #4294967295
 8000fc8:	e006      	b.n	8000fd8 <__cmpsf2+0x4>
 8000fca:	bf00      	nop

08000fcc <__lesf2>:
 8000fcc:	f04f 0c01 	mov.w	ip, #1
 8000fd0:	e002      	b.n	8000fd8 <__cmpsf2+0x4>
 8000fd2:	bf00      	nop

08000fd4 <__cmpsf2>:
 8000fd4:	f04f 0c01 	mov.w	ip, #1
 8000fd8:	f84d cd04 	str.w	ip, [sp, #-4]!
 8000fdc:	ea4f 0240 	mov.w	r2, r0, lsl #1
 8000fe0:	ea4f 0341 	mov.w	r3, r1, lsl #1
 8000fe4:	ea7f 6c22 	mvns.w	ip, r2, asr #24
 8000fe8:	bf18      	it	ne
 8000fea:	ea7f 6c23 	mvnsne.w	ip, r3, asr #24
 8000fee:	d011      	beq.n	8001014 <__cmpsf2+0x40>
 8000ff0:	b001      	add	sp, #4
 8000ff2:	ea52 0c53 	orrs.w	ip, r2, r3, lsr #1
 8000ff6:	bf18      	it	ne
 8000ff8:	ea90 0f01 	teqne	r0, r1
 8000ffc:	bf58      	it	pl
 8000ffe:	ebb2 0003 	subspl.w	r0, r2, r3
 8001002:	bf88      	it	hi
 8001004:	17c8      	asrhi	r0, r1, #31
 8001006:	bf38      	it	cc
 8001008:	ea6f 70e1 	mvncc.w	r0, r1, asr #31
 800100c:	bf18      	it	ne
 800100e:	f040 0001 	orrne.w	r0, r0, #1
 8001012:	4770      	bx	lr
 8001014:	ea7f 6c22 	mvns.w	ip, r2, asr #24
 8001018:	d102      	bne.n	8001020 <__cmpsf2+0x4c>
 800101a:	ea5f 2c40 	movs.w	ip, r0, lsl #9
 800101e:	d105      	bne.n	800102c <__cmpsf2+0x58>
 8001020:	ea7f 6c23 	mvns.w	ip, r3, asr #24
 8001024:	d1e4      	bne.n	8000ff0 <__cmpsf2+0x1c>
 8001026:	ea5f 2c41 	movs.w	ip, r1, lsl #9
 800102a:	d0e1      	beq.n	8000ff0 <__cmpsf2+0x1c>
 800102c:	f85d 0b04 	ldr.w	r0, [sp], #4
 8001030:	4770      	bx	lr
 8001032:	bf00      	nop

08001034 <__aeabi_cfrcmple>:
 8001034:	4684      	mov	ip, r0
 8001036:	4608      	mov	r0, r1
 8001038:	4661      	mov	r1, ip
 800103a:	e7ff      	b.n	800103c <__aeabi_cfcmpeq>

0800103c <__aeabi_cfcmpeq>:
 800103c:	b50f      	push	{r0, r1, r2, r3, lr}
 800103e:	f7ff ffc9 	bl	8000fd4 <__cmpsf2>
 8001042:	2800      	cmp	r0, #0
 8001044:	bf48      	it	mi
 8001046:	f110 0f00 	cmnmi.w	r0, #0
 800104a:	bd0f      	pop	{r0, r1, r2, r3, pc}

0800104c <__aeabi_fcmpeq>:
 800104c:	f84d ed08 	str.w	lr, [sp, #-8]!
 8001050:	f7ff fff4 	bl	800103c <__aeabi_cfcmpeq>
 8001054:	bf0c      	ite	eq
 8001056:	2001      	moveq	r0, #1
 8001058:	2000      	movne	r0, #0
 800105a:	f85d fb08 	ldr.w	pc, [sp], #8
 800105e:	bf00      	nop

08001060 <__aeabi_fcmplt>:
 8001060:	f84d ed08 	str.w	lr, [sp, #-8]!
 8001064:	f7ff ffea 	bl	800103c <__aeabi_cfcmpeq>
 8001068:	bf34      	ite	cc
 800106a:	2001      	movcc	r0, #1
 800106c:	2000      	movcs	r0, #0
 800106e:	f85d fb08 	ldr.w	pc, [sp], #8
 8001072:	bf00      	nop

08001074 <__aeabi_fcmple>:
 8001074:	f84d ed08 	str.w	lr, [sp, #-8]!
 8001078:	f7ff ffe0 	bl	800103c <__aeabi_cfcmpeq>
 800107c:	bf94      	ite	ls
 800107e:	2001      	movls	r0, #1
 8001080:	2000      	movhi	r0, #0
 8001082:	f85d fb08 	ldr.w	pc, [sp], #8
 8001086:	bf00      	nop

08001088 <__aeabi_fcmpge>:
 8001088:	f84d ed08 	str.w	lr, [sp, #-8]!
 800108c:	f7ff ffd2 	bl	8001034 <__aeabi_cfrcmple>
 8001090:	bf94      	ite	ls
 8001092:	2001      	movls	r0, #1
 8001094:	2000      	movhi	r0, #0
 8001096:	f85d fb08 	ldr.w	pc, [sp], #8
 800109a:	bf00      	nop

0800109c <__aeabi_fcmpgt>:
 800109c:	f84d ed08 	str.w	lr, [sp, #-8]!
 80010a0:	f7ff ffc8 	bl	8001034 <__aeabi_cfrcmple>
 80010a4:	bf34      	ite	cc
 80010a6:	2001      	movcc	r0, #1
 80010a8:	2000      	movcs	r0, #0
 80010aa:	f85d fb08 	ldr.w	pc, [sp], #8
 80010ae:	bf00      	nop

080010b0 <__aeabi_f2uiz>:
 80010b0:	0042      	lsls	r2, r0, #1
 80010b2:	d20e      	bcs.n	80010d2 <__aeabi_f2uiz+0x22>
 80010b4:	f1b2 4ffe 	cmp.w	r2, #2130706432	@ 0x7f000000
 80010b8:	d30b      	bcc.n	80010d2 <__aeabi_f2uiz+0x22>
 80010ba:	f04f 039e 	mov.w	r3, #158	@ 0x9e
 80010be:	ebb3 6212 	subs.w	r2, r3, r2, lsr #24
 80010c2:	d409      	bmi.n	80010d8 <__aeabi_f2uiz+0x28>
 80010c4:	ea4f 2300 	mov.w	r3, r0, lsl #8
 80010c8:	f043 4300 	orr.w	r3, r3, #2147483648	@ 0x80000000
 80010cc:	fa23 f002 	lsr.w	r0, r3, r2
 80010d0:	4770      	bx	lr
 80010d2:	f04f 0000 	mov.w	r0, #0
 80010d6:	4770      	bx	lr
 80010d8:	f112 0f61 	cmn.w	r2, #97	@ 0x61
 80010dc:	d101      	bne.n	80010e2 <__aeabi_f2uiz+0x32>
 80010de:	0242      	lsls	r2, r0, #9
 80010e0:	d102      	bne.n	80010e8 <__aeabi_f2uiz+0x38>
 80010e2:	f04f 30ff 	mov.w	r0, #4294967295
 80010e6:	4770      	bx	lr
 80010e8:	f04f 0000 	mov.w	r0, #0
 80010ec:	4770      	bx	lr
 80010ee:	bf00      	nop

080010f0 <min>:
//   }
//   va_end(ap);
//
//   return max;
//}
float min(float a, float b) {
 80010f0:	b580      	push	{r7, lr}
 80010f2:	b082      	sub	sp, #8
 80010f4:	af00      	add	r7, sp, #0
 80010f6:	6078      	str	r0, [r7, #4]
 80010f8:	6039      	str	r1, [r7, #0]
	return (a <= b) ? a : b;
 80010fa:	6839      	ldr	r1, [r7, #0]
 80010fc:	6878      	ldr	r0, [r7, #4]
 80010fe:	f7ff ffb9 	bl	8001074 <__aeabi_fcmple>
 8001102:	4603      	mov	r3, r0
 8001104:	2b00      	cmp	r3, #0
 8001106:	d001      	beq.n	800110c <min+0x1c>
 8001108:	687b      	ldr	r3, [r7, #4]
 800110a:	e000      	b.n	800110e <min+0x1e>
 800110c:	683b      	ldr	r3, [r7, #0]
}
 800110e:	4618      	mov	r0, r3
 8001110:	3708      	adds	r7, #8
 8001112:	46bd      	mov	sp, r7
 8001114:	bd80      	pop	{r7, pc}

08001116 <max>:


float max(float a, float b) {
 8001116:	b580      	push	{r7, lr}
 8001118:	b082      	sub	sp, #8
 800111a:	af00      	add	r7, sp, #0
 800111c:	6078      	str	r0, [r7, #4]
 800111e:	6039      	str	r1, [r7, #0]
	return (a >= b) ? a : b;
 8001120:	6839      	ldr	r1, [r7, #0]
 8001122:	6878      	ldr	r0, [r7, #4]
 8001124:	f7ff ffb0 	bl	8001088 <__aeabi_fcmpge>
 8001128:	4603      	mov	r3, r0
 800112a:	2b00      	cmp	r3, #0
 800112c:	d001      	beq.n	8001132 <max+0x1c>
 800112e:	687b      	ldr	r3, [r7, #4]
 8001130:	e000      	b.n	8001134 <max+0x1e>
 8001132:	683b      	ldr	r3, [r7, #0]
}
 8001134:	4618      	mov	r0, r3
 8001136:	3708      	adds	r7, #8
 8001138:	46bd      	mov	sp, r7
 800113a:	bd80      	pop	{r7, pc}

0800113c <mfTriang>:


float mfTriang(float x, float a, float b, float c) {
 800113c:	b590      	push	{r4, r7, lr}
 800113e:	b087      	sub	sp, #28
 8001140:	af00      	add	r7, sp, #0
 8001142:	60f8      	str	r0, [r7, #12]
 8001144:	60b9      	str	r1, [r7, #8]
 8001146:	607a      	str	r2, [r7, #4]
 8001148:	603b      	str	r3, [r7, #0]
  float out_tri;

  if (x < a) {
 800114a:	68b9      	ldr	r1, [r7, #8]
 800114c:	68f8      	ldr	r0, [r7, #12]
 800114e:	f7ff ff87 	bl	8001060 <__aeabi_fcmplt>
 8001152:	4603      	mov	r3, r0
 8001154:	2b00      	cmp	r3, #0
 8001156:	d003      	beq.n	8001160 <mfTriang+0x24>
	  out_tri = 0;
 8001158:	f04f 0300 	mov.w	r3, #0
 800115c:	617b      	str	r3, [r7, #20]
 800115e:	e042      	b.n	80011e6 <mfTriang+0xaa>
  } else if ((x >= a) && (x <= b)) {
 8001160:	68b9      	ldr	r1, [r7, #8]
 8001162:	68f8      	ldr	r0, [r7, #12]
 8001164:	f7ff ff90 	bl	8001088 <__aeabi_fcmpge>
 8001168:	4603      	mov	r3, r0
 800116a:	2b00      	cmp	r3, #0
 800116c:	d018      	beq.n	80011a0 <mfTriang+0x64>
 800116e:	6879      	ldr	r1, [r7, #4]
 8001170:	68f8      	ldr	r0, [r7, #12]
 8001172:	f7ff ff7f 	bl	8001074 <__aeabi_fcmple>
 8001176:	4603      	mov	r3, r0
 8001178:	2b00      	cmp	r3, #0
 800117a:	d011      	beq.n	80011a0 <mfTriang+0x64>
	  out_tri = (x - a) / (b - a);
 800117c:	68b9      	ldr	r1, [r7, #8]
 800117e:	68f8      	ldr	r0, [r7, #12]
 8001180:	f7ff fcc6 	bl	8000b10 <__aeabi_fsub>
 8001184:	4603      	mov	r3, r0
 8001186:	461c      	mov	r4, r3
 8001188:	68b9      	ldr	r1, [r7, #8]
 800118a:	6878      	ldr	r0, [r7, #4]
 800118c:	f7ff fcc0 	bl	8000b10 <__aeabi_fsub>
 8001190:	4603      	mov	r3, r0
 8001192:	4619      	mov	r1, r3
 8001194:	4620      	mov	r0, r4
 8001196:	f7ff fe79 	bl	8000e8c <__aeabi_fdiv>
 800119a:	4603      	mov	r3, r0
 800119c:	617b      	str	r3, [r7, #20]
 800119e:	e022      	b.n	80011e6 <mfTriang+0xaa>
  } else if ((x >= b) && (x <= c)) {
 80011a0:	6879      	ldr	r1, [r7, #4]
 80011a2:	68f8      	ldr	r0, [r7, #12]
 80011a4:	f7ff ff70 	bl	8001088 <__aeabi_fcmpge>
 80011a8:	4603      	mov	r3, r0
 80011aa:	2b00      	cmp	r3, #0
 80011ac:	d018      	beq.n	80011e0 <mfTriang+0xa4>
 80011ae:	6839      	ldr	r1, [r7, #0]
 80011b0:	68f8      	ldr	r0, [r7, #12]
 80011b2:	f7ff ff5f 	bl	8001074 <__aeabi_fcmple>
 80011b6:	4603      	mov	r3, r0
 80011b8:	2b00      	cmp	r3, #0
 80011ba:	d011      	beq.n	80011e0 <mfTriang+0xa4>
	  out_tri = (c - x) / (c - b);
 80011bc:	68f9      	ldr	r1, [r7, #12]
 80011be:	6838      	ldr	r0, [r7, #0]
 80011c0:	f7ff fca6 	bl	8000b10 <__aeabi_fsub>
 80011c4:	4603      	mov	r3, r0
 80011c6:	461c      	mov	r4, r3
 80011c8:	6879      	ldr	r1, [r7, #4]
 80011ca:	6838      	ldr	r0, [r7, #0]
 80011cc:	f7ff fca0 	bl	8000b10 <__aeabi_fsub>
 80011d0:	4603      	mov	r3, r0
 80011d2:	4619      	mov	r1, r3
 80011d4:	4620      	mov	r0, r4
 80011d6:	f7ff fe59 	bl	8000e8c <__aeabi_fdiv>
 80011da:	4603      	mov	r3, r0
 80011dc:	617b      	str	r3, [r7, #20]
 80011de:	e002      	b.n	80011e6 <mfTriang+0xaa>
  } else {
	  out_tri = 0;
 80011e0:	f04f 0300 	mov.w	r3, #0
 80011e4:	617b      	str	r3, [r7, #20]
  }

  return out_tri;
 80011e6:	697b      	ldr	r3, [r7, #20]
}
 80011e8:	4618      	mov	r0, r3
 80011ea:	371c      	adds	r7, #28
 80011ec:	46bd      	mov	sp, r7
 80011ee:	bd90      	pop	{r4, r7, pc}

080011f0 <mfTrap>:

float mfTrap(float x, float a, float b, float c, float d) {
 80011f0:	b590      	push	{r4, r7, lr}
 80011f2:	b087      	sub	sp, #28
 80011f4:	af00      	add	r7, sp, #0
 80011f6:	60f8      	str	r0, [r7, #12]
 80011f8:	60b9      	str	r1, [r7, #8]
 80011fa:	607a      	str	r2, [r7, #4]
 80011fc:	603b      	str	r3, [r7, #0]
  float out_trap;

  if (x < a) {
 80011fe:	68b9      	ldr	r1, [r7, #8]
 8001200:	68f8      	ldr	r0, [r7, #12]
 8001202:	f7ff ff2d 	bl	8001060 <__aeabi_fcmplt>
 8001206:	4603      	mov	r3, r0
 8001208:	2b00      	cmp	r3, #0
 800120a:	d003      	beq.n	8001214 <mfTrap+0x24>
	  out_trap = 0;
 800120c:	f04f 0300 	mov.w	r3, #0
 8001210:	617b      	str	r3, [r7, #20]
 8001212:	e06a      	b.n	80012ea <mfTrap+0xfa>
  } else if ((x >= a) && (x <= b)) {
 8001214:	68b9      	ldr	r1, [r7, #8]
 8001216:	68f8      	ldr	r0, [r7, #12]
 8001218:	f7ff ff36 	bl	8001088 <__aeabi_fcmpge>
 800121c:	4603      	mov	r3, r0
 800121e:	2b00      	cmp	r3, #0
 8001220:	d023      	beq.n	800126a <mfTrap+0x7a>
 8001222:	6879      	ldr	r1, [r7, #4]
 8001224:	68f8      	ldr	r0, [r7, #12]
 8001226:	f7ff ff25 	bl	8001074 <__aeabi_fcmple>
 800122a:	4603      	mov	r3, r0
 800122c:	2b00      	cmp	r3, #0
 800122e:	d01c      	beq.n	800126a <mfTrap+0x7a>
    if (a == b) {
 8001230:	6879      	ldr	r1, [r7, #4]
 8001232:	68b8      	ldr	r0, [r7, #8]
 8001234:	f7ff ff0a 	bl	800104c <__aeabi_fcmpeq>
 8001238:	4603      	mov	r3, r0
 800123a:	2b00      	cmp	r3, #0
 800123c:	d003      	beq.n	8001246 <mfTrap+0x56>
    	out_trap = 1;
 800123e:	f04f 537e 	mov.w	r3, #1065353216	@ 0x3f800000
 8001242:	617b      	str	r3, [r7, #20]
    if (a == b) {
 8001244:	e051      	b.n	80012ea <mfTrap+0xfa>
    } else {
    	out_trap = (x - a) / (b - a);
 8001246:	68b9      	ldr	r1, [r7, #8]
 8001248:	68f8      	ldr	r0, [r7, #12]
 800124a:	f7ff fc61 	bl	8000b10 <__aeabi_fsub>
 800124e:	4603      	mov	r3, r0
 8001250:	461c      	mov	r4, r3
 8001252:	68b9      	ldr	r1, [r7, #8]
 8001254:	6878      	ldr	r0, [r7, #4]
 8001256:	f7ff fc5b 	bl	8000b10 <__aeabi_fsub>
 800125a:	4603      	mov	r3, r0
 800125c:	4619      	mov	r1, r3
 800125e:	4620      	mov	r0, r4
 8001260:	f7ff fe14 	bl	8000e8c <__aeabi_fdiv>
 8001264:	4603      	mov	r3, r0
 8001266:	617b      	str	r3, [r7, #20]
    if (a == b) {
 8001268:	e03f      	b.n	80012ea <mfTrap+0xfa>
    }
  } else if ((x >= b) && (x <= c)) {
 800126a:	6879      	ldr	r1, [r7, #4]
 800126c:	68f8      	ldr	r0, [r7, #12]
 800126e:	f7ff ff0b 	bl	8001088 <__aeabi_fcmpge>
 8001272:	4603      	mov	r3, r0
 8001274:	2b00      	cmp	r3, #0
 8001276:	d00a      	beq.n	800128e <mfTrap+0x9e>
 8001278:	6839      	ldr	r1, [r7, #0]
 800127a:	68f8      	ldr	r0, [r7, #12]
 800127c:	f7ff fefa 	bl	8001074 <__aeabi_fcmple>
 8001280:	4603      	mov	r3, r0
 8001282:	2b00      	cmp	r3, #0
 8001284:	d003      	beq.n	800128e <mfTrap+0x9e>
	  out_trap = 1;
 8001286:	f04f 537e 	mov.w	r3, #1065353216	@ 0x3f800000
 800128a:	617b      	str	r3, [r7, #20]
 800128c:	e02d      	b.n	80012ea <mfTrap+0xfa>
  } else if ((x >= c) && (x <= d)) {
 800128e:	6839      	ldr	r1, [r7, #0]
 8001290:	68f8      	ldr	r0, [r7, #12]
 8001292:	f7ff fef9 	bl	8001088 <__aeabi_fcmpge>
 8001296:	4603      	mov	r3, r0
 8001298:	2b00      	cmp	r3, #0
 800129a:	d023      	beq.n	80012e4 <mfTrap+0xf4>
 800129c:	6ab9      	ldr	r1, [r7, #40]	@ 0x28
 800129e:	68f8      	ldr	r0, [r7, #12]
 80012a0:	f7ff fee8 	bl	8001074 <__aeabi_fcmple>
 80012a4:	4603      	mov	r3, r0
 80012a6:	2b00      	cmp	r3, #0
 80012a8:	d01c      	beq.n	80012e4 <mfTrap+0xf4>
    if (c == d) {
 80012aa:	6ab9      	ldr	r1, [r7, #40]	@ 0x28
 80012ac:	6838      	ldr	r0, [r7, #0]
 80012ae:	f7ff fecd 	bl	800104c <__aeabi_fcmpeq>
 80012b2:	4603      	mov	r3, r0
 80012b4:	2b00      	cmp	r3, #0
 80012b6:	d003      	beq.n	80012c0 <mfTrap+0xd0>
    	out_trap = 1;
 80012b8:	f04f 537e 	mov.w	r3, #1065353216	@ 0x3f800000
 80012bc:	617b      	str	r3, [r7, #20]
    if (c == d) {
 80012be:	e014      	b.n	80012ea <mfTrap+0xfa>
    } else {
    	out_trap = (d - x) / (d - c);
 80012c0:	68f9      	ldr	r1, [r7, #12]
 80012c2:	6ab8      	ldr	r0, [r7, #40]	@ 0x28
 80012c4:	f7ff fc24 	bl	8000b10 <__aeabi_fsub>
 80012c8:	4603      	mov	r3, r0
 80012ca:	461c      	mov	r4, r3
 80012cc:	6839      	ldr	r1, [r7, #0]
 80012ce:	6ab8      	ldr	r0, [r7, #40]	@ 0x28
 80012d0:	f7ff fc1e 	bl	8000b10 <__aeabi_fsub>
 80012d4:	4603      	mov	r3, r0
 80012d6:	4619      	mov	r1, r3
 80012d8:	4620      	mov	r0, r4
 80012da:	f7ff fdd7 	bl	8000e8c <__aeabi_fdiv>
 80012de:	4603      	mov	r3, r0
 80012e0:	617b      	str	r3, [r7, #20]
    if (c == d) {
 80012e2:	e002      	b.n	80012ea <mfTrap+0xfa>
    }
  } else {
	  out_trap = 0;
 80012e4:	f04f 0300 	mov.w	r3, #0
 80012e8:	617b      	str	r3, [r7, #20]
  }

  return out_trap;
 80012ea:	697b      	ldr	r3, [r7, #20]
}
 80012ec:	4618      	mov	r0, r3
 80012ee:	371c      	adds	r7, #28
 80012f0:	46bd      	mov	sp, r7
 80012f2:	bd90      	pop	{r4, r7, pc}

080012f4 <run_fuzzy>:

float run_fuzzy(float x1, float x2) {
 80012f4:	b590      	push	{r4, r7, lr}
 80012f6:	b0b3      	sub	sp, #204	@ 0xcc
 80012f8:	af02      	add	r7, sp, #8
 80012fa:	6078      	str	r0, [r7, #4]
 80012fc:	6039      	str	r1, [r7, #0]
  Theta_struct theta;
  Thetadot_struct theta_dot;
  Uk_struct u_dot;

  // calculate theta (-1->1)
  c1 = 0.8f;
 80012fe:	4b9a      	ldr	r3, [pc, #616]	@ (8001568 <run_fuzzy+0x274>)
 8001300:	4a9a      	ldr	r2, [pc, #616]	@ (800156c <run_fuzzy+0x278>)
 8001302:	601a      	str	r2, [r3, #0]
  c2 = 0.5f;
 8001304:	4b9a      	ldr	r3, [pc, #616]	@ (8001570 <run_fuzzy+0x27c>)
 8001306:	f04f 527c 	mov.w	r2, #1056964608	@ 0x3f000000
 800130a:	601a      	str	r2, [r3, #0]
  c3 = 0.3f;
 800130c:	4b99      	ldr	r3, [pc, #612]	@ (8001574 <run_fuzzy+0x280>)
 800130e:	4a9a      	ldr	r2, [pc, #616]	@ (8001578 <run_fuzzy+0x284>)
 8001310:	601a      	str	r2, [r3, #0]

  theta.NB = mfTrap(x1, -5.0f, -2.0f, -1.0f, -c1); // ve hinh dinh nghia cac gia tri ngon ngu cua bien NB,NS,... (theta)
 8001312:	4b95      	ldr	r3, [pc, #596]	@ (8001568 <run_fuzzy+0x274>)
 8001314:	681b      	ldr	r3, [r3, #0]
 8001316:	f083 4300 	eor.w	r3, r3, #2147483648	@ 0x80000000
 800131a:	9300      	str	r3, [sp, #0]
 800131c:	4b97      	ldr	r3, [pc, #604]	@ (800157c <run_fuzzy+0x288>)
 800131e:	f04f 4240 	mov.w	r2, #3221225472	@ 0xc0000000
 8001322:	4997      	ldr	r1, [pc, #604]	@ (8001580 <run_fuzzy+0x28c>)
 8001324:	6878      	ldr	r0, [r7, #4]
 8001326:	f7ff ff63 	bl	80011f0 <mfTrap>
 800132a:	4603      	mov	r3, r0
 800132c:	63fb      	str	r3, [r7, #60]	@ 0x3c
  theta.NS = mfTrap(x1, -1.0f, -c1, -c2, -c3);
 800132e:	4b8e      	ldr	r3, [pc, #568]	@ (8001568 <run_fuzzy+0x274>)
 8001330:	681b      	ldr	r3, [r3, #0]
 8001332:	f083 4200 	eor.w	r2, r3, #2147483648	@ 0x80000000
 8001336:	4b8e      	ldr	r3, [pc, #568]	@ (8001570 <run_fuzzy+0x27c>)
 8001338:	681b      	ldr	r3, [r3, #0]
 800133a:	f083 4100 	eor.w	r1, r3, #2147483648	@ 0x80000000
 800133e:	4b8d      	ldr	r3, [pc, #564]	@ (8001574 <run_fuzzy+0x280>)
 8001340:	681b      	ldr	r3, [r3, #0]
 8001342:	f083 4300 	eor.w	r3, r3, #2147483648	@ 0x80000000
 8001346:	9300      	str	r3, [sp, #0]
 8001348:	460b      	mov	r3, r1
 800134a:	498c      	ldr	r1, [pc, #560]	@ (800157c <run_fuzzy+0x288>)
 800134c:	6878      	ldr	r0, [r7, #4]
 800134e:	f7ff ff4f 	bl	80011f0 <mfTrap>
 8001352:	4603      	mov	r3, r0
 8001354:	643b      	str	r3, [r7, #64]	@ 0x40
  theta.ZE = mfTriang(x1, -c3, 0, c3);
 8001356:	4b87      	ldr	r3, [pc, #540]	@ (8001574 <run_fuzzy+0x280>)
 8001358:	681b      	ldr	r3, [r3, #0]
 800135a:	f083 4100 	eor.w	r1, r3, #2147483648	@ 0x80000000
 800135e:	4b85      	ldr	r3, [pc, #532]	@ (8001574 <run_fuzzy+0x280>)
 8001360:	681b      	ldr	r3, [r3, #0]
 8001362:	f04f 0200 	mov.w	r2, #0
 8001366:	6878      	ldr	r0, [r7, #4]
 8001368:	f7ff fee8 	bl	800113c <mfTriang>
 800136c:	4603      	mov	r3, r0
 800136e:	647b      	str	r3, [r7, #68]	@ 0x44
  theta.PS = mfTrap(x1, c3, c2, c1, 1.0f);
 8001370:	4b80      	ldr	r3, [pc, #512]	@ (8001574 <run_fuzzy+0x280>)
 8001372:	6819      	ldr	r1, [r3, #0]
 8001374:	4b7e      	ldr	r3, [pc, #504]	@ (8001570 <run_fuzzy+0x27c>)
 8001376:	681a      	ldr	r2, [r3, #0]
 8001378:	4b7b      	ldr	r3, [pc, #492]	@ (8001568 <run_fuzzy+0x274>)
 800137a:	681b      	ldr	r3, [r3, #0]
 800137c:	f04f 507e 	mov.w	r0, #1065353216	@ 0x3f800000
 8001380:	9000      	str	r0, [sp, #0]
 8001382:	6878      	ldr	r0, [r7, #4]
 8001384:	f7ff ff34 	bl	80011f0 <mfTrap>
 8001388:	4603      	mov	r3, r0
 800138a:	64bb      	str	r3, [r7, #72]	@ 0x48
  theta.PB = mfTrap(x1, c1, 1.0f, 2.0f, 5.0f);
 800138c:	4b76      	ldr	r3, [pc, #472]	@ (8001568 <run_fuzzy+0x274>)
 800138e:	6819      	ldr	r1, [r3, #0]
 8001390:	4b7c      	ldr	r3, [pc, #496]	@ (8001584 <run_fuzzy+0x290>)
 8001392:	9300      	str	r3, [sp, #0]
 8001394:	f04f 4380 	mov.w	r3, #1073741824	@ 0x40000000
 8001398:	f04f 527e 	mov.w	r2, #1065353216	@ 0x3f800000
 800139c:	6878      	ldr	r0, [r7, #4]
 800139e:	f7ff ff27 	bl	80011f0 <mfTrap>
 80013a2:	4603      	mov	r3, r0
 80013a4:	64fb      	str	r3, [r7, #76]	@ 0x4c

  // calculate theta_dot (-1->1)
//  d1 = 0.3f;
//  d2 = 0.03f;
//  d3 = 0.5f;
    d1 = 0.7f;
 80013a6:	4b78      	ldr	r3, [pc, #480]	@ (8001588 <run_fuzzy+0x294>)
 80013a8:	4a78      	ldr	r2, [pc, #480]	@ (800158c <run_fuzzy+0x298>)
 80013aa:	601a      	str	r2, [r3, #0]
    d2 = 0.4f;
 80013ac:	4b78      	ldr	r3, [pc, #480]	@ (8001590 <run_fuzzy+0x29c>)
 80013ae:	4a79      	ldr	r2, [pc, #484]	@ (8001594 <run_fuzzy+0x2a0>)
 80013b0:	601a      	str	r2, [r3, #0]
    d3 = 0.2f;
 80013b2:	4b79      	ldr	r3, [pc, #484]	@ (8001598 <run_fuzzy+0x2a4>)
 80013b4:	4a79      	ldr	r2, [pc, #484]	@ (800159c <run_fuzzy+0x2a8>)
 80013b6:	601a      	str	r2, [r3, #0]
  theta_dot.NB = mfTriang(x2, -2.0f, -1.0f, -d1); // // ve hinh dinh nghia cac gia tri ngon ngu cua bien NB,NS,... (thetadot)
 80013b8:	4b73      	ldr	r3, [pc, #460]	@ (8001588 <run_fuzzy+0x294>)
 80013ba:	681b      	ldr	r3, [r3, #0]
 80013bc:	f083 4300 	eor.w	r3, r3, #2147483648	@ 0x80000000
 80013c0:	4a6e      	ldr	r2, [pc, #440]	@ (800157c <run_fuzzy+0x288>)
 80013c2:	f04f 4140 	mov.w	r1, #3221225472	@ 0xc0000000
 80013c6:	6838      	ldr	r0, [r7, #0]
 80013c8:	f7ff feb8 	bl	800113c <mfTriang>
 80013cc:	4603      	mov	r3, r0
 80013ce:	62bb      	str	r3, [r7, #40]	@ 0x28
  theta_dot.NS = mfTriang(x2, -1.0f, -d2, -d3);
 80013d0:	4b6f      	ldr	r3, [pc, #444]	@ (8001590 <run_fuzzy+0x29c>)
 80013d2:	681b      	ldr	r3, [r3, #0]
 80013d4:	f083 4200 	eor.w	r2, r3, #2147483648	@ 0x80000000
 80013d8:	4b6f      	ldr	r3, [pc, #444]	@ (8001598 <run_fuzzy+0x2a4>)
 80013da:	681b      	ldr	r3, [r3, #0]
 80013dc:	f083 4300 	eor.w	r3, r3, #2147483648	@ 0x80000000
 80013e0:	4966      	ldr	r1, [pc, #408]	@ (800157c <run_fuzzy+0x288>)
 80013e2:	6838      	ldr	r0, [r7, #0]
 80013e4:	f7ff feaa 	bl	800113c <mfTriang>
 80013e8:	4603      	mov	r3, r0
 80013ea:	62fb      	str	r3, [r7, #44]	@ 0x2c
  theta_dot.ZE = mfTriang(x2, -d3, 0, d3);
 80013ec:	4b6a      	ldr	r3, [pc, #424]	@ (8001598 <run_fuzzy+0x2a4>)
 80013ee:	681b      	ldr	r3, [r3, #0]
 80013f0:	f083 4100 	eor.w	r1, r3, #2147483648	@ 0x80000000
 80013f4:	4b68      	ldr	r3, [pc, #416]	@ (8001598 <run_fuzzy+0x2a4>)
 80013f6:	681b      	ldr	r3, [r3, #0]
 80013f8:	f04f 0200 	mov.w	r2, #0
 80013fc:	6838      	ldr	r0, [r7, #0]
 80013fe:	f7ff fe9d 	bl	800113c <mfTriang>
 8001402:	4603      	mov	r3, r0
 8001404:	633b      	str	r3, [r7, #48]	@ 0x30
  theta_dot.PS = mfTriang(x2, d3, d1, d1);
 8001406:	4b64      	ldr	r3, [pc, #400]	@ (8001598 <run_fuzzy+0x2a4>)
 8001408:	6819      	ldr	r1, [r3, #0]
 800140a:	4b5f      	ldr	r3, [pc, #380]	@ (8001588 <run_fuzzy+0x294>)
 800140c:	681a      	ldr	r2, [r3, #0]
 800140e:	4b5e      	ldr	r3, [pc, #376]	@ (8001588 <run_fuzzy+0x294>)
 8001410:	681b      	ldr	r3, [r3, #0]
 8001412:	6838      	ldr	r0, [r7, #0]
 8001414:	f7ff fe92 	bl	800113c <mfTriang>
 8001418:	4603      	mov	r3, r0
 800141a:	637b      	str	r3, [r7, #52]	@ 0x34
  theta_dot.PB = mfTriang(x2, d1, 1.0f, 2.0f);
 800141c:	4b5a      	ldr	r3, [pc, #360]	@ (8001588 <run_fuzzy+0x294>)
 800141e:	6819      	ldr	r1, [r3, #0]
 8001420:	f04f 4380 	mov.w	r3, #1073741824	@ 0x40000000
 8001424:	f04f 527e 	mov.w	r2, #1065353216	@ 0x3f800000
 8001428:	6838      	ldr	r0, [r7, #0]
 800142a:	f7ff fe87 	bl	800113c <mfTriang>
 800142e:	4603      	mov	r3, r0
 8001430:	63bb      	str	r3, [r7, #56]	@ 0x38

  // calculate uk_fuzzy (-1->1) base on MAX-MIN, "and" => MIN

  r[0] = min(theta.NB, theta_dot.NB); // NB
 8001432:	6bfb      	ldr	r3, [r7, #60]	@ 0x3c
 8001434:	6aba      	ldr	r2, [r7, #40]	@ 0x28
 8001436:	4611      	mov	r1, r2
 8001438:	4618      	mov	r0, r3
 800143a:	f7ff fe59 	bl	80010f0 <min>
 800143e:	4603      	mov	r3, r0
 8001440:	653b      	str	r3, [r7, #80]	@ 0x50

  r[1] = min(theta.NS, theta_dot.NB); // NB
 8001442:	6c3b      	ldr	r3, [r7, #64]	@ 0x40
 8001444:	6aba      	ldr	r2, [r7, #40]	@ 0x28
 8001446:	4611      	mov	r1, r2
 8001448:	4618      	mov	r0, r3
 800144a:	f7ff fe51 	bl	80010f0 <min>
 800144e:	4603      	mov	r3, r0
 8001450:	657b      	str	r3, [r7, #84]	@ 0x54

  r[2] = min(theta.ZE, theta_dot.NB); // NM
 8001452:	6c7b      	ldr	r3, [r7, #68]	@ 0x44
 8001454:	6aba      	ldr	r2, [r7, #40]	@ 0x28
 8001456:	4611      	mov	r1, r2
 8001458:	4618      	mov	r0, r3
 800145a:	f7ff fe49 	bl	80010f0 <min>
 800145e:	4603      	mov	r3, r0
 8001460:	65bb      	str	r3, [r7, #88]	@ 0x58

  r[3] = min(theta.PS, theta_dot.NB); // NS
 8001462:	6cbb      	ldr	r3, [r7, #72]	@ 0x48
 8001464:	6aba      	ldr	r2, [r7, #40]	@ 0x28
 8001466:	4611      	mov	r1, r2
 8001468:	4618      	mov	r0, r3
 800146a:	f7ff fe41 	bl	80010f0 <min>
 800146e:	4603      	mov	r3, r0
 8001470:	65fb      	str	r3, [r7, #92]	@ 0x5c

  r[4] = min(theta.PB, theta_dot.NB); // ZE
 8001472:	6cfb      	ldr	r3, [r7, #76]	@ 0x4c
 8001474:	6aba      	ldr	r2, [r7, #40]	@ 0x28
 8001476:	4611      	mov	r1, r2
 8001478:	4618      	mov	r0, r3
 800147a:	f7ff fe39 	bl	80010f0 <min>
 800147e:	4603      	mov	r3, r0
 8001480:	663b      	str	r3, [r7, #96]	@ 0x60
  //-----------------------

  r[5] = min(theta.NB, theta_dot.NS); // NB
 8001482:	6bfb      	ldr	r3, [r7, #60]	@ 0x3c
 8001484:	6afa      	ldr	r2, [r7, #44]	@ 0x2c
 8001486:	4611      	mov	r1, r2
 8001488:	4618      	mov	r0, r3
 800148a:	f7ff fe31 	bl	80010f0 <min>
 800148e:	4603      	mov	r3, r0
 8001490:	667b      	str	r3, [r7, #100]	@ 0x64

  r[6] = min(theta.NS, theta_dot.NS); // NM
 8001492:	6c3b      	ldr	r3, [r7, #64]	@ 0x40
 8001494:	6afa      	ldr	r2, [r7, #44]	@ 0x2c
 8001496:	4611      	mov	r1, r2
 8001498:	4618      	mov	r0, r3
 800149a:	f7ff fe29 	bl	80010f0 <min>
 800149e:	4603      	mov	r3, r0
 80014a0:	66bb      	str	r3, [r7, #104]	@ 0x68

  r[7] = min(theta.ZE, theta_dot.NS); // NS
 80014a2:	6c7b      	ldr	r3, [r7, #68]	@ 0x44
 80014a4:	6afa      	ldr	r2, [r7, #44]	@ 0x2c
 80014a6:	4611      	mov	r1, r2
 80014a8:	4618      	mov	r0, r3
 80014aa:	f7ff fe21 	bl	80010f0 <min>
 80014ae:	4603      	mov	r3, r0
 80014b0:	66fb      	str	r3, [r7, #108]	@ 0x6c

  r[8] = min(theta.PS, theta_dot.NS); // ZE
 80014b2:	6cbb      	ldr	r3, [r7, #72]	@ 0x48
 80014b4:	6afa      	ldr	r2, [r7, #44]	@ 0x2c
 80014b6:	4611      	mov	r1, r2
 80014b8:	4618      	mov	r0, r3
 80014ba:	f7ff fe19 	bl	80010f0 <min>
 80014be:	4603      	mov	r3, r0
 80014c0:	673b      	str	r3, [r7, #112]	@ 0x70

  r[9] = min(theta.PB, theta_dot.NS); // PS
 80014c2:	6cfb      	ldr	r3, [r7, #76]	@ 0x4c
 80014c4:	6afa      	ldr	r2, [r7, #44]	@ 0x2c
 80014c6:	4611      	mov	r1, r2
 80014c8:	4618      	mov	r0, r3
 80014ca:	f7ff fe11 	bl	80010f0 <min>
 80014ce:	4603      	mov	r3, r0
 80014d0:	677b      	str	r3, [r7, #116]	@ 0x74
  //-----------------------

  r[10] = min(theta.NB, theta_dot.ZE); // NM
 80014d2:	6bfb      	ldr	r3, [r7, #60]	@ 0x3c
 80014d4:	6b3a      	ldr	r2, [r7, #48]	@ 0x30
 80014d6:	4611      	mov	r1, r2
 80014d8:	4618      	mov	r0, r3
 80014da:	f7ff fe09 	bl	80010f0 <min>
 80014de:	4603      	mov	r3, r0
 80014e0:	67bb      	str	r3, [r7, #120]	@ 0x78

  r[11] = min(theta.NS, theta_dot.ZE); // NS
 80014e2:	6c3b      	ldr	r3, [r7, #64]	@ 0x40
 80014e4:	6b3a      	ldr	r2, [r7, #48]	@ 0x30
 80014e6:	4611      	mov	r1, r2
 80014e8:	4618      	mov	r0, r3
 80014ea:	f7ff fe01 	bl	80010f0 <min>
 80014ee:	4603      	mov	r3, r0
 80014f0:	67fb      	str	r3, [r7, #124]	@ 0x7c

  r[12] = min(theta.ZE, theta_dot.ZE); // ZE
 80014f2:	6c7b      	ldr	r3, [r7, #68]	@ 0x44
 80014f4:	6b3a      	ldr	r2, [r7, #48]	@ 0x30
 80014f6:	4611      	mov	r1, r2
 80014f8:	4618      	mov	r0, r3
 80014fa:	f7ff fdf9 	bl	80010f0 <min>
 80014fe:	4603      	mov	r3, r0
 8001500:	f8c7 3080 	str.w	r3, [r7, #128]	@ 0x80

  r[13] = min(theta.PS, theta_dot.ZE); // PS
 8001504:	6cbb      	ldr	r3, [r7, #72]	@ 0x48
 8001506:	6b3a      	ldr	r2, [r7, #48]	@ 0x30
 8001508:	4611      	mov	r1, r2
 800150a:	4618      	mov	r0, r3
 800150c:	f7ff fdf0 	bl	80010f0 <min>
 8001510:	4603      	mov	r3, r0
 8001512:	f8c7 3084 	str.w	r3, [r7, #132]	@ 0x84

  r[14] = min(theta.PB, theta_dot.ZE); // PM
 8001516:	6cfb      	ldr	r3, [r7, #76]	@ 0x4c
 8001518:	6b3a      	ldr	r2, [r7, #48]	@ 0x30
 800151a:	4611      	mov	r1, r2
 800151c:	4618      	mov	r0, r3
 800151e:	f7ff fde7 	bl	80010f0 <min>
 8001522:	4603      	mov	r3, r0
 8001524:	f8c7 3088 	str.w	r3, [r7, #136]	@ 0x88
  //-----------------------
  r[15] = min(theta.NB, theta_dot.PS); // NS
 8001528:	6bfb      	ldr	r3, [r7, #60]	@ 0x3c
 800152a:	6b7a      	ldr	r2, [r7, #52]	@ 0x34
 800152c:	4611      	mov	r1, r2
 800152e:	4618      	mov	r0, r3
 8001530:	f7ff fdde 	bl	80010f0 <min>
 8001534:	4603      	mov	r3, r0
 8001536:	f8c7 308c 	str.w	r3, [r7, #140]	@ 0x8c

	r[16] = min(theta.NS, theta_dot.PS); // ZE
 800153a:	6c3b      	ldr	r3, [r7, #64]	@ 0x40
 800153c:	6b7a      	ldr	r2, [r7, #52]	@ 0x34
 800153e:	4611      	mov	r1, r2
 8001540:	4618      	mov	r0, r3
 8001542:	f7ff fdd5 	bl	80010f0 <min>
 8001546:	4603      	mov	r3, r0
 8001548:	f8c7 3090 	str.w	r3, [r7, #144]	@ 0x90

	r[17] = min(theta.ZE, theta_dot.PS); // PS
 800154c:	6c7b      	ldr	r3, [r7, #68]	@ 0x44
 800154e:	6b7a      	ldr	r2, [r7, #52]	@ 0x34
 8001550:	4611      	mov	r1, r2
 8001552:	4618      	mov	r0, r3
 8001554:	f7ff fdcc 	bl	80010f0 <min>
 8001558:	4603      	mov	r3, r0
 800155a:	f8c7 3094 	str.w	r3, [r7, #148]	@ 0x94

	r[18] = min(theta.PS, theta_dot.PS); // PM
 800155e:	6cbb      	ldr	r3, [r7, #72]	@ 0x48
 8001560:	6b7a      	ldr	r2, [r7, #52]	@ 0x34
 8001562:	4611      	mov	r1, r2
 8001564:	e01c      	b.n	80015a0 <run_fuzzy+0x2ac>
 8001566:	bf00      	nop
 8001568:	2000011c 	.word	0x2000011c
 800156c:	3f4ccccd 	.word	0x3f4ccccd
 8001570:	20000120 	.word	0x20000120
 8001574:	20000124 	.word	0x20000124
 8001578:	3e99999a 	.word	0x3e99999a
 800157c:	bf800000 	.word	0xbf800000
 8001580:	c0a00000 	.word	0xc0a00000
 8001584:	40a00000 	.word	0x40a00000
 8001588:	20000128 	.word	0x20000128
 800158c:	3f333333 	.word	0x3f333333
 8001590:	2000012c 	.word	0x2000012c
 8001594:	3ecccccd 	.word	0x3ecccccd
 8001598:	20000130 	.word	0x20000130
 800159c:	3e4ccccd 	.word	0x3e4ccccd
 80015a0:	4618      	mov	r0, r3
 80015a2:	f7ff fda5 	bl	80010f0 <min>
 80015a6:	4603      	mov	r3, r0
 80015a8:	f8c7 3098 	str.w	r3, [r7, #152]	@ 0x98

	r[19] = min(theta.PB, theta_dot.PS); // PB
 80015ac:	6cfb      	ldr	r3, [r7, #76]	@ 0x4c
 80015ae:	6b7a      	ldr	r2, [r7, #52]	@ 0x34
 80015b0:	4611      	mov	r1, r2
 80015b2:	4618      	mov	r0, r3
 80015b4:	f7ff fd9c 	bl	80010f0 <min>
 80015b8:	4603      	mov	r3, r0
 80015ba:	f8c7 309c 	str.w	r3, [r7, #156]	@ 0x9c
	//-----------------------

	r[20] = min(theta.NB, theta_dot.PB); // ZE
 80015be:	6bfb      	ldr	r3, [r7, #60]	@ 0x3c
 80015c0:	6bba      	ldr	r2, [r7, #56]	@ 0x38
 80015c2:	4611      	mov	r1, r2
 80015c4:	4618      	mov	r0, r3
 80015c6:	f7ff fd93 	bl	80010f0 <min>
 80015ca:	4603      	mov	r3, r0
 80015cc:	f8c7 30a0 	str.w	r3, [r7, #160]	@ 0xa0

	r[21] = min(theta.NS, theta_dot.PB); // PS
 80015d0:	6c3b      	ldr	r3, [r7, #64]	@ 0x40
 80015d2:	6bba      	ldr	r2, [r7, #56]	@ 0x38
 80015d4:	4611      	mov	r1, r2
 80015d6:	4618      	mov	r0, r3
 80015d8:	f7ff fd8a 	bl	80010f0 <min>
 80015dc:	4603      	mov	r3, r0
 80015de:	f8c7 30a4 	str.w	r3, [r7, #164]	@ 0xa4

	r[22] = min(theta.ZE, theta_dot.PB); // PM
 80015e2:	6c7b      	ldr	r3, [r7, #68]	@ 0x44
 80015e4:	6bba      	ldr	r2, [r7, #56]	@ 0x38
 80015e6:	4611      	mov	r1, r2
 80015e8:	4618      	mov	r0, r3
 80015ea:	f7ff fd81 	bl	80010f0 <min>
 80015ee:	4603      	mov	r3, r0
 80015f0:	f8c7 30a8 	str.w	r3, [r7, #168]	@ 0xa8

	r[23] = min(theta.PS, theta_dot.PB); // PB
 80015f4:	6cbb      	ldr	r3, [r7, #72]	@ 0x48
 80015f6:	6bba      	ldr	r2, [r7, #56]	@ 0x38
 80015f8:	4611      	mov	r1, r2
 80015fa:	4618      	mov	r0, r3
 80015fc:	f7ff fd78 	bl	80010f0 <min>
 8001600:	4603      	mov	r3, r0
 8001602:	f8c7 30ac 	str.w	r3, [r7, #172]	@ 0xac

	r[24] = min(theta.PB, theta_dot.PB); // PB
 8001606:	6cfb      	ldr	r3, [r7, #76]	@ 0x4c
 8001608:	6bba      	ldr	r2, [r7, #56]	@ 0x38
 800160a:	4611      	mov	r1, r2
 800160c:	4618      	mov	r0, r3
 800160e:	f7ff fd6f 	bl	80010f0 <min>
 8001612:	4603      	mov	r3, r0
 8001614:	f8c7 30b0 	str.w	r3, [r7, #176]	@ 0xb0
//  u_dot.ZE = max(5, r[4], r[8], r[12], r[16], r[20]);
//  u_dot.PS = max(4, r[9], r[13], r[17], r[21]);
//  u_dot.PM = max(3, r[14], r[18], r[22]);
//  u_dot.PB = max(3, r[19], r[23], r[24]);

	  u_dot.NB = max(max(r[0], r[1]), r[5]);
 8001618:	6d3b      	ldr	r3, [r7, #80]	@ 0x50
 800161a:	6d7a      	ldr	r2, [r7, #84]	@ 0x54
 800161c:	4611      	mov	r1, r2
 800161e:	4618      	mov	r0, r3
 8001620:	f7ff fd79 	bl	8001116 <max>
 8001624:	4602      	mov	r2, r0
 8001626:	6e7b      	ldr	r3, [r7, #100]	@ 0x64
 8001628:	4619      	mov	r1, r3
 800162a:	4610      	mov	r0, r2
 800162c:	f7ff fd73 	bl	8001116 <max>
 8001630:	4603      	mov	r3, r0
 8001632:	60fb      	str	r3, [r7, #12]
	  u_dot.NM = max(max(r[2], r[6]), r[10]);
 8001634:	6dbb      	ldr	r3, [r7, #88]	@ 0x58
 8001636:	6eba      	ldr	r2, [r7, #104]	@ 0x68
 8001638:	4611      	mov	r1, r2
 800163a:	4618      	mov	r0, r3
 800163c:	f7ff fd6b 	bl	8001116 <max>
 8001640:	4602      	mov	r2, r0
 8001642:	6fbb      	ldr	r3, [r7, #120]	@ 0x78
 8001644:	4619      	mov	r1, r3
 8001646:	4610      	mov	r0, r2
 8001648:	f7ff fd65 	bl	8001116 <max>
 800164c:	4603      	mov	r3, r0
 800164e:	613b      	str	r3, [r7, #16]
	  u_dot.NS = max(max(max(r[3], r[7]), r[11]), r[15]);
 8001650:	6dfb      	ldr	r3, [r7, #92]	@ 0x5c
 8001652:	6efa      	ldr	r2, [r7, #108]	@ 0x6c
 8001654:	4611      	mov	r1, r2
 8001656:	4618      	mov	r0, r3
 8001658:	f7ff fd5d 	bl	8001116 <max>
 800165c:	4602      	mov	r2, r0
 800165e:	6ffb      	ldr	r3, [r7, #124]	@ 0x7c
 8001660:	4619      	mov	r1, r3
 8001662:	4610      	mov	r0, r2
 8001664:	f7ff fd57 	bl	8001116 <max>
 8001668:	4602      	mov	r2, r0
 800166a:	f8d7 308c 	ldr.w	r3, [r7, #140]	@ 0x8c
 800166e:	4619      	mov	r1, r3
 8001670:	4610      	mov	r0, r2
 8001672:	f7ff fd50 	bl	8001116 <max>
 8001676:	4603      	mov	r3, r0
 8001678:	617b      	str	r3, [r7, #20]
	  u_dot.ZE = max(max(max(max(r[4], r[8]), r[12]), r[16]), r[20]);
 800167a:	6e3b      	ldr	r3, [r7, #96]	@ 0x60
 800167c:	6f3a      	ldr	r2, [r7, #112]	@ 0x70
 800167e:	4611      	mov	r1, r2
 8001680:	4618      	mov	r0, r3
 8001682:	f7ff fd48 	bl	8001116 <max>
 8001686:	4602      	mov	r2, r0
 8001688:	f8d7 3080 	ldr.w	r3, [r7, #128]	@ 0x80
 800168c:	4619      	mov	r1, r3
 800168e:	4610      	mov	r0, r2
 8001690:	f7ff fd41 	bl	8001116 <max>
 8001694:	4602      	mov	r2, r0
 8001696:	f8d7 3090 	ldr.w	r3, [r7, #144]	@ 0x90
 800169a:	4619      	mov	r1, r3
 800169c:	4610      	mov	r0, r2
 800169e:	f7ff fd3a 	bl	8001116 <max>
 80016a2:	4602      	mov	r2, r0
 80016a4:	f8d7 30a0 	ldr.w	r3, [r7, #160]	@ 0xa0
 80016a8:	4619      	mov	r1, r3
 80016aa:	4610      	mov	r0, r2
 80016ac:	f7ff fd33 	bl	8001116 <max>
 80016b0:	4603      	mov	r3, r0
 80016b2:	61bb      	str	r3, [r7, #24]
	  u_dot.PS = max(max(max(r[9], r[13]), r[17]), r[21]);
 80016b4:	6f7b      	ldr	r3, [r7, #116]	@ 0x74
 80016b6:	f8d7 2084 	ldr.w	r2, [r7, #132]	@ 0x84
 80016ba:	4611      	mov	r1, r2
 80016bc:	4618      	mov	r0, r3
 80016be:	f7ff fd2a 	bl	8001116 <max>
 80016c2:	4602      	mov	r2, r0
 80016c4:	f8d7 3094 	ldr.w	r3, [r7, #148]	@ 0x94
 80016c8:	4619      	mov	r1, r3
 80016ca:	4610      	mov	r0, r2
 80016cc:	f7ff fd23 	bl	8001116 <max>
 80016d0:	4602      	mov	r2, r0
 80016d2:	f8d7 30a4 	ldr.w	r3, [r7, #164]	@ 0xa4
 80016d6:	4619      	mov	r1, r3
 80016d8:	4610      	mov	r0, r2
 80016da:	f7ff fd1c 	bl	8001116 <max>
 80016de:	4603      	mov	r3, r0
 80016e0:	61fb      	str	r3, [r7, #28]
	  u_dot.PM = max(max(r[14], r[18]), r[22]);
 80016e2:	f8d7 3088 	ldr.w	r3, [r7, #136]	@ 0x88
 80016e6:	f8d7 2098 	ldr.w	r2, [r7, #152]	@ 0x98
 80016ea:	4611      	mov	r1, r2
 80016ec:	4618      	mov	r0, r3
 80016ee:	f7ff fd12 	bl	8001116 <max>
 80016f2:	4602      	mov	r2, r0
 80016f4:	f8d7 30a8 	ldr.w	r3, [r7, #168]	@ 0xa8
 80016f8:	4619      	mov	r1, r3
 80016fa:	4610      	mov	r0, r2
 80016fc:	f7ff fd0b 	bl	8001116 <max>
 8001700:	4603      	mov	r3, r0
 8001702:	623b      	str	r3, [r7, #32]
	  u_dot.PB = max(max(r[19], r[23]), r[24]);
 8001704:	f8d7 309c 	ldr.w	r3, [r7, #156]	@ 0x9c
 8001708:	f8d7 20ac 	ldr.w	r2, [r7, #172]	@ 0xac
 800170c:	4611      	mov	r1, r2
 800170e:	4618      	mov	r0, r3
 8001710:	f7ff fd01 	bl	8001116 <max>
 8001714:	4602      	mov	r2, r0
 8001716:	f8d7 30b0 	ldr.w	r3, [r7, #176]	@ 0xb0
 800171a:	4619      	mov	r1, r3
 800171c:	4610      	mov	r0, r2
 800171e:	f7ff fcfa 	bl	8001116 <max>
 8001722:	4603      	mov	r3, r0
 8001724:	627b      	str	r3, [r7, #36]	@ 0x24

  // weighted average defuzzification method
  float sum_beta;
  float sum_beta_y;
  sum_beta = u_dot.NB + u_dot.NM + u_dot.NS + u_dot.ZE + u_dot.PS + u_dot.PM + u_dot.PB;
 8001726:	68fb      	ldr	r3, [r7, #12]
 8001728:	693a      	ldr	r2, [r7, #16]
 800172a:	4611      	mov	r1, r2
 800172c:	4618      	mov	r0, r3
 800172e:	f7ff f9f1 	bl	8000b14 <__addsf3>
 8001732:	4603      	mov	r3, r0
 8001734:	461a      	mov	r2, r3
 8001736:	697b      	ldr	r3, [r7, #20]
 8001738:	4619      	mov	r1, r3
 800173a:	4610      	mov	r0, r2
 800173c:	f7ff f9ea 	bl	8000b14 <__addsf3>
 8001740:	4603      	mov	r3, r0
 8001742:	461a      	mov	r2, r3
 8001744:	69bb      	ldr	r3, [r7, #24]
 8001746:	4619      	mov	r1, r3
 8001748:	4610      	mov	r0, r2
 800174a:	f7ff f9e3 	bl	8000b14 <__addsf3>
 800174e:	4603      	mov	r3, r0
 8001750:	461a      	mov	r2, r3
 8001752:	69fb      	ldr	r3, [r7, #28]
 8001754:	4619      	mov	r1, r3
 8001756:	4610      	mov	r0, r2
 8001758:	f7ff f9dc 	bl	8000b14 <__addsf3>
 800175c:	4603      	mov	r3, r0
 800175e:	461a      	mov	r2, r3
 8001760:	6a3b      	ldr	r3, [r7, #32]
 8001762:	4619      	mov	r1, r3
 8001764:	4610      	mov	r0, r2
 8001766:	f7ff f9d5 	bl	8000b14 <__addsf3>
 800176a:	4603      	mov	r3, r0
 800176c:	461a      	mov	r2, r3
 800176e:	6a7b      	ldr	r3, [r7, #36]	@ 0x24
 8001770:	4619      	mov	r1, r3
 8001772:	4610      	mov	r0, r2
 8001774:	f7ff f9ce 	bl	8000b14 <__addsf3>
 8001778:	4603      	mov	r3, r0
 800177a:	f8c7 30bc 	str.w	r3, [r7, #188]	@ 0xbc
  u_S = 0.35f;
 800177e:	4b3e      	ldr	r3, [pc, #248]	@ (8001878 <run_fuzzy+0x584>)
 8001780:	4a3e      	ldr	r2, [pc, #248]	@ (800187c <run_fuzzy+0x588>)
 8001782:	601a      	str	r2, [r3, #0]
  u_M = 0.5f;
 8001784:	4b3e      	ldr	r3, [pc, #248]	@ (8001880 <run_fuzzy+0x58c>)
 8001786:	f04f 527c 	mov.w	r2, #1056964608	@ 0x3f000000
 800178a:	601a      	str	r2, [r3, #0]
  u_B = 0.6f;
 800178c:	4b3d      	ldr	r3, [pc, #244]	@ (8001884 <run_fuzzy+0x590>)
 800178e:	4a3e      	ldr	r2, [pc, #248]	@ (8001888 <run_fuzzy+0x594>)
 8001790:	601a      	str	r2, [r3, #0]
  sum_beta_y = -u_B * u_dot.NB + -u_M * u_dot.NM + -u_S * u_dot.NS + 0 * u_dot.ZE + u_S * u_dot.PS + u_M * u_dot.PM + u_B * u_dot.PB;
 8001792:	4b3c      	ldr	r3, [pc, #240]	@ (8001884 <run_fuzzy+0x590>)
 8001794:	681b      	ldr	r3, [r3, #0]
 8001796:	f083 4300 	eor.w	r3, r3, #2147483648	@ 0x80000000
 800179a:	68fa      	ldr	r2, [r7, #12]
 800179c:	4611      	mov	r1, r2
 800179e:	4618      	mov	r0, r3
 80017a0:	f7ff fac0 	bl	8000d24 <__aeabi_fmul>
 80017a4:	4603      	mov	r3, r0
 80017a6:	461c      	mov	r4, r3
 80017a8:	4b35      	ldr	r3, [pc, #212]	@ (8001880 <run_fuzzy+0x58c>)
 80017aa:	681b      	ldr	r3, [r3, #0]
 80017ac:	f083 4300 	eor.w	r3, r3, #2147483648	@ 0x80000000
 80017b0:	693a      	ldr	r2, [r7, #16]
 80017b2:	4611      	mov	r1, r2
 80017b4:	4618      	mov	r0, r3
 80017b6:	f7ff fab5 	bl	8000d24 <__aeabi_fmul>
 80017ba:	4603      	mov	r3, r0
 80017bc:	4619      	mov	r1, r3
 80017be:	4620      	mov	r0, r4
 80017c0:	f7ff f9a8 	bl	8000b14 <__addsf3>
 80017c4:	4603      	mov	r3, r0
 80017c6:	461c      	mov	r4, r3
 80017c8:	4b2b      	ldr	r3, [pc, #172]	@ (8001878 <run_fuzzy+0x584>)
 80017ca:	681b      	ldr	r3, [r3, #0]
 80017cc:	f083 4300 	eor.w	r3, r3, #2147483648	@ 0x80000000
 80017d0:	697a      	ldr	r2, [r7, #20]
 80017d2:	4611      	mov	r1, r2
 80017d4:	4618      	mov	r0, r3
 80017d6:	f7ff faa5 	bl	8000d24 <__aeabi_fmul>
 80017da:	4603      	mov	r3, r0
 80017dc:	4619      	mov	r1, r3
 80017de:	4620      	mov	r0, r4
 80017e0:	f7ff f998 	bl	8000b14 <__addsf3>
 80017e4:	4603      	mov	r3, r0
 80017e6:	461c      	mov	r4, r3
 80017e8:	69bb      	ldr	r3, [r7, #24]
 80017ea:	f04f 0100 	mov.w	r1, #0
 80017ee:	4618      	mov	r0, r3
 80017f0:	f7ff fa98 	bl	8000d24 <__aeabi_fmul>
 80017f4:	4603      	mov	r3, r0
 80017f6:	4619      	mov	r1, r3
 80017f8:	4620      	mov	r0, r4
 80017fa:	f7ff f98b 	bl	8000b14 <__addsf3>
 80017fe:	4603      	mov	r3, r0
 8001800:	461c      	mov	r4, r3
 8001802:	69fb      	ldr	r3, [r7, #28]
 8001804:	4a1c      	ldr	r2, [pc, #112]	@ (8001878 <run_fuzzy+0x584>)
 8001806:	6812      	ldr	r2, [r2, #0]
 8001808:	4611      	mov	r1, r2
 800180a:	4618      	mov	r0, r3
 800180c:	f7ff fa8a 	bl	8000d24 <__aeabi_fmul>
 8001810:	4603      	mov	r3, r0
 8001812:	4619      	mov	r1, r3
 8001814:	4620      	mov	r0, r4
 8001816:	f7ff f97d 	bl	8000b14 <__addsf3>
 800181a:	4603      	mov	r3, r0
 800181c:	461c      	mov	r4, r3
 800181e:	6a3b      	ldr	r3, [r7, #32]
 8001820:	4a17      	ldr	r2, [pc, #92]	@ (8001880 <run_fuzzy+0x58c>)
 8001822:	6812      	ldr	r2, [r2, #0]
 8001824:	4611      	mov	r1, r2
 8001826:	4618      	mov	r0, r3
 8001828:	f7ff fa7c 	bl	8000d24 <__aeabi_fmul>
 800182c:	4603      	mov	r3, r0
 800182e:	4619      	mov	r1, r3
 8001830:	4620      	mov	r0, r4
 8001832:	f7ff f96f 	bl	8000b14 <__addsf3>
 8001836:	4603      	mov	r3, r0
 8001838:	461c      	mov	r4, r3
 800183a:	6a7b      	ldr	r3, [r7, #36]	@ 0x24
 800183c:	4a11      	ldr	r2, [pc, #68]	@ (8001884 <run_fuzzy+0x590>)
 800183e:	6812      	ldr	r2, [r2, #0]
 8001840:	4611      	mov	r1, r2
 8001842:	4618      	mov	r0, r3
 8001844:	f7ff fa6e 	bl	8000d24 <__aeabi_fmul>
 8001848:	4603      	mov	r3, r0
 800184a:	4619      	mov	r1, r3
 800184c:	4620      	mov	r0, r4
 800184e:	f7ff f961 	bl	8000b14 <__addsf3>
 8001852:	4603      	mov	r3, r0
 8001854:	f8c7 30b8 	str.w	r3, [r7, #184]	@ 0xb8
  out = sum_beta_y / sum_beta; // Homework3 :>
 8001858:	f8d7 10bc 	ldr.w	r1, [r7, #188]	@ 0xbc
 800185c:	f8d7 00b8 	ldr.w	r0, [r7, #184]	@ 0xb8
 8001860:	f7ff fb14 	bl	8000e8c <__aeabi_fdiv>
 8001864:	4603      	mov	r3, r0
 8001866:	f8c7 30b4 	str.w	r3, [r7, #180]	@ 0xb4

  return out;
 800186a:	f8d7 30b4 	ldr.w	r3, [r7, #180]	@ 0xb4
}
 800186e:	4618      	mov	r0, r3
 8001870:	37c4      	adds	r7, #196	@ 0xc4
 8001872:	46bd      	mov	sp, r7
 8001874:	bd90      	pop	{r4, r7, pc}
 8001876:	bf00      	nop
 8001878:	20000134 	.word	0x20000134
 800187c:	3eb33333 	.word	0x3eb33333
 8001880:	20000138 	.word	0x20000138
 8001884:	2000013c 	.word	0x2000013c
 8001888:	3f19999a 	.word	0x3f19999a

0800188c <limit_range>:

void limit_range(float *x) {
 800188c:	b580      	push	{r7, lr}
 800188e:	b082      	sub	sp, #8
 8001890:	af00      	add	r7, sp, #0
 8001892:	6078      	str	r0, [r7, #4]
  if (*x > 1)
 8001894:	687b      	ldr	r3, [r7, #4]
 8001896:	681b      	ldr	r3, [r3, #0]
 8001898:	f04f 517e 	mov.w	r1, #1065353216	@ 0x3f800000
 800189c:	4618      	mov	r0, r3
 800189e:	f7ff fbfd 	bl	800109c <__aeabi_fcmpgt>
 80018a2:	4603      	mov	r3, r0
 80018a4:	2b00      	cmp	r3, #0
 80018a6:	d004      	beq.n	80018b2 <limit_range+0x26>
    *x = 1;
 80018a8:	687b      	ldr	r3, [r7, #4]
 80018aa:	f04f 527e 	mov.w	r2, #1065353216	@ 0x3f800000
 80018ae:	601a      	str	r2, [r3, #0]
  else if (*x < -1)
    *x = -1;
}
 80018b0:	e00c      	b.n	80018cc <limit_range+0x40>
  else if (*x < -1)
 80018b2:	687b      	ldr	r3, [r7, #4]
 80018b4:	681b      	ldr	r3, [r3, #0]
 80018b6:	4907      	ldr	r1, [pc, #28]	@ (80018d4 <limit_range+0x48>)
 80018b8:	4618      	mov	r0, r3
 80018ba:	f7ff fbd1 	bl	8001060 <__aeabi_fcmplt>
 80018be:	4603      	mov	r3, r0
 80018c0:	2b00      	cmp	r3, #0
 80018c2:	d100      	bne.n	80018c6 <limit_range+0x3a>
}
 80018c4:	e002      	b.n	80018cc <limit_range+0x40>
    *x = -1;
 80018c6:	687b      	ldr	r3, [r7, #4]
 80018c8:	4a02      	ldr	r2, [pc, #8]	@ (80018d4 <limit_range+0x48>)
 80018ca:	601a      	str	r2, [r3, #0]
}
 80018cc:	bf00      	nop
 80018ce:	3708      	adds	r7, #8
 80018d0:	46bd      	mov	sp, r7
 80018d2:	bd80      	pop	{r7, pc}
 80018d4:	bf800000 	.word	0xbf800000

080018d8 <main>:
/**
  * @brief  The application entry point.
  * @retval int
  */
int main(void)
{
 80018d8:	b580      	push	{r7, lr}
 80018da:	af00      	add	r7, sp, #0
  /* USER CODE END 1 */

  /* MCU Configuration--------------------------------------------------------*/

  /* Reset of all peripherals, Initializes the Flash interface and the Systick. */
  HAL_Init();
 80018dc:	f001 f960 	bl	8002ba0 <HAL_Init>
  /* USER CODE BEGIN Init */

  /* USER CODE END Init */

  /* Configure the system clock */
  SystemClock_Config();
 80018e0:	f000 f810 	bl	8001904 <SystemClock_Config>
  /* USER CODE BEGIN SysInit */

  /* USER CODE END SysInit */

  /* Initialize all configured peripherals */
  MX_GPIO_Init();
 80018e4:	f000 f9b8 	bl	8001c58 <MX_GPIO_Init>
  MX_TIM3_Init();
 80018e8:	f000 f8ce 	bl	8001a88 <MX_TIM3_Init>
  MX_USART1_UART_Init();
 80018ec:	f000 f98a 	bl	8001c04 <MX_USART1_UART_Init>
  MX_TIM1_Init();
 80018f0:	f000 f878 	bl	80019e4 <MX_TIM1_Init>
  MX_I2C1_Init();
 80018f4:	f000 f848 	bl	8001988 <MX_I2C1_Init>
  MX_TIM4_Init();
 80018f8:	f000 f920 	bl	8001b3c <MX_TIM4_Init>
  /* USER CODE BEGIN 2 */
  Init_All();
 80018fc:	f000 fa30 	bl	8001d60 <Init_All>
  /* USER CODE END 2 */

  /* Infinite loop */
  /* USER CODE BEGIN WHILE */
  while (1)
 8001900:	bf00      	nop
 8001902:	e7fd      	b.n	8001900 <main+0x28>

08001904 <SystemClock_Config>:
/**
  * @brief System Clock Configuration
  * @retval None
  */
void SystemClock_Config(void)
{
 8001904:	b580      	push	{r7, lr}
 8001906:	b090      	sub	sp, #64	@ 0x40
 8001908:	af00      	add	r7, sp, #0
  RCC_OscInitTypeDef RCC_OscInitStruct = {0};
 800190a:	f107 0318 	add.w	r3, r7, #24
 800190e:	2228      	movs	r2, #40	@ 0x28
 8001910:	2100      	movs	r1, #0
 8001912:	4618      	mov	r0, r3
 8001914:	f004 f8f6 	bl	8005b04 <memset>
  RCC_ClkInitTypeDef RCC_ClkInitStruct = {0};
 8001918:	1d3b      	adds	r3, r7, #4
 800191a:	2200      	movs	r2, #0
 800191c:	601a      	str	r2, [r3, #0]
 800191e:	605a      	str	r2, [r3, #4]
 8001920:	609a      	str	r2, [r3, #8]
 8001922:	60da      	str	r2, [r3, #12]
 8001924:	611a      	str	r2, [r3, #16]

  /** Initializes the RCC Oscillators according to the specified parameters
  * in the RCC_OscInitTypeDef structure.
  */
  RCC_OscInitStruct.OscillatorType = RCC_OSCILLATORTYPE_HSI;
 8001926:	2302      	movs	r3, #2
 8001928:	61bb      	str	r3, [r7, #24]
  RCC_OscInitStruct.HSIState = RCC_HSI_ON;
 800192a:	2301      	movs	r3, #1
 800192c:	62bb      	str	r3, [r7, #40]	@ 0x28
  RCC_OscInitStruct.HSICalibrationValue = RCC_HSICALIBRATION_DEFAULT;
 800192e:	2310      	movs	r3, #16
 8001930:	62fb      	str	r3, [r7, #44]	@ 0x2c
  RCC_OscInitStruct.PLL.PLLState = RCC_PLL_ON;
 8001932:	2302      	movs	r3, #2
 8001934:	637b      	str	r3, [r7, #52]	@ 0x34
  RCC_OscInitStruct.PLL.PLLSource = RCC_PLLSOURCE_HSI_DIV2;
 8001936:	2300      	movs	r3, #0
 8001938:	63bb      	str	r3, [r7, #56]	@ 0x38
  RCC_OscInitStruct.PLL.PLLMUL = RCC_PLL_MUL16;
 800193a:	f44f 1360 	mov.w	r3, #3670016	@ 0x380000
 800193e:	63fb      	str	r3, [r7, #60]	@ 0x3c
  if (HAL_RCC_OscConfig(&RCC_OscInitStruct) != HAL_OK)
 8001940:	f107 0318 	add.w	r3, r7, #24
 8001944:	4618      	mov	r0, r3
 8001946:	f002 fc91 	bl	800426c <HAL_RCC_OscConfig>
 800194a:	4603      	mov	r3, r0
 800194c:	2b00      	cmp	r3, #0
 800194e:	d001      	beq.n	8001954 <SystemClock_Config+0x50>
  {
    Error_Handler();
 8001950:	f000 fba6 	bl	80020a0 <Error_Handler>
  }

  /** Initializes the CPU, AHB and APB buses clocks
  */
  RCC_ClkInitStruct.ClockType = RCC_CLOCKTYPE_HCLK|RCC_CLOCKTYPE_SYSCLK
 8001954:	230f      	movs	r3, #15
 8001956:	607b      	str	r3, [r7, #4]
                              |RCC_CLOCKTYPE_PCLK1|RCC_CLOCKTYPE_PCLK2;
  RCC_ClkInitStruct.SYSCLKSource = RCC_SYSCLKSOURCE_PLLCLK;
 8001958:	2302      	movs	r3, #2
 800195a:	60bb      	str	r3, [r7, #8]
  RCC_ClkInitStruct.AHBCLKDivider = RCC_SYSCLK_DIV1;
 800195c:	2300      	movs	r3, #0
 800195e:	60fb      	str	r3, [r7, #12]
  RCC_ClkInitStruct.APB1CLKDivider = RCC_HCLK_DIV2;
 8001960:	f44f 6380 	mov.w	r3, #1024	@ 0x400
 8001964:	613b      	str	r3, [r7, #16]
  RCC_ClkInitStruct.APB2CLKDivider = RCC_HCLK_DIV1;
 8001966:	2300      	movs	r3, #0
 8001968:	617b      	str	r3, [r7, #20]

  if (HAL_RCC_ClockConfig(&RCC_ClkInitStruct, FLASH_LATENCY_2) != HAL_OK)
 800196a:	1d3b      	adds	r3, r7, #4
 800196c:	2102      	movs	r1, #2
 800196e:	4618      	mov	r0, r3
 8001970:	f002 fefe 	bl	8004770 <HAL_RCC_ClockConfig>
 8001974:	4603      	mov	r3, r0
 8001976:	2b00      	cmp	r3, #0
 8001978:	d001      	beq.n	800197e <SystemClock_Config+0x7a>
  {
    Error_Handler();
 800197a:	f000 fb91 	bl	80020a0 <Error_Handler>
  }
}
 800197e:	bf00      	nop
 8001980:	3740      	adds	r7, #64	@ 0x40
 8001982:	46bd      	mov	sp, r7
 8001984:	bd80      	pop	{r7, pc}
	...

08001988 <MX_I2C1_Init>:
  * @brief I2C1 Initialization Function
  * @param None
  * @retval None
  */
static void MX_I2C1_Init(void)
{
 8001988:	b580      	push	{r7, lr}
 800198a:	af00      	add	r7, sp, #0
  /* USER CODE END I2C1_Init 0 */

  /* USER CODE BEGIN I2C1_Init 1 */

  /* USER CODE END I2C1_Init 1 */
  hi2c1.Instance = I2C1;
 800198c:	4b12      	ldr	r3, [pc, #72]	@ (80019d8 <MX_I2C1_Init+0x50>)
 800198e:	4a13      	ldr	r2, [pc, #76]	@ (80019dc <MX_I2C1_Init+0x54>)
 8001990:	601a      	str	r2, [r3, #0]
  hi2c1.Init.ClockSpeed = 100000;
 8001992:	4b11      	ldr	r3, [pc, #68]	@ (80019d8 <MX_I2C1_Init+0x50>)
 8001994:	4a12      	ldr	r2, [pc, #72]	@ (80019e0 <MX_I2C1_Init+0x58>)
 8001996:	605a      	str	r2, [r3, #4]
  hi2c1.Init.DutyCycle = I2C_DUTYCYCLE_2;
 8001998:	4b0f      	ldr	r3, [pc, #60]	@ (80019d8 <MX_I2C1_Init+0x50>)
 800199a:	2200      	movs	r2, #0
 800199c:	609a      	str	r2, [r3, #8]
  hi2c1.Init.OwnAddress1 = 0;
 800199e:	4b0e      	ldr	r3, [pc, #56]	@ (80019d8 <MX_I2C1_Init+0x50>)
 80019a0:	2200      	movs	r2, #0
 80019a2:	60da      	str	r2, [r3, #12]
  hi2c1.Init.AddressingMode = I2C_ADDRESSINGMODE_7BIT;
 80019a4:	4b0c      	ldr	r3, [pc, #48]	@ (80019d8 <MX_I2C1_Init+0x50>)
 80019a6:	f44f 4280 	mov.w	r2, #16384	@ 0x4000
 80019aa:	611a      	str	r2, [r3, #16]
  hi2c1.Init.DualAddressMode = I2C_DUALADDRESS_DISABLE;
 80019ac:	4b0a      	ldr	r3, [pc, #40]	@ (80019d8 <MX_I2C1_Init+0x50>)
 80019ae:	2200      	movs	r2, #0
 80019b0:	615a      	str	r2, [r3, #20]
  hi2c1.Init.OwnAddress2 = 0;
 80019b2:	4b09      	ldr	r3, [pc, #36]	@ (80019d8 <MX_I2C1_Init+0x50>)
 80019b4:	2200      	movs	r2, #0
 80019b6:	619a      	str	r2, [r3, #24]
  hi2c1.Init.GeneralCallMode = I2C_GENERALCALL_DISABLE;
 80019b8:	4b07      	ldr	r3, [pc, #28]	@ (80019d8 <MX_I2C1_Init+0x50>)
 80019ba:	2200      	movs	r2, #0
 80019bc:	61da      	str	r2, [r3, #28]
  hi2c1.Init.NoStretchMode = I2C_NOSTRETCH_DISABLE;
 80019be:	4b06      	ldr	r3, [pc, #24]	@ (80019d8 <MX_I2C1_Init+0x50>)
 80019c0:	2200      	movs	r2, #0
 80019c2:	621a      	str	r2, [r3, #32]
  if (HAL_I2C_Init(&hi2c1) != HAL_OK)
 80019c4:	4804      	ldr	r0, [pc, #16]	@ (80019d8 <MX_I2C1_Init+0x50>)
 80019c6:	f001 fbf7 	bl	80031b8 <HAL_I2C_Init>
 80019ca:	4603      	mov	r3, r0
 80019cc:	2b00      	cmp	r3, #0
 80019ce:	d001      	beq.n	80019d4 <MX_I2C1_Init+0x4c>
  {
    Error_Handler();
 80019d0:	f000 fb66 	bl	80020a0 <Error_Handler>
  }
  /* USER CODE BEGIN I2C1_Init 2 */

  /* USER CODE END I2C1_Init 2 */

}
 80019d4:	bf00      	nop
 80019d6:	bd80      	pop	{r7, pc}
 80019d8:	20000140 	.word	0x20000140
 80019dc:	40005400 	.word	0x40005400
 80019e0:	000186a0 	.word	0x000186a0

080019e4 <MX_TIM1_Init>:
  * @brief TIM1 Initialization Function
  * @param None
  * @retval None
  */
static void MX_TIM1_Init(void)
{
 80019e4:	b580      	push	{r7, lr}
 80019e6:	b086      	sub	sp, #24
 80019e8:	af00      	add	r7, sp, #0

  /* USER CODE BEGIN TIM1_Init 0 */

  /* USER CODE END TIM1_Init 0 */

  TIM_ClockConfigTypeDef sClockSourceConfig = {0};
 80019ea:	f107 0308 	add.w	r3, r7, #8
 80019ee:	2200      	movs	r2, #0
 80019f0:	601a      	str	r2, [r3, #0]
 80019f2:	605a      	str	r2, [r3, #4]
 80019f4:	609a      	str	r2, [r3, #8]
 80019f6:	60da      	str	r2, [r3, #12]
  TIM_MasterConfigTypeDef sMasterConfig = {0};
 80019f8:	463b      	mov	r3, r7
 80019fa:	2200      	movs	r2, #0
 80019fc:	601a      	str	r2, [r3, #0]
 80019fe:	605a      	str	r2, [r3, #4]

  /* USER CODE BEGIN TIM1_Init 1 */

  /* USER CODE END TIM1_Init 1 */
  htim1.Instance = TIM1;
 8001a00:	4b1f      	ldr	r3, [pc, #124]	@ (8001a80 <MX_TIM1_Init+0x9c>)
 8001a02:	4a20      	ldr	r2, [pc, #128]	@ (8001a84 <MX_TIM1_Init+0xa0>)
 8001a04:	601a      	str	r2, [r3, #0]
  htim1.Init.Prescaler = 639;
 8001a06:	4b1e      	ldr	r3, [pc, #120]	@ (8001a80 <MX_TIM1_Init+0x9c>)
 8001a08:	f240 227f 	movw	r2, #639	@ 0x27f
 8001a0c:	605a      	str	r2, [r3, #4]
  htim1.Init.CounterMode = TIM_COUNTERMODE_UP;
 8001a0e:	4b1c      	ldr	r3, [pc, #112]	@ (8001a80 <MX_TIM1_Init+0x9c>)
 8001a10:	2200      	movs	r2, #0
 8001a12:	609a      	str	r2, [r3, #8]
  htim1.Init.Period = 9999;
 8001a14:	4b1a      	ldr	r3, [pc, #104]	@ (8001a80 <MX_TIM1_Init+0x9c>)
 8001a16:	f242 720f 	movw	r2, #9999	@ 0x270f
 8001a1a:	60da      	str	r2, [r3, #12]
  htim1.Init.ClockDivision = TIM_CLOCKDIVISION_DIV1;
 8001a1c:	4b18      	ldr	r3, [pc, #96]	@ (8001a80 <MX_TIM1_Init+0x9c>)
 8001a1e:	2200      	movs	r2, #0
 8001a20:	611a      	str	r2, [r3, #16]
  htim1.Init.RepetitionCounter = 0;
 8001a22:	4b17      	ldr	r3, [pc, #92]	@ (8001a80 <MX_TIM1_Init+0x9c>)
 8001a24:	2200      	movs	r2, #0
 8001a26:	615a      	str	r2, [r3, #20]
  htim1.Init.AutoReloadPreload = TIM_AUTORELOAD_PRELOAD_DISABLE;
 8001a28:	4b15      	ldr	r3, [pc, #84]	@ (8001a80 <MX_TIM1_Init+0x9c>)
 8001a2a:	2200      	movs	r2, #0
 8001a2c:	619a      	str	r2, [r3, #24]
  if (HAL_TIM_Base_Init(&htim1) != HAL_OK)
 8001a2e:	4814      	ldr	r0, [pc, #80]	@ (8001a80 <MX_TIM1_Init+0x9c>)
 8001a30:	f003 f82c 	bl	8004a8c <HAL_TIM_Base_Init>
 8001a34:	4603      	mov	r3, r0
 8001a36:	2b00      	cmp	r3, #0
 8001a38:	d001      	beq.n	8001a3e <MX_TIM1_Init+0x5a>
  {
    Error_Handler();
 8001a3a:	f000 fb31 	bl	80020a0 <Error_Handler>
  }
  sClockSourceConfig.ClockSource = TIM_CLOCKSOURCE_INTERNAL;
 8001a3e:	f44f 5380 	mov.w	r3, #4096	@ 0x1000
 8001a42:	60bb      	str	r3, [r7, #8]
  if (HAL_TIM_ConfigClockSource(&htim1, &sClockSourceConfig) != HAL_OK)
 8001a44:	f107 0308 	add.w	r3, r7, #8
 8001a48:	4619      	mov	r1, r3
 8001a4a:	480d      	ldr	r0, [pc, #52]	@ (8001a80 <MX_TIM1_Init+0x9c>)
 8001a4c:	f003 fb7c 	bl	8005148 <HAL_TIM_ConfigClockSource>
 8001a50:	4603      	mov	r3, r0
 8001a52:	2b00      	cmp	r3, #0
 8001a54:	d001      	beq.n	8001a5a <MX_TIM1_Init+0x76>
  {
    Error_Handler();
 8001a56:	f000 fb23 	bl	80020a0 <Error_Handler>
  }
  sMasterConfig.MasterOutputTrigger = TIM_TRGO_RESET;
 8001a5a:	2300      	movs	r3, #0
 8001a5c:	603b      	str	r3, [r7, #0]
  sMasterConfig.MasterSlaveMode = TIM_MASTERSLAVEMODE_DISABLE;
 8001a5e:	2300      	movs	r3, #0
 8001a60:	607b      	str	r3, [r7, #4]
  if (HAL_TIMEx_MasterConfigSynchronization(&htim1, &sMasterConfig) != HAL_OK)
 8001a62:	463b      	mov	r3, r7
 8001a64:	4619      	mov	r1, r3
 8001a66:	4806      	ldr	r0, [pc, #24]	@ (8001a80 <MX_TIM1_Init+0x9c>)
 8001a68:	f003 fefe 	bl	8005868 <HAL_TIMEx_MasterConfigSynchronization>
 8001a6c:	4603      	mov	r3, r0
 8001a6e:	2b00      	cmp	r3, #0
 8001a70:	d001      	beq.n	8001a76 <MX_TIM1_Init+0x92>
  {
    Error_Handler();
 8001a72:	f000 fb15 	bl	80020a0 <Error_Handler>
  }
  /* USER CODE BEGIN TIM1_Init 2 */

  /* USER CODE END TIM1_Init 2 */

}
 8001a76:	bf00      	nop
 8001a78:	3718      	adds	r7, #24
 8001a7a:	46bd      	mov	sp, r7
 8001a7c:	bd80      	pop	{r7, pc}
 8001a7e:	bf00      	nop
 8001a80:	20000194 	.word	0x20000194
 8001a84:	40012c00 	.word	0x40012c00

08001a88 <MX_TIM3_Init>:
  * @brief TIM3 Initialization Function
  * @param None
  * @retval None
  */
static void MX_TIM3_Init(void)
{
 8001a88:	b580      	push	{r7, lr}
 8001a8a:	b08a      	sub	sp, #40	@ 0x28
 8001a8c:	af00      	add	r7, sp, #0

  /* USER CODE BEGIN TIM3_Init 0 */

  /* USER CODE END TIM3_Init 0 */

  TIM_MasterConfigTypeDef sMasterConfig = {0};
 8001a8e:	f107 0320 	add.w	r3, r7, #32
 8001a92:	2200      	movs	r2, #0
 8001a94:	601a      	str	r2, [r3, #0]
 8001a96:	605a      	str	r2, [r3, #4]
  TIM_OC_InitTypeDef sConfigOC = {0};
 8001a98:	1d3b      	adds	r3, r7, #4
 8001a9a:	2200      	movs	r2, #0
 8001a9c:	601a      	str	r2, [r3, #0]
 8001a9e:	605a      	str	r2, [r3, #4]
 8001aa0:	609a      	str	r2, [r3, #8]
 8001aa2:	60da      	str	r2, [r3, #12]
 8001aa4:	611a      	str	r2, [r3, #16]
 8001aa6:	615a      	str	r2, [r3, #20]
 8001aa8:	619a      	str	r2, [r3, #24]

  /* USER CODE BEGIN TIM3_Init 1 */

  /* USER CODE END TIM3_Init 1 */
  htim3.Instance = TIM3;
 8001aaa:	4b22      	ldr	r3, [pc, #136]	@ (8001b34 <MX_TIM3_Init+0xac>)
 8001aac:	4a22      	ldr	r2, [pc, #136]	@ (8001b38 <MX_TIM3_Init+0xb0>)
 8001aae:	601a      	str	r2, [r3, #0]
  htim3.Init.Prescaler = 9;
 8001ab0:	4b20      	ldr	r3, [pc, #128]	@ (8001b34 <MX_TIM3_Init+0xac>)
 8001ab2:	2209      	movs	r2, #9
 8001ab4:	605a      	str	r2, [r3, #4]
  htim3.Init.CounterMode = TIM_COUNTERMODE_UP;
 8001ab6:	4b1f      	ldr	r3, [pc, #124]	@ (8001b34 <MX_TIM3_Init+0xac>)
 8001ab8:	2200      	movs	r2, #0
 8001aba:	609a      	str	r2, [r3, #8]
  htim3.Init.Period = 3199;
 8001abc:	4b1d      	ldr	r3, [pc, #116]	@ (8001b34 <MX_TIM3_Init+0xac>)
 8001abe:	f640 427f 	movw	r2, #3199	@ 0xc7f
 8001ac2:	60da      	str	r2, [r3, #12]
  htim3.Init.ClockDivision = TIM_CLOCKDIVISION_DIV1;
 8001ac4:	4b1b      	ldr	r3, [pc, #108]	@ (8001b34 <MX_TIM3_Init+0xac>)
 8001ac6:	2200      	movs	r2, #0
 8001ac8:	611a      	str	r2, [r3, #16]
  htim3.Init.AutoReloadPreload = TIM_AUTORELOAD_PRELOAD_DISABLE;
 8001aca:	4b1a      	ldr	r3, [pc, #104]	@ (8001b34 <MX_TIM3_Init+0xac>)
 8001acc:	2200      	movs	r2, #0
 8001ace:	619a      	str	r2, [r3, #24]
  if (HAL_TIM_PWM_Init(&htim3) != HAL_OK)
 8001ad0:	4818      	ldr	r0, [pc, #96]	@ (8001b34 <MX_TIM3_Init+0xac>)
 8001ad2:	f003 f87d 	bl	8004bd0 <HAL_TIM_PWM_Init>
 8001ad6:	4603      	mov	r3, r0
 8001ad8:	2b00      	cmp	r3, #0
 8001ada:	d001      	beq.n	8001ae0 <MX_TIM3_Init+0x58>
  {
    Error_Handler();
 8001adc:	f000 fae0 	bl	80020a0 <Error_Handler>
  }
  sMasterConfig.MasterOutputTrigger = TIM_TRGO_RESET;
 8001ae0:	2300      	movs	r3, #0
 8001ae2:	623b      	str	r3, [r7, #32]
  sMasterConfig.MasterSlaveMode = TIM_MASTERSLAVEMODE_DISABLE;
 8001ae4:	2300      	movs	r3, #0
 8001ae6:	627b      	str	r3, [r7, #36]	@ 0x24
  if (HAL_TIMEx_MasterConfigSynchronization(&htim3, &sMasterConfig) != HAL_OK)
 8001ae8:	f107 0320 	add.w	r3, r7, #32
 8001aec:	4619      	mov	r1, r3
 8001aee:	4811      	ldr	r0, [pc, #68]	@ (8001b34 <MX_TIM3_Init+0xac>)
 8001af0:	f003 feba 	bl	8005868 <HAL_TIMEx_MasterConfigSynchronization>
 8001af4:	4603      	mov	r3, r0
 8001af6:	2b00      	cmp	r3, #0
 8001af8:	d001      	beq.n	8001afe <MX_TIM3_Init+0x76>
  {
    Error_Handler();
 8001afa:	f000 fad1 	bl	80020a0 <Error_Handler>
  }
  sConfigOC.OCMode = TIM_OCMODE_PWM1;
 8001afe:	2360      	movs	r3, #96	@ 0x60
 8001b00:	607b      	str	r3, [r7, #4]
  sConfigOC.Pulse = 0;
 8001b02:	2300      	movs	r3, #0
 8001b04:	60bb      	str	r3, [r7, #8]
  sConfigOC.OCPolarity = TIM_OCPOLARITY_HIGH;
 8001b06:	2300      	movs	r3, #0
 8001b08:	60fb      	str	r3, [r7, #12]
  sConfigOC.OCFastMode = TIM_OCFAST_DISABLE;
 8001b0a:	2300      	movs	r3, #0
 8001b0c:	617b      	str	r3, [r7, #20]
  if (HAL_TIM_PWM_ConfigChannel(&htim3, &sConfigOC, TIM_CHANNEL_1) != HAL_OK)
 8001b0e:	1d3b      	adds	r3, r7, #4
 8001b10:	2200      	movs	r2, #0
 8001b12:	4619      	mov	r1, r3
 8001b14:	4807      	ldr	r0, [pc, #28]	@ (8001b34 <MX_TIM3_Init+0xac>)
 8001b16:	f003 fa55 	bl	8004fc4 <HAL_TIM_PWM_ConfigChannel>
 8001b1a:	4603      	mov	r3, r0
 8001b1c:	2b00      	cmp	r3, #0
 8001b1e:	d001      	beq.n	8001b24 <MX_TIM3_Init+0x9c>
  {
    Error_Handler();
 8001b20:	f000 fabe 	bl	80020a0 <Error_Handler>
  }
  /* USER CODE BEGIN TIM3_Init 2 */

  /* USER CODE END TIM3_Init 2 */
  HAL_TIM_MspPostInit(&htim3);
 8001b24:	4803      	ldr	r0, [pc, #12]	@ (8001b34 <MX_TIM3_Init+0xac>)
 8001b26:	f000 ff27 	bl	8002978 <HAL_TIM_MspPostInit>

}
 8001b2a:	bf00      	nop
 8001b2c:	3728      	adds	r7, #40	@ 0x28
 8001b2e:	46bd      	mov	sp, r7
 8001b30:	bd80      	pop	{r7, pc}
 8001b32:	bf00      	nop
 8001b34:	200001dc 	.word	0x200001dc
 8001b38:	40000400 	.word	0x40000400

08001b3c <MX_TIM4_Init>:
  * @brief TIM4 Initialization Function
  * @param None
  * @retval None
  */
static void MX_TIM4_Init(void)
{
 8001b3c:	b580      	push	{r7, lr}
 8001b3e:	b08a      	sub	sp, #40	@ 0x28
 8001b40:	af00      	add	r7, sp, #0

  /* USER CODE BEGIN TIM4_Init 0 */

  /* USER CODE END TIM4_Init 0 */

  TIM_MasterConfigTypeDef sMasterConfig = {0};
 8001b42:	f107 0320 	add.w	r3, r7, #32
 8001b46:	2200      	movs	r2, #0
 8001b48:	601a      	str	r2, [r3, #0]
 8001b4a:	605a      	str	r2, [r3, #4]
  TIM_OC_InitTypeDef sConfigOC = {0};
 8001b4c:	1d3b      	adds	r3, r7, #4
 8001b4e:	2200      	movs	r2, #0
 8001b50:	601a      	str	r2, [r3, #0]
 8001b52:	605a      	str	r2, [r3, #4]
 8001b54:	609a      	str	r2, [r3, #8]
 8001b56:	60da      	str	r2, [r3, #12]
 8001b58:	611a      	str	r2, [r3, #16]
 8001b5a:	615a      	str	r2, [r3, #20]
 8001b5c:	619a      	str	r2, [r3, #24]

  /* USER CODE BEGIN TIM4_Init 1 */

  /* USER CODE END TIM4_Init 1 */
  htim4.Instance = TIM4;
 8001b5e:	4b27      	ldr	r3, [pc, #156]	@ (8001bfc <MX_TIM4_Init+0xc0>)
 8001b60:	4a27      	ldr	r2, [pc, #156]	@ (8001c00 <MX_TIM4_Init+0xc4>)
 8001b62:	601a      	str	r2, [r3, #0]
  htim4.Init.Prescaler = 9;
 8001b64:	4b25      	ldr	r3, [pc, #148]	@ (8001bfc <MX_TIM4_Init+0xc0>)
 8001b66:	2209      	movs	r2, #9
 8001b68:	605a      	str	r2, [r3, #4]
  htim4.Init.CounterMode = TIM_COUNTERMODE_UP;
 8001b6a:	4b24      	ldr	r3, [pc, #144]	@ (8001bfc <MX_TIM4_Init+0xc0>)
 8001b6c:	2200      	movs	r2, #0
 8001b6e:	609a      	str	r2, [r3, #8]
  htim4.Init.Period = 3199;
 8001b70:	4b22      	ldr	r3, [pc, #136]	@ (8001bfc <MX_TIM4_Init+0xc0>)
 8001b72:	f640 427f 	movw	r2, #3199	@ 0xc7f
 8001b76:	60da      	str	r2, [r3, #12]
  htim4.Init.ClockDivision = TIM_CLOCKDIVISION_DIV1;
 8001b78:	4b20      	ldr	r3, [pc, #128]	@ (8001bfc <MX_TIM4_Init+0xc0>)
 8001b7a:	2200      	movs	r2, #0
 8001b7c:	611a      	str	r2, [r3, #16]
  htim4.Init.AutoReloadPreload = TIM_AUTORELOAD_PRELOAD_DISABLE;
 8001b7e:	4b1f      	ldr	r3, [pc, #124]	@ (8001bfc <MX_TIM4_Init+0xc0>)
 8001b80:	2200      	movs	r2, #0
 8001b82:	619a      	str	r2, [r3, #24]
  if (HAL_TIM_PWM_Init(&htim4) != HAL_OK)
 8001b84:	481d      	ldr	r0, [pc, #116]	@ (8001bfc <MX_TIM4_Init+0xc0>)
 8001b86:	f003 f823 	bl	8004bd0 <HAL_TIM_PWM_Init>
 8001b8a:	4603      	mov	r3, r0
 8001b8c:	2b00      	cmp	r3, #0
 8001b8e:	d001      	beq.n	8001b94 <MX_TIM4_Init+0x58>
  {
    Error_Handler();
 8001b90:	f000 fa86 	bl	80020a0 <Error_Handler>
  }
  sMasterConfig.MasterOutputTrigger = TIM_TRGO_RESET;
 8001b94:	2300      	movs	r3, #0
 8001b96:	623b      	str	r3, [r7, #32]
  sMasterConfig.MasterSlaveMode = TIM_MASTERSLAVEMODE_DISABLE;
 8001b98:	2300      	movs	r3, #0
 8001b9a:	627b      	str	r3, [r7, #36]	@ 0x24
  if (HAL_TIMEx_MasterConfigSynchronization(&htim4, &sMasterConfig) != HAL_OK)
 8001b9c:	f107 0320 	add.w	r3, r7, #32
 8001ba0:	4619      	mov	r1, r3
 8001ba2:	4816      	ldr	r0, [pc, #88]	@ (8001bfc <MX_TIM4_Init+0xc0>)
 8001ba4:	f003 fe60 	bl	8005868 <HAL_TIMEx_MasterConfigSynchronization>
 8001ba8:	4603      	mov	r3, r0
 8001baa:	2b00      	cmp	r3, #0
 8001bac:	d001      	beq.n	8001bb2 <MX_TIM4_Init+0x76>
  {
    Error_Handler();
 8001bae:	f000 fa77 	bl	80020a0 <Error_Handler>
  }
  sConfigOC.OCMode = TIM_OCMODE_PWM1;
 8001bb2:	2360      	movs	r3, #96	@ 0x60
 8001bb4:	607b      	str	r3, [r7, #4]
  sConfigOC.Pulse = 0;
 8001bb6:	2300      	movs	r3, #0
 8001bb8:	60bb      	str	r3, [r7, #8]
  sConfigOC.OCPolarity = TIM_OCPOLARITY_HIGH;
 8001bba:	2300      	movs	r3, #0
 8001bbc:	60fb      	str	r3, [r7, #12]
  sConfigOC.OCFastMode = TIM_OCFAST_DISABLE;
 8001bbe:	2300      	movs	r3, #0
 8001bc0:	617b      	str	r3, [r7, #20]
  if (HAL_TIM_PWM_ConfigChannel(&htim4, &sConfigOC, TIM_CHANNEL_1) != HAL_OK)
 8001bc2:	1d3b      	adds	r3, r7, #4
 8001bc4:	2200      	movs	r2, #0
 8001bc6:	4619      	mov	r1, r3
 8001bc8:	480c      	ldr	r0, [pc, #48]	@ (8001bfc <MX_TIM4_Init+0xc0>)
 8001bca:	f003 f9fb 	bl	8004fc4 <HAL_TIM_PWM_ConfigChannel>
 8001bce:	4603      	mov	r3, r0
 8001bd0:	2b00      	cmp	r3, #0
 8001bd2:	d001      	beq.n	8001bd8 <MX_TIM4_Init+0x9c>
  {
    Error_Handler();
 8001bd4:	f000 fa64 	bl	80020a0 <Error_Handler>
  }
  if (HAL_TIM_PWM_ConfigChannel(&htim4, &sConfigOC, TIM_CHANNEL_2) != HAL_OK)
 8001bd8:	1d3b      	adds	r3, r7, #4
 8001bda:	2204      	movs	r2, #4
 8001bdc:	4619      	mov	r1, r3
 8001bde:	4807      	ldr	r0, [pc, #28]	@ (8001bfc <MX_TIM4_Init+0xc0>)
 8001be0:	f003 f9f0 	bl	8004fc4 <HAL_TIM_PWM_ConfigChannel>
 8001be4:	4603      	mov	r3, r0
 8001be6:	2b00      	cmp	r3, #0
 8001be8:	d001      	beq.n	8001bee <MX_TIM4_Init+0xb2>
  {
    Error_Handler();
 8001bea:	f000 fa59 	bl	80020a0 <Error_Handler>
  }
  /* USER CODE BEGIN TIM4_Init 2 */

  /* USER CODE END TIM4_Init 2 */
  HAL_TIM_MspPostInit(&htim4);
 8001bee:	4803      	ldr	r0, [pc, #12]	@ (8001bfc <MX_TIM4_Init+0xc0>)
 8001bf0:	f000 fec2 	bl	8002978 <HAL_TIM_MspPostInit>

}
 8001bf4:	bf00      	nop
 8001bf6:	3728      	adds	r7, #40	@ 0x28
 8001bf8:	46bd      	mov	sp, r7
 8001bfa:	bd80      	pop	{r7, pc}
 8001bfc:	20000224 	.word	0x20000224
 8001c00:	40000800 	.word	0x40000800

08001c04 <MX_USART1_UART_Init>:
  * @brief USART1 Initialization Function
  * @param None
  * @retval None
  */
static void MX_USART1_UART_Init(void)
{
 8001c04:	b580      	push	{r7, lr}
 8001c06:	af00      	add	r7, sp, #0
  /* USER CODE END USART1_Init 0 */

  /* USER CODE BEGIN USART1_Init 1 */

  /* USER CODE END USART1_Init 1 */
  huart1.Instance = USART1;
 8001c08:	4b11      	ldr	r3, [pc, #68]	@ (8001c50 <MX_USART1_UART_Init+0x4c>)
 8001c0a:	4a12      	ldr	r2, [pc, #72]	@ (8001c54 <MX_USART1_UART_Init+0x50>)
 8001c0c:	601a      	str	r2, [r3, #0]
  huart1.Init.BaudRate = 115200;
 8001c0e:	4b10      	ldr	r3, [pc, #64]	@ (8001c50 <MX_USART1_UART_Init+0x4c>)
 8001c10:	f44f 32e1 	mov.w	r2, #115200	@ 0x1c200
 8001c14:	605a      	str	r2, [r3, #4]
  huart1.Init.WordLength = UART_WORDLENGTH_8B;
 8001c16:	4b0e      	ldr	r3, [pc, #56]	@ (8001c50 <MX_USART1_UART_Init+0x4c>)
 8001c18:	2200      	movs	r2, #0
 8001c1a:	609a      	str	r2, [r3, #8]
  huart1.Init.StopBits = UART_STOPBITS_1;
 8001c1c:	4b0c      	ldr	r3, [pc, #48]	@ (8001c50 <MX_USART1_UART_Init+0x4c>)
 8001c1e:	2200      	movs	r2, #0
 8001c20:	60da      	str	r2, [r3, #12]
  huart1.Init.Parity = UART_PARITY_NONE;
 8001c22:	4b0b      	ldr	r3, [pc, #44]	@ (8001c50 <MX_USART1_UART_Init+0x4c>)
 8001c24:	2200      	movs	r2, #0
 8001c26:	611a      	str	r2, [r3, #16]
  huart1.Init.Mode = UART_MODE_TX_RX;
 8001c28:	4b09      	ldr	r3, [pc, #36]	@ (8001c50 <MX_USART1_UART_Init+0x4c>)
 8001c2a:	220c      	movs	r2, #12
 8001c2c:	615a      	str	r2, [r3, #20]
  huart1.Init.HwFlowCtl = UART_HWCONTROL_NONE;
 8001c2e:	4b08      	ldr	r3, [pc, #32]	@ (8001c50 <MX_USART1_UART_Init+0x4c>)
 8001c30:	2200      	movs	r2, #0
 8001c32:	619a      	str	r2, [r3, #24]
  huart1.Init.OverSampling = UART_OVERSAMPLING_16;
 8001c34:	4b06      	ldr	r3, [pc, #24]	@ (8001c50 <MX_USART1_UART_Init+0x4c>)
 8001c36:	2200      	movs	r2, #0
 8001c38:	61da      	str	r2, [r3, #28]
  if (HAL_UART_Init(&huart1) != HAL_OK)
 8001c3a:	4805      	ldr	r0, [pc, #20]	@ (8001c50 <MX_USART1_UART_Init+0x4c>)
 8001c3c:	f003 fe84 	bl	8005948 <HAL_UART_Init>
 8001c40:	4603      	mov	r3, r0
 8001c42:	2b00      	cmp	r3, #0
 8001c44:	d001      	beq.n	8001c4a <MX_USART1_UART_Init+0x46>
  {
    Error_Handler();
 8001c46:	f000 fa2b 	bl	80020a0 <Error_Handler>
  }
  /* USER CODE BEGIN USART1_Init 2 */

  /* USER CODE END USART1_Init 2 */

}
 8001c4a:	bf00      	nop
 8001c4c:	bd80      	pop	{r7, pc}
 8001c4e:	bf00      	nop
 8001c50:	2000026c 	.word	0x2000026c
 8001c54:	40013800 	.word	0x40013800

08001c58 <MX_GPIO_Init>:
  * @brief GPIO Initialization Function
  * @param None
  * @retval None
  */
static void MX_GPIO_Init(void)
{
 8001c58:	b580      	push	{r7, lr}
 8001c5a:	b088      	sub	sp, #32
 8001c5c:	af00      	add	r7, sp, #0
  GPIO_InitTypeDef GPIO_InitStruct = {0};
 8001c5e:	f107 0310 	add.w	r3, r7, #16
 8001c62:	2200      	movs	r2, #0
 8001c64:	601a      	str	r2, [r3, #0]
 8001c66:	605a      	str	r2, [r3, #4]
 8001c68:	609a      	str	r2, [r3, #8]
 8001c6a:	60da      	str	r2, [r3, #12]
/* USER CODE BEGIN MX_GPIO_Init_1 */
/* USER CODE END MX_GPIO_Init_1 */

  /* GPIO Ports Clock Enable */
  __HAL_RCC_GPIOC_CLK_ENABLE();
 8001c6c:	4b38      	ldr	r3, [pc, #224]	@ (8001d50 <MX_GPIO_Init+0xf8>)
 8001c6e:	699b      	ldr	r3, [r3, #24]
 8001c70:	4a37      	ldr	r2, [pc, #220]	@ (8001d50 <MX_GPIO_Init+0xf8>)
 8001c72:	f043 0310 	orr.w	r3, r3, #16
 8001c76:	6193      	str	r3, [r2, #24]
 8001c78:	4b35      	ldr	r3, [pc, #212]	@ (8001d50 <MX_GPIO_Init+0xf8>)
 8001c7a:	699b      	ldr	r3, [r3, #24]
 8001c7c:	f003 0310 	and.w	r3, r3, #16
 8001c80:	60fb      	str	r3, [r7, #12]
 8001c82:	68fb      	ldr	r3, [r7, #12]
  __HAL_RCC_GPIOD_CLK_ENABLE();
 8001c84:	4b32      	ldr	r3, [pc, #200]	@ (8001d50 <MX_GPIO_Init+0xf8>)
 8001c86:	699b      	ldr	r3, [r3, #24]
 8001c88:	4a31      	ldr	r2, [pc, #196]	@ (8001d50 <MX_GPIO_Init+0xf8>)
 8001c8a:	f043 0320 	orr.w	r3, r3, #32
 8001c8e:	6193      	str	r3, [r2, #24]
 8001c90:	4b2f      	ldr	r3, [pc, #188]	@ (8001d50 <MX_GPIO_Init+0xf8>)
 8001c92:	699b      	ldr	r3, [r3, #24]
 8001c94:	f003 0320 	and.w	r3, r3, #32
 8001c98:	60bb      	str	r3, [r7, #8]
 8001c9a:	68bb      	ldr	r3, [r7, #8]
  __HAL_RCC_GPIOA_CLK_ENABLE();
 8001c9c:	4b2c      	ldr	r3, [pc, #176]	@ (8001d50 <MX_GPIO_Init+0xf8>)
 8001c9e:	699b      	ldr	r3, [r3, #24]
 8001ca0:	4a2b      	ldr	r2, [pc, #172]	@ (8001d50 <MX_GPIO_Init+0xf8>)
 8001ca2:	f043 0304 	orr.w	r3, r3, #4
 8001ca6:	6193      	str	r3, [r2, #24]
 8001ca8:	4b29      	ldr	r3, [pc, #164]	@ (8001d50 <MX_GPIO_Init+0xf8>)
 8001caa:	699b      	ldr	r3, [r3, #24]
 8001cac:	f003 0304 	and.w	r3, r3, #4
 8001cb0:	607b      	str	r3, [r7, #4]
 8001cb2:	687b      	ldr	r3, [r7, #4]
  __HAL_RCC_GPIOB_CLK_ENABLE();
 8001cb4:	4b26      	ldr	r3, [pc, #152]	@ (8001d50 <MX_GPIO_Init+0xf8>)
 8001cb6:	699b      	ldr	r3, [r3, #24]
 8001cb8:	4a25      	ldr	r2, [pc, #148]	@ (8001d50 <MX_GPIO_Init+0xf8>)
 8001cba:	f043 0308 	orr.w	r3, r3, #8
 8001cbe:	6193      	str	r3, [r2, #24]
 8001cc0:	4b23      	ldr	r3, [pc, #140]	@ (8001d50 <MX_GPIO_Init+0xf8>)
 8001cc2:	699b      	ldr	r3, [r3, #24]
 8001cc4:	f003 0308 	and.w	r3, r3, #8
 8001cc8:	603b      	str	r3, [r7, #0]
 8001cca:	683b      	ldr	r3, [r7, #0]

  /*Configure GPIO pin Output Level */
  HAL_GPIO_WritePin(GPIOC, GPIO_PIN_13, GPIO_PIN_RESET);
 8001ccc:	2200      	movs	r2, #0
 8001cce:	f44f 5100 	mov.w	r1, #8192	@ 0x2000
 8001cd2:	4820      	ldr	r0, [pc, #128]	@ (8001d54 <MX_GPIO_Init+0xfc>)
 8001cd4:	f001 fa58 	bl	8003188 <HAL_GPIO_WritePin>

  /*Configure GPIO pin Output Level */
  HAL_GPIO_WritePin(GPIOA, GPIO_OUT_LED_Pin|GPIO_PIN_5|IN1_Pin|IN2_Pin, GPIO_PIN_RESET);
 8001cd8:	2200      	movs	r2, #0
 8001cda:	21e8      	movs	r1, #232	@ 0xe8
 8001cdc:	481e      	ldr	r0, [pc, #120]	@ (8001d58 <MX_GPIO_Init+0x100>)
 8001cde:	f001 fa53 	bl	8003188 <HAL_GPIO_WritePin>

  /*Configure GPIO pin Output Level */
  HAL_GPIO_WritePin(GPIOB, GPIO_PIN_10|GPIO_PIN_11|GPIO_PIN_5, GPIO_PIN_RESET);
 8001ce2:	2200      	movs	r2, #0
 8001ce4:	f44f 6142 	mov.w	r1, #3104	@ 0xc20
 8001ce8:	481c      	ldr	r0, [pc, #112]	@ (8001d5c <MX_GPIO_Init+0x104>)
 8001cea:	f001 fa4d 	bl	8003188 <HAL_GPIO_WritePin>

  /*Configure GPIO pin : PC13 */
  GPIO_InitStruct.Pin = GPIO_PIN_13;
 8001cee:	f44f 5300 	mov.w	r3, #8192	@ 0x2000
 8001cf2:	613b      	str	r3, [r7, #16]
  GPIO_InitStruct.Mode = GPIO_MODE_OUTPUT_PP;
 8001cf4:	2301      	movs	r3, #1
 8001cf6:	617b      	str	r3, [r7, #20]
  GPIO_InitStruct.Pull = GPIO_NOPULL;
 8001cf8:	2300      	movs	r3, #0
 8001cfa:	61bb      	str	r3, [r7, #24]
  GPIO_InitStruct.Speed = GPIO_SPEED_FREQ_LOW;
 8001cfc:	2302      	movs	r3, #2
 8001cfe:	61fb      	str	r3, [r7, #28]
  HAL_GPIO_Init(GPIOC, &GPIO_InitStruct);
 8001d00:	f107 0310 	add.w	r3, r7, #16
 8001d04:	4619      	mov	r1, r3
 8001d06:	4813      	ldr	r0, [pc, #76]	@ (8001d54 <MX_GPIO_Init+0xfc>)
 8001d08:	f001 f8ba 	bl	8002e80 <HAL_GPIO_Init>

  /*Configure GPIO pins : GPIO_OUT_LED_Pin PA5 IN1_Pin IN2_Pin */
  GPIO_InitStruct.Pin = GPIO_OUT_LED_Pin|GPIO_PIN_5|IN1_Pin|IN2_Pin;
 8001d0c:	23e8      	movs	r3, #232	@ 0xe8
 8001d0e:	613b      	str	r3, [r7, #16]
  GPIO_InitStruct.Mode = GPIO_MODE_OUTPUT_PP;
 8001d10:	2301      	movs	r3, #1
 8001d12:	617b      	str	r3, [r7, #20]
  GPIO_InitStruct.Pull = GPIO_NOPULL;
 8001d14:	2300      	movs	r3, #0
 8001d16:	61bb      	str	r3, [r7, #24]
  GPIO_InitStruct.Speed = GPIO_SPEED_FREQ_LOW;
 8001d18:	2302      	movs	r3, #2
 8001d1a:	61fb      	str	r3, [r7, #28]
  HAL_GPIO_Init(GPIOA, &GPIO_InitStruct);
 8001d1c:	f107 0310 	add.w	r3, r7, #16
 8001d20:	4619      	mov	r1, r3
 8001d22:	480d      	ldr	r0, [pc, #52]	@ (8001d58 <MX_GPIO_Init+0x100>)
 8001d24:	f001 f8ac 	bl	8002e80 <HAL_GPIO_Init>

  /*Configure GPIO pins : PB10 PB11 PB5 */
  GPIO_InitStruct.Pin = GPIO_PIN_10|GPIO_PIN_11|GPIO_PIN_5;
 8001d28:	f44f 6342 	mov.w	r3, #3104	@ 0xc20
 8001d2c:	613b      	str	r3, [r7, #16]
  GPIO_InitStruct.Mode = GPIO_MODE_OUTPUT_PP;
 8001d2e:	2301      	movs	r3, #1
 8001d30:	617b      	str	r3, [r7, #20]
  GPIO_InitStruct.Pull = GPIO_NOPULL;
 8001d32:	2300      	movs	r3, #0
 8001d34:	61bb      	str	r3, [r7, #24]
  GPIO_InitStruct.Speed = GPIO_SPEED_FREQ_LOW;
 8001d36:	2302      	movs	r3, #2
 8001d38:	61fb      	str	r3, [r7, #28]
  HAL_GPIO_Init(GPIOB, &GPIO_InitStruct);
 8001d3a:	f107 0310 	add.w	r3, r7, #16
 8001d3e:	4619      	mov	r1, r3
 8001d40:	4806      	ldr	r0, [pc, #24]	@ (8001d5c <MX_GPIO_Init+0x104>)
 8001d42:	f001 f89d 	bl	8002e80 <HAL_GPIO_Init>

/* USER CODE BEGIN MX_GPIO_Init_2 */
/* USER CODE END MX_GPIO_Init_2 */
}
 8001d46:	bf00      	nop
 8001d48:	3720      	adds	r7, #32
 8001d4a:	46bd      	mov	sp, r7
 8001d4c:	bd80      	pop	{r7, pc}
 8001d4e:	bf00      	nop
 8001d50:	40021000 	.word	0x40021000
 8001d54:	40011000 	.word	0x40011000
 8001d58:	40010800 	.word	0x40010800
 8001d5c:	40010c00 	.word	0x40010c00

08001d60 <Init_All>:

/* USER CODE BEGIN 4 */
void Init_All()
{
 8001d60:	b580      	push	{r7, lr}
 8001d62:	af00      	add	r7, sp, #0
	while (MPU6050_Init(&hi2c1) == 1);
 8001d64:	bf00      	nop
 8001d66:	4809      	ldr	r0, [pc, #36]	@ (8001d8c <Init_All+0x2c>)
 8001d68:	f000 f9a0 	bl	80020ac <MPU6050_Init>
 8001d6c:	4603      	mov	r3, r0
 8001d6e:	2b01      	cmp	r3, #1
 8001d70:	d0f9      	beq.n	8001d66 <Init_All+0x6>
	HAL_TIM_Base_Start_IT(&htim1);
 8001d72:	4807      	ldr	r0, [pc, #28]	@ (8001d90 <Init_All+0x30>)
 8001d74:	f002 feda 	bl	8004b2c <HAL_TIM_Base_Start_IT>
	HAL_TIM_PWM_Start(&htim3, TIM_CHANNEL_1);
 8001d78:	2100      	movs	r1, #0
 8001d7a:	4806      	ldr	r0, [pc, #24]	@ (8001d94 <Init_All+0x34>)
 8001d7c:	f002 ff78 	bl	8004c70 <HAL_TIM_PWM_Start>
	HAL_TIM_PWM_Start(&htim4, TIM_CHANNEL_2);
 8001d80:	2104      	movs	r1, #4
 8001d82:	4805      	ldr	r0, [pc, #20]	@ (8001d98 <Init_All+0x38>)
 8001d84:	f002 ff74 	bl	8004c70 <HAL_TIM_PWM_Start>
}
 8001d88:	bf00      	nop
 8001d8a:	bd80      	pop	{r7, pc}
 8001d8c:	20000140 	.word	0x20000140
 8001d90:	20000194 	.word	0x20000194
 8001d94:	200001dc 	.word	0x200001dc
 8001d98:	20000224 	.word	0x20000224

08001d9c <HAL_TIM_PeriodElapsedCallback>:

void HAL_TIM_PeriodElapsedCallback(TIM_HandleTypeDef *htim)
{
 8001d9c:	b580      	push	{r7, lr}
 8001d9e:	b082      	sub	sp, #8
 8001da0:	af00      	add	r7, sp, #0
 8001da2:	6078      	str	r0, [r7, #4]
	if(htim->Instance == htim1.Instance)
 8001da4:	687b      	ldr	r3, [r7, #4]
 8001da6:	681a      	ldr	r2, [r3, #0]
 8001da8:	4b2b      	ldr	r3, [pc, #172]	@ (8001e58 <HAL_TIM_PeriodElapsedCallback+0xbc>)
 8001daa:	681b      	ldr	r3, [r3, #0]
 8001dac:	429a      	cmp	r2, r3
 8001dae:	d14e      	bne.n	8001e4e <HAL_TIM_PeriodElapsedCallback+0xb2>
	{
		MPU6050_Read_All(&hi2c1, &MPU6050);
 8001db0:	492a      	ldr	r1, [pc, #168]	@ (8001e5c <HAL_TIM_PeriodElapsedCallback+0xc0>)
 8001db2:	482b      	ldr	r0, [pc, #172]	@ (8001e60 <HAL_TIM_PeriodElapsedCallback+0xc4>)
 8001db4:	f000 f9d4 	bl	8002160 <MPU6050_Read_All>
		Fuzzy_Process();
 8001db8:	f000 f85e 	bl	8001e78 <Fuzzy_Process>
//		if ((Parameters.theta <= THETA_OFFSET + 4 && Parameters.theta >= THETA_OFFSET - 2)
//			|| Parameters.theta < -THETA_OVER || Parameters.theta > THETA_OVER)
//		{
//			pwm_out(0);
//		}
		if (Parameters.theta < -THETA_OVER || Parameters.theta > THETA_OVER)
 8001dbc:	4b29      	ldr	r3, [pc, #164]	@ (8001e64 <HAL_TIM_PeriodElapsedCallback+0xc8>)
 8001dbe:	68db      	ldr	r3, [r3, #12]
 8001dc0:	4929      	ldr	r1, [pc, #164]	@ (8001e68 <HAL_TIM_PeriodElapsedCallback+0xcc>)
 8001dc2:	4618      	mov	r0, r3
 8001dc4:	f7ff f94c 	bl	8001060 <__aeabi_fcmplt>
 8001dc8:	4603      	mov	r3, r0
 8001dca:	2b00      	cmp	r3, #0
 8001dcc:	d108      	bne.n	8001de0 <HAL_TIM_PeriodElapsedCallback+0x44>
 8001dce:	4b25      	ldr	r3, [pc, #148]	@ (8001e64 <HAL_TIM_PeriodElapsedCallback+0xc8>)
 8001dd0:	68db      	ldr	r3, [r3, #12]
 8001dd2:	4926      	ldr	r1, [pc, #152]	@ (8001e6c <HAL_TIM_PeriodElapsedCallback+0xd0>)
 8001dd4:	4618      	mov	r0, r3
 8001dd6:	f7ff f961 	bl	800109c <__aeabi_fcmpgt>
 8001dda:	4603      	mov	r3, r0
 8001ddc:	2b00      	cmp	r3, #0
 8001dde:	d002      	beq.n	8001de6 <HAL_TIM_PeriodElapsedCallback+0x4a>
		{
			motor_stop();
 8001de0:	f000 f8ea 	bl	8001fb8 <motor_stop>
		else
		{
			motor_stop();
		}
	}
}
 8001de4:	e033      	b.n	8001e4e <HAL_TIM_PeriodElapsedCallback+0xb2>
		else if(Parameters.uk_fuzzy > 0)
 8001de6:	4b1f      	ldr	r3, [pc, #124]	@ (8001e64 <HAL_TIM_PeriodElapsedCallback+0xc8>)
 8001de8:	689b      	ldr	r3, [r3, #8]
 8001dea:	f04f 0100 	mov.w	r1, #0
 8001dee:	4618      	mov	r0, r3
 8001df0:	f7ff f954 	bl	800109c <__aeabi_fcmpgt>
 8001df4:	4603      	mov	r3, r0
 8001df6:	2b00      	cmp	r3, #0
 8001df8:	d00d      	beq.n	8001e16 <HAL_TIM_PeriodElapsedCallback+0x7a>
			motor_forward();
 8001dfa:	f000 f8a1 	bl	8001f40 <motor_forward>
			pwm_out(Parameters.uk_fuzzy);
 8001dfe:	4b19      	ldr	r3, [pc, #100]	@ (8001e64 <HAL_TIM_PeriodElapsedCallback+0xc8>)
 8001e00:	689b      	ldr	r3, [r3, #8]
 8001e02:	4618      	mov	r0, r3
 8001e04:	f000 f8fc 	bl	8002000 <pwm_out>
			forward = 1; //debug
 8001e08:	4b19      	ldr	r3, [pc, #100]	@ (8001e70 <HAL_TIM_PeriodElapsedCallback+0xd4>)
 8001e0a:	2201      	movs	r2, #1
 8001e0c:	701a      	strb	r2, [r3, #0]
			reverse = 0;
 8001e0e:	4b19      	ldr	r3, [pc, #100]	@ (8001e74 <HAL_TIM_PeriodElapsedCallback+0xd8>)
 8001e10:	2200      	movs	r2, #0
 8001e12:	701a      	strb	r2, [r3, #0]
}
 8001e14:	e01b      	b.n	8001e4e <HAL_TIM_PeriodElapsedCallback+0xb2>
		else if(Parameters.uk_fuzzy < 0)
 8001e16:	4b13      	ldr	r3, [pc, #76]	@ (8001e64 <HAL_TIM_PeriodElapsedCallback+0xc8>)
 8001e18:	689b      	ldr	r3, [r3, #8]
 8001e1a:	f04f 0100 	mov.w	r1, #0
 8001e1e:	4618      	mov	r0, r3
 8001e20:	f7ff f91e 	bl	8001060 <__aeabi_fcmplt>
 8001e24:	4603      	mov	r3, r0
 8001e26:	2b00      	cmp	r3, #0
 8001e28:	d00f      	beq.n	8001e4a <HAL_TIM_PeriodElapsedCallback+0xae>
			motor_reverse();
 8001e2a:	f000 f8a7 	bl	8001f7c <motor_reverse>
			pwm_out(-(Parameters.uk_fuzzy));
 8001e2e:	4b0d      	ldr	r3, [pc, #52]	@ (8001e64 <HAL_TIM_PeriodElapsedCallback+0xc8>)
 8001e30:	689b      	ldr	r3, [r3, #8]
 8001e32:	f083 4300 	eor.w	r3, r3, #2147483648	@ 0x80000000
 8001e36:	4618      	mov	r0, r3
 8001e38:	f000 f8e2 	bl	8002000 <pwm_out>
			forward = 0; //debug
 8001e3c:	4b0c      	ldr	r3, [pc, #48]	@ (8001e70 <HAL_TIM_PeriodElapsedCallback+0xd4>)
 8001e3e:	2200      	movs	r2, #0
 8001e40:	701a      	strb	r2, [r3, #0]
			reverse = 1;
 8001e42:	4b0c      	ldr	r3, [pc, #48]	@ (8001e74 <HAL_TIM_PeriodElapsedCallback+0xd8>)
 8001e44:	2201      	movs	r2, #1
 8001e46:	701a      	strb	r2, [r3, #0]
}
 8001e48:	e001      	b.n	8001e4e <HAL_TIM_PeriodElapsedCallback+0xb2>
			motor_stop();
 8001e4a:	f000 f8b5 	bl	8001fb8 <motor_stop>
}
 8001e4e:	bf00      	nop
 8001e50:	3708      	adds	r7, #8
 8001e52:	46bd      	mov	sp, r7
 8001e54:	bd80      	pop	{r7, pc}
 8001e56:	bf00      	nop
 8001e58:	20000194 	.word	0x20000194
 8001e5c:	200002b8 	.word	0x200002b8
 8001e60:	20000140 	.word	0x20000140
 8001e64:	20000310 	.word	0x20000310
 8001e68:	c2200000 	.word	0xc2200000
 8001e6c:	42200000 	.word	0x42200000
 8001e70:	20000324 	.word	0x20000324
 8001e74:	20000325 	.word	0x20000325

08001e78 <Fuzzy_Process>:

void Fuzzy_Process()
{
 8001e78:	b580      	push	{r7, lr}
 8001e7a:	af00      	add	r7, sp, #0
	Parameters.theta = MPU6050.KalmanAngleY + THETA_OFFSET;
 8001e7c:	4b28      	ldr	r3, [pc, #160]	@ (8001f20 <Fuzzy_Process+0xa8>)
 8001e7e:	e9d3 0114 	ldrd	r0, r1, [r3, #80]	@ 0x50
 8001e82:	f04f 0200 	mov.w	r2, #0
 8001e86:	4b27      	ldr	r3, [pc, #156]	@ (8001f24 <Fuzzy_Process+0xac>)
 8001e88:	f7fe f968 	bl	800015c <__adddf3>
 8001e8c:	4602      	mov	r2, r0
 8001e8e:	460b      	mov	r3, r1
 8001e90:	4610      	mov	r0, r2
 8001e92:	4619      	mov	r1, r3
 8001e94:	f7fe fde8 	bl	8000a68 <__aeabi_d2f>
 8001e98:	4603      	mov	r3, r0
 8001e9a:	4a23      	ldr	r2, [pc, #140]	@ (8001f28 <Fuzzy_Process+0xb0>)
 8001e9c:	60d3      	str	r3, [r2, #12]
	Parameters.theta_dot = MPU6050.Gy;
 8001e9e:	4b20      	ldr	r3, [pc, #128]	@ (8001f20 <Fuzzy_Process+0xa8>)
 8001ea0:	e9d3 230c 	ldrd	r2, r3, [r3, #48]	@ 0x30
 8001ea4:	4610      	mov	r0, r2
 8001ea6:	4619      	mov	r1, r3
 8001ea8:	f7fe fdde 	bl	8000a68 <__aeabi_d2f>
 8001eac:	4603      	mov	r3, r0
 8001eae:	4a1e      	ldr	r2, [pc, #120]	@ (8001f28 <Fuzzy_Process+0xb0>)
 8001eb0:	6113      	str	r3, [r2, #16]
	Parameters.input[0] = Parameters.theta * (1.0f/K_THETA);
 8001eb2:	4b1d      	ldr	r3, [pc, #116]	@ (8001f28 <Fuzzy_Process+0xb0>)
 8001eb4:	68db      	ldr	r3, [r3, #12]
 8001eb6:	491d      	ldr	r1, [pc, #116]	@ (8001f2c <Fuzzy_Process+0xb4>)
 8001eb8:	4618      	mov	r0, r3
 8001eba:	f7fe ff33 	bl	8000d24 <__aeabi_fmul>
 8001ebe:	4603      	mov	r3, r0
 8001ec0:	461a      	mov	r2, r3
 8001ec2:	4b19      	ldr	r3, [pc, #100]	@ (8001f28 <Fuzzy_Process+0xb0>)
 8001ec4:	601a      	str	r2, [r3, #0]
	Parameters.input[1] = Parameters.theta_dot * (1.0f/K_THETA_DOT);
 8001ec6:	4b18      	ldr	r3, [pc, #96]	@ (8001f28 <Fuzzy_Process+0xb0>)
 8001ec8:	691b      	ldr	r3, [r3, #16]
 8001eca:	4919      	ldr	r1, [pc, #100]	@ (8001f30 <Fuzzy_Process+0xb8>)
 8001ecc:	4618      	mov	r0, r3
 8001ece:	f7fe ff29 	bl	8000d24 <__aeabi_fmul>
 8001ed2:	4603      	mov	r3, r0
 8001ed4:	461a      	mov	r2, r3
 8001ed6:	4b14      	ldr	r3, [pc, #80]	@ (8001f28 <Fuzzy_Process+0xb0>)
 8001ed8:	605a      	str	r2, [r3, #4]
	limit_range(&(Parameters.input[0]));
 8001eda:	4813      	ldr	r0, [pc, #76]	@ (8001f28 <Fuzzy_Process+0xb0>)
 8001edc:	f7ff fcd6 	bl	800188c <limit_range>
	limit_range(&(Parameters.input[1]));
 8001ee0:	4814      	ldr	r0, [pc, #80]	@ (8001f34 <Fuzzy_Process+0xbc>)
 8001ee2:	f7ff fcd3 	bl	800188c <limit_range>
	Parameters.uk_fuzzy = (run_fuzzy(Parameters.input[0], Parameters.input[1])) * K_UK_FUZZY;
 8001ee6:	4b10      	ldr	r3, [pc, #64]	@ (8001f28 <Fuzzy_Process+0xb0>)
 8001ee8:	681b      	ldr	r3, [r3, #0]
 8001eea:	4a0f      	ldr	r2, [pc, #60]	@ (8001f28 <Fuzzy_Process+0xb0>)
 8001eec:	6852      	ldr	r2, [r2, #4]
 8001eee:	4611      	mov	r1, r2
 8001ef0:	4618      	mov	r0, r3
 8001ef2:	f7ff f9ff 	bl	80012f4 <run_fuzzy>
 8001ef6:	4603      	mov	r3, r0
 8001ef8:	490f      	ldr	r1, [pc, #60]	@ (8001f38 <Fuzzy_Process+0xc0>)
 8001efa:	4618      	mov	r0, r3
 8001efc:	f7fe ff12 	bl	8000d24 <__aeabi_fmul>
 8001f00:	4603      	mov	r3, r0
 8001f02:	461a      	mov	r2, r3
 8001f04:	4b08      	ldr	r3, [pc, #32]	@ (8001f28 <Fuzzy_Process+0xb0>)
 8001f06:	609a      	str	r2, [r3, #8]
	Parameters.uk_fuzzy *= (1.0f/3199); //convert uk (-3199->3199 to -100->100)
 8001f08:	4b07      	ldr	r3, [pc, #28]	@ (8001f28 <Fuzzy_Process+0xb0>)
 8001f0a:	689b      	ldr	r3, [r3, #8]
 8001f0c:	490b      	ldr	r1, [pc, #44]	@ (8001f3c <Fuzzy_Process+0xc4>)
 8001f0e:	4618      	mov	r0, r3
 8001f10:	f7fe ff08 	bl	8000d24 <__aeabi_fmul>
 8001f14:	4603      	mov	r3, r0
 8001f16:	461a      	mov	r2, r3
 8001f18:	4b03      	ldr	r3, [pc, #12]	@ (8001f28 <Fuzzy_Process+0xb0>)
 8001f1a:	609a      	str	r2, [r3, #8]
}
 8001f1c:	bf00      	nop
 8001f1e:	bd80      	pop	{r7, pc}
 8001f20:	200002b8 	.word	0x200002b8
 8001f24:	40040000 	.word	0x40040000
 8001f28:	20000310 	.word	0x20000310
 8001f2c:	3dcccccd 	.word	0x3dcccccd
 8001f30:	3c23d70a 	.word	0x3c23d70a
 8001f34:	20000314 	.word	0x20000314
 8001f38:	4547f000 	.word	0x4547f000
 8001f3c:	39a3e427 	.word	0x39a3e427

08001f40 <motor_forward>:

void motor_forward()
{
 8001f40:	b580      	push	{r7, lr}
 8001f42:	af00      	add	r7, sp, #0
	HAL_GPIO_WritePin(GPIOA, GPIO_PIN_6, 1); //IN1
 8001f44:	2201      	movs	r2, #1
 8001f46:	2140      	movs	r1, #64	@ 0x40
 8001f48:	480a      	ldr	r0, [pc, #40]	@ (8001f74 <motor_forward+0x34>)
 8001f4a:	f001 f91d 	bl	8003188 <HAL_GPIO_WritePin>
	HAL_GPIO_WritePin(GPIOA, GPIO_PIN_7, 0); //IN2
 8001f4e:	2200      	movs	r2, #0
 8001f50:	2180      	movs	r1, #128	@ 0x80
 8001f52:	4808      	ldr	r0, [pc, #32]	@ (8001f74 <motor_forward+0x34>)
 8001f54:	f001 f918 	bl	8003188 <HAL_GPIO_WritePin>
	HAL_GPIO_WritePin(GPIOB, GPIO_PIN_10, 1); //IN3
 8001f58:	2201      	movs	r2, #1
 8001f5a:	f44f 6180 	mov.w	r1, #1024	@ 0x400
 8001f5e:	4806      	ldr	r0, [pc, #24]	@ (8001f78 <motor_forward+0x38>)
 8001f60:	f001 f912 	bl	8003188 <HAL_GPIO_WritePin>
	HAL_GPIO_WritePin(GPIOB, GPIO_PIN_5, 0); //IN4
 8001f64:	2200      	movs	r2, #0
 8001f66:	2120      	movs	r1, #32
 8001f68:	4803      	ldr	r0, [pc, #12]	@ (8001f78 <motor_forward+0x38>)
 8001f6a:	f001 f90d 	bl	8003188 <HAL_GPIO_WritePin>
}
 8001f6e:	bf00      	nop
 8001f70:	bd80      	pop	{r7, pc}
 8001f72:	bf00      	nop
 8001f74:	40010800 	.word	0x40010800
 8001f78:	40010c00 	.word	0x40010c00

08001f7c <motor_reverse>:

void motor_reverse()
{
 8001f7c:	b580      	push	{r7, lr}
 8001f7e:	af00      	add	r7, sp, #0
	HAL_GPIO_WritePin(GPIOA, GPIO_PIN_6, 0); //IN1
 8001f80:	2200      	movs	r2, #0
 8001f82:	2140      	movs	r1, #64	@ 0x40
 8001f84:	480a      	ldr	r0, [pc, #40]	@ (8001fb0 <motor_reverse+0x34>)
 8001f86:	f001 f8ff 	bl	8003188 <HAL_GPIO_WritePin>
	HAL_GPIO_WritePin(GPIOA, GPIO_PIN_7, 1); //IN2
 8001f8a:	2201      	movs	r2, #1
 8001f8c:	2180      	movs	r1, #128	@ 0x80
 8001f8e:	4808      	ldr	r0, [pc, #32]	@ (8001fb0 <motor_reverse+0x34>)
 8001f90:	f001 f8fa 	bl	8003188 <HAL_GPIO_WritePin>
	HAL_GPIO_WritePin(GPIOB, GPIO_PIN_10, 0); //IN3
 8001f94:	2200      	movs	r2, #0
 8001f96:	f44f 6180 	mov.w	r1, #1024	@ 0x400
 8001f9a:	4806      	ldr	r0, [pc, #24]	@ (8001fb4 <motor_reverse+0x38>)
 8001f9c:	f001 f8f4 	bl	8003188 <HAL_GPIO_WritePin>
	HAL_GPIO_WritePin(GPIOB, GPIO_PIN_5, 1); //IN4
 8001fa0:	2201      	movs	r2, #1
 8001fa2:	2120      	movs	r1, #32
 8001fa4:	4803      	ldr	r0, [pc, #12]	@ (8001fb4 <motor_reverse+0x38>)
 8001fa6:	f001 f8ef 	bl	8003188 <HAL_GPIO_WritePin>
}
 8001faa:	bf00      	nop
 8001fac:	bd80      	pop	{r7, pc}
 8001fae:	bf00      	nop
 8001fb0:	40010800 	.word	0x40010800
 8001fb4:	40010c00 	.word	0x40010c00

08001fb8 <motor_stop>:

void motor_stop()
{
 8001fb8:	b580      	push	{r7, lr}
 8001fba:	af00      	add	r7, sp, #0
	HAL_GPIO_WritePin(GPIOA, GPIO_PIN_6, 0); //IN1
 8001fbc:	2200      	movs	r2, #0
 8001fbe:	2140      	movs	r1, #64	@ 0x40
 8001fc0:	480c      	ldr	r0, [pc, #48]	@ (8001ff4 <motor_stop+0x3c>)
 8001fc2:	f001 f8e1 	bl	8003188 <HAL_GPIO_WritePin>
	HAL_GPIO_WritePin(GPIOA, GPIO_PIN_7, 0); //IN2
 8001fc6:	2200      	movs	r2, #0
 8001fc8:	2180      	movs	r1, #128	@ 0x80
 8001fca:	480a      	ldr	r0, [pc, #40]	@ (8001ff4 <motor_stop+0x3c>)
 8001fcc:	f001 f8dc 	bl	8003188 <HAL_GPIO_WritePin>
	HAL_GPIO_WritePin(GPIOB, GPIO_PIN_10, 0); //IN3
 8001fd0:	2200      	movs	r2, #0
 8001fd2:	f44f 6180 	mov.w	r1, #1024	@ 0x400
 8001fd6:	4808      	ldr	r0, [pc, #32]	@ (8001ff8 <motor_stop+0x40>)
 8001fd8:	f001 f8d6 	bl	8003188 <HAL_GPIO_WritePin>
	HAL_GPIO_WritePin(GPIOB, GPIO_PIN_5, 0); //IN4
 8001fdc:	2200      	movs	r2, #0
 8001fde:	2120      	movs	r1, #32
 8001fe0:	4805      	ldr	r0, [pc, #20]	@ (8001ff8 <motor_stop+0x40>)
 8001fe2:	f001 f8d1 	bl	8003188 <HAL_GPIO_WritePin>
	pwm_out(0);
 8001fe6:	f04f 0000 	mov.w	r0, #0
 8001fea:	f000 f809 	bl	8002000 <pwm_out>
}
 8001fee:	bf00      	nop
 8001ff0:	bd80      	pop	{r7, pc}
 8001ff2:	bf00      	nop
 8001ff4:	40010800 	.word	0x40010800
 8001ff8:	40010c00 	.word	0x40010c00
 8001ffc:	00000000 	.word	0x00000000

08002000 <pwm_out>:

void pwm_out(float duty) //duty 0->1 (not 0->100), uk -1->1
{
 8002000:	b5b0      	push	{r4, r5, r7, lr}
 8002002:	b082      	sub	sp, #8
 8002004:	af00      	add	r7, sp, #0
 8002006:	6078      	str	r0, [r7, #4]
	if (duty > 1) duty = 1;
 8002008:	f04f 517e 	mov.w	r1, #1065353216	@ 0x3f800000
 800200c:	6878      	ldr	r0, [r7, #4]
 800200e:	f7ff f845 	bl	800109c <__aeabi_fcmpgt>
 8002012:	4603      	mov	r3, r0
 8002014:	2b00      	cmp	r3, #0
 8002016:	d002      	beq.n	800201e <pwm_out+0x1e>
 8002018:	f04f 537e 	mov.w	r3, #1065353216	@ 0x3f800000
 800201c:	607b      	str	r3, [r7, #4]
	htim3.Instance->CCR1 = (htim3.Instance->ARR) * (duty + 0.025); //hardware
 800201e:	4b1e      	ldr	r3, [pc, #120]	@ (8002098 <pwm_out+0x98>)
 8002020:	681b      	ldr	r3, [r3, #0]
 8002022:	6adb      	ldr	r3, [r3, #44]	@ 0x2c
 8002024:	4618      	mov	r0, r3
 8002026:	f7fe f9d5 	bl	80003d4 <__aeabi_ui2d>
 800202a:	4604      	mov	r4, r0
 800202c:	460d      	mov	r5, r1
 800202e:	6878      	ldr	r0, [r7, #4]
 8002030:	f7fe f9f2 	bl	8000418 <__aeabi_f2d>
 8002034:	a316      	add	r3, pc, #88	@ (adr r3, 8002090 <pwm_out+0x90>)
 8002036:	e9d3 2300 	ldrd	r2, r3, [r3]
 800203a:	f7fe f88f 	bl	800015c <__adddf3>
 800203e:	4602      	mov	r2, r0
 8002040:	460b      	mov	r3, r1
 8002042:	4620      	mov	r0, r4
 8002044:	4629      	mov	r1, r5
 8002046:	f7fe fa3f 	bl	80004c8 <__aeabi_dmul>
 800204a:	4602      	mov	r2, r0
 800204c:	460b      	mov	r3, r1
 800204e:	4912      	ldr	r1, [pc, #72]	@ (8002098 <pwm_out+0x98>)
 8002050:	680c      	ldr	r4, [r1, #0]
 8002052:	4610      	mov	r0, r2
 8002054:	4619      	mov	r1, r3
 8002056:	f7fe fce7 	bl	8000a28 <__aeabi_d2uiz>
 800205a:	4603      	mov	r3, r0
 800205c:	6363      	str	r3, [r4, #52]	@ 0x34
	htim4.Instance->CCR2 = (htim4.Instance->ARR) * (duty);
 800205e:	4b0f      	ldr	r3, [pc, #60]	@ (800209c <pwm_out+0x9c>)
 8002060:	681b      	ldr	r3, [r3, #0]
 8002062:	6adb      	ldr	r3, [r3, #44]	@ 0x2c
 8002064:	4618      	mov	r0, r3
 8002066:	f7fe fe05 	bl	8000c74 <__aeabi_ui2f>
 800206a:	4603      	mov	r3, r0
 800206c:	6879      	ldr	r1, [r7, #4]
 800206e:	4618      	mov	r0, r3
 8002070:	f7fe fe58 	bl	8000d24 <__aeabi_fmul>
 8002074:	4603      	mov	r3, r0
 8002076:	461a      	mov	r2, r3
 8002078:	4b08      	ldr	r3, [pc, #32]	@ (800209c <pwm_out+0x9c>)
 800207a:	681c      	ldr	r4, [r3, #0]
 800207c:	4610      	mov	r0, r2
 800207e:	f7ff f817 	bl	80010b0 <__aeabi_f2uiz>
 8002082:	4603      	mov	r3, r0
 8002084:	63a3      	str	r3, [r4, #56]	@ 0x38
}
 8002086:	bf00      	nop
 8002088:	3708      	adds	r7, #8
 800208a:	46bd      	mov	sp, r7
 800208c:	bdb0      	pop	{r4, r5, r7, pc}
 800208e:	bf00      	nop
 8002090:	9999999a 	.word	0x9999999a
 8002094:	3f999999 	.word	0x3f999999
 8002098:	200001dc 	.word	0x200001dc
 800209c:	20000224 	.word	0x20000224

080020a0 <Error_Handler>:
/**
  * @brief  This function is executed in case of error occurrence.
  * @retval None
  */
void Error_Handler(void)
{
 80020a0:	b480      	push	{r7}
 80020a2:	af00      	add	r7, sp, #0
  \details Disables IRQ interrupts by setting the I-bit in the CPSR.
           Can only be executed in Privileged modes.
 */
__STATIC_FORCEINLINE void __disable_irq(void)
{
  __ASM volatile ("cpsid i" : : : "memory");
 80020a4:	b672      	cpsid	i
}
 80020a6:	bf00      	nop
  /* USER CODE BEGIN Error_Handler_Debug */
  /* User can add his own implementation to report the HAL error return state */
  __disable_irq();
  while (1)
 80020a8:	bf00      	nop
 80020aa:	e7fd      	b.n	80020a8 <Error_Handler+0x8>

080020ac <MPU6050_Init>:
    .Q_bias = 0.003f,
    .R_measure = 0.03f,
};

uint8_t MPU6050_Init(I2C_HandleTypeDef *I2Cx)
{
 80020ac:	b580      	push	{r7, lr}
 80020ae:	b088      	sub	sp, #32
 80020b0:	af04      	add	r7, sp, #16
 80020b2:	6078      	str	r0, [r7, #4]
    uint8_t check;
    uint8_t Data;

    // check device ID WHO_AM_I

    HAL_I2C_Mem_Read(I2Cx, MPU6050_ADDR, WHO_AM_I_REG, 1, &check, 1, i2c_timeout);
 80020b4:	2364      	movs	r3, #100	@ 0x64
 80020b6:	9302      	str	r3, [sp, #8]
 80020b8:	2301      	movs	r3, #1
 80020ba:	9301      	str	r3, [sp, #4]
 80020bc:	f107 030f 	add.w	r3, r7, #15
 80020c0:	9300      	str	r3, [sp, #0]
 80020c2:	2301      	movs	r3, #1
 80020c4:	2275      	movs	r2, #117	@ 0x75
 80020c6:	21d0      	movs	r1, #208	@ 0xd0
 80020c8:	6878      	ldr	r0, [r7, #4]
 80020ca:	f001 fab3 	bl	8003634 <HAL_I2C_Mem_Read>

    if (check == 104) // 0x68 will be returned by the sensor if everything goes well
 80020ce:	7bfb      	ldrb	r3, [r7, #15]
 80020d0:	2b68      	cmp	r3, #104	@ 0x68
 80020d2:	d13d      	bne.n	8002150 <MPU6050_Init+0xa4>
    {
        // power management register 0X6B we should write all 0's to wake the sensor up
        Data = 0;
 80020d4:	2300      	movs	r3, #0
 80020d6:	73bb      	strb	r3, [r7, #14]
        HAL_I2C_Mem_Write(I2Cx, MPU6050_ADDR, PWR_MGMT_1_REG, 1, &Data, 1, i2c_timeout);
 80020d8:	2364      	movs	r3, #100	@ 0x64
 80020da:	9302      	str	r3, [sp, #8]
 80020dc:	2301      	movs	r3, #1
 80020de:	9301      	str	r3, [sp, #4]
 80020e0:	f107 030e 	add.w	r3, r7, #14
 80020e4:	9300      	str	r3, [sp, #0]
 80020e6:	2301      	movs	r3, #1
 80020e8:	226b      	movs	r2, #107	@ 0x6b
 80020ea:	21d0      	movs	r1, #208	@ 0xd0
 80020ec:	6878      	ldr	r0, [r7, #4]
 80020ee:	f001 f9a7 	bl	8003440 <HAL_I2C_Mem_Write>

        // Set DATA RATE of 1KHz by writing SMPLRT_DIV register
        Data = 0x07;
 80020f2:	2307      	movs	r3, #7
 80020f4:	73bb      	strb	r3, [r7, #14]
        HAL_I2C_Mem_Write(I2Cx, MPU6050_ADDR, SMPLRT_DIV_REG, 1, &Data, 1, i2c_timeout);
 80020f6:	2364      	movs	r3, #100	@ 0x64
 80020f8:	9302      	str	r3, [sp, #8]
 80020fa:	2301      	movs	r3, #1
 80020fc:	9301      	str	r3, [sp, #4]
 80020fe:	f107 030e 	add.w	r3, r7, #14
 8002102:	9300      	str	r3, [sp, #0]
 8002104:	2301      	movs	r3, #1
 8002106:	2219      	movs	r2, #25
 8002108:	21d0      	movs	r1, #208	@ 0xd0
 800210a:	6878      	ldr	r0, [r7, #4]
 800210c:	f001 f998 	bl	8003440 <HAL_I2C_Mem_Write>

        // Set accelerometer configuration in ACCEL_CONFIG Register
        // XA_ST=0,YA_ST=0,ZA_ST=0, FS_SEL=0 ->  2g
        Data = 0x00;
 8002110:	2300      	movs	r3, #0
 8002112:	73bb      	strb	r3, [r7, #14]
        HAL_I2C_Mem_Write(I2Cx, MPU6050_ADDR, ACCEL_CONFIG_REG, 1, &Data, 1, i2c_timeout);
 8002114:	2364      	movs	r3, #100	@ 0x64
 8002116:	9302      	str	r3, [sp, #8]
 8002118:	2301      	movs	r3, #1
 800211a:	9301      	str	r3, [sp, #4]
 800211c:	f107 030e 	add.w	r3, r7, #14
 8002120:	9300      	str	r3, [sp, #0]
 8002122:	2301      	movs	r3, #1
 8002124:	221c      	movs	r2, #28
 8002126:	21d0      	movs	r1, #208	@ 0xd0
 8002128:	6878      	ldr	r0, [r7, #4]
 800212a:	f001 f989 	bl	8003440 <HAL_I2C_Mem_Write>

        // Set Gyroscopic configuration in GYRO_CONFIG Register
        // XG_ST=0,YG_ST=0,ZG_ST=0, FS_SEL=0 ->  250 /s
        Data = 0x00;
 800212e:	2300      	movs	r3, #0
 8002130:	73bb      	strb	r3, [r7, #14]
        HAL_I2C_Mem_Write(I2Cx, MPU6050_ADDR, GYRO_CONFIG_REG, 1, &Data, 1, i2c_timeout);
 8002132:	2364      	movs	r3, #100	@ 0x64
 8002134:	9302      	str	r3, [sp, #8]
 8002136:	2301      	movs	r3, #1
 8002138:	9301      	str	r3, [sp, #4]
 800213a:	f107 030e 	add.w	r3, r7, #14
 800213e:	9300      	str	r3, [sp, #0]
 8002140:	2301      	movs	r3, #1
 8002142:	221b      	movs	r2, #27
 8002144:	21d0      	movs	r1, #208	@ 0xd0
 8002146:	6878      	ldr	r0, [r7, #4]
 8002148:	f001 f97a 	bl	8003440 <HAL_I2C_Mem_Write>
        return 0;
 800214c:	2300      	movs	r3, #0
 800214e:	e000      	b.n	8002152 <MPU6050_Init+0xa6>
    }
    return 1;
 8002150:	2301      	movs	r3, #1
}
 8002152:	4618      	mov	r0, r3
 8002154:	3710      	adds	r7, #16
 8002156:	46bd      	mov	sp, r7
 8002158:	bd80      	pop	{r7, pc}
 800215a:	0000      	movs	r0, r0
 800215c:	0000      	movs	r0, r0
	...

08002160 <MPU6050_Read_All>:
    temp = (int16_t)(Rec_Data[0] << 8 | Rec_Data[1]);
    DataStruct->Temperature = (float)((int16_t)temp / (float)340.0 + (float)36.53);
}

void MPU6050_Read_All(I2C_HandleTypeDef *I2Cx, MPU6050_t *DataStruct)
{
 8002160:	e92d 4fb0 	stmdb	sp!, {r4, r5, r7, r8, r9, sl, fp, lr}
 8002164:	b094      	sub	sp, #80	@ 0x50
 8002166:	af04      	add	r7, sp, #16
 8002168:	6078      	str	r0, [r7, #4]
 800216a:	6039      	str	r1, [r7, #0]
    uint8_t Rec_Data[14];
    int16_t temp;

    // Read 14 BYTES of data starting from ACCEL_XOUT_H register

    HAL_I2C_Mem_Read(I2Cx, MPU6050_ADDR, ACCEL_XOUT_H_REG, 1, Rec_Data, 14, i2c_timeout);
 800216c:	2364      	movs	r3, #100	@ 0x64
 800216e:	9302      	str	r3, [sp, #8]
 8002170:	230e      	movs	r3, #14
 8002172:	9301      	str	r3, [sp, #4]
 8002174:	f107 0308 	add.w	r3, r7, #8
 8002178:	9300      	str	r3, [sp, #0]
 800217a:	2301      	movs	r3, #1
 800217c:	223b      	movs	r2, #59	@ 0x3b
 800217e:	21d0      	movs	r1, #208	@ 0xd0
 8002180:	6878      	ldr	r0, [r7, #4]
 8002182:	f001 fa57 	bl	8003634 <HAL_I2C_Mem_Read>

    DataStruct->Accel_X_RAW = (int16_t)(Rec_Data[0] << 8 | Rec_Data[1]);
 8002186:	7a3b      	ldrb	r3, [r7, #8]
 8002188:	021b      	lsls	r3, r3, #8
 800218a:	b21a      	sxth	r2, r3
 800218c:	7a7b      	ldrb	r3, [r7, #9]
 800218e:	b21b      	sxth	r3, r3
 8002190:	4313      	orrs	r3, r2
 8002192:	b21a      	sxth	r2, r3
 8002194:	683b      	ldr	r3, [r7, #0]
 8002196:	801a      	strh	r2, [r3, #0]
    DataStruct->Accel_Y_RAW = (int16_t)(Rec_Data[2] << 8 | Rec_Data[3]);
 8002198:	7abb      	ldrb	r3, [r7, #10]
 800219a:	021b      	lsls	r3, r3, #8
 800219c:	b21a      	sxth	r2, r3
 800219e:	7afb      	ldrb	r3, [r7, #11]
 80021a0:	b21b      	sxth	r3, r3
 80021a2:	4313      	orrs	r3, r2
 80021a4:	b21a      	sxth	r2, r3
 80021a6:	683b      	ldr	r3, [r7, #0]
 80021a8:	805a      	strh	r2, [r3, #2]
    DataStruct->Accel_Z_RAW = (int16_t)(Rec_Data[4] << 8 | Rec_Data[5]);
 80021aa:	7b3b      	ldrb	r3, [r7, #12]
 80021ac:	021b      	lsls	r3, r3, #8
 80021ae:	b21a      	sxth	r2, r3
 80021b0:	7b7b      	ldrb	r3, [r7, #13]
 80021b2:	b21b      	sxth	r3, r3
 80021b4:	4313      	orrs	r3, r2
 80021b6:	b21a      	sxth	r2, r3
 80021b8:	683b      	ldr	r3, [r7, #0]
 80021ba:	809a      	strh	r2, [r3, #4]
    temp = (int16_t)(Rec_Data[6] << 8 | Rec_Data[7]);
 80021bc:	7bbb      	ldrb	r3, [r7, #14]
 80021be:	021b      	lsls	r3, r3, #8
 80021c0:	b21a      	sxth	r2, r3
 80021c2:	7bfb      	ldrb	r3, [r7, #15]
 80021c4:	b21b      	sxth	r3, r3
 80021c6:	4313      	orrs	r3, r2
 80021c8:	86fb      	strh	r3, [r7, #54]	@ 0x36
    DataStruct->Gyro_X_RAW = (int16_t)(Rec_Data[8] << 8 | Rec_Data[9]);
 80021ca:	7c3b      	ldrb	r3, [r7, #16]
 80021cc:	021b      	lsls	r3, r3, #8
 80021ce:	b21a      	sxth	r2, r3
 80021d0:	7c7b      	ldrb	r3, [r7, #17]
 80021d2:	b21b      	sxth	r3, r3
 80021d4:	4313      	orrs	r3, r2
 80021d6:	b21a      	sxth	r2, r3
 80021d8:	683b      	ldr	r3, [r7, #0]
 80021da:	841a      	strh	r2, [r3, #32]
    DataStruct->Gyro_Y_RAW = (int16_t)(Rec_Data[10] << 8 | Rec_Data[11]);
 80021dc:	7cbb      	ldrb	r3, [r7, #18]
 80021de:	021b      	lsls	r3, r3, #8
 80021e0:	b21a      	sxth	r2, r3
 80021e2:	7cfb      	ldrb	r3, [r7, #19]
 80021e4:	b21b      	sxth	r3, r3
 80021e6:	4313      	orrs	r3, r2
 80021e8:	b21a      	sxth	r2, r3
 80021ea:	683b      	ldr	r3, [r7, #0]
 80021ec:	845a      	strh	r2, [r3, #34]	@ 0x22
    DataStruct->Gyro_Z_RAW = (int16_t)(Rec_Data[12] << 8 | Rec_Data[13]);
 80021ee:	7d3b      	ldrb	r3, [r7, #20]
 80021f0:	021b      	lsls	r3, r3, #8
 80021f2:	b21a      	sxth	r2, r3
 80021f4:	7d7b      	ldrb	r3, [r7, #21]
 80021f6:	b21b      	sxth	r3, r3
 80021f8:	4313      	orrs	r3, r2
 80021fa:	b21a      	sxth	r2, r3
 80021fc:	683b      	ldr	r3, [r7, #0]
 80021fe:	849a      	strh	r2, [r3, #36]	@ 0x24

    DataStruct->Ax = DataStruct->Accel_X_RAW / 16384.0;
 8002200:	683b      	ldr	r3, [r7, #0]
 8002202:	f9b3 3000 	ldrsh.w	r3, [r3]
 8002206:	4618      	mov	r0, r3
 8002208:	f7fe f8f4 	bl	80003f4 <__aeabi_i2d>
 800220c:	f04f 0200 	mov.w	r2, #0
 8002210:	4b95      	ldr	r3, [pc, #596]	@ (8002468 <MPU6050_Read_All+0x308>)
 8002212:	f7fe fa83 	bl	800071c <__aeabi_ddiv>
 8002216:	4602      	mov	r2, r0
 8002218:	460b      	mov	r3, r1
 800221a:	6839      	ldr	r1, [r7, #0]
 800221c:	e9c1 2302 	strd	r2, r3, [r1, #8]
    DataStruct->Ay = DataStruct->Accel_Y_RAW / 16384.0;
 8002220:	683b      	ldr	r3, [r7, #0]
 8002222:	f9b3 3002 	ldrsh.w	r3, [r3, #2]
 8002226:	4618      	mov	r0, r3
 8002228:	f7fe f8e4 	bl	80003f4 <__aeabi_i2d>
 800222c:	f04f 0200 	mov.w	r2, #0
 8002230:	4b8d      	ldr	r3, [pc, #564]	@ (8002468 <MPU6050_Read_All+0x308>)
 8002232:	f7fe fa73 	bl	800071c <__aeabi_ddiv>
 8002236:	4602      	mov	r2, r0
 8002238:	460b      	mov	r3, r1
 800223a:	6839      	ldr	r1, [r7, #0]
 800223c:	e9c1 2304 	strd	r2, r3, [r1, #16]
    DataStruct->Az = DataStruct->Accel_Z_RAW / Accel_Z_corrector;
 8002240:	683b      	ldr	r3, [r7, #0]
 8002242:	f9b3 3004 	ldrsh.w	r3, [r3, #4]
 8002246:	4618      	mov	r0, r3
 8002248:	f7fe f8d4 	bl	80003f4 <__aeabi_i2d>
 800224c:	a380      	add	r3, pc, #512	@ (adr r3, 8002450 <MPU6050_Read_All+0x2f0>)
 800224e:	e9d3 2300 	ldrd	r2, r3, [r3]
 8002252:	f7fe fa63 	bl	800071c <__aeabi_ddiv>
 8002256:	4602      	mov	r2, r0
 8002258:	460b      	mov	r3, r1
 800225a:	6839      	ldr	r1, [r7, #0]
 800225c:	e9c1 2306 	strd	r2, r3, [r1, #24]
    DataStruct->Temperature = (float)((int16_t)temp / (float)340.0 + (float)36.53);
 8002260:	f9b7 3036 	ldrsh.w	r3, [r7, #54]	@ 0x36
 8002264:	4618      	mov	r0, r3
 8002266:	f7fe fd09 	bl	8000c7c <__aeabi_i2f>
 800226a:	4603      	mov	r3, r0
 800226c:	497f      	ldr	r1, [pc, #508]	@ (800246c <MPU6050_Read_All+0x30c>)
 800226e:	4618      	mov	r0, r3
 8002270:	f7fe fe0c 	bl	8000e8c <__aeabi_fdiv>
 8002274:	4603      	mov	r3, r0
 8002276:	497e      	ldr	r1, [pc, #504]	@ (8002470 <MPU6050_Read_All+0x310>)
 8002278:	4618      	mov	r0, r3
 800227a:	f7fe fc4b 	bl	8000b14 <__addsf3>
 800227e:	4603      	mov	r3, r0
 8002280:	461a      	mov	r2, r3
 8002282:	683b      	ldr	r3, [r7, #0]
 8002284:	641a      	str	r2, [r3, #64]	@ 0x40
    DataStruct->Gx = DataStruct->Gyro_X_RAW / 131.0;
 8002286:	683b      	ldr	r3, [r7, #0]
 8002288:	f9b3 3020 	ldrsh.w	r3, [r3, #32]
 800228c:	4618      	mov	r0, r3
 800228e:	f7fe f8b1 	bl	80003f4 <__aeabi_i2d>
 8002292:	a371      	add	r3, pc, #452	@ (adr r3, 8002458 <MPU6050_Read_All+0x2f8>)
 8002294:	e9d3 2300 	ldrd	r2, r3, [r3]
 8002298:	f7fe fa40 	bl	800071c <__aeabi_ddiv>
 800229c:	4602      	mov	r2, r0
 800229e:	460b      	mov	r3, r1
 80022a0:	6839      	ldr	r1, [r7, #0]
 80022a2:	e9c1 230a 	strd	r2, r3, [r1, #40]	@ 0x28
    DataStruct->Gy = DataStruct->Gyro_Y_RAW / 131.0;
 80022a6:	683b      	ldr	r3, [r7, #0]
 80022a8:	f9b3 3022 	ldrsh.w	r3, [r3, #34]	@ 0x22
 80022ac:	4618      	mov	r0, r3
 80022ae:	f7fe f8a1 	bl	80003f4 <__aeabi_i2d>
 80022b2:	a369      	add	r3, pc, #420	@ (adr r3, 8002458 <MPU6050_Read_All+0x2f8>)
 80022b4:	e9d3 2300 	ldrd	r2, r3, [r3]
 80022b8:	f7fe fa30 	bl	800071c <__aeabi_ddiv>
 80022bc:	4602      	mov	r2, r0
 80022be:	460b      	mov	r3, r1
 80022c0:	6839      	ldr	r1, [r7, #0]
 80022c2:	e9c1 230c 	strd	r2, r3, [r1, #48]	@ 0x30
    DataStruct->Gz = DataStruct->Gyro_Z_RAW / 131.0;
 80022c6:	683b      	ldr	r3, [r7, #0]
 80022c8:	f9b3 3024 	ldrsh.w	r3, [r3, #36]	@ 0x24
 80022cc:	4618      	mov	r0, r3
 80022ce:	f7fe f891 	bl	80003f4 <__aeabi_i2d>
 80022d2:	a361      	add	r3, pc, #388	@ (adr r3, 8002458 <MPU6050_Read_All+0x2f8>)
 80022d4:	e9d3 2300 	ldrd	r2, r3, [r3]
 80022d8:	f7fe fa20 	bl	800071c <__aeabi_ddiv>
 80022dc:	4602      	mov	r2, r0
 80022de:	460b      	mov	r3, r1
 80022e0:	6839      	ldr	r1, [r7, #0]
 80022e2:	e9c1 230e 	strd	r2, r3, [r1, #56]	@ 0x38

    // Kalman angle solve
    double dt = (double)(HAL_GetTick() - timer) / 1000;
 80022e6:	f000 fcb3 	bl	8002c50 <HAL_GetTick>
 80022ea:	4602      	mov	r2, r0
 80022ec:	4b61      	ldr	r3, [pc, #388]	@ (8002474 <MPU6050_Read_All+0x314>)
 80022ee:	681b      	ldr	r3, [r3, #0]
 80022f0:	1ad3      	subs	r3, r2, r3
 80022f2:	4618      	mov	r0, r3
 80022f4:	f7fe f86e 	bl	80003d4 <__aeabi_ui2d>
 80022f8:	f04f 0200 	mov.w	r2, #0
 80022fc:	4b5e      	ldr	r3, [pc, #376]	@ (8002478 <MPU6050_Read_All+0x318>)
 80022fe:	f7fe fa0d 	bl	800071c <__aeabi_ddiv>
 8002302:	4602      	mov	r2, r0
 8002304:	460b      	mov	r3, r1
 8002306:	e9c7 230a 	strd	r2, r3, [r7, #40]	@ 0x28
    timer = HAL_GetTick();
 800230a:	f000 fca1 	bl	8002c50 <HAL_GetTick>
 800230e:	4603      	mov	r3, r0
 8002310:	4a58      	ldr	r2, [pc, #352]	@ (8002474 <MPU6050_Read_All+0x314>)
 8002312:	6013      	str	r3, [r2, #0]
    double roll;
    double roll_sqrt = sqrt(
        DataStruct->Accel_X_RAW * DataStruct->Accel_X_RAW + DataStruct->Accel_Z_RAW * DataStruct->Accel_Z_RAW);
 8002314:	683b      	ldr	r3, [r7, #0]
 8002316:	f9b3 3000 	ldrsh.w	r3, [r3]
 800231a:	461a      	mov	r2, r3
 800231c:	683b      	ldr	r3, [r7, #0]
 800231e:	f9b3 3000 	ldrsh.w	r3, [r3]
 8002322:	fb03 f202 	mul.w	r2, r3, r2
 8002326:	683b      	ldr	r3, [r7, #0]
 8002328:	f9b3 3004 	ldrsh.w	r3, [r3, #4]
 800232c:	4619      	mov	r1, r3
 800232e:	683b      	ldr	r3, [r7, #0]
 8002330:	f9b3 3004 	ldrsh.w	r3, [r3, #4]
 8002334:	fb01 f303 	mul.w	r3, r1, r3
 8002338:	4413      	add	r3, r2
    double roll_sqrt = sqrt(
 800233a:	4618      	mov	r0, r3
 800233c:	f7fe f85a 	bl	80003f4 <__aeabi_i2d>
 8002340:	4602      	mov	r2, r0
 8002342:	460b      	mov	r3, r1
 8002344:	4610      	mov	r0, r2
 8002346:	4619      	mov	r1, r3
 8002348:	f003 fc10 	bl	8005b6c <sqrt>
 800234c:	e9c7 0108 	strd	r0, r1, [r7, #32]
    if (roll_sqrt != 0.0)
 8002350:	f04f 0200 	mov.w	r2, #0
 8002354:	f04f 0300 	mov.w	r3, #0
 8002358:	e9d7 0108 	ldrd	r0, r1, [r7, #32]
 800235c:	f7fe fb1c 	bl	8000998 <__aeabi_dcmpeq>
 8002360:	4603      	mov	r3, r0
 8002362:	2b00      	cmp	r3, #0
 8002364:	d119      	bne.n	800239a <MPU6050_Read_All+0x23a>
    {
        roll = atan(DataStruct->Accel_Y_RAW / roll_sqrt) * RAD_TO_DEG;
 8002366:	683b      	ldr	r3, [r7, #0]
 8002368:	f9b3 3002 	ldrsh.w	r3, [r3, #2]
 800236c:	4618      	mov	r0, r3
 800236e:	f7fe f841 	bl	80003f4 <__aeabi_i2d>
 8002372:	e9d7 2308 	ldrd	r2, r3, [r7, #32]
 8002376:	f7fe f9d1 	bl	800071c <__aeabi_ddiv>
 800237a:	4602      	mov	r2, r0
 800237c:	460b      	mov	r3, r1
 800237e:	4610      	mov	r0, r2
 8002380:	4619      	mov	r1, r3
 8002382:	f003 fc19 	bl	8005bb8 <atan>
 8002386:	a336      	add	r3, pc, #216	@ (adr r3, 8002460 <MPU6050_Read_All+0x300>)
 8002388:	e9d3 2300 	ldrd	r2, r3, [r3]
 800238c:	f7fe f89c 	bl	80004c8 <__aeabi_dmul>
 8002390:	4602      	mov	r2, r0
 8002392:	460b      	mov	r3, r1
 8002394:	e9c7 230e 	strd	r2, r3, [r7, #56]	@ 0x38
 8002398:	e005      	b.n	80023a6 <MPU6050_Read_All+0x246>
    }
    else
    {
        roll = 0.0;
 800239a:	f04f 0200 	mov.w	r2, #0
 800239e:	f04f 0300 	mov.w	r3, #0
 80023a2:	e9c7 230e 	strd	r2, r3, [r7, #56]	@ 0x38
    }
    double pitch = atan2(-DataStruct->Accel_X_RAW, DataStruct->Accel_Z_RAW) * RAD_TO_DEG;
 80023a6:	683b      	ldr	r3, [r7, #0]
 80023a8:	f9b3 3000 	ldrsh.w	r3, [r3]
 80023ac:	425b      	negs	r3, r3
 80023ae:	4618      	mov	r0, r3
 80023b0:	f7fe f820 	bl	80003f4 <__aeabi_i2d>
 80023b4:	4682      	mov	sl, r0
 80023b6:	468b      	mov	fp, r1
 80023b8:	683b      	ldr	r3, [r7, #0]
 80023ba:	f9b3 3004 	ldrsh.w	r3, [r3, #4]
 80023be:	4618      	mov	r0, r3
 80023c0:	f7fe f818 	bl	80003f4 <__aeabi_i2d>
 80023c4:	4602      	mov	r2, r0
 80023c6:	460b      	mov	r3, r1
 80023c8:	4650      	mov	r0, sl
 80023ca:	4659      	mov	r1, fp
 80023cc:	f003 fbcc 	bl	8005b68 <atan2>
 80023d0:	a323      	add	r3, pc, #140	@ (adr r3, 8002460 <MPU6050_Read_All+0x300>)
 80023d2:	e9d3 2300 	ldrd	r2, r3, [r3]
 80023d6:	f7fe f877 	bl	80004c8 <__aeabi_dmul>
 80023da:	4602      	mov	r2, r0
 80023dc:	460b      	mov	r3, r1
 80023de:	e9c7 2306 	strd	r2, r3, [r7, #24]
    if ((pitch < -90 && DataStruct->KalmanAngleY > 90) || (pitch > 90 && DataStruct->KalmanAngleY < -90))
 80023e2:	f04f 0200 	mov.w	r2, #0
 80023e6:	4b25      	ldr	r3, [pc, #148]	@ (800247c <MPU6050_Read_All+0x31c>)
 80023e8:	e9d7 0106 	ldrd	r0, r1, [r7, #24]
 80023ec:	f7fe fade 	bl	80009ac <__aeabi_dcmplt>
 80023f0:	4603      	mov	r3, r0
 80023f2:	2b00      	cmp	r3, #0
 80023f4:	d00a      	beq.n	800240c <MPU6050_Read_All+0x2ac>
 80023f6:	683b      	ldr	r3, [r7, #0]
 80023f8:	e9d3 0114 	ldrd	r0, r1, [r3, #80]	@ 0x50
 80023fc:	f04f 0200 	mov.w	r2, #0
 8002400:	4b1f      	ldr	r3, [pc, #124]	@ (8002480 <MPU6050_Read_All+0x320>)
 8002402:	f7fe faf1 	bl	80009e8 <__aeabi_dcmpgt>
 8002406:	4603      	mov	r3, r0
 8002408:	2b00      	cmp	r3, #0
 800240a:	d114      	bne.n	8002436 <MPU6050_Read_All+0x2d6>
 800240c:	f04f 0200 	mov.w	r2, #0
 8002410:	4b1b      	ldr	r3, [pc, #108]	@ (8002480 <MPU6050_Read_All+0x320>)
 8002412:	e9d7 0106 	ldrd	r0, r1, [r7, #24]
 8002416:	f7fe fae7 	bl	80009e8 <__aeabi_dcmpgt>
 800241a:	4603      	mov	r3, r0
 800241c:	2b00      	cmp	r3, #0
 800241e:	d033      	beq.n	8002488 <MPU6050_Read_All+0x328>
 8002420:	683b      	ldr	r3, [r7, #0]
 8002422:	e9d3 0114 	ldrd	r0, r1, [r3, #80]	@ 0x50
 8002426:	f04f 0200 	mov.w	r2, #0
 800242a:	4b14      	ldr	r3, [pc, #80]	@ (800247c <MPU6050_Read_All+0x31c>)
 800242c:	f7fe fabe 	bl	80009ac <__aeabi_dcmplt>
 8002430:	4603      	mov	r3, r0
 8002432:	2b00      	cmp	r3, #0
 8002434:	d028      	beq.n	8002488 <MPU6050_Read_All+0x328>
    {
        KalmanY.angle = pitch;
 8002436:	4913      	ldr	r1, [pc, #76]	@ (8002484 <MPU6050_Read_All+0x324>)
 8002438:	e9d7 2306 	ldrd	r2, r3, [r7, #24]
 800243c:	e9c1 2306 	strd	r2, r3, [r1, #24]
        DataStruct->KalmanAngleY = pitch;
 8002440:	6839      	ldr	r1, [r7, #0]
 8002442:	e9d7 2306 	ldrd	r2, r3, [r7, #24]
 8002446:	e9c1 2314 	strd	r2, r3, [r1, #80]	@ 0x50
 800244a:	e030      	b.n	80024ae <MPU6050_Read_All+0x34e>
 800244c:	f3af 8000 	nop.w
 8002450:	00000000 	.word	0x00000000
 8002454:	40cc2900 	.word	0x40cc2900
 8002458:	00000000 	.word	0x00000000
 800245c:	40606000 	.word	0x40606000
 8002460:	1a63c1f8 	.word	0x1a63c1f8
 8002464:	404ca5dc 	.word	0x404ca5dc
 8002468:	40d00000 	.word	0x40d00000
 800246c:	43aa0000 	.word	0x43aa0000
 8002470:	42121eb8 	.word	0x42121eb8
 8002474:	20000328 	.word	0x20000328
 8002478:	408f4000 	.word	0x408f4000
 800247c:	c0568000 	.word	0xc0568000
 8002480:	40568000 	.word	0x40568000
 8002484:	20000048 	.word	0x20000048
    }
    else
    {
        DataStruct->KalmanAngleY = Kalman_getAngle(&KalmanY, pitch, DataStruct->Gy, dt);
 8002488:	683b      	ldr	r3, [r7, #0]
 800248a:	e9d3 230c 	ldrd	r2, r3, [r3, #48]	@ 0x30
 800248e:	e9d7 010a 	ldrd	r0, r1, [r7, #40]	@ 0x28
 8002492:	e9cd 0102 	strd	r0, r1, [sp, #8]
 8002496:	e9cd 2300 	strd	r2, r3, [sp]
 800249a:	e9d7 2306 	ldrd	r2, r3, [r7, #24]
 800249e:	481c      	ldr	r0, [pc, #112]	@ (8002510 <MPU6050_Read_All+0x3b0>)
 80024a0:	f000 f83c 	bl	800251c <Kalman_getAngle>
 80024a4:	4602      	mov	r2, r0
 80024a6:	460b      	mov	r3, r1
 80024a8:	6839      	ldr	r1, [r7, #0]
 80024aa:	e9c1 2314 	strd	r2, r3, [r1, #80]	@ 0x50
    }
    if (fabs(DataStruct->KalmanAngleY) > 90)
 80024ae:	683b      	ldr	r3, [r7, #0]
 80024b0:	e9d3 2314 	ldrd	r2, r3, [r3, #80]	@ 0x50
 80024b4:	4690      	mov	r8, r2
 80024b6:	f023 4900 	bic.w	r9, r3, #2147483648	@ 0x80000000
 80024ba:	f04f 0200 	mov.w	r2, #0
 80024be:	4b15      	ldr	r3, [pc, #84]	@ (8002514 <MPU6050_Read_All+0x3b4>)
 80024c0:	4640      	mov	r0, r8
 80024c2:	4649      	mov	r1, r9
 80024c4:	f7fe fa90 	bl	80009e8 <__aeabi_dcmpgt>
 80024c8:	4603      	mov	r3, r0
 80024ca:	2b00      	cmp	r3, #0
 80024cc:	d008      	beq.n	80024e0 <MPU6050_Read_All+0x380>
        DataStruct->Gx = -DataStruct->Gx;
 80024ce:	683b      	ldr	r3, [r7, #0]
 80024d0:	e9d3 230a 	ldrd	r2, r3, [r3, #40]	@ 0x28
 80024d4:	4614      	mov	r4, r2
 80024d6:	f083 4500 	eor.w	r5, r3, #2147483648	@ 0x80000000
 80024da:	683b      	ldr	r3, [r7, #0]
 80024dc:	e9c3 450a 	strd	r4, r5, [r3, #40]	@ 0x28
    DataStruct->KalmanAngleX = Kalman_getAngle(&KalmanX, roll, DataStruct->Gx, dt);
 80024e0:	683b      	ldr	r3, [r7, #0]
 80024e2:	e9d3 230a 	ldrd	r2, r3, [r3, #40]	@ 0x28
 80024e6:	e9d7 010a 	ldrd	r0, r1, [r7, #40]	@ 0x28
 80024ea:	e9cd 0102 	strd	r0, r1, [sp, #8]
 80024ee:	e9cd 2300 	strd	r2, r3, [sp]
 80024f2:	e9d7 230e 	ldrd	r2, r3, [r7, #56]	@ 0x38
 80024f6:	4808      	ldr	r0, [pc, #32]	@ (8002518 <MPU6050_Read_All+0x3b8>)
 80024f8:	f000 f810 	bl	800251c <Kalman_getAngle>
 80024fc:	4602      	mov	r2, r0
 80024fe:	460b      	mov	r3, r1
 8002500:	6839      	ldr	r1, [r7, #0]
 8002502:	e9c1 2312 	strd	r2, r3, [r1, #72]	@ 0x48
}
 8002506:	bf00      	nop
 8002508:	3740      	adds	r7, #64	@ 0x40
 800250a:	46bd      	mov	sp, r7
 800250c:	e8bd 8fb0 	ldmia.w	sp!, {r4, r5, r7, r8, r9, sl, fp, pc}
 8002510:	20000048 	.word	0x20000048
 8002514:	40568000 	.word	0x40568000
 8002518:	20000000 	.word	0x20000000

0800251c <Kalman_getAngle>:

double Kalman_getAngle(Kalman_t *Kalman, double newAngle, double newRate, double dt)
{
 800251c:	b5b0      	push	{r4, r5, r7, lr}
 800251e:	b092      	sub	sp, #72	@ 0x48
 8002520:	af00      	add	r7, sp, #0
 8002522:	60f8      	str	r0, [r7, #12]
 8002524:	e9c7 2300 	strd	r2, r3, [r7]
    double rate = newRate - Kalman->bias;
 8002528:	68fb      	ldr	r3, [r7, #12]
 800252a:	e9d3 2308 	ldrd	r2, r3, [r3, #32]
 800252e:	e9d7 0116 	ldrd	r0, r1, [r7, #88]	@ 0x58
 8002532:	f7fd fe11 	bl	8000158 <__aeabi_dsub>
 8002536:	4602      	mov	r2, r0
 8002538:	460b      	mov	r3, r1
 800253a:	e9c7 2310 	strd	r2, r3, [r7, #64]	@ 0x40
    Kalman->angle += dt * rate;
 800253e:	68fb      	ldr	r3, [r7, #12]
 8002540:	e9d3 4506 	ldrd	r4, r5, [r3, #24]
 8002544:	e9d7 2310 	ldrd	r2, r3, [r7, #64]	@ 0x40
 8002548:	e9d7 0118 	ldrd	r0, r1, [r7, #96]	@ 0x60
 800254c:	f7fd ffbc 	bl	80004c8 <__aeabi_dmul>
 8002550:	4602      	mov	r2, r0
 8002552:	460b      	mov	r3, r1
 8002554:	4620      	mov	r0, r4
 8002556:	4629      	mov	r1, r5
 8002558:	f7fd fe00 	bl	800015c <__adddf3>
 800255c:	4602      	mov	r2, r0
 800255e:	460b      	mov	r3, r1
 8002560:	68f9      	ldr	r1, [r7, #12]
 8002562:	e9c1 2306 	strd	r2, r3, [r1, #24]

    Kalman->P[0][0] += dt * (dt * Kalman->P[1][1] - Kalman->P[0][1] - Kalman->P[1][0] + Kalman->Q_angle);
 8002566:	68fb      	ldr	r3, [r7, #12]
 8002568:	e9d3 450a 	ldrd	r4, r5, [r3, #40]	@ 0x28
 800256c:	68fb      	ldr	r3, [r7, #12]
 800256e:	e9d3 0110 	ldrd	r0, r1, [r3, #64]	@ 0x40
 8002572:	e9d7 2318 	ldrd	r2, r3, [r7, #96]	@ 0x60
 8002576:	f7fd ffa7 	bl	80004c8 <__aeabi_dmul>
 800257a:	4602      	mov	r2, r0
 800257c:	460b      	mov	r3, r1
 800257e:	4610      	mov	r0, r2
 8002580:	4619      	mov	r1, r3
 8002582:	68fb      	ldr	r3, [r7, #12]
 8002584:	e9d3 230c 	ldrd	r2, r3, [r3, #48]	@ 0x30
 8002588:	f7fd fde6 	bl	8000158 <__aeabi_dsub>
 800258c:	4602      	mov	r2, r0
 800258e:	460b      	mov	r3, r1
 8002590:	4610      	mov	r0, r2
 8002592:	4619      	mov	r1, r3
 8002594:	68fb      	ldr	r3, [r7, #12]
 8002596:	e9d3 230e 	ldrd	r2, r3, [r3, #56]	@ 0x38
 800259a:	f7fd fddd 	bl	8000158 <__aeabi_dsub>
 800259e:	4602      	mov	r2, r0
 80025a0:	460b      	mov	r3, r1
 80025a2:	4610      	mov	r0, r2
 80025a4:	4619      	mov	r1, r3
 80025a6:	68fb      	ldr	r3, [r7, #12]
 80025a8:	e9d3 2300 	ldrd	r2, r3, [r3]
 80025ac:	f7fd fdd6 	bl	800015c <__adddf3>
 80025b0:	4602      	mov	r2, r0
 80025b2:	460b      	mov	r3, r1
 80025b4:	4610      	mov	r0, r2
 80025b6:	4619      	mov	r1, r3
 80025b8:	e9d7 2318 	ldrd	r2, r3, [r7, #96]	@ 0x60
 80025bc:	f7fd ff84 	bl	80004c8 <__aeabi_dmul>
 80025c0:	4602      	mov	r2, r0
 80025c2:	460b      	mov	r3, r1
 80025c4:	4620      	mov	r0, r4
 80025c6:	4629      	mov	r1, r5
 80025c8:	f7fd fdc8 	bl	800015c <__adddf3>
 80025cc:	4602      	mov	r2, r0
 80025ce:	460b      	mov	r3, r1
 80025d0:	68f9      	ldr	r1, [r7, #12]
 80025d2:	e9c1 230a 	strd	r2, r3, [r1, #40]	@ 0x28
    Kalman->P[0][1] -= dt * Kalman->P[1][1];
 80025d6:	68fb      	ldr	r3, [r7, #12]
 80025d8:	e9d3 450c 	ldrd	r4, r5, [r3, #48]	@ 0x30
 80025dc:	68fb      	ldr	r3, [r7, #12]
 80025de:	e9d3 0110 	ldrd	r0, r1, [r3, #64]	@ 0x40
 80025e2:	e9d7 2318 	ldrd	r2, r3, [r7, #96]	@ 0x60
 80025e6:	f7fd ff6f 	bl	80004c8 <__aeabi_dmul>
 80025ea:	4602      	mov	r2, r0
 80025ec:	460b      	mov	r3, r1
 80025ee:	4620      	mov	r0, r4
 80025f0:	4629      	mov	r1, r5
 80025f2:	f7fd fdb1 	bl	8000158 <__aeabi_dsub>
 80025f6:	4602      	mov	r2, r0
 80025f8:	460b      	mov	r3, r1
 80025fa:	68f9      	ldr	r1, [r7, #12]
 80025fc:	e9c1 230c 	strd	r2, r3, [r1, #48]	@ 0x30
    Kalman->P[1][0] -= dt * Kalman->P[1][1];
 8002600:	68fb      	ldr	r3, [r7, #12]
 8002602:	e9d3 450e 	ldrd	r4, r5, [r3, #56]	@ 0x38
 8002606:	68fb      	ldr	r3, [r7, #12]
 8002608:	e9d3 0110 	ldrd	r0, r1, [r3, #64]	@ 0x40
 800260c:	e9d7 2318 	ldrd	r2, r3, [r7, #96]	@ 0x60
 8002610:	f7fd ff5a 	bl	80004c8 <__aeabi_dmul>
 8002614:	4602      	mov	r2, r0
 8002616:	460b      	mov	r3, r1
 8002618:	4620      	mov	r0, r4
 800261a:	4629      	mov	r1, r5
 800261c:	f7fd fd9c 	bl	8000158 <__aeabi_dsub>
 8002620:	4602      	mov	r2, r0
 8002622:	460b      	mov	r3, r1
 8002624:	68f9      	ldr	r1, [r7, #12]
 8002626:	e9c1 230e 	strd	r2, r3, [r1, #56]	@ 0x38
    Kalman->P[1][1] += Kalman->Q_bias * dt;
 800262a:	68fb      	ldr	r3, [r7, #12]
 800262c:	e9d3 4510 	ldrd	r4, r5, [r3, #64]	@ 0x40
 8002630:	68fb      	ldr	r3, [r7, #12]
 8002632:	e9d3 0102 	ldrd	r0, r1, [r3, #8]
 8002636:	e9d7 2318 	ldrd	r2, r3, [r7, #96]	@ 0x60
 800263a:	f7fd ff45 	bl	80004c8 <__aeabi_dmul>
 800263e:	4602      	mov	r2, r0
 8002640:	460b      	mov	r3, r1
 8002642:	4620      	mov	r0, r4
 8002644:	4629      	mov	r1, r5
 8002646:	f7fd fd89 	bl	800015c <__adddf3>
 800264a:	4602      	mov	r2, r0
 800264c:	460b      	mov	r3, r1
 800264e:	68f9      	ldr	r1, [r7, #12]
 8002650:	e9c1 2310 	strd	r2, r3, [r1, #64]	@ 0x40

    double S = Kalman->P[0][0] + Kalman->R_measure;
 8002654:	68fb      	ldr	r3, [r7, #12]
 8002656:	e9d3 010a 	ldrd	r0, r1, [r3, #40]	@ 0x28
 800265a:	68fb      	ldr	r3, [r7, #12]
 800265c:	e9d3 2304 	ldrd	r2, r3, [r3, #16]
 8002660:	f7fd fd7c 	bl	800015c <__adddf3>
 8002664:	4602      	mov	r2, r0
 8002666:	460b      	mov	r3, r1
 8002668:	e9c7 230e 	strd	r2, r3, [r7, #56]	@ 0x38
    double K[2];
    K[0] = Kalman->P[0][0] / S;
 800266c:	68fb      	ldr	r3, [r7, #12]
 800266e:	e9d3 010a 	ldrd	r0, r1, [r3, #40]	@ 0x28
 8002672:	e9d7 230e 	ldrd	r2, r3, [r7, #56]	@ 0x38
 8002676:	f7fe f851 	bl	800071c <__aeabi_ddiv>
 800267a:	4602      	mov	r2, r0
 800267c:	460b      	mov	r3, r1
 800267e:	e9c7 2304 	strd	r2, r3, [r7, #16]
    K[1] = Kalman->P[1][0] / S;
 8002682:	68fb      	ldr	r3, [r7, #12]
 8002684:	e9d3 010e 	ldrd	r0, r1, [r3, #56]	@ 0x38
 8002688:	e9d7 230e 	ldrd	r2, r3, [r7, #56]	@ 0x38
 800268c:	f7fe f846 	bl	800071c <__aeabi_ddiv>
 8002690:	4602      	mov	r2, r0
 8002692:	460b      	mov	r3, r1
 8002694:	e9c7 2306 	strd	r2, r3, [r7, #24]

    double y = newAngle - Kalman->angle;
 8002698:	68fb      	ldr	r3, [r7, #12]
 800269a:	e9d3 2306 	ldrd	r2, r3, [r3, #24]
 800269e:	e9d7 0100 	ldrd	r0, r1, [r7]
 80026a2:	f7fd fd59 	bl	8000158 <__aeabi_dsub>
 80026a6:	4602      	mov	r2, r0
 80026a8:	460b      	mov	r3, r1
 80026aa:	e9c7 230c 	strd	r2, r3, [r7, #48]	@ 0x30
    Kalman->angle += K[0] * y;
 80026ae:	68fb      	ldr	r3, [r7, #12]
 80026b0:	e9d3 4506 	ldrd	r4, r5, [r3, #24]
 80026b4:	e9d7 0104 	ldrd	r0, r1, [r7, #16]
 80026b8:	e9d7 230c 	ldrd	r2, r3, [r7, #48]	@ 0x30
 80026bc:	f7fd ff04 	bl	80004c8 <__aeabi_dmul>
 80026c0:	4602      	mov	r2, r0
 80026c2:	460b      	mov	r3, r1
 80026c4:	4620      	mov	r0, r4
 80026c6:	4629      	mov	r1, r5
 80026c8:	f7fd fd48 	bl	800015c <__adddf3>
 80026cc:	4602      	mov	r2, r0
 80026ce:	460b      	mov	r3, r1
 80026d0:	68f9      	ldr	r1, [r7, #12]
 80026d2:	e9c1 2306 	strd	r2, r3, [r1, #24]
    Kalman->bias += K[1] * y;
 80026d6:	68fb      	ldr	r3, [r7, #12]
 80026d8:	e9d3 4508 	ldrd	r4, r5, [r3, #32]
 80026dc:	e9d7 0106 	ldrd	r0, r1, [r7, #24]
 80026e0:	e9d7 230c 	ldrd	r2, r3, [r7, #48]	@ 0x30
 80026e4:	f7fd fef0 	bl	80004c8 <__aeabi_dmul>
 80026e8:	4602      	mov	r2, r0
 80026ea:	460b      	mov	r3, r1
 80026ec:	4620      	mov	r0, r4
 80026ee:	4629      	mov	r1, r5
 80026f0:	f7fd fd34 	bl	800015c <__adddf3>
 80026f4:	4602      	mov	r2, r0
 80026f6:	460b      	mov	r3, r1
 80026f8:	68f9      	ldr	r1, [r7, #12]
 80026fa:	e9c1 2308 	strd	r2, r3, [r1, #32]

    double P00_temp = Kalman->P[0][0];
 80026fe:	68fb      	ldr	r3, [r7, #12]
 8002700:	e9d3 230a 	ldrd	r2, r3, [r3, #40]	@ 0x28
 8002704:	e9c7 230a 	strd	r2, r3, [r7, #40]	@ 0x28
    double P01_temp = Kalman->P[0][1];
 8002708:	68fb      	ldr	r3, [r7, #12]
 800270a:	e9d3 230c 	ldrd	r2, r3, [r3, #48]	@ 0x30
 800270e:	e9c7 2308 	strd	r2, r3, [r7, #32]

    Kalman->P[0][0] -= K[0] * P00_temp;
 8002712:	68fb      	ldr	r3, [r7, #12]
 8002714:	e9d3 450a 	ldrd	r4, r5, [r3, #40]	@ 0x28
 8002718:	e9d7 0104 	ldrd	r0, r1, [r7, #16]
 800271c:	e9d7 230a 	ldrd	r2, r3, [r7, #40]	@ 0x28
 8002720:	f7fd fed2 	bl	80004c8 <__aeabi_dmul>
 8002724:	4602      	mov	r2, r0
 8002726:	460b      	mov	r3, r1
 8002728:	4620      	mov	r0, r4
 800272a:	4629      	mov	r1, r5
 800272c:	f7fd fd14 	bl	8000158 <__aeabi_dsub>
 8002730:	4602      	mov	r2, r0
 8002732:	460b      	mov	r3, r1
 8002734:	68f9      	ldr	r1, [r7, #12]
 8002736:	e9c1 230a 	strd	r2, r3, [r1, #40]	@ 0x28
    Kalman->P[0][1] -= K[0] * P01_temp;
 800273a:	68fb      	ldr	r3, [r7, #12]
 800273c:	e9d3 450c 	ldrd	r4, r5, [r3, #48]	@ 0x30
 8002740:	e9d7 0104 	ldrd	r0, r1, [r7, #16]
 8002744:	e9d7 2308 	ldrd	r2, r3, [r7, #32]
 8002748:	f7fd febe 	bl	80004c8 <__aeabi_dmul>
 800274c:	4602      	mov	r2, r0
 800274e:	460b      	mov	r3, r1
 8002750:	4620      	mov	r0, r4
 8002752:	4629      	mov	r1, r5
 8002754:	f7fd fd00 	bl	8000158 <__aeabi_dsub>
 8002758:	4602      	mov	r2, r0
 800275a:	460b      	mov	r3, r1
 800275c:	68f9      	ldr	r1, [r7, #12]
 800275e:	e9c1 230c 	strd	r2, r3, [r1, #48]	@ 0x30
    Kalman->P[1][0] -= K[1] * P00_temp;
 8002762:	68fb      	ldr	r3, [r7, #12]
 8002764:	e9d3 450e 	ldrd	r4, r5, [r3, #56]	@ 0x38
 8002768:	e9d7 0106 	ldrd	r0, r1, [r7, #24]
 800276c:	e9d7 230a 	ldrd	r2, r3, [r7, #40]	@ 0x28
 8002770:	f7fd feaa 	bl	80004c8 <__aeabi_dmul>
 8002774:	4602      	mov	r2, r0
 8002776:	460b      	mov	r3, r1
 8002778:	4620      	mov	r0, r4
 800277a:	4629      	mov	r1, r5
 800277c:	f7fd fcec 	bl	8000158 <__aeabi_dsub>
 8002780:	4602      	mov	r2, r0
 8002782:	460b      	mov	r3, r1
 8002784:	68f9      	ldr	r1, [r7, #12]
 8002786:	e9c1 230e 	strd	r2, r3, [r1, #56]	@ 0x38
    Kalman->P[1][1] -= K[1] * P01_temp;
 800278a:	68fb      	ldr	r3, [r7, #12]
 800278c:	e9d3 4510 	ldrd	r4, r5, [r3, #64]	@ 0x40
 8002790:	e9d7 0106 	ldrd	r0, r1, [r7, #24]
 8002794:	e9d7 2308 	ldrd	r2, r3, [r7, #32]
 8002798:	f7fd fe96 	bl	80004c8 <__aeabi_dmul>
 800279c:	4602      	mov	r2, r0
 800279e:	460b      	mov	r3, r1
 80027a0:	4620      	mov	r0, r4
 80027a2:	4629      	mov	r1, r5
 80027a4:	f7fd fcd8 	bl	8000158 <__aeabi_dsub>
 80027a8:	4602      	mov	r2, r0
 80027aa:	460b      	mov	r3, r1
 80027ac:	68f9      	ldr	r1, [r7, #12]
 80027ae:	e9c1 2310 	strd	r2, r3, [r1, #64]	@ 0x40

    return Kalman->angle;
 80027b2:	68fb      	ldr	r3, [r7, #12]
 80027b4:	e9d3 2306 	ldrd	r2, r3, [r3, #24]
};
 80027b8:	4610      	mov	r0, r2
 80027ba:	4619      	mov	r1, r3
 80027bc:	3748      	adds	r7, #72	@ 0x48
 80027be:	46bd      	mov	sp, r7
 80027c0:	bdb0      	pop	{r4, r5, r7, pc}
	...

080027c4 <HAL_MspInit>:
void HAL_TIM_MspPostInit(TIM_HandleTypeDef *htim);
                                        /**
  * Initializes the Global MSP.
  */
void HAL_MspInit(void)
{
 80027c4:	b480      	push	{r7}
 80027c6:	b085      	sub	sp, #20
 80027c8:	af00      	add	r7, sp, #0

  /* USER CODE BEGIN MspInit 0 */

  /* USER CODE END MspInit 0 */

  __HAL_RCC_AFIO_CLK_ENABLE();
 80027ca:	4b15      	ldr	r3, [pc, #84]	@ (8002820 <HAL_MspInit+0x5c>)
 80027cc:	699b      	ldr	r3, [r3, #24]
 80027ce:	4a14      	ldr	r2, [pc, #80]	@ (8002820 <HAL_MspInit+0x5c>)
 80027d0:	f043 0301 	orr.w	r3, r3, #1
 80027d4:	6193      	str	r3, [r2, #24]
 80027d6:	4b12      	ldr	r3, [pc, #72]	@ (8002820 <HAL_MspInit+0x5c>)
 80027d8:	699b      	ldr	r3, [r3, #24]
 80027da:	f003 0301 	and.w	r3, r3, #1
 80027de:	60bb      	str	r3, [r7, #8]
 80027e0:	68bb      	ldr	r3, [r7, #8]
  __HAL_RCC_PWR_CLK_ENABLE();
 80027e2:	4b0f      	ldr	r3, [pc, #60]	@ (8002820 <HAL_MspInit+0x5c>)
 80027e4:	69db      	ldr	r3, [r3, #28]
 80027e6:	4a0e      	ldr	r2, [pc, #56]	@ (8002820 <HAL_MspInit+0x5c>)
 80027e8:	f043 5380 	orr.w	r3, r3, #268435456	@ 0x10000000
 80027ec:	61d3      	str	r3, [r2, #28]
 80027ee:	4b0c      	ldr	r3, [pc, #48]	@ (8002820 <HAL_MspInit+0x5c>)
 80027f0:	69db      	ldr	r3, [r3, #28]
 80027f2:	f003 5380 	and.w	r3, r3, #268435456	@ 0x10000000
 80027f6:	607b      	str	r3, [r7, #4]
 80027f8:	687b      	ldr	r3, [r7, #4]

  /* System interrupt init*/

  /** NOJTAG: JTAG-DP Disabled and SW-DP Enabled
  */
  __HAL_AFIO_REMAP_SWJ_NOJTAG();
 80027fa:	4b0a      	ldr	r3, [pc, #40]	@ (8002824 <HAL_MspInit+0x60>)
 80027fc:	685b      	ldr	r3, [r3, #4]
 80027fe:	60fb      	str	r3, [r7, #12]
 8002800:	68fb      	ldr	r3, [r7, #12]
 8002802:	f023 63e0 	bic.w	r3, r3, #117440512	@ 0x7000000
 8002806:	60fb      	str	r3, [r7, #12]
 8002808:	68fb      	ldr	r3, [r7, #12]
 800280a:	f043 7300 	orr.w	r3, r3, #33554432	@ 0x2000000
 800280e:	60fb      	str	r3, [r7, #12]
 8002810:	4a04      	ldr	r2, [pc, #16]	@ (8002824 <HAL_MspInit+0x60>)
 8002812:	68fb      	ldr	r3, [r7, #12]
 8002814:	6053      	str	r3, [r2, #4]

  /* USER CODE BEGIN MspInit 1 */

  /* USER CODE END MspInit 1 */
}
 8002816:	bf00      	nop
 8002818:	3714      	adds	r7, #20
 800281a:	46bd      	mov	sp, r7
 800281c:	bc80      	pop	{r7}
 800281e:	4770      	bx	lr
 8002820:	40021000 	.word	0x40021000
 8002824:	40010000 	.word	0x40010000

08002828 <HAL_I2C_MspInit>:
* This function configures the hardware resources used in this example
* @param hi2c: I2C handle pointer
* @retval None
*/
void HAL_I2C_MspInit(I2C_HandleTypeDef* hi2c)
{
 8002828:	b580      	push	{r7, lr}
 800282a:	b08a      	sub	sp, #40	@ 0x28
 800282c:	af00      	add	r7, sp, #0
 800282e:	6078      	str	r0, [r7, #4]
  GPIO_InitTypeDef GPIO_InitStruct = {0};
 8002830:	f107 0314 	add.w	r3, r7, #20
 8002834:	2200      	movs	r2, #0
 8002836:	601a      	str	r2, [r3, #0]
 8002838:	605a      	str	r2, [r3, #4]
 800283a:	609a      	str	r2, [r3, #8]
 800283c:	60da      	str	r2, [r3, #12]
  if(hi2c->Instance==I2C1)
 800283e:	687b      	ldr	r3, [r7, #4]
 8002840:	681b      	ldr	r3, [r3, #0]
 8002842:	4a1d      	ldr	r2, [pc, #116]	@ (80028b8 <HAL_I2C_MspInit+0x90>)
 8002844:	4293      	cmp	r3, r2
 8002846:	d132      	bne.n	80028ae <HAL_I2C_MspInit+0x86>
  {
  /* USER CODE BEGIN I2C1_MspInit 0 */

  /* USER CODE END I2C1_MspInit 0 */

    __HAL_RCC_GPIOB_CLK_ENABLE();
 8002848:	4b1c      	ldr	r3, [pc, #112]	@ (80028bc <HAL_I2C_MspInit+0x94>)
 800284a:	699b      	ldr	r3, [r3, #24]
 800284c:	4a1b      	ldr	r2, [pc, #108]	@ (80028bc <HAL_I2C_MspInit+0x94>)
 800284e:	f043 0308 	orr.w	r3, r3, #8
 8002852:	6193      	str	r3, [r2, #24]
 8002854:	4b19      	ldr	r3, [pc, #100]	@ (80028bc <HAL_I2C_MspInit+0x94>)
 8002856:	699b      	ldr	r3, [r3, #24]
 8002858:	f003 0308 	and.w	r3, r3, #8
 800285c:	613b      	str	r3, [r7, #16]
 800285e:	693b      	ldr	r3, [r7, #16]
    /**I2C1 GPIO Configuration
    PB8     ------> I2C1_SCL
    PB9     ------> I2C1_SDA
    */
    GPIO_InitStruct.Pin = GPIO_PIN_8|GPIO_PIN_9;
 8002860:	f44f 7340 	mov.w	r3, #768	@ 0x300
 8002864:	617b      	str	r3, [r7, #20]
    GPIO_InitStruct.Mode = GPIO_MODE_AF_OD;
 8002866:	2312      	movs	r3, #18
 8002868:	61bb      	str	r3, [r7, #24]
    GPIO_InitStruct.Speed = GPIO_SPEED_FREQ_HIGH;
 800286a:	2303      	movs	r3, #3
 800286c:	623b      	str	r3, [r7, #32]
    HAL_GPIO_Init(GPIOB, &GPIO_InitStruct);
 800286e:	f107 0314 	add.w	r3, r7, #20
 8002872:	4619      	mov	r1, r3
 8002874:	4812      	ldr	r0, [pc, #72]	@ (80028c0 <HAL_I2C_MspInit+0x98>)
 8002876:	f000 fb03 	bl	8002e80 <HAL_GPIO_Init>

    __HAL_AFIO_REMAP_I2C1_ENABLE();
 800287a:	4b12      	ldr	r3, [pc, #72]	@ (80028c4 <HAL_I2C_MspInit+0x9c>)
 800287c:	685b      	ldr	r3, [r3, #4]
 800287e:	627b      	str	r3, [r7, #36]	@ 0x24
 8002880:	6a7b      	ldr	r3, [r7, #36]	@ 0x24
 8002882:	f043 63e0 	orr.w	r3, r3, #117440512	@ 0x7000000
 8002886:	627b      	str	r3, [r7, #36]	@ 0x24
 8002888:	6a7b      	ldr	r3, [r7, #36]	@ 0x24
 800288a:	f043 0302 	orr.w	r3, r3, #2
 800288e:	627b      	str	r3, [r7, #36]	@ 0x24
 8002890:	4a0c      	ldr	r2, [pc, #48]	@ (80028c4 <HAL_I2C_MspInit+0x9c>)
 8002892:	6a7b      	ldr	r3, [r7, #36]	@ 0x24
 8002894:	6053      	str	r3, [r2, #4]

    /* Peripheral clock enable */
    __HAL_RCC_I2C1_CLK_ENABLE();
 8002896:	4b09      	ldr	r3, [pc, #36]	@ (80028bc <HAL_I2C_MspInit+0x94>)
 8002898:	69db      	ldr	r3, [r3, #28]
 800289a:	4a08      	ldr	r2, [pc, #32]	@ (80028bc <HAL_I2C_MspInit+0x94>)
 800289c:	f443 1300 	orr.w	r3, r3, #2097152	@ 0x200000
 80028a0:	61d3      	str	r3, [r2, #28]
 80028a2:	4b06      	ldr	r3, [pc, #24]	@ (80028bc <HAL_I2C_MspInit+0x94>)
 80028a4:	69db      	ldr	r3, [r3, #28]
 80028a6:	f403 1300 	and.w	r3, r3, #2097152	@ 0x200000
 80028aa:	60fb      	str	r3, [r7, #12]
 80028ac:	68fb      	ldr	r3, [r7, #12]
  /* USER CODE BEGIN I2C1_MspInit 1 */

  /* USER CODE END I2C1_MspInit 1 */
  }

}
 80028ae:	bf00      	nop
 80028b0:	3728      	adds	r7, #40	@ 0x28
 80028b2:	46bd      	mov	sp, r7
 80028b4:	bd80      	pop	{r7, pc}
 80028b6:	bf00      	nop
 80028b8:	40005400 	.word	0x40005400
 80028bc:	40021000 	.word	0x40021000
 80028c0:	40010c00 	.word	0x40010c00
 80028c4:	40010000 	.word	0x40010000

080028c8 <HAL_TIM_Base_MspInit>:
* This function configures the hardware resources used in this example
* @param htim_base: TIM_Base handle pointer
* @retval None
*/
void HAL_TIM_Base_MspInit(TIM_HandleTypeDef* htim_base)
{
 80028c8:	b580      	push	{r7, lr}
 80028ca:	b084      	sub	sp, #16
 80028cc:	af00      	add	r7, sp, #0
 80028ce:	6078      	str	r0, [r7, #4]
  if(htim_base->Instance==TIM1)
 80028d0:	687b      	ldr	r3, [r7, #4]
 80028d2:	681b      	ldr	r3, [r3, #0]
 80028d4:	4a0d      	ldr	r2, [pc, #52]	@ (800290c <HAL_TIM_Base_MspInit+0x44>)
 80028d6:	4293      	cmp	r3, r2
 80028d8:	d113      	bne.n	8002902 <HAL_TIM_Base_MspInit+0x3a>
  {
  /* USER CODE BEGIN TIM1_MspInit 0 */

  /* USER CODE END TIM1_MspInit 0 */
    /* Peripheral clock enable */
    __HAL_RCC_TIM1_CLK_ENABLE();
 80028da:	4b0d      	ldr	r3, [pc, #52]	@ (8002910 <HAL_TIM_Base_MspInit+0x48>)
 80028dc:	699b      	ldr	r3, [r3, #24]
 80028de:	4a0c      	ldr	r2, [pc, #48]	@ (8002910 <HAL_TIM_Base_MspInit+0x48>)
 80028e0:	f443 6300 	orr.w	r3, r3, #2048	@ 0x800
 80028e4:	6193      	str	r3, [r2, #24]
 80028e6:	4b0a      	ldr	r3, [pc, #40]	@ (8002910 <HAL_TIM_Base_MspInit+0x48>)
 80028e8:	699b      	ldr	r3, [r3, #24]
 80028ea:	f403 6300 	and.w	r3, r3, #2048	@ 0x800
 80028ee:	60fb      	str	r3, [r7, #12]
 80028f0:	68fb      	ldr	r3, [r7, #12]
    /* TIM1 interrupt Init */
    HAL_NVIC_SetPriority(TIM1_UP_IRQn, 0, 0);
 80028f2:	2200      	movs	r2, #0
 80028f4:	2100      	movs	r1, #0
 80028f6:	2019      	movs	r0, #25
 80028f8:	f000 fa8b 	bl	8002e12 <HAL_NVIC_SetPriority>
    HAL_NVIC_EnableIRQ(TIM1_UP_IRQn);
 80028fc:	2019      	movs	r0, #25
 80028fe:	f000 faa4 	bl	8002e4a <HAL_NVIC_EnableIRQ>
  /* USER CODE BEGIN TIM1_MspInit 1 */

  /* USER CODE END TIM1_MspInit 1 */
  }

}
 8002902:	bf00      	nop
 8002904:	3710      	adds	r7, #16
 8002906:	46bd      	mov	sp, r7
 8002908:	bd80      	pop	{r7, pc}
 800290a:	bf00      	nop
 800290c:	40012c00 	.word	0x40012c00
 8002910:	40021000 	.word	0x40021000

08002914 <HAL_TIM_PWM_MspInit>:
* This function configures the hardware resources used in this example
* @param htim_pwm: TIM_PWM handle pointer
* @retval None
*/
void HAL_TIM_PWM_MspInit(TIM_HandleTypeDef* htim_pwm)
{
 8002914:	b480      	push	{r7}
 8002916:	b085      	sub	sp, #20
 8002918:	af00      	add	r7, sp, #0
 800291a:	6078      	str	r0, [r7, #4]
  if(htim_pwm->Instance==TIM3)
 800291c:	687b      	ldr	r3, [r7, #4]
 800291e:	681b      	ldr	r3, [r3, #0]
 8002920:	4a12      	ldr	r2, [pc, #72]	@ (800296c <HAL_TIM_PWM_MspInit+0x58>)
 8002922:	4293      	cmp	r3, r2
 8002924:	d10c      	bne.n	8002940 <HAL_TIM_PWM_MspInit+0x2c>
  {
  /* USER CODE BEGIN TIM3_MspInit 0 */

  /* USER CODE END TIM3_MspInit 0 */
    /* Peripheral clock enable */
    __HAL_RCC_TIM3_CLK_ENABLE();
 8002926:	4b12      	ldr	r3, [pc, #72]	@ (8002970 <HAL_TIM_PWM_MspInit+0x5c>)
 8002928:	69db      	ldr	r3, [r3, #28]
 800292a:	4a11      	ldr	r2, [pc, #68]	@ (8002970 <HAL_TIM_PWM_MspInit+0x5c>)
 800292c:	f043 0302 	orr.w	r3, r3, #2
 8002930:	61d3      	str	r3, [r2, #28]
 8002932:	4b0f      	ldr	r3, [pc, #60]	@ (8002970 <HAL_TIM_PWM_MspInit+0x5c>)
 8002934:	69db      	ldr	r3, [r3, #28]
 8002936:	f003 0302 	and.w	r3, r3, #2
 800293a:	60fb      	str	r3, [r7, #12]
 800293c:	68fb      	ldr	r3, [r7, #12]
  /* USER CODE BEGIN TIM4_MspInit 1 */

  /* USER CODE END TIM4_MspInit 1 */
  }

}
 800293e:	e010      	b.n	8002962 <HAL_TIM_PWM_MspInit+0x4e>
  else if(htim_pwm->Instance==TIM4)
 8002940:	687b      	ldr	r3, [r7, #4]
 8002942:	681b      	ldr	r3, [r3, #0]
 8002944:	4a0b      	ldr	r2, [pc, #44]	@ (8002974 <HAL_TIM_PWM_MspInit+0x60>)
 8002946:	4293      	cmp	r3, r2
 8002948:	d10b      	bne.n	8002962 <HAL_TIM_PWM_MspInit+0x4e>
    __HAL_RCC_TIM4_CLK_ENABLE();
 800294a:	4b09      	ldr	r3, [pc, #36]	@ (8002970 <HAL_TIM_PWM_MspInit+0x5c>)
 800294c:	69db      	ldr	r3, [r3, #28]
 800294e:	4a08      	ldr	r2, [pc, #32]	@ (8002970 <HAL_TIM_PWM_MspInit+0x5c>)
 8002950:	f043 0304 	orr.w	r3, r3, #4
 8002954:	61d3      	str	r3, [r2, #28]
 8002956:	4b06      	ldr	r3, [pc, #24]	@ (8002970 <HAL_TIM_PWM_MspInit+0x5c>)
 8002958:	69db      	ldr	r3, [r3, #28]
 800295a:	f003 0304 	and.w	r3, r3, #4
 800295e:	60bb      	str	r3, [r7, #8]
 8002960:	68bb      	ldr	r3, [r7, #8]
}
 8002962:	bf00      	nop
 8002964:	3714      	adds	r7, #20
 8002966:	46bd      	mov	sp, r7
 8002968:	bc80      	pop	{r7}
 800296a:	4770      	bx	lr
 800296c:	40000400 	.word	0x40000400
 8002970:	40021000 	.word	0x40021000
 8002974:	40000800 	.word	0x40000800

08002978 <HAL_TIM_MspPostInit>:

void HAL_TIM_MspPostInit(TIM_HandleTypeDef* htim)
{
 8002978:	b580      	push	{r7, lr}
 800297a:	b08a      	sub	sp, #40	@ 0x28
 800297c:	af00      	add	r7, sp, #0
 800297e:	6078      	str	r0, [r7, #4]
  GPIO_InitTypeDef GPIO_InitStruct = {0};
 8002980:	f107 0314 	add.w	r3, r7, #20
 8002984:	2200      	movs	r2, #0
 8002986:	601a      	str	r2, [r3, #0]
 8002988:	605a      	str	r2, [r3, #4]
 800298a:	609a      	str	r2, [r3, #8]
 800298c:	60da      	str	r2, [r3, #12]
  if(htim->Instance==TIM3)
 800298e:	687b      	ldr	r3, [r7, #4]
 8002990:	681b      	ldr	r3, [r3, #0]
 8002992:	4a27      	ldr	r2, [pc, #156]	@ (8002a30 <HAL_TIM_MspPostInit+0xb8>)
 8002994:	4293      	cmp	r3, r2
 8002996:	d12a      	bne.n	80029ee <HAL_TIM_MspPostInit+0x76>
  {
  /* USER CODE BEGIN TIM3_MspPostInit 0 */

  /* USER CODE END TIM3_MspPostInit 0 */
    __HAL_RCC_GPIOB_CLK_ENABLE();
 8002998:	4b26      	ldr	r3, [pc, #152]	@ (8002a34 <HAL_TIM_MspPostInit+0xbc>)
 800299a:	699b      	ldr	r3, [r3, #24]
 800299c:	4a25      	ldr	r2, [pc, #148]	@ (8002a34 <HAL_TIM_MspPostInit+0xbc>)
 800299e:	f043 0308 	orr.w	r3, r3, #8
 80029a2:	6193      	str	r3, [r2, #24]
 80029a4:	4b23      	ldr	r3, [pc, #140]	@ (8002a34 <HAL_TIM_MspPostInit+0xbc>)
 80029a6:	699b      	ldr	r3, [r3, #24]
 80029a8:	f003 0308 	and.w	r3, r3, #8
 80029ac:	613b      	str	r3, [r7, #16]
 80029ae:	693b      	ldr	r3, [r7, #16]
    /**TIM3 GPIO Configuration
    PB4     ------> TIM3_CH1
    */
    GPIO_InitStruct.Pin = GPIO_PIN_4;
 80029b0:	2310      	movs	r3, #16
 80029b2:	617b      	str	r3, [r7, #20]
    GPIO_InitStruct.Mode = GPIO_MODE_AF_PP;
 80029b4:	2302      	movs	r3, #2
 80029b6:	61bb      	str	r3, [r7, #24]
    GPIO_InitStruct.Speed = GPIO_SPEED_FREQ_LOW;
 80029b8:	2302      	movs	r3, #2
 80029ba:	623b      	str	r3, [r7, #32]
    HAL_GPIO_Init(GPIOB, &GPIO_InitStruct);
 80029bc:	f107 0314 	add.w	r3, r7, #20
 80029c0:	4619      	mov	r1, r3
 80029c2:	481d      	ldr	r0, [pc, #116]	@ (8002a38 <HAL_TIM_MspPostInit+0xc0>)
 80029c4:	f000 fa5c 	bl	8002e80 <HAL_GPIO_Init>

    __HAL_AFIO_REMAP_TIM3_PARTIAL();
 80029c8:	4b1c      	ldr	r3, [pc, #112]	@ (8002a3c <HAL_TIM_MspPostInit+0xc4>)
 80029ca:	685b      	ldr	r3, [r3, #4]
 80029cc:	627b      	str	r3, [r7, #36]	@ 0x24
 80029ce:	6a7b      	ldr	r3, [r7, #36]	@ 0x24
 80029d0:	f423 6340 	bic.w	r3, r3, #3072	@ 0xc00
 80029d4:	627b      	str	r3, [r7, #36]	@ 0x24
 80029d6:	6a7b      	ldr	r3, [r7, #36]	@ 0x24
 80029d8:	f043 63e0 	orr.w	r3, r3, #117440512	@ 0x7000000
 80029dc:	627b      	str	r3, [r7, #36]	@ 0x24
 80029de:	6a7b      	ldr	r3, [r7, #36]	@ 0x24
 80029e0:	f443 6300 	orr.w	r3, r3, #2048	@ 0x800
 80029e4:	627b      	str	r3, [r7, #36]	@ 0x24
 80029e6:	4a15      	ldr	r2, [pc, #84]	@ (8002a3c <HAL_TIM_MspPostInit+0xc4>)
 80029e8:	6a7b      	ldr	r3, [r7, #36]	@ 0x24
 80029ea:	6053      	str	r3, [r2, #4]
  /* USER CODE BEGIN TIM4_MspPostInit 1 */

  /* USER CODE END TIM4_MspPostInit 1 */
  }

}
 80029ec:	e01c      	b.n	8002a28 <HAL_TIM_MspPostInit+0xb0>
  else if(htim->Instance==TIM4)
 80029ee:	687b      	ldr	r3, [r7, #4]
 80029f0:	681b      	ldr	r3, [r3, #0]
 80029f2:	4a13      	ldr	r2, [pc, #76]	@ (8002a40 <HAL_TIM_MspPostInit+0xc8>)
 80029f4:	4293      	cmp	r3, r2
 80029f6:	d117      	bne.n	8002a28 <HAL_TIM_MspPostInit+0xb0>
    __HAL_RCC_GPIOB_CLK_ENABLE();
 80029f8:	4b0e      	ldr	r3, [pc, #56]	@ (8002a34 <HAL_TIM_MspPostInit+0xbc>)
 80029fa:	699b      	ldr	r3, [r3, #24]
 80029fc:	4a0d      	ldr	r2, [pc, #52]	@ (8002a34 <HAL_TIM_MspPostInit+0xbc>)
 80029fe:	f043 0308 	orr.w	r3, r3, #8
 8002a02:	6193      	str	r3, [r2, #24]
 8002a04:	4b0b      	ldr	r3, [pc, #44]	@ (8002a34 <HAL_TIM_MspPostInit+0xbc>)
 8002a06:	699b      	ldr	r3, [r3, #24]
 8002a08:	f003 0308 	and.w	r3, r3, #8
 8002a0c:	60fb      	str	r3, [r7, #12]
 8002a0e:	68fb      	ldr	r3, [r7, #12]
    GPIO_InitStruct.Pin = GPIO_PIN_6|GPIO_PIN_7;
 8002a10:	23c0      	movs	r3, #192	@ 0xc0
 8002a12:	617b      	str	r3, [r7, #20]
    GPIO_InitStruct.Mode = GPIO_MODE_AF_PP;
 8002a14:	2302      	movs	r3, #2
 8002a16:	61bb      	str	r3, [r7, #24]
    GPIO_InitStruct.Speed = GPIO_SPEED_FREQ_LOW;
 8002a18:	2302      	movs	r3, #2
 8002a1a:	623b      	str	r3, [r7, #32]
    HAL_GPIO_Init(GPIOB, &GPIO_InitStruct);
 8002a1c:	f107 0314 	add.w	r3, r7, #20
 8002a20:	4619      	mov	r1, r3
 8002a22:	4805      	ldr	r0, [pc, #20]	@ (8002a38 <HAL_TIM_MspPostInit+0xc0>)
 8002a24:	f000 fa2c 	bl	8002e80 <HAL_GPIO_Init>
}
 8002a28:	bf00      	nop
 8002a2a:	3728      	adds	r7, #40	@ 0x28
 8002a2c:	46bd      	mov	sp, r7
 8002a2e:	bd80      	pop	{r7, pc}
 8002a30:	40000400 	.word	0x40000400
 8002a34:	40021000 	.word	0x40021000
 8002a38:	40010c00 	.word	0x40010c00
 8002a3c:	40010000 	.word	0x40010000
 8002a40:	40000800 	.word	0x40000800

08002a44 <HAL_UART_MspInit>:
* This function configures the hardware resources used in this example
* @param huart: UART handle pointer
* @retval None
*/
void HAL_UART_MspInit(UART_HandleTypeDef* huart)
{
 8002a44:	b580      	push	{r7, lr}
 8002a46:	b088      	sub	sp, #32
 8002a48:	af00      	add	r7, sp, #0
 8002a4a:	6078      	str	r0, [r7, #4]
  GPIO_InitTypeDef GPIO_InitStruct = {0};
 8002a4c:	f107 0310 	add.w	r3, r7, #16
 8002a50:	2200      	movs	r2, #0
 8002a52:	601a      	str	r2, [r3, #0]
 8002a54:	605a      	str	r2, [r3, #4]
 8002a56:	609a      	str	r2, [r3, #8]
 8002a58:	60da      	str	r2, [r3, #12]
  if(huart->Instance==USART1)
 8002a5a:	687b      	ldr	r3, [r7, #4]
 8002a5c:	681b      	ldr	r3, [r3, #0]
 8002a5e:	4a1c      	ldr	r2, [pc, #112]	@ (8002ad0 <HAL_UART_MspInit+0x8c>)
 8002a60:	4293      	cmp	r3, r2
 8002a62:	d131      	bne.n	8002ac8 <HAL_UART_MspInit+0x84>
  {
  /* USER CODE BEGIN USART1_MspInit 0 */

  /* USER CODE END USART1_MspInit 0 */
    /* Peripheral clock enable */
    __HAL_RCC_USART1_CLK_ENABLE();
 8002a64:	4b1b      	ldr	r3, [pc, #108]	@ (8002ad4 <HAL_UART_MspInit+0x90>)
 8002a66:	699b      	ldr	r3, [r3, #24]
 8002a68:	4a1a      	ldr	r2, [pc, #104]	@ (8002ad4 <HAL_UART_MspInit+0x90>)
 8002a6a:	f443 4380 	orr.w	r3, r3, #16384	@ 0x4000
 8002a6e:	6193      	str	r3, [r2, #24]
 8002a70:	4b18      	ldr	r3, [pc, #96]	@ (8002ad4 <HAL_UART_MspInit+0x90>)
 8002a72:	699b      	ldr	r3, [r3, #24]
 8002a74:	f403 4380 	and.w	r3, r3, #16384	@ 0x4000
 8002a78:	60fb      	str	r3, [r7, #12]
 8002a7a:	68fb      	ldr	r3, [r7, #12]

    __HAL_RCC_GPIOA_CLK_ENABLE();
 8002a7c:	4b15      	ldr	r3, [pc, #84]	@ (8002ad4 <HAL_UART_MspInit+0x90>)
 8002a7e:	699b      	ldr	r3, [r3, #24]
 8002a80:	4a14      	ldr	r2, [pc, #80]	@ (8002ad4 <HAL_UART_MspInit+0x90>)
 8002a82:	f043 0304 	orr.w	r3, r3, #4
 8002a86:	6193      	str	r3, [r2, #24]
 8002a88:	4b12      	ldr	r3, [pc, #72]	@ (8002ad4 <HAL_UART_MspInit+0x90>)
 8002a8a:	699b      	ldr	r3, [r3, #24]
 8002a8c:	f003 0304 	and.w	r3, r3, #4
 8002a90:	60bb      	str	r3, [r7, #8]
 8002a92:	68bb      	ldr	r3, [r7, #8]
    /**USART1 GPIO Configuration
    PA9     ------> USART1_TX
    PA10     ------> USART1_RX
    */
    GPIO_InitStruct.Pin = GPIO_PIN_9;
 8002a94:	f44f 7300 	mov.w	r3, #512	@ 0x200
 8002a98:	613b      	str	r3, [r7, #16]
    GPIO_InitStruct.Mode = GPIO_MODE_AF_PP;
 8002a9a:	2302      	movs	r3, #2
 8002a9c:	617b      	str	r3, [r7, #20]
    GPIO_InitStruct.Speed = GPIO_SPEED_FREQ_HIGH;
 8002a9e:	2303      	movs	r3, #3
 8002aa0:	61fb      	str	r3, [r7, #28]
    HAL_GPIO_Init(GPIOA, &GPIO_InitStruct);
 8002aa2:	f107 0310 	add.w	r3, r7, #16
 8002aa6:	4619      	mov	r1, r3
 8002aa8:	480b      	ldr	r0, [pc, #44]	@ (8002ad8 <HAL_UART_MspInit+0x94>)
 8002aaa:	f000 f9e9 	bl	8002e80 <HAL_GPIO_Init>

    GPIO_InitStruct.Pin = GPIO_PIN_10;
 8002aae:	f44f 6380 	mov.w	r3, #1024	@ 0x400
 8002ab2:	613b      	str	r3, [r7, #16]
    GPIO_InitStruct.Mode = GPIO_MODE_INPUT;
 8002ab4:	2300      	movs	r3, #0
 8002ab6:	617b      	str	r3, [r7, #20]
    GPIO_InitStruct.Pull = GPIO_NOPULL;
 8002ab8:	2300      	movs	r3, #0
 8002aba:	61bb      	str	r3, [r7, #24]
    HAL_GPIO_Init(GPIOA, &GPIO_InitStruct);
 8002abc:	f107 0310 	add.w	r3, r7, #16
 8002ac0:	4619      	mov	r1, r3
 8002ac2:	4805      	ldr	r0, [pc, #20]	@ (8002ad8 <HAL_UART_MspInit+0x94>)
 8002ac4:	f000 f9dc 	bl	8002e80 <HAL_GPIO_Init>
  /* USER CODE BEGIN USART1_MspInit 1 */

  /* USER CODE END USART1_MspInit 1 */
  }

}
 8002ac8:	bf00      	nop
 8002aca:	3720      	adds	r7, #32
 8002acc:	46bd      	mov	sp, r7
 8002ace:	bd80      	pop	{r7, pc}
 8002ad0:	40013800 	.word	0x40013800
 8002ad4:	40021000 	.word	0x40021000
 8002ad8:	40010800 	.word	0x40010800

08002adc <NMI_Handler>:
/******************************************************************************/
/**
  * @brief This function handles Non maskable interrupt.
  */
void NMI_Handler(void)
{
 8002adc:	b480      	push	{r7}
 8002ade:	af00      	add	r7, sp, #0
  /* USER CODE BEGIN NonMaskableInt_IRQn 0 */

  /* USER CODE END NonMaskableInt_IRQn 0 */
  /* USER CODE BEGIN NonMaskableInt_IRQn 1 */
   while (1)
 8002ae0:	bf00      	nop
 8002ae2:	e7fd      	b.n	8002ae0 <NMI_Handler+0x4>

08002ae4 <HardFault_Handler>:

/**
  * @brief This function handles Hard fault interrupt.
  */
void HardFault_Handler(void)
{
 8002ae4:	b480      	push	{r7}
 8002ae6:	af00      	add	r7, sp, #0
  /* USER CODE BEGIN HardFault_IRQn 0 */

  /* USER CODE END HardFault_IRQn 0 */
  while (1)
 8002ae8:	bf00      	nop
 8002aea:	e7fd      	b.n	8002ae8 <HardFault_Handler+0x4>

08002aec <MemManage_Handler>:

/**
  * @brief This function handles Memory management fault.
  */
void MemManage_Handler(void)
{
 8002aec:	b480      	push	{r7}
 8002aee:	af00      	add	r7, sp, #0
  /* USER CODE BEGIN MemoryManagement_IRQn 0 */

  /* USER CODE END MemoryManagement_IRQn 0 */
  while (1)
 8002af0:	bf00      	nop
 8002af2:	e7fd      	b.n	8002af0 <MemManage_Handler+0x4>

08002af4 <BusFault_Handler>:

/**
  * @brief This function handles Prefetch fault, memory access fault.
  */
void BusFault_Handler(void)
{
 8002af4:	b480      	push	{r7}
 8002af6:	af00      	add	r7, sp, #0
  /* USER CODE BEGIN BusFault_IRQn 0 */

  /* USER CODE END BusFault_IRQn 0 */
  while (1)
 8002af8:	bf00      	nop
 8002afa:	e7fd      	b.n	8002af8 <BusFault_Handler+0x4>

08002afc <UsageFault_Handler>:

/**
  * @brief This function handles Undefined instruction or illegal state.
  */
void UsageFault_Handler(void)
{
 8002afc:	b480      	push	{r7}
 8002afe:	af00      	add	r7, sp, #0
  /* USER CODE BEGIN UsageFault_IRQn 0 */

  /* USER CODE END UsageFault_IRQn 0 */
  while (1)
 8002b00:	bf00      	nop
 8002b02:	e7fd      	b.n	8002b00 <UsageFault_Handler+0x4>

08002b04 <SVC_Handler>:

/**
  * @brief This function handles System service call via SWI instruction.
  */
void SVC_Handler(void)
{
 8002b04:	b480      	push	{r7}
 8002b06:	af00      	add	r7, sp, #0

  /* USER CODE END SVCall_IRQn 0 */
  /* USER CODE BEGIN SVCall_IRQn 1 */

  /* USER CODE END SVCall_IRQn 1 */
}
 8002b08:	bf00      	nop
 8002b0a:	46bd      	mov	sp, r7
 8002b0c:	bc80      	pop	{r7}
 8002b0e:	4770      	bx	lr

08002b10 <DebugMon_Handler>:

/**
  * @brief This function handles Debug monitor.
  */
void DebugMon_Handler(void)
{
 8002b10:	b480      	push	{r7}
 8002b12:	af00      	add	r7, sp, #0

  /* USER CODE END DebugMonitor_IRQn 0 */
  /* USER CODE BEGIN DebugMonitor_IRQn 1 */

  /* USER CODE END DebugMonitor_IRQn 1 */
}
 8002b14:	bf00      	nop
 8002b16:	46bd      	mov	sp, r7
 8002b18:	bc80      	pop	{r7}
 8002b1a:	4770      	bx	lr

08002b1c <PendSV_Handler>:

/**
  * @brief This function handles Pendable request for system service.
  */
void PendSV_Handler(void)
{
 8002b1c:	b480      	push	{r7}
 8002b1e:	af00      	add	r7, sp, #0

  /* USER CODE END PendSV_IRQn 0 */
  /* USER CODE BEGIN PendSV_IRQn 1 */

  /* USER CODE END PendSV_IRQn 1 */
}
 8002b20:	bf00      	nop
 8002b22:	46bd      	mov	sp, r7
 8002b24:	bc80      	pop	{r7}
 8002b26:	4770      	bx	lr

08002b28 <SysTick_Handler>:

/**
  * @brief This function handles System tick timer.
  */
void SysTick_Handler(void)
{
 8002b28:	b580      	push	{r7, lr}
 8002b2a:	af00      	add	r7, sp, #0
  /* USER CODE BEGIN SysTick_IRQn 0 */

  /* USER CODE END SysTick_IRQn 0 */
  HAL_IncTick();
 8002b2c:	f000 f87e 	bl	8002c2c <HAL_IncTick>
  /* USER CODE BEGIN SysTick_IRQn 1 */

  /* USER CODE END SysTick_IRQn 1 */
}
 8002b30:	bf00      	nop
 8002b32:	bd80      	pop	{r7, pc}

08002b34 <TIM1_UP_IRQHandler>:

/**
  * @brief This function handles TIM1 update interrupt.
  */
void TIM1_UP_IRQHandler(void)
{
 8002b34:	b580      	push	{r7, lr}
 8002b36:	af00      	add	r7, sp, #0
  /* USER CODE BEGIN TIM1_UP_IRQn 0 */

  /* USER CODE END TIM1_UP_IRQn 0 */
  HAL_TIM_IRQHandler(&htim1);
 8002b38:	4802      	ldr	r0, [pc, #8]	@ (8002b44 <TIM1_UP_IRQHandler+0x10>)
 8002b3a:	f002 f93b 	bl	8004db4 <HAL_TIM_IRQHandler>
  /* USER CODE BEGIN TIM1_UP_IRQn 1 */

  /* USER CODE END TIM1_UP_IRQn 1 */
}
 8002b3e:	bf00      	nop
 8002b40:	bd80      	pop	{r7, pc}
 8002b42:	bf00      	nop
 8002b44:	20000194 	.word	0x20000194

08002b48 <SystemInit>:
  * @note   This function should be used only after reset.
  * @param  None
  * @retval None
  */
void SystemInit (void)
{
 8002b48:	b480      	push	{r7}
 8002b4a:	af00      	add	r7, sp, #0

  /* Configure the Vector Table location -------------------------------------*/
#if defined(USER_VECT_TAB_ADDRESS)
  SCB->VTOR = VECT_TAB_BASE_ADDRESS | VECT_TAB_OFFSET; /* Vector Table Relocation in Internal SRAM. */
#endif /* USER_VECT_TAB_ADDRESS */
}
 8002b4c:	bf00      	nop
 8002b4e:	46bd      	mov	sp, r7
 8002b50:	bc80      	pop	{r7}
 8002b52:	4770      	bx	lr

08002b54 <Reset_Handler>:
  .weak Reset_Handler
  .type Reset_Handler, %function
Reset_Handler:

/* Call the clock system initialization function.*/
     bl  SystemInit
 8002b54:	f7ff fff8 	bl	8002b48 <SystemInit>

/* Copy the data segment initializers from flash to SRAM */
  ldr r0, =_sdata
 8002b58:	480b      	ldr	r0, [pc, #44]	@ (8002b88 <LoopFillZerobss+0xe>)
  ldr r1, =_edata
 8002b5a:	490c      	ldr	r1, [pc, #48]	@ (8002b8c <LoopFillZerobss+0x12>)
  ldr r2, =_sidata
 8002b5c:	4a0c      	ldr	r2, [pc, #48]	@ (8002b90 <LoopFillZerobss+0x16>)
  movs r3, #0
 8002b5e:	2300      	movs	r3, #0
  b LoopCopyDataInit
 8002b60:	e002      	b.n	8002b68 <LoopCopyDataInit>

08002b62 <CopyDataInit>:

CopyDataInit:
  ldr r4, [r2, r3]
 8002b62:	58d4      	ldr	r4, [r2, r3]
  str r4, [r0, r3]
 8002b64:	50c4      	str	r4, [r0, r3]
  adds r3, r3, #4
 8002b66:	3304      	adds	r3, #4

08002b68 <LoopCopyDataInit>:

LoopCopyDataInit:
  adds r4, r0, r3
 8002b68:	18c4      	adds	r4, r0, r3
  cmp r4, r1
 8002b6a:	428c      	cmp	r4, r1
  bcc CopyDataInit
 8002b6c:	d3f9      	bcc.n	8002b62 <CopyDataInit>
  
/* Zero fill the bss segment. */
  ldr r2, =_sbss
 8002b6e:	4a09      	ldr	r2, [pc, #36]	@ (8002b94 <LoopFillZerobss+0x1a>)
  ldr r4, =_ebss
 8002b70:	4c09      	ldr	r4, [pc, #36]	@ (8002b98 <LoopFillZerobss+0x1e>)
  movs r3, #0
 8002b72:	2300      	movs	r3, #0
  b LoopFillZerobss
 8002b74:	e001      	b.n	8002b7a <LoopFillZerobss>

08002b76 <FillZerobss>:

FillZerobss:
  str  r3, [r2]
 8002b76:	6013      	str	r3, [r2, #0]
  adds r2, r2, #4
 8002b78:	3204      	adds	r2, #4

08002b7a <LoopFillZerobss>:

LoopFillZerobss:
  cmp r2, r4
 8002b7a:	42a2      	cmp	r2, r4
  bcc FillZerobss
 8002b7c:	d3fb      	bcc.n	8002b76 <FillZerobss>

/* Call static constructors */
    bl __libc_init_array
 8002b7e:	f002 ffcf 	bl	8005b20 <__libc_init_array>
/* Call the application's entry point.*/
  bl main
 8002b82:	f7fe fea9 	bl	80018d8 <main>
  bx lr
 8002b86:	4770      	bx	lr
  ldr r0, =_sdata
 8002b88:	20000000 	.word	0x20000000
  ldr r1, =_edata
 8002b8c:	20000100 	.word	0x20000100
  ldr r2, =_sidata
 8002b90:	080062f8 	.word	0x080062f8
  ldr r2, =_sbss
 8002b94:	20000100 	.word	0x20000100
  ldr r4, =_ebss
 8002b98:	20000468 	.word	0x20000468

08002b9c <ADC1_2_IRQHandler>:
 * @retval : None
*/
    .section .text.Default_Handler,"ax",%progbits
Default_Handler:
Infinite_Loop:
  b Infinite_Loop
 8002b9c:	e7fe      	b.n	8002b9c <ADC1_2_IRQHandler>
	...

08002ba0 <HAL_Init>:
  *         need to ensure that the SysTick time base is always set to 1 millisecond
  *         to have correct HAL operation.
  * @retval HAL status
  */
HAL_StatusTypeDef HAL_Init(void)
{
 8002ba0:	b580      	push	{r7, lr}
 8002ba2:	af00      	add	r7, sp, #0
    defined(STM32F102x6) || defined(STM32F102xB) || \
    defined(STM32F103x6) || defined(STM32F103xB) || defined(STM32F103xE) || defined(STM32F103xG) || \
    defined(STM32F105xC) || defined(STM32F107xC)

  /* Prefetch buffer is not available on value line devices */
  __HAL_FLASH_PREFETCH_BUFFER_ENABLE();
 8002ba4:	4b08      	ldr	r3, [pc, #32]	@ (8002bc8 <HAL_Init+0x28>)
 8002ba6:	681b      	ldr	r3, [r3, #0]
 8002ba8:	4a07      	ldr	r2, [pc, #28]	@ (8002bc8 <HAL_Init+0x28>)
 8002baa:	f043 0310 	orr.w	r3, r3, #16
 8002bae:	6013      	str	r3, [r2, #0]
#endif
#endif /* PREFETCH_ENABLE */

  /* Set Interrupt Group Priority */
  HAL_NVIC_SetPriorityGrouping(NVIC_PRIORITYGROUP_4);
 8002bb0:	2003      	movs	r0, #3
 8002bb2:	f000 f923 	bl	8002dfc <HAL_NVIC_SetPriorityGrouping>

  /* Use systick as time base source and configure 1ms tick (default clock after Reset is HSI) */
  HAL_InitTick(TICK_INT_PRIORITY);
 8002bb6:	200f      	movs	r0, #15
 8002bb8:	f000 f808 	bl	8002bcc <HAL_InitTick>

  /* Init the low level hardware */
  HAL_MspInit();
 8002bbc:	f7ff fe02 	bl	80027c4 <HAL_MspInit>

  /* Return function status */
  return HAL_OK;
 8002bc0:	2300      	movs	r3, #0
}
 8002bc2:	4618      	mov	r0, r3
 8002bc4:	bd80      	pop	{r7, pc}
 8002bc6:	bf00      	nop
 8002bc8:	40022000 	.word	0x40022000

08002bcc <HAL_InitTick>:
  *       implementation  in user file.
  * @param TickPriority Tick interrupt priority.
  * @retval HAL status
  */
__weak HAL_StatusTypeDef HAL_InitTick(uint32_t TickPriority)
{
 8002bcc:	b580      	push	{r7, lr}
 8002bce:	b082      	sub	sp, #8
 8002bd0:	af00      	add	r7, sp, #0
 8002bd2:	6078      	str	r0, [r7, #4]
  /* Configure the SysTick to have interrupt in 1ms time basis*/
  if (HAL_SYSTICK_Config(SystemCoreClock / (1000U / uwTickFreq)) > 0U)
 8002bd4:	4b12      	ldr	r3, [pc, #72]	@ (8002c20 <HAL_InitTick+0x54>)
 8002bd6:	681a      	ldr	r2, [r3, #0]
 8002bd8:	4b12      	ldr	r3, [pc, #72]	@ (8002c24 <HAL_InitTick+0x58>)
 8002bda:	781b      	ldrb	r3, [r3, #0]
 8002bdc:	4619      	mov	r1, r3
 8002bde:	f44f 737a 	mov.w	r3, #1000	@ 0x3e8
 8002be2:	fbb3 f3f1 	udiv	r3, r3, r1
 8002be6:	fbb2 f3f3 	udiv	r3, r2, r3
 8002bea:	4618      	mov	r0, r3
 8002bec:	f000 f93b 	bl	8002e66 <HAL_SYSTICK_Config>
 8002bf0:	4603      	mov	r3, r0
 8002bf2:	2b00      	cmp	r3, #0
 8002bf4:	d001      	beq.n	8002bfa <HAL_InitTick+0x2e>
  {
    return HAL_ERROR;
 8002bf6:	2301      	movs	r3, #1
 8002bf8:	e00e      	b.n	8002c18 <HAL_InitTick+0x4c>
  }

  /* Configure the SysTick IRQ priority */
  if (TickPriority < (1UL << __NVIC_PRIO_BITS))
 8002bfa:	687b      	ldr	r3, [r7, #4]
 8002bfc:	2b0f      	cmp	r3, #15
 8002bfe:	d80a      	bhi.n	8002c16 <HAL_InitTick+0x4a>
  {
    HAL_NVIC_SetPriority(SysTick_IRQn, TickPriority, 0U);
 8002c00:	2200      	movs	r2, #0
 8002c02:	6879      	ldr	r1, [r7, #4]
 8002c04:	f04f 30ff 	mov.w	r0, #4294967295
 8002c08:	f000 f903 	bl	8002e12 <HAL_NVIC_SetPriority>
    uwTickPrio = TickPriority;
 8002c0c:	4a06      	ldr	r2, [pc, #24]	@ (8002c28 <HAL_InitTick+0x5c>)
 8002c0e:	687b      	ldr	r3, [r7, #4]
 8002c10:	6013      	str	r3, [r2, #0]
  {
    return HAL_ERROR;
  }

  /* Return function status */
  return HAL_OK;
 8002c12:	2300      	movs	r3, #0
 8002c14:	e000      	b.n	8002c18 <HAL_InitTick+0x4c>
    return HAL_ERROR;
 8002c16:	2301      	movs	r3, #1
}
 8002c18:	4618      	mov	r0, r3
 8002c1a:	3708      	adds	r7, #8
 8002c1c:	46bd      	mov	sp, r7
 8002c1e:	bd80      	pop	{r7, pc}
 8002c20:	20000090 	.word	0x20000090
 8002c24:	20000098 	.word	0x20000098
 8002c28:	20000094 	.word	0x20000094

08002c2c <HAL_IncTick>:
  * @note This function is declared as __weak to be overwritten in case of other
  *      implementations in user file.
  * @retval None
  */
__weak void HAL_IncTick(void)
{
 8002c2c:	b480      	push	{r7}
 8002c2e:	af00      	add	r7, sp, #0
  uwTick += uwTickFreq;
 8002c30:	4b05      	ldr	r3, [pc, #20]	@ (8002c48 <HAL_IncTick+0x1c>)
 8002c32:	781b      	ldrb	r3, [r3, #0]
 8002c34:	461a      	mov	r2, r3
 8002c36:	4b05      	ldr	r3, [pc, #20]	@ (8002c4c <HAL_IncTick+0x20>)
 8002c38:	681b      	ldr	r3, [r3, #0]
 8002c3a:	4413      	add	r3, r2
 8002c3c:	4a03      	ldr	r2, [pc, #12]	@ (8002c4c <HAL_IncTick+0x20>)
 8002c3e:	6013      	str	r3, [r2, #0]
}
 8002c40:	bf00      	nop
 8002c42:	46bd      	mov	sp, r7
 8002c44:	bc80      	pop	{r7}
 8002c46:	4770      	bx	lr
 8002c48:	20000098 	.word	0x20000098
 8002c4c:	2000032c 	.word	0x2000032c

08002c50 <HAL_GetTick>:
  * @note  This function is declared as __weak to be overwritten in case of other
  *       implementations in user file.
  * @retval tick value
  */
__weak uint32_t HAL_GetTick(void)
{
 8002c50:	b480      	push	{r7}
 8002c52:	af00      	add	r7, sp, #0
  return uwTick;
 8002c54:	4b02      	ldr	r3, [pc, #8]	@ (8002c60 <HAL_GetTick+0x10>)
 8002c56:	681b      	ldr	r3, [r3, #0]
}
 8002c58:	4618      	mov	r0, r3
 8002c5a:	46bd      	mov	sp, r7
 8002c5c:	bc80      	pop	{r7}
 8002c5e:	4770      	bx	lr
 8002c60:	2000032c 	.word	0x2000032c

08002c64 <__NVIC_SetPriorityGrouping>:
           In case of a conflict between priority grouping and available
           priority bits (__NVIC_PRIO_BITS), the smallest possible priority group is set.
  \param [in]      PriorityGroup  Priority grouping field.
 */
__STATIC_INLINE void __NVIC_SetPriorityGrouping(uint32_t PriorityGroup)
{
 8002c64:	b480      	push	{r7}
 8002c66:	b085      	sub	sp, #20
 8002c68:	af00      	add	r7, sp, #0
 8002c6a:	6078      	str	r0, [r7, #4]
  uint32_t reg_value;
  uint32_t PriorityGroupTmp = (PriorityGroup & (uint32_t)0x07UL);             /* only values 0..7 are used          */
 8002c6c:	687b      	ldr	r3, [r7, #4]
 8002c6e:	f003 0307 	and.w	r3, r3, #7
 8002c72:	60fb      	str	r3, [r7, #12]

  reg_value  =  SCB->AIRCR;                                                   /* read old register configuration    */
 8002c74:	4b0c      	ldr	r3, [pc, #48]	@ (8002ca8 <__NVIC_SetPriorityGrouping+0x44>)
 8002c76:	68db      	ldr	r3, [r3, #12]
 8002c78:	60bb      	str	r3, [r7, #8]
  reg_value &= ~((uint32_t)(SCB_AIRCR_VECTKEY_Msk | SCB_AIRCR_PRIGROUP_Msk)); /* clear bits to change               */
 8002c7a:	68ba      	ldr	r2, [r7, #8]
 8002c7c:	f64f 03ff 	movw	r3, #63743	@ 0xf8ff
 8002c80:	4013      	ands	r3, r2
 8002c82:	60bb      	str	r3, [r7, #8]
  reg_value  =  (reg_value                                   |
                ((uint32_t)0x5FAUL << SCB_AIRCR_VECTKEY_Pos) |
                (PriorityGroupTmp << SCB_AIRCR_PRIGROUP_Pos) );               /* Insert write key and priority group */
 8002c84:	68fb      	ldr	r3, [r7, #12]
 8002c86:	021a      	lsls	r2, r3, #8
                ((uint32_t)0x5FAUL << SCB_AIRCR_VECTKEY_Pos) |
 8002c88:	68bb      	ldr	r3, [r7, #8]
 8002c8a:	4313      	orrs	r3, r2
  reg_value  =  (reg_value                                   |
 8002c8c:	f043 63bf 	orr.w	r3, r3, #100139008	@ 0x5f80000
 8002c90:	f443 3300 	orr.w	r3, r3, #131072	@ 0x20000
 8002c94:	60bb      	str	r3, [r7, #8]
  SCB->AIRCR =  reg_value;
 8002c96:	4a04      	ldr	r2, [pc, #16]	@ (8002ca8 <__NVIC_SetPriorityGrouping+0x44>)
 8002c98:	68bb      	ldr	r3, [r7, #8]
 8002c9a:	60d3      	str	r3, [r2, #12]
}
 8002c9c:	bf00      	nop
 8002c9e:	3714      	adds	r7, #20
 8002ca0:	46bd      	mov	sp, r7
 8002ca2:	bc80      	pop	{r7}
 8002ca4:	4770      	bx	lr
 8002ca6:	bf00      	nop
 8002ca8:	e000ed00 	.word	0xe000ed00

08002cac <__NVIC_GetPriorityGrouping>:
  \brief   Get Priority Grouping
  \details Reads the priority grouping field from the NVIC Interrupt Controller.
  \return                Priority grouping field (SCB->AIRCR [10:8] PRIGROUP field).
 */
__STATIC_INLINE uint32_t __NVIC_GetPriorityGrouping(void)
{
 8002cac:	b480      	push	{r7}
 8002cae:	af00      	add	r7, sp, #0
  return ((uint32_t)((SCB->AIRCR & SCB_AIRCR_PRIGROUP_Msk) >> SCB_AIRCR_PRIGROUP_Pos));
 8002cb0:	4b04      	ldr	r3, [pc, #16]	@ (8002cc4 <__NVIC_GetPriorityGrouping+0x18>)
 8002cb2:	68db      	ldr	r3, [r3, #12]
 8002cb4:	0a1b      	lsrs	r3, r3, #8
 8002cb6:	f003 0307 	and.w	r3, r3, #7
}
 8002cba:	4618      	mov	r0, r3
 8002cbc:	46bd      	mov	sp, r7
 8002cbe:	bc80      	pop	{r7}
 8002cc0:	4770      	bx	lr
 8002cc2:	bf00      	nop
 8002cc4:	e000ed00 	.word	0xe000ed00

08002cc8 <__NVIC_EnableIRQ>:
  \details Enables a device specific interrupt in the NVIC interrupt controller.
  \param [in]      IRQn  Device specific interrupt number.
  \note    IRQn must not be negative.
 */
__STATIC_INLINE void __NVIC_EnableIRQ(IRQn_Type IRQn)
{
 8002cc8:	b480      	push	{r7}
 8002cca:	b083      	sub	sp, #12
 8002ccc:	af00      	add	r7, sp, #0
 8002cce:	4603      	mov	r3, r0
 8002cd0:	71fb      	strb	r3, [r7, #7]
  if ((int32_t)(IRQn) >= 0)
 8002cd2:	f997 3007 	ldrsb.w	r3, [r7, #7]
 8002cd6:	2b00      	cmp	r3, #0
 8002cd8:	db0b      	blt.n	8002cf2 <__NVIC_EnableIRQ+0x2a>
  {
    NVIC->ISER[(((uint32_t)IRQn) >> 5UL)] = (uint32_t)(1UL << (((uint32_t)IRQn) & 0x1FUL));
 8002cda:	79fb      	ldrb	r3, [r7, #7]
 8002cdc:	f003 021f 	and.w	r2, r3, #31
 8002ce0:	4906      	ldr	r1, [pc, #24]	@ (8002cfc <__NVIC_EnableIRQ+0x34>)
 8002ce2:	f997 3007 	ldrsb.w	r3, [r7, #7]
 8002ce6:	095b      	lsrs	r3, r3, #5
 8002ce8:	2001      	movs	r0, #1
 8002cea:	fa00 f202 	lsl.w	r2, r0, r2
 8002cee:	f841 2023 	str.w	r2, [r1, r3, lsl #2]
  }
}
 8002cf2:	bf00      	nop
 8002cf4:	370c      	adds	r7, #12
 8002cf6:	46bd      	mov	sp, r7
 8002cf8:	bc80      	pop	{r7}
 8002cfa:	4770      	bx	lr
 8002cfc:	e000e100 	.word	0xe000e100

08002d00 <__NVIC_SetPriority>:
  \param [in]      IRQn  Interrupt number.
  \param [in]  priority  Priority to set.
  \note    The priority cannot be set for every processor exception.
 */
__STATIC_INLINE void __NVIC_SetPriority(IRQn_Type IRQn, uint32_t priority)
{
 8002d00:	b480      	push	{r7}
 8002d02:	b083      	sub	sp, #12
 8002d04:	af00      	add	r7, sp, #0
 8002d06:	4603      	mov	r3, r0
 8002d08:	6039      	str	r1, [r7, #0]
 8002d0a:	71fb      	strb	r3, [r7, #7]
  if ((int32_t)(IRQn) >= 0)
 8002d0c:	f997 3007 	ldrsb.w	r3, [r7, #7]
 8002d10:	2b00      	cmp	r3, #0
 8002d12:	db0a      	blt.n	8002d2a <__NVIC_SetPriority+0x2a>
  {
    NVIC->IP[((uint32_t)IRQn)]               = (uint8_t)((priority << (8U - __NVIC_PRIO_BITS)) & (uint32_t)0xFFUL);
 8002d14:	683b      	ldr	r3, [r7, #0]
 8002d16:	b2da      	uxtb	r2, r3
 8002d18:	490c      	ldr	r1, [pc, #48]	@ (8002d4c <__NVIC_SetPriority+0x4c>)
 8002d1a:	f997 3007 	ldrsb.w	r3, [r7, #7]
 8002d1e:	0112      	lsls	r2, r2, #4
 8002d20:	b2d2      	uxtb	r2, r2
 8002d22:	440b      	add	r3, r1
 8002d24:	f883 2300 	strb.w	r2, [r3, #768]	@ 0x300
  }
  else
  {
    SCB->SHP[(((uint32_t)IRQn) & 0xFUL)-4UL] = (uint8_t)((priority << (8U - __NVIC_PRIO_BITS)) & (uint32_t)0xFFUL);
  }
}
 8002d28:	e00a      	b.n	8002d40 <__NVIC_SetPriority+0x40>
    SCB->SHP[(((uint32_t)IRQn) & 0xFUL)-4UL] = (uint8_t)((priority << (8U - __NVIC_PRIO_BITS)) & (uint32_t)0xFFUL);
 8002d2a:	683b      	ldr	r3, [r7, #0]
 8002d2c:	b2da      	uxtb	r2, r3
 8002d2e:	4908      	ldr	r1, [pc, #32]	@ (8002d50 <__NVIC_SetPriority+0x50>)
 8002d30:	79fb      	ldrb	r3, [r7, #7]
 8002d32:	f003 030f 	and.w	r3, r3, #15
 8002d36:	3b04      	subs	r3, #4
 8002d38:	0112      	lsls	r2, r2, #4
 8002d3a:	b2d2      	uxtb	r2, r2
 8002d3c:	440b      	add	r3, r1
 8002d3e:	761a      	strb	r2, [r3, #24]
}
 8002d40:	bf00      	nop
 8002d42:	370c      	adds	r7, #12
 8002d44:	46bd      	mov	sp, r7
 8002d46:	bc80      	pop	{r7}
 8002d48:	4770      	bx	lr
 8002d4a:	bf00      	nop
 8002d4c:	e000e100 	.word	0xe000e100
 8002d50:	e000ed00 	.word	0xe000ed00

08002d54 <NVIC_EncodePriority>:
  \param [in]   PreemptPriority  Preemptive priority value (starting from 0).
  \param [in]       SubPriority  Subpriority value (starting from 0).
  \return                        Encoded priority. Value can be used in the function \ref NVIC_SetPriority().
 */
__STATIC_INLINE uint32_t NVIC_EncodePriority (uint32_t PriorityGroup, uint32_t PreemptPriority, uint32_t SubPriority)
{
 8002d54:	b480      	push	{r7}
 8002d56:	b089      	sub	sp, #36	@ 0x24
 8002d58:	af00      	add	r7, sp, #0
 8002d5a:	60f8      	str	r0, [r7, #12]
 8002d5c:	60b9      	str	r1, [r7, #8]
 8002d5e:	607a      	str	r2, [r7, #4]
  uint32_t PriorityGroupTmp = (PriorityGroup & (uint32_t)0x07UL);   /* only values 0..7 are used          */
 8002d60:	68fb      	ldr	r3, [r7, #12]
 8002d62:	f003 0307 	and.w	r3, r3, #7
 8002d66:	61fb      	str	r3, [r7, #28]
  uint32_t PreemptPriorityBits;
  uint32_t SubPriorityBits;

  PreemptPriorityBits = ((7UL - PriorityGroupTmp) > (uint32_t)(__NVIC_PRIO_BITS)) ? (uint32_t)(__NVIC_PRIO_BITS) : (uint32_t)(7UL - PriorityGroupTmp);
 8002d68:	69fb      	ldr	r3, [r7, #28]
 8002d6a:	f1c3 0307 	rsb	r3, r3, #7
 8002d6e:	2b04      	cmp	r3, #4
 8002d70:	bf28      	it	cs
 8002d72:	2304      	movcs	r3, #4
 8002d74:	61bb      	str	r3, [r7, #24]
  SubPriorityBits     = ((PriorityGroupTmp + (uint32_t)(__NVIC_PRIO_BITS)) < (uint32_t)7UL) ? (uint32_t)0UL : (uint32_t)((PriorityGroupTmp - 7UL) + (uint32_t)(__NVIC_PRIO_BITS));
 8002d76:	69fb      	ldr	r3, [r7, #28]
 8002d78:	3304      	adds	r3, #4
 8002d7a:	2b06      	cmp	r3, #6
 8002d7c:	d902      	bls.n	8002d84 <NVIC_EncodePriority+0x30>
 8002d7e:	69fb      	ldr	r3, [r7, #28]
 8002d80:	3b03      	subs	r3, #3
 8002d82:	e000      	b.n	8002d86 <NVIC_EncodePriority+0x32>
 8002d84:	2300      	movs	r3, #0
 8002d86:	617b      	str	r3, [r7, #20]

  return (
           ((PreemptPriority & (uint32_t)((1UL << (PreemptPriorityBits)) - 1UL)) << SubPriorityBits) |
 8002d88:	f04f 32ff 	mov.w	r2, #4294967295
 8002d8c:	69bb      	ldr	r3, [r7, #24]
 8002d8e:	fa02 f303 	lsl.w	r3, r2, r3
 8002d92:	43da      	mvns	r2, r3
 8002d94:	68bb      	ldr	r3, [r7, #8]
 8002d96:	401a      	ands	r2, r3
 8002d98:	697b      	ldr	r3, [r7, #20]
 8002d9a:	409a      	lsls	r2, r3
           ((SubPriority     & (uint32_t)((1UL << (SubPriorityBits    )) - 1UL)))
 8002d9c:	f04f 31ff 	mov.w	r1, #4294967295
 8002da0:	697b      	ldr	r3, [r7, #20]
 8002da2:	fa01 f303 	lsl.w	r3, r1, r3
 8002da6:	43d9      	mvns	r1, r3
 8002da8:	687b      	ldr	r3, [r7, #4]
 8002daa:	400b      	ands	r3, r1
           ((PreemptPriority & (uint32_t)((1UL << (PreemptPriorityBits)) - 1UL)) << SubPriorityBits) |
 8002dac:	4313      	orrs	r3, r2
         );
}
 8002dae:	4618      	mov	r0, r3
 8002db0:	3724      	adds	r7, #36	@ 0x24
 8002db2:	46bd      	mov	sp, r7
 8002db4:	bc80      	pop	{r7}
 8002db6:	4770      	bx	lr

08002db8 <SysTick_Config>:
  \note    When the variable <b>__Vendor_SysTickConfig</b> is set to 1, then the
           function <b>SysTick_Config</b> is not included. In this case, the file <b><i>device</i>.h</b>
           must contain a vendor-specific implementation of this function.
 */
__STATIC_INLINE uint32_t SysTick_Config(uint32_t ticks)
{
 8002db8:	b580      	push	{r7, lr}
 8002dba:	b082      	sub	sp, #8
 8002dbc:	af00      	add	r7, sp, #0
 8002dbe:	6078      	str	r0, [r7, #4]
  if ((ticks - 1UL) > SysTick_LOAD_RELOAD_Msk)
 8002dc0:	687b      	ldr	r3, [r7, #4]
 8002dc2:	3b01      	subs	r3, #1
 8002dc4:	f1b3 7f80 	cmp.w	r3, #16777216	@ 0x1000000
 8002dc8:	d301      	bcc.n	8002dce <SysTick_Config+0x16>
  {
    return (1UL);                                                   /* Reload value impossible */
 8002dca:	2301      	movs	r3, #1
 8002dcc:	e00f      	b.n	8002dee <SysTick_Config+0x36>
  }

  SysTick->LOAD  = (uint32_t)(ticks - 1UL);                         /* set reload register */
 8002dce:	4a0a      	ldr	r2, [pc, #40]	@ (8002df8 <SysTick_Config+0x40>)
 8002dd0:	687b      	ldr	r3, [r7, #4]
 8002dd2:	3b01      	subs	r3, #1
 8002dd4:	6053      	str	r3, [r2, #4]
  NVIC_SetPriority (SysTick_IRQn, (1UL << __NVIC_PRIO_BITS) - 1UL); /* set Priority for Systick Interrupt */
 8002dd6:	210f      	movs	r1, #15
 8002dd8:	f04f 30ff 	mov.w	r0, #4294967295
 8002ddc:	f7ff ff90 	bl	8002d00 <__NVIC_SetPriority>
  SysTick->VAL   = 0UL;                                             /* Load the SysTick Counter Value */
 8002de0:	4b05      	ldr	r3, [pc, #20]	@ (8002df8 <SysTick_Config+0x40>)
 8002de2:	2200      	movs	r2, #0
 8002de4:	609a      	str	r2, [r3, #8]
  SysTick->CTRL  = SysTick_CTRL_CLKSOURCE_Msk |
 8002de6:	4b04      	ldr	r3, [pc, #16]	@ (8002df8 <SysTick_Config+0x40>)
 8002de8:	2207      	movs	r2, #7
 8002dea:	601a      	str	r2, [r3, #0]
                   SysTick_CTRL_TICKINT_Msk   |
                   SysTick_CTRL_ENABLE_Msk;                         /* Enable SysTick IRQ and SysTick Timer */
  return (0UL);                                                     /* Function successful */
 8002dec:	2300      	movs	r3, #0
}
 8002dee:	4618      	mov	r0, r3
 8002df0:	3708      	adds	r7, #8
 8002df2:	46bd      	mov	sp, r7
 8002df4:	bd80      	pop	{r7, pc}
 8002df6:	bf00      	nop
 8002df8:	e000e010 	.word	0xe000e010

08002dfc <HAL_NVIC_SetPriorityGrouping>:
  * @note   When the NVIC_PriorityGroup_0 is selected, IRQ preemption is no more possible. 
  *         The pending IRQ priority will be managed only by the subpriority. 
  * @retval None
  */
void HAL_NVIC_SetPriorityGrouping(uint32_t PriorityGroup)
{
 8002dfc:	b580      	push	{r7, lr}
 8002dfe:	b082      	sub	sp, #8
 8002e00:	af00      	add	r7, sp, #0
 8002e02:	6078      	str	r0, [r7, #4]
  /* Check the parameters */
  assert_param(IS_NVIC_PRIORITY_GROUP(PriorityGroup));
  
  /* Set the PRIGROUP[10:8] bits according to the PriorityGroup parameter value */
  NVIC_SetPriorityGrouping(PriorityGroup);
 8002e04:	6878      	ldr	r0, [r7, #4]
 8002e06:	f7ff ff2d 	bl	8002c64 <__NVIC_SetPriorityGrouping>
}
 8002e0a:	bf00      	nop
 8002e0c:	3708      	adds	r7, #8
 8002e0e:	46bd      	mov	sp, r7
 8002e10:	bd80      	pop	{r7, pc}

08002e12 <HAL_NVIC_SetPriority>:
  *         This parameter can be a value between 0 and 15
  *         A lower priority value indicates a higher priority.          
  * @retval None
  */
void HAL_NVIC_SetPriority(IRQn_Type IRQn, uint32_t PreemptPriority, uint32_t SubPriority)
{ 
 8002e12:	b580      	push	{r7, lr}
 8002e14:	b086      	sub	sp, #24
 8002e16:	af00      	add	r7, sp, #0
 8002e18:	4603      	mov	r3, r0
 8002e1a:	60b9      	str	r1, [r7, #8]
 8002e1c:	607a      	str	r2, [r7, #4]
 8002e1e:	73fb      	strb	r3, [r7, #15]
  uint32_t prioritygroup = 0x00U;
 8002e20:	2300      	movs	r3, #0
 8002e22:	617b      	str	r3, [r7, #20]
  
  /* Check the parameters */
  assert_param(IS_NVIC_SUB_PRIORITY(SubPriority));
  assert_param(IS_NVIC_PREEMPTION_PRIORITY(PreemptPriority));
  
  prioritygroup = NVIC_GetPriorityGrouping();
 8002e24:	f7ff ff42 	bl	8002cac <__NVIC_GetPriorityGrouping>
 8002e28:	6178      	str	r0, [r7, #20]
  
  NVIC_SetPriority(IRQn, NVIC_EncodePriority(prioritygroup, PreemptPriority, SubPriority));
 8002e2a:	687a      	ldr	r2, [r7, #4]
 8002e2c:	68b9      	ldr	r1, [r7, #8]
 8002e2e:	6978      	ldr	r0, [r7, #20]
 8002e30:	f7ff ff90 	bl	8002d54 <NVIC_EncodePriority>
 8002e34:	4602      	mov	r2, r0
 8002e36:	f997 300f 	ldrsb.w	r3, [r7, #15]
 8002e3a:	4611      	mov	r1, r2
 8002e3c:	4618      	mov	r0, r3
 8002e3e:	f7ff ff5f 	bl	8002d00 <__NVIC_SetPriority>
}
 8002e42:	bf00      	nop
 8002e44:	3718      	adds	r7, #24
 8002e46:	46bd      	mov	sp, r7
 8002e48:	bd80      	pop	{r7, pc}

08002e4a <HAL_NVIC_EnableIRQ>:
  *         This parameter can be an enumerator of IRQn_Type enumeration
  *         (For the complete STM32 Devices IRQ Channels list, please refer to the appropriate CMSIS device file (stm32f10xxx.h))
  * @retval None
  */
void HAL_NVIC_EnableIRQ(IRQn_Type IRQn)
{
 8002e4a:	b580      	push	{r7, lr}
 8002e4c:	b082      	sub	sp, #8
 8002e4e:	af00      	add	r7, sp, #0
 8002e50:	4603      	mov	r3, r0
 8002e52:	71fb      	strb	r3, [r7, #7]
  /* Check the parameters */
  assert_param(IS_NVIC_DEVICE_IRQ(IRQn));

  /* Enable interrupt */
  NVIC_EnableIRQ(IRQn);
 8002e54:	f997 3007 	ldrsb.w	r3, [r7, #7]
 8002e58:	4618      	mov	r0, r3
 8002e5a:	f7ff ff35 	bl	8002cc8 <__NVIC_EnableIRQ>
}
 8002e5e:	bf00      	nop
 8002e60:	3708      	adds	r7, #8
 8002e62:	46bd      	mov	sp, r7
 8002e64:	bd80      	pop	{r7, pc}

08002e66 <HAL_SYSTICK_Config>:
  * @param  TicksNumb: Specifies the ticks Number of ticks between two interrupts.
  * @retval status:  - 0  Function succeeded.
  *                  - 1  Function failed.
  */
uint32_t HAL_SYSTICK_Config(uint32_t TicksNumb)
{
 8002e66:	b580      	push	{r7, lr}
 8002e68:	b082      	sub	sp, #8
 8002e6a:	af00      	add	r7, sp, #0
 8002e6c:	6078      	str	r0, [r7, #4]
   return SysTick_Config(TicksNumb);
 8002e6e:	6878      	ldr	r0, [r7, #4]
 8002e70:	f7ff ffa2 	bl	8002db8 <SysTick_Config>
 8002e74:	4603      	mov	r3, r0
}
 8002e76:	4618      	mov	r0, r3
 8002e78:	3708      	adds	r7, #8
 8002e7a:	46bd      	mov	sp, r7
 8002e7c:	bd80      	pop	{r7, pc}
	...

08002e80 <HAL_GPIO_Init>:
  * @param  GPIO_Init: pointer to a GPIO_InitTypeDef structure that contains
  *         the configuration information for the specified GPIO peripheral.
  * @retval None
  */
void HAL_GPIO_Init(GPIO_TypeDef  *GPIOx, GPIO_InitTypeDef *GPIO_Init)
{
 8002e80:	b480      	push	{r7}
 8002e82:	b08b      	sub	sp, #44	@ 0x2c
 8002e84:	af00      	add	r7, sp, #0
 8002e86:	6078      	str	r0, [r7, #4]
 8002e88:	6039      	str	r1, [r7, #0]
  uint32_t position = 0x00u;
 8002e8a:	2300      	movs	r3, #0
 8002e8c:	627b      	str	r3, [r7, #36]	@ 0x24
  uint32_t ioposition;
  uint32_t iocurrent;
  uint32_t temp;
  uint32_t config = 0x00u;
 8002e8e:	2300      	movs	r3, #0
 8002e90:	623b      	str	r3, [r7, #32]
  assert_param(IS_GPIO_ALL_INSTANCE(GPIOx));
  assert_param(IS_GPIO_PIN(GPIO_Init->Pin));
  assert_param(IS_GPIO_MODE(GPIO_Init->Mode));

  /* Configure the port pins */
  while (((GPIO_Init->Pin) >> position) != 0x00u)
 8002e92:	e169      	b.n	8003168 <HAL_GPIO_Init+0x2e8>
  {
    /* Get the IO position */
    ioposition = (0x01uL << position);
 8002e94:	2201      	movs	r2, #1
 8002e96:	6a7b      	ldr	r3, [r7, #36]	@ 0x24
 8002e98:	fa02 f303 	lsl.w	r3, r2, r3
 8002e9c:	61fb      	str	r3, [r7, #28]

    /* Get the current IO position */
    iocurrent = (uint32_t)(GPIO_Init->Pin) & ioposition;
 8002e9e:	683b      	ldr	r3, [r7, #0]
 8002ea0:	681b      	ldr	r3, [r3, #0]
 8002ea2:	69fa      	ldr	r2, [r7, #28]
 8002ea4:	4013      	ands	r3, r2
 8002ea6:	61bb      	str	r3, [r7, #24]

    if (iocurrent == ioposition)
 8002ea8:	69ba      	ldr	r2, [r7, #24]
 8002eaa:	69fb      	ldr	r3, [r7, #28]
 8002eac:	429a      	cmp	r2, r3
 8002eae:	f040 8158 	bne.w	8003162 <HAL_GPIO_Init+0x2e2>
    {
      /* Check the Alternate function parameters */
      assert_param(IS_GPIO_AF_INSTANCE(GPIOx));

      /* Based on the required mode, filling config variable with MODEy[1:0] and CNFy[3:2] corresponding bits */
      switch (GPIO_Init->Mode)
 8002eb2:	683b      	ldr	r3, [r7, #0]
 8002eb4:	685b      	ldr	r3, [r3, #4]
 8002eb6:	4a9a      	ldr	r2, [pc, #616]	@ (8003120 <HAL_GPIO_Init+0x2a0>)
 8002eb8:	4293      	cmp	r3, r2
 8002eba:	d05e      	beq.n	8002f7a <HAL_GPIO_Init+0xfa>
 8002ebc:	4a98      	ldr	r2, [pc, #608]	@ (8003120 <HAL_GPIO_Init+0x2a0>)
 8002ebe:	4293      	cmp	r3, r2
 8002ec0:	d875      	bhi.n	8002fae <HAL_GPIO_Init+0x12e>
 8002ec2:	4a98      	ldr	r2, [pc, #608]	@ (8003124 <HAL_GPIO_Init+0x2a4>)
 8002ec4:	4293      	cmp	r3, r2
 8002ec6:	d058      	beq.n	8002f7a <HAL_GPIO_Init+0xfa>
 8002ec8:	4a96      	ldr	r2, [pc, #600]	@ (8003124 <HAL_GPIO_Init+0x2a4>)
 8002eca:	4293      	cmp	r3, r2
 8002ecc:	d86f      	bhi.n	8002fae <HAL_GPIO_Init+0x12e>
 8002ece:	4a96      	ldr	r2, [pc, #600]	@ (8003128 <HAL_GPIO_Init+0x2a8>)
 8002ed0:	4293      	cmp	r3, r2
 8002ed2:	d052      	beq.n	8002f7a <HAL_GPIO_Init+0xfa>
 8002ed4:	4a94      	ldr	r2, [pc, #592]	@ (8003128 <HAL_GPIO_Init+0x2a8>)
 8002ed6:	4293      	cmp	r3, r2
 8002ed8:	d869      	bhi.n	8002fae <HAL_GPIO_Init+0x12e>
 8002eda:	4a94      	ldr	r2, [pc, #592]	@ (800312c <HAL_GPIO_Init+0x2ac>)
 8002edc:	4293      	cmp	r3, r2
 8002ede:	d04c      	beq.n	8002f7a <HAL_GPIO_Init+0xfa>
 8002ee0:	4a92      	ldr	r2, [pc, #584]	@ (800312c <HAL_GPIO_Init+0x2ac>)
 8002ee2:	4293      	cmp	r3, r2
 8002ee4:	d863      	bhi.n	8002fae <HAL_GPIO_Init+0x12e>
 8002ee6:	4a92      	ldr	r2, [pc, #584]	@ (8003130 <HAL_GPIO_Init+0x2b0>)
 8002ee8:	4293      	cmp	r3, r2
 8002eea:	d046      	beq.n	8002f7a <HAL_GPIO_Init+0xfa>
 8002eec:	4a90      	ldr	r2, [pc, #576]	@ (8003130 <HAL_GPIO_Init+0x2b0>)
 8002eee:	4293      	cmp	r3, r2
 8002ef0:	d85d      	bhi.n	8002fae <HAL_GPIO_Init+0x12e>
 8002ef2:	2b12      	cmp	r3, #18
 8002ef4:	d82a      	bhi.n	8002f4c <HAL_GPIO_Init+0xcc>
 8002ef6:	2b12      	cmp	r3, #18
 8002ef8:	d859      	bhi.n	8002fae <HAL_GPIO_Init+0x12e>
 8002efa:	a201      	add	r2, pc, #4	@ (adr r2, 8002f00 <HAL_GPIO_Init+0x80>)
 8002efc:	f852 f023 	ldr.w	pc, [r2, r3, lsl #2]
 8002f00:	08002f7b 	.word	0x08002f7b
 8002f04:	08002f55 	.word	0x08002f55
 8002f08:	08002f67 	.word	0x08002f67
 8002f0c:	08002fa9 	.word	0x08002fa9
 8002f10:	08002faf 	.word	0x08002faf
 8002f14:	08002faf 	.word	0x08002faf
 8002f18:	08002faf 	.word	0x08002faf
 8002f1c:	08002faf 	.word	0x08002faf
 8002f20:	08002faf 	.word	0x08002faf
 8002f24:	08002faf 	.word	0x08002faf
 8002f28:	08002faf 	.word	0x08002faf
 8002f2c:	08002faf 	.word	0x08002faf
 8002f30:	08002faf 	.word	0x08002faf
 8002f34:	08002faf 	.word	0x08002faf
 8002f38:	08002faf 	.word	0x08002faf
 8002f3c:	08002faf 	.word	0x08002faf
 8002f40:	08002faf 	.word	0x08002faf
 8002f44:	08002f5d 	.word	0x08002f5d
 8002f48:	08002f71 	.word	0x08002f71
 8002f4c:	4a79      	ldr	r2, [pc, #484]	@ (8003134 <HAL_GPIO_Init+0x2b4>)
 8002f4e:	4293      	cmp	r3, r2
 8002f50:	d013      	beq.n	8002f7a <HAL_GPIO_Init+0xfa>
          config = GPIO_CR_MODE_INPUT + GPIO_CR_CNF_ANALOG;
          break;

        /* Parameters are checked with assert_param */
        default:
          break;
 8002f52:	e02c      	b.n	8002fae <HAL_GPIO_Init+0x12e>
          config = GPIO_Init->Speed + GPIO_CR_CNF_GP_OUTPUT_PP;
 8002f54:	683b      	ldr	r3, [r7, #0]
 8002f56:	68db      	ldr	r3, [r3, #12]
 8002f58:	623b      	str	r3, [r7, #32]
          break;
 8002f5a:	e029      	b.n	8002fb0 <HAL_GPIO_Init+0x130>
          config = GPIO_Init->Speed + GPIO_CR_CNF_GP_OUTPUT_OD;
 8002f5c:	683b      	ldr	r3, [r7, #0]
 8002f5e:	68db      	ldr	r3, [r3, #12]
 8002f60:	3304      	adds	r3, #4
 8002f62:	623b      	str	r3, [r7, #32]
          break;
 8002f64:	e024      	b.n	8002fb0 <HAL_GPIO_Init+0x130>
          config = GPIO_Init->Speed + GPIO_CR_CNF_AF_OUTPUT_PP;
 8002f66:	683b      	ldr	r3, [r7, #0]
 8002f68:	68db      	ldr	r3, [r3, #12]
 8002f6a:	3308      	adds	r3, #8
 8002f6c:	623b      	str	r3, [r7, #32]
          break;
 8002f6e:	e01f      	b.n	8002fb0 <HAL_GPIO_Init+0x130>
          config = GPIO_Init->Speed + GPIO_CR_CNF_AF_OUTPUT_OD;
 8002f70:	683b      	ldr	r3, [r7, #0]
 8002f72:	68db      	ldr	r3, [r3, #12]
 8002f74:	330c      	adds	r3, #12
 8002f76:	623b      	str	r3, [r7, #32]
          break;
 8002f78:	e01a      	b.n	8002fb0 <HAL_GPIO_Init+0x130>
          if (GPIO_Init->Pull == GPIO_NOPULL)
 8002f7a:	683b      	ldr	r3, [r7, #0]
 8002f7c:	689b      	ldr	r3, [r3, #8]
 8002f7e:	2b00      	cmp	r3, #0
 8002f80:	d102      	bne.n	8002f88 <HAL_GPIO_Init+0x108>
            config = GPIO_CR_MODE_INPUT + GPIO_CR_CNF_INPUT_FLOATING;
 8002f82:	2304      	movs	r3, #4
 8002f84:	623b      	str	r3, [r7, #32]
          break;
 8002f86:	e013      	b.n	8002fb0 <HAL_GPIO_Init+0x130>
          else if (GPIO_Init->Pull == GPIO_PULLUP)
 8002f88:	683b      	ldr	r3, [r7, #0]
 8002f8a:	689b      	ldr	r3, [r3, #8]
 8002f8c:	2b01      	cmp	r3, #1
 8002f8e:	d105      	bne.n	8002f9c <HAL_GPIO_Init+0x11c>
            config = GPIO_CR_MODE_INPUT + GPIO_CR_CNF_INPUT_PU_PD;
 8002f90:	2308      	movs	r3, #8
 8002f92:	623b      	str	r3, [r7, #32]
            GPIOx->BSRR = ioposition;
 8002f94:	687b      	ldr	r3, [r7, #4]
 8002f96:	69fa      	ldr	r2, [r7, #28]
 8002f98:	611a      	str	r2, [r3, #16]
          break;
 8002f9a:	e009      	b.n	8002fb0 <HAL_GPIO_Init+0x130>
            config = GPIO_CR_MODE_INPUT + GPIO_CR_CNF_INPUT_PU_PD;
 8002f9c:	2308      	movs	r3, #8
 8002f9e:	623b      	str	r3, [r7, #32]
            GPIOx->BRR = ioposition;
 8002fa0:	687b      	ldr	r3, [r7, #4]
 8002fa2:	69fa      	ldr	r2, [r7, #28]
 8002fa4:	615a      	str	r2, [r3, #20]
          break;
 8002fa6:	e003      	b.n	8002fb0 <HAL_GPIO_Init+0x130>
          config = GPIO_CR_MODE_INPUT + GPIO_CR_CNF_ANALOG;
 8002fa8:	2300      	movs	r3, #0
 8002faa:	623b      	str	r3, [r7, #32]
          break;
 8002fac:	e000      	b.n	8002fb0 <HAL_GPIO_Init+0x130>
          break;
 8002fae:	bf00      	nop
      }

      /* Check if the current bit belongs to first half or last half of the pin count number
       in order to address CRH or CRL register*/
      configregister = (iocurrent < GPIO_PIN_8) ? &GPIOx->CRL     : &GPIOx->CRH;
 8002fb0:	69bb      	ldr	r3, [r7, #24]
 8002fb2:	2bff      	cmp	r3, #255	@ 0xff
 8002fb4:	d801      	bhi.n	8002fba <HAL_GPIO_Init+0x13a>
 8002fb6:	687b      	ldr	r3, [r7, #4]
 8002fb8:	e001      	b.n	8002fbe <HAL_GPIO_Init+0x13e>
 8002fba:	687b      	ldr	r3, [r7, #4]
 8002fbc:	3304      	adds	r3, #4
 8002fbe:	617b      	str	r3, [r7, #20]
      registeroffset = (iocurrent < GPIO_PIN_8) ? (position << 2u) : ((position - 8u) << 2u);
 8002fc0:	69bb      	ldr	r3, [r7, #24]
 8002fc2:	2bff      	cmp	r3, #255	@ 0xff
 8002fc4:	d802      	bhi.n	8002fcc <HAL_GPIO_Init+0x14c>
 8002fc6:	6a7b      	ldr	r3, [r7, #36]	@ 0x24
 8002fc8:	009b      	lsls	r3, r3, #2
 8002fca:	e002      	b.n	8002fd2 <HAL_GPIO_Init+0x152>
 8002fcc:	6a7b      	ldr	r3, [r7, #36]	@ 0x24
 8002fce:	3b08      	subs	r3, #8
 8002fd0:	009b      	lsls	r3, r3, #2
 8002fd2:	613b      	str	r3, [r7, #16]

      /* Apply the new configuration of the pin to the register */
      MODIFY_REG((*configregister), ((GPIO_CRL_MODE0 | GPIO_CRL_CNF0) << registeroffset), (config << registeroffset));
 8002fd4:	697b      	ldr	r3, [r7, #20]
 8002fd6:	681a      	ldr	r2, [r3, #0]
 8002fd8:	210f      	movs	r1, #15
 8002fda:	693b      	ldr	r3, [r7, #16]
 8002fdc:	fa01 f303 	lsl.w	r3, r1, r3
 8002fe0:	43db      	mvns	r3, r3
 8002fe2:	401a      	ands	r2, r3
 8002fe4:	6a39      	ldr	r1, [r7, #32]
 8002fe6:	693b      	ldr	r3, [r7, #16]
 8002fe8:	fa01 f303 	lsl.w	r3, r1, r3
 8002fec:	431a      	orrs	r2, r3
 8002fee:	697b      	ldr	r3, [r7, #20]
 8002ff0:	601a      	str	r2, [r3, #0]

      /*--------------------- EXTI Mode Configuration ------------------------*/
      /* Configure the External Interrupt or event for the current IO */
      if ((GPIO_Init->Mode & EXTI_MODE) == EXTI_MODE)
 8002ff2:	683b      	ldr	r3, [r7, #0]
 8002ff4:	685b      	ldr	r3, [r3, #4]
 8002ff6:	f003 5380 	and.w	r3, r3, #268435456	@ 0x10000000
 8002ffa:	2b00      	cmp	r3, #0
 8002ffc:	f000 80b1 	beq.w	8003162 <HAL_GPIO_Init+0x2e2>
      {
        /* Enable AFIO Clock */
        __HAL_RCC_AFIO_CLK_ENABLE();
 8003000:	4b4d      	ldr	r3, [pc, #308]	@ (8003138 <HAL_GPIO_Init+0x2b8>)
 8003002:	699b      	ldr	r3, [r3, #24]
 8003004:	4a4c      	ldr	r2, [pc, #304]	@ (8003138 <HAL_GPIO_Init+0x2b8>)
 8003006:	f043 0301 	orr.w	r3, r3, #1
 800300a:	6193      	str	r3, [r2, #24]
 800300c:	4b4a      	ldr	r3, [pc, #296]	@ (8003138 <HAL_GPIO_Init+0x2b8>)
 800300e:	699b      	ldr	r3, [r3, #24]
 8003010:	f003 0301 	and.w	r3, r3, #1
 8003014:	60bb      	str	r3, [r7, #8]
 8003016:	68bb      	ldr	r3, [r7, #8]
        temp = AFIO->EXTICR[position >> 2u];
 8003018:	4a48      	ldr	r2, [pc, #288]	@ (800313c <HAL_GPIO_Init+0x2bc>)
 800301a:	6a7b      	ldr	r3, [r7, #36]	@ 0x24
 800301c:	089b      	lsrs	r3, r3, #2
 800301e:	3302      	adds	r3, #2
 8003020:	f852 3023 	ldr.w	r3, [r2, r3, lsl #2]
 8003024:	60fb      	str	r3, [r7, #12]
        CLEAR_BIT(temp, (0x0Fu) << (4u * (position & 0x03u)));
 8003026:	6a7b      	ldr	r3, [r7, #36]	@ 0x24
 8003028:	f003 0303 	and.w	r3, r3, #3
 800302c:	009b      	lsls	r3, r3, #2
 800302e:	220f      	movs	r2, #15
 8003030:	fa02 f303 	lsl.w	r3, r2, r3
 8003034:	43db      	mvns	r3, r3
 8003036:	68fa      	ldr	r2, [r7, #12]
 8003038:	4013      	ands	r3, r2
 800303a:	60fb      	str	r3, [r7, #12]
        SET_BIT(temp, (GPIO_GET_INDEX(GPIOx)) << (4u * (position & 0x03u)));
 800303c:	687b      	ldr	r3, [r7, #4]
 800303e:	4a40      	ldr	r2, [pc, #256]	@ (8003140 <HAL_GPIO_Init+0x2c0>)
 8003040:	4293      	cmp	r3, r2
 8003042:	d013      	beq.n	800306c <HAL_GPIO_Init+0x1ec>
 8003044:	687b      	ldr	r3, [r7, #4]
 8003046:	4a3f      	ldr	r2, [pc, #252]	@ (8003144 <HAL_GPIO_Init+0x2c4>)
 8003048:	4293      	cmp	r3, r2
 800304a:	d00d      	beq.n	8003068 <HAL_GPIO_Init+0x1e8>
 800304c:	687b      	ldr	r3, [r7, #4]
 800304e:	4a3e      	ldr	r2, [pc, #248]	@ (8003148 <HAL_GPIO_Init+0x2c8>)
 8003050:	4293      	cmp	r3, r2
 8003052:	d007      	beq.n	8003064 <HAL_GPIO_Init+0x1e4>
 8003054:	687b      	ldr	r3, [r7, #4]
 8003056:	4a3d      	ldr	r2, [pc, #244]	@ (800314c <HAL_GPIO_Init+0x2cc>)
 8003058:	4293      	cmp	r3, r2
 800305a:	d101      	bne.n	8003060 <HAL_GPIO_Init+0x1e0>
 800305c:	2303      	movs	r3, #3
 800305e:	e006      	b.n	800306e <HAL_GPIO_Init+0x1ee>
 8003060:	2304      	movs	r3, #4
 8003062:	e004      	b.n	800306e <HAL_GPIO_Init+0x1ee>
 8003064:	2302      	movs	r3, #2
 8003066:	e002      	b.n	800306e <HAL_GPIO_Init+0x1ee>
 8003068:	2301      	movs	r3, #1
 800306a:	e000      	b.n	800306e <HAL_GPIO_Init+0x1ee>
 800306c:	2300      	movs	r3, #0
 800306e:	6a7a      	ldr	r2, [r7, #36]	@ 0x24
 8003070:	f002 0203 	and.w	r2, r2, #3
 8003074:	0092      	lsls	r2, r2, #2
 8003076:	4093      	lsls	r3, r2
 8003078:	68fa      	ldr	r2, [r7, #12]
 800307a:	4313      	orrs	r3, r2
 800307c:	60fb      	str	r3, [r7, #12]
        AFIO->EXTICR[position >> 2u] = temp;
 800307e:	492f      	ldr	r1, [pc, #188]	@ (800313c <HAL_GPIO_Init+0x2bc>)
 8003080:	6a7b      	ldr	r3, [r7, #36]	@ 0x24
 8003082:	089b      	lsrs	r3, r3, #2
 8003084:	3302      	adds	r3, #2
 8003086:	68fa      	ldr	r2, [r7, #12]
 8003088:	f841 2023 	str.w	r2, [r1, r3, lsl #2]


        /* Enable or disable the rising trigger */
        if ((GPIO_Init->Mode & RISING_EDGE) == RISING_EDGE)
 800308c:	683b      	ldr	r3, [r7, #0]
 800308e:	685b      	ldr	r3, [r3, #4]
 8003090:	f403 1380 	and.w	r3, r3, #1048576	@ 0x100000
 8003094:	2b00      	cmp	r3, #0
 8003096:	d006      	beq.n	80030a6 <HAL_GPIO_Init+0x226>
        {
          SET_BIT(EXTI->RTSR, iocurrent);
 8003098:	4b2d      	ldr	r3, [pc, #180]	@ (8003150 <HAL_GPIO_Init+0x2d0>)
 800309a:	689a      	ldr	r2, [r3, #8]
 800309c:	492c      	ldr	r1, [pc, #176]	@ (8003150 <HAL_GPIO_Init+0x2d0>)
 800309e:	69bb      	ldr	r3, [r7, #24]
 80030a0:	4313      	orrs	r3, r2
 80030a2:	608b      	str	r3, [r1, #8]
 80030a4:	e006      	b.n	80030b4 <HAL_GPIO_Init+0x234>
        }
        else
        {
          CLEAR_BIT(EXTI->RTSR, iocurrent);
 80030a6:	4b2a      	ldr	r3, [pc, #168]	@ (8003150 <HAL_GPIO_Init+0x2d0>)
 80030a8:	689a      	ldr	r2, [r3, #8]
 80030aa:	69bb      	ldr	r3, [r7, #24]
 80030ac:	43db      	mvns	r3, r3
 80030ae:	4928      	ldr	r1, [pc, #160]	@ (8003150 <HAL_GPIO_Init+0x2d0>)
 80030b0:	4013      	ands	r3, r2
 80030b2:	608b      	str	r3, [r1, #8]
        }

        /* Enable or disable the falling trigger */
        if ((GPIO_Init->Mode & FALLING_EDGE) == FALLING_EDGE)
 80030b4:	683b      	ldr	r3, [r7, #0]
 80030b6:	685b      	ldr	r3, [r3, #4]
 80030b8:	f403 1300 	and.w	r3, r3, #2097152	@ 0x200000
 80030bc:	2b00      	cmp	r3, #0
 80030be:	d006      	beq.n	80030ce <HAL_GPIO_Init+0x24e>
        {
          SET_BIT(EXTI->FTSR, iocurrent);
 80030c0:	4b23      	ldr	r3, [pc, #140]	@ (8003150 <HAL_GPIO_Init+0x2d0>)
 80030c2:	68da      	ldr	r2, [r3, #12]
 80030c4:	4922      	ldr	r1, [pc, #136]	@ (8003150 <HAL_GPIO_Init+0x2d0>)
 80030c6:	69bb      	ldr	r3, [r7, #24]
 80030c8:	4313      	orrs	r3, r2
 80030ca:	60cb      	str	r3, [r1, #12]
 80030cc:	e006      	b.n	80030dc <HAL_GPIO_Init+0x25c>
        }
        else
        {
          CLEAR_BIT(EXTI->FTSR, iocurrent);
 80030ce:	4b20      	ldr	r3, [pc, #128]	@ (8003150 <HAL_GPIO_Init+0x2d0>)
 80030d0:	68da      	ldr	r2, [r3, #12]
 80030d2:	69bb      	ldr	r3, [r7, #24]
 80030d4:	43db      	mvns	r3, r3
 80030d6:	491e      	ldr	r1, [pc, #120]	@ (8003150 <HAL_GPIO_Init+0x2d0>)
 80030d8:	4013      	ands	r3, r2
 80030da:	60cb      	str	r3, [r1, #12]
        }

        /* Configure the event mask */
        if ((GPIO_Init->Mode & GPIO_MODE_EVT) == GPIO_MODE_EVT)
 80030dc:	683b      	ldr	r3, [r7, #0]
 80030de:	685b      	ldr	r3, [r3, #4]
 80030e0:	f403 3300 	and.w	r3, r3, #131072	@ 0x20000
 80030e4:	2b00      	cmp	r3, #0
 80030e6:	d006      	beq.n	80030f6 <HAL_GPIO_Init+0x276>
        {
          SET_BIT(EXTI->EMR, iocurrent);
 80030e8:	4b19      	ldr	r3, [pc, #100]	@ (8003150 <HAL_GPIO_Init+0x2d0>)
 80030ea:	685a      	ldr	r2, [r3, #4]
 80030ec:	4918      	ldr	r1, [pc, #96]	@ (8003150 <HAL_GPIO_Init+0x2d0>)
 80030ee:	69bb      	ldr	r3, [r7, #24]
 80030f0:	4313      	orrs	r3, r2
 80030f2:	604b      	str	r3, [r1, #4]
 80030f4:	e006      	b.n	8003104 <HAL_GPIO_Init+0x284>
        }
        else
        {
          CLEAR_BIT(EXTI->EMR, iocurrent);
 80030f6:	4b16      	ldr	r3, [pc, #88]	@ (8003150 <HAL_GPIO_Init+0x2d0>)
 80030f8:	685a      	ldr	r2, [r3, #4]
 80030fa:	69bb      	ldr	r3, [r7, #24]
 80030fc:	43db      	mvns	r3, r3
 80030fe:	4914      	ldr	r1, [pc, #80]	@ (8003150 <HAL_GPIO_Init+0x2d0>)
 8003100:	4013      	ands	r3, r2
 8003102:	604b      	str	r3, [r1, #4]
        }

        /* Configure the interrupt mask */
        if ((GPIO_Init->Mode & GPIO_MODE_IT) == GPIO_MODE_IT)
 8003104:	683b      	ldr	r3, [r7, #0]
 8003106:	685b      	ldr	r3, [r3, #4]
 8003108:	f403 3380 	and.w	r3, r3, #65536	@ 0x10000
 800310c:	2b00      	cmp	r3, #0
 800310e:	d021      	beq.n	8003154 <HAL_GPIO_Init+0x2d4>
        {
          SET_BIT(EXTI->IMR, iocurrent);
 8003110:	4b0f      	ldr	r3, [pc, #60]	@ (8003150 <HAL_GPIO_Init+0x2d0>)
 8003112:	681a      	ldr	r2, [r3, #0]
 8003114:	490e      	ldr	r1, [pc, #56]	@ (8003150 <HAL_GPIO_Init+0x2d0>)
 8003116:	69bb      	ldr	r3, [r7, #24]
 8003118:	4313      	orrs	r3, r2
 800311a:	600b      	str	r3, [r1, #0]
 800311c:	e021      	b.n	8003162 <HAL_GPIO_Init+0x2e2>
 800311e:	bf00      	nop
 8003120:	10320000 	.word	0x10320000
 8003124:	10310000 	.word	0x10310000
 8003128:	10220000 	.word	0x10220000
 800312c:	10210000 	.word	0x10210000
 8003130:	10120000 	.word	0x10120000
 8003134:	10110000 	.word	0x10110000
 8003138:	40021000 	.word	0x40021000
 800313c:	40010000 	.word	0x40010000
 8003140:	40010800 	.word	0x40010800
 8003144:	40010c00 	.word	0x40010c00
 8003148:	40011000 	.word	0x40011000
 800314c:	40011400 	.word	0x40011400
 8003150:	40010400 	.word	0x40010400
        }
        else
        {
          CLEAR_BIT(EXTI->IMR, iocurrent);
 8003154:	4b0b      	ldr	r3, [pc, #44]	@ (8003184 <HAL_GPIO_Init+0x304>)
 8003156:	681a      	ldr	r2, [r3, #0]
 8003158:	69bb      	ldr	r3, [r7, #24]
 800315a:	43db      	mvns	r3, r3
 800315c:	4909      	ldr	r1, [pc, #36]	@ (8003184 <HAL_GPIO_Init+0x304>)
 800315e:	4013      	ands	r3, r2
 8003160:	600b      	str	r3, [r1, #0]
        }
      }
    }

	position++;
 8003162:	6a7b      	ldr	r3, [r7, #36]	@ 0x24
 8003164:	3301      	adds	r3, #1
 8003166:	627b      	str	r3, [r7, #36]	@ 0x24
  while (((GPIO_Init->Pin) >> position) != 0x00u)
 8003168:	683b      	ldr	r3, [r7, #0]
 800316a:	681a      	ldr	r2, [r3, #0]
 800316c:	6a7b      	ldr	r3, [r7, #36]	@ 0x24
 800316e:	fa22 f303 	lsr.w	r3, r2, r3
 8003172:	2b00      	cmp	r3, #0
 8003174:	f47f ae8e 	bne.w	8002e94 <HAL_GPIO_Init+0x14>
  }
}
 8003178:	bf00      	nop
 800317a:	bf00      	nop
 800317c:	372c      	adds	r7, #44	@ 0x2c
 800317e:	46bd      	mov	sp, r7
 8003180:	bc80      	pop	{r7}
 8003182:	4770      	bx	lr
 8003184:	40010400 	.word	0x40010400

08003188 <HAL_GPIO_WritePin>:
  *            @arg GPIO_PIN_RESET: to clear the port pin
  *            @arg GPIO_PIN_SET: to set the port pin
  * @retval None
  */
void HAL_GPIO_WritePin(GPIO_TypeDef *GPIOx, uint16_t GPIO_Pin, GPIO_PinState PinState)
{
 8003188:	b480      	push	{r7}
 800318a:	b083      	sub	sp, #12
 800318c:	af00      	add	r7, sp, #0
 800318e:	6078      	str	r0, [r7, #4]
 8003190:	460b      	mov	r3, r1
 8003192:	807b      	strh	r3, [r7, #2]
 8003194:	4613      	mov	r3, r2
 8003196:	707b      	strb	r3, [r7, #1]
  /* Check the parameters */
  assert_param(IS_GPIO_PIN(GPIO_Pin));
  assert_param(IS_GPIO_PIN_ACTION(PinState));

  if (PinState != GPIO_PIN_RESET)
 8003198:	787b      	ldrb	r3, [r7, #1]
 800319a:	2b00      	cmp	r3, #0
 800319c:	d003      	beq.n	80031a6 <HAL_GPIO_WritePin+0x1e>
  {
    GPIOx->BSRR = GPIO_Pin;
 800319e:	887a      	ldrh	r2, [r7, #2]
 80031a0:	687b      	ldr	r3, [r7, #4]
 80031a2:	611a      	str	r2, [r3, #16]
  }
  else
  {
    GPIOx->BSRR = (uint32_t)GPIO_Pin << 16u;
  }
}
 80031a4:	e003      	b.n	80031ae <HAL_GPIO_WritePin+0x26>
    GPIOx->BSRR = (uint32_t)GPIO_Pin << 16u;
 80031a6:	887b      	ldrh	r3, [r7, #2]
 80031a8:	041a      	lsls	r2, r3, #16
 80031aa:	687b      	ldr	r3, [r7, #4]
 80031ac:	611a      	str	r2, [r3, #16]
}
 80031ae:	bf00      	nop
 80031b0:	370c      	adds	r7, #12
 80031b2:	46bd      	mov	sp, r7
 80031b4:	bc80      	pop	{r7}
 80031b6:	4770      	bx	lr

080031b8 <HAL_I2C_Init>:
  * @param  hi2c Pointer to a I2C_HandleTypeDef structure that contains
  *                the configuration information for the specified I2C.
  * @retval HAL status
  */
HAL_StatusTypeDef HAL_I2C_Init(I2C_HandleTypeDef *hi2c)
{
 80031b8:	b580      	push	{r7, lr}
 80031ba:	b084      	sub	sp, #16
 80031bc:	af00      	add	r7, sp, #0
 80031be:	6078      	str	r0, [r7, #4]
  uint32_t freqrange;
  uint32_t pclk1;

  /* Check the I2C handle allocation */
  if (hi2c == NULL)
 80031c0:	687b      	ldr	r3, [r7, #4]
 80031c2:	2b00      	cmp	r3, #0
 80031c4:	d101      	bne.n	80031ca <HAL_I2C_Init+0x12>
  {
    return HAL_ERROR;
 80031c6:	2301      	movs	r3, #1
 80031c8:	e12b      	b.n	8003422 <HAL_I2C_Init+0x26a>
  assert_param(IS_I2C_DUAL_ADDRESS(hi2c->Init.DualAddressMode));
  assert_param(IS_I2C_OWN_ADDRESS2(hi2c->Init.OwnAddress2));
  assert_param(IS_I2C_GENERAL_CALL(hi2c->Init.GeneralCallMode));
  assert_param(IS_I2C_NO_STRETCH(hi2c->Init.NoStretchMode));

  if (hi2c->State == HAL_I2C_STATE_RESET)
 80031ca:	687b      	ldr	r3, [r7, #4]
 80031cc:	f893 303d 	ldrb.w	r3, [r3, #61]	@ 0x3d
 80031d0:	b2db      	uxtb	r3, r3
 80031d2:	2b00      	cmp	r3, #0
 80031d4:	d106      	bne.n	80031e4 <HAL_I2C_Init+0x2c>
  {
    /* Allocate lock resource and initialize it */
    hi2c->Lock = HAL_UNLOCKED;
 80031d6:	687b      	ldr	r3, [r7, #4]
 80031d8:	2200      	movs	r2, #0
 80031da:	f883 203c 	strb.w	r2, [r3, #60]	@ 0x3c

    /* Init the low level hardware : GPIO, CLOCK, NVIC */
    hi2c->MspInitCallback(hi2c);
#else
    /* Init the low level hardware : GPIO, CLOCK, NVIC */
    HAL_I2C_MspInit(hi2c);
 80031de:	6878      	ldr	r0, [r7, #4]
 80031e0:	f7ff fb22 	bl	8002828 <HAL_I2C_MspInit>
#endif /* USE_HAL_I2C_REGISTER_CALLBACKS */
  }

  hi2c->State = HAL_I2C_STATE_BUSY;
 80031e4:	687b      	ldr	r3, [r7, #4]
 80031e6:	2224      	movs	r2, #36	@ 0x24
 80031e8:	f883 203d 	strb.w	r2, [r3, #61]	@ 0x3d

  /* Disable the selected I2C peripheral */
  __HAL_I2C_DISABLE(hi2c);
 80031ec:	687b      	ldr	r3, [r7, #4]
 80031ee:	681b      	ldr	r3, [r3, #0]
 80031f0:	681a      	ldr	r2, [r3, #0]
 80031f2:	687b      	ldr	r3, [r7, #4]
 80031f4:	681b      	ldr	r3, [r3, #0]
 80031f6:	f022 0201 	bic.w	r2, r2, #1
 80031fa:	601a      	str	r2, [r3, #0]

  /*Reset I2C*/
  hi2c->Instance->CR1 |= I2C_CR1_SWRST;
 80031fc:	687b      	ldr	r3, [r7, #4]
 80031fe:	681b      	ldr	r3, [r3, #0]
 8003200:	681a      	ldr	r2, [r3, #0]
 8003202:	687b      	ldr	r3, [r7, #4]
 8003204:	681b      	ldr	r3, [r3, #0]
 8003206:	f442 4200 	orr.w	r2, r2, #32768	@ 0x8000
 800320a:	601a      	str	r2, [r3, #0]
  hi2c->Instance->CR1 &= ~I2C_CR1_SWRST;
 800320c:	687b      	ldr	r3, [r7, #4]
 800320e:	681b      	ldr	r3, [r3, #0]
 8003210:	681a      	ldr	r2, [r3, #0]
 8003212:	687b      	ldr	r3, [r7, #4]
 8003214:	681b      	ldr	r3, [r3, #0]
 8003216:	f422 4200 	bic.w	r2, r2, #32768	@ 0x8000
 800321a:	601a      	str	r2, [r3, #0]

  /* Get PCLK1 frequency */
  pclk1 = HAL_RCC_GetPCLK1Freq();
 800321c:	f001 fbf0 	bl	8004a00 <HAL_RCC_GetPCLK1Freq>
 8003220:	60f8      	str	r0, [r7, #12]

  /* Check the minimum allowed PCLK1 frequency */
  if (I2C_MIN_PCLK_FREQ(pclk1, hi2c->Init.ClockSpeed) == 1U)
 8003222:	687b      	ldr	r3, [r7, #4]
 8003224:	685b      	ldr	r3, [r3, #4]
 8003226:	4a81      	ldr	r2, [pc, #516]	@ (800342c <HAL_I2C_Init+0x274>)
 8003228:	4293      	cmp	r3, r2
 800322a:	d807      	bhi.n	800323c <HAL_I2C_Init+0x84>
 800322c:	68fb      	ldr	r3, [r7, #12]
 800322e:	4a80      	ldr	r2, [pc, #512]	@ (8003430 <HAL_I2C_Init+0x278>)
 8003230:	4293      	cmp	r3, r2
 8003232:	bf94      	ite	ls
 8003234:	2301      	movls	r3, #1
 8003236:	2300      	movhi	r3, #0
 8003238:	b2db      	uxtb	r3, r3
 800323a:	e006      	b.n	800324a <HAL_I2C_Init+0x92>
 800323c:	68fb      	ldr	r3, [r7, #12]
 800323e:	4a7d      	ldr	r2, [pc, #500]	@ (8003434 <HAL_I2C_Init+0x27c>)
 8003240:	4293      	cmp	r3, r2
 8003242:	bf94      	ite	ls
 8003244:	2301      	movls	r3, #1
 8003246:	2300      	movhi	r3, #0
 8003248:	b2db      	uxtb	r3, r3
 800324a:	2b00      	cmp	r3, #0
 800324c:	d001      	beq.n	8003252 <HAL_I2C_Init+0x9a>
  {
    return HAL_ERROR;
 800324e:	2301      	movs	r3, #1
 8003250:	e0e7      	b.n	8003422 <HAL_I2C_Init+0x26a>
  }

  /* Calculate frequency range */
  freqrange = I2C_FREQRANGE(pclk1);
 8003252:	68fb      	ldr	r3, [r7, #12]
 8003254:	4a78      	ldr	r2, [pc, #480]	@ (8003438 <HAL_I2C_Init+0x280>)
 8003256:	fba2 2303 	umull	r2, r3, r2, r3
 800325a:	0c9b      	lsrs	r3, r3, #18
 800325c:	60bb      	str	r3, [r7, #8]

  /*---------------------------- I2Cx CR2 Configuration ----------------------*/
  /* Configure I2Cx: Frequency range */
  MODIFY_REG(hi2c->Instance->CR2, I2C_CR2_FREQ, freqrange);
 800325e:	687b      	ldr	r3, [r7, #4]
 8003260:	681b      	ldr	r3, [r3, #0]
 8003262:	685b      	ldr	r3, [r3, #4]
 8003264:	f023 013f 	bic.w	r1, r3, #63	@ 0x3f
 8003268:	687b      	ldr	r3, [r7, #4]
 800326a:	681b      	ldr	r3, [r3, #0]
 800326c:	68ba      	ldr	r2, [r7, #8]
 800326e:	430a      	orrs	r2, r1
 8003270:	605a      	str	r2, [r3, #4]

  /*---------------------------- I2Cx TRISE Configuration --------------------*/
  /* Configure I2Cx: Rise Time */
  MODIFY_REG(hi2c->Instance->TRISE, I2C_TRISE_TRISE, I2C_RISE_TIME(freqrange, hi2c->Init.ClockSpeed));
 8003272:	687b      	ldr	r3, [r7, #4]
 8003274:	681b      	ldr	r3, [r3, #0]
 8003276:	6a1b      	ldr	r3, [r3, #32]
 8003278:	f023 013f 	bic.w	r1, r3, #63	@ 0x3f
 800327c:	687b      	ldr	r3, [r7, #4]
 800327e:	685b      	ldr	r3, [r3, #4]
 8003280:	4a6a      	ldr	r2, [pc, #424]	@ (800342c <HAL_I2C_Init+0x274>)
 8003282:	4293      	cmp	r3, r2
 8003284:	d802      	bhi.n	800328c <HAL_I2C_Init+0xd4>
 8003286:	68bb      	ldr	r3, [r7, #8]
 8003288:	3301      	adds	r3, #1
 800328a:	e009      	b.n	80032a0 <HAL_I2C_Init+0xe8>
 800328c:	68bb      	ldr	r3, [r7, #8]
 800328e:	f44f 7296 	mov.w	r2, #300	@ 0x12c
 8003292:	fb02 f303 	mul.w	r3, r2, r3
 8003296:	4a69      	ldr	r2, [pc, #420]	@ (800343c <HAL_I2C_Init+0x284>)
 8003298:	fba2 2303 	umull	r2, r3, r2, r3
 800329c:	099b      	lsrs	r3, r3, #6
 800329e:	3301      	adds	r3, #1
 80032a0:	687a      	ldr	r2, [r7, #4]
 80032a2:	6812      	ldr	r2, [r2, #0]
 80032a4:	430b      	orrs	r3, r1
 80032a6:	6213      	str	r3, [r2, #32]

  /*---------------------------- I2Cx CCR Configuration ----------------------*/
  /* Configure I2Cx: Speed */
  MODIFY_REG(hi2c->Instance->CCR, (I2C_CCR_FS | I2C_CCR_DUTY | I2C_CCR_CCR), I2C_SPEED(pclk1, hi2c->Init.ClockSpeed, hi2c->Init.DutyCycle));
 80032a8:	687b      	ldr	r3, [r7, #4]
 80032aa:	681b      	ldr	r3, [r3, #0]
 80032ac:	69db      	ldr	r3, [r3, #28]
 80032ae:	f423 424f 	bic.w	r2, r3, #52992	@ 0xcf00
 80032b2:	f022 02ff 	bic.w	r2, r2, #255	@ 0xff
 80032b6:	687b      	ldr	r3, [r7, #4]
 80032b8:	685b      	ldr	r3, [r3, #4]
 80032ba:	495c      	ldr	r1, [pc, #368]	@ (800342c <HAL_I2C_Init+0x274>)
 80032bc:	428b      	cmp	r3, r1
 80032be:	d819      	bhi.n	80032f4 <HAL_I2C_Init+0x13c>
 80032c0:	68fb      	ldr	r3, [r7, #12]
 80032c2:	1e59      	subs	r1, r3, #1
 80032c4:	687b      	ldr	r3, [r7, #4]
 80032c6:	685b      	ldr	r3, [r3, #4]
 80032c8:	005b      	lsls	r3, r3, #1
 80032ca:	fbb1 f3f3 	udiv	r3, r1, r3
 80032ce:	1c59      	adds	r1, r3, #1
 80032d0:	f640 73fc 	movw	r3, #4092	@ 0xffc
 80032d4:	400b      	ands	r3, r1
 80032d6:	2b00      	cmp	r3, #0
 80032d8:	d00a      	beq.n	80032f0 <HAL_I2C_Init+0x138>
 80032da:	68fb      	ldr	r3, [r7, #12]
 80032dc:	1e59      	subs	r1, r3, #1
 80032de:	687b      	ldr	r3, [r7, #4]
 80032e0:	685b      	ldr	r3, [r3, #4]
 80032e2:	005b      	lsls	r3, r3, #1
 80032e4:	fbb1 f3f3 	udiv	r3, r1, r3
 80032e8:	3301      	adds	r3, #1
 80032ea:	f3c3 030b 	ubfx	r3, r3, #0, #12
 80032ee:	e051      	b.n	8003394 <HAL_I2C_Init+0x1dc>
 80032f0:	2304      	movs	r3, #4
 80032f2:	e04f      	b.n	8003394 <HAL_I2C_Init+0x1dc>
 80032f4:	687b      	ldr	r3, [r7, #4]
 80032f6:	689b      	ldr	r3, [r3, #8]
 80032f8:	2b00      	cmp	r3, #0
 80032fa:	d111      	bne.n	8003320 <HAL_I2C_Init+0x168>
 80032fc:	68fb      	ldr	r3, [r7, #12]
 80032fe:	1e58      	subs	r0, r3, #1
 8003300:	687b      	ldr	r3, [r7, #4]
 8003302:	6859      	ldr	r1, [r3, #4]
 8003304:	460b      	mov	r3, r1
 8003306:	005b      	lsls	r3, r3, #1
 8003308:	440b      	add	r3, r1
 800330a:	fbb0 f3f3 	udiv	r3, r0, r3
 800330e:	3301      	adds	r3, #1
 8003310:	f3c3 030b 	ubfx	r3, r3, #0, #12
 8003314:	2b00      	cmp	r3, #0
 8003316:	bf0c      	ite	eq
 8003318:	2301      	moveq	r3, #1
 800331a:	2300      	movne	r3, #0
 800331c:	b2db      	uxtb	r3, r3
 800331e:	e012      	b.n	8003346 <HAL_I2C_Init+0x18e>
 8003320:	68fb      	ldr	r3, [r7, #12]
 8003322:	1e58      	subs	r0, r3, #1
 8003324:	687b      	ldr	r3, [r7, #4]
 8003326:	6859      	ldr	r1, [r3, #4]
 8003328:	460b      	mov	r3, r1
 800332a:	009b      	lsls	r3, r3, #2
 800332c:	440b      	add	r3, r1
 800332e:	0099      	lsls	r1, r3, #2
 8003330:	440b      	add	r3, r1
 8003332:	fbb0 f3f3 	udiv	r3, r0, r3
 8003336:	3301      	adds	r3, #1
 8003338:	f3c3 030b 	ubfx	r3, r3, #0, #12
 800333c:	2b00      	cmp	r3, #0
 800333e:	bf0c      	ite	eq
 8003340:	2301      	moveq	r3, #1
 8003342:	2300      	movne	r3, #0
 8003344:	b2db      	uxtb	r3, r3
 8003346:	2b00      	cmp	r3, #0
 8003348:	d001      	beq.n	800334e <HAL_I2C_Init+0x196>
 800334a:	2301      	movs	r3, #1
 800334c:	e022      	b.n	8003394 <HAL_I2C_Init+0x1dc>
 800334e:	687b      	ldr	r3, [r7, #4]
 8003350:	689b      	ldr	r3, [r3, #8]
 8003352:	2b00      	cmp	r3, #0
 8003354:	d10e      	bne.n	8003374 <HAL_I2C_Init+0x1bc>
 8003356:	68fb      	ldr	r3, [r7, #12]
 8003358:	1e58      	subs	r0, r3, #1
 800335a:	687b      	ldr	r3, [r7, #4]
 800335c:	6859      	ldr	r1, [r3, #4]
 800335e:	460b      	mov	r3, r1
 8003360:	005b      	lsls	r3, r3, #1
 8003362:	440b      	add	r3, r1
 8003364:	fbb0 f3f3 	udiv	r3, r0, r3
 8003368:	3301      	adds	r3, #1
 800336a:	f3c3 030b 	ubfx	r3, r3, #0, #12
 800336e:	f443 4300 	orr.w	r3, r3, #32768	@ 0x8000
 8003372:	e00f      	b.n	8003394 <HAL_I2C_Init+0x1dc>
 8003374:	68fb      	ldr	r3, [r7, #12]
 8003376:	1e58      	subs	r0, r3, #1
 8003378:	687b      	ldr	r3, [r7, #4]
 800337a:	6859      	ldr	r1, [r3, #4]
 800337c:	460b      	mov	r3, r1
 800337e:	009b      	lsls	r3, r3, #2
 8003380:	440b      	add	r3, r1
 8003382:	0099      	lsls	r1, r3, #2
 8003384:	440b      	add	r3, r1
 8003386:	fbb0 f3f3 	udiv	r3, r0, r3
 800338a:	3301      	adds	r3, #1
 800338c:	f3c3 030b 	ubfx	r3, r3, #0, #12
 8003390:	f443 4340 	orr.w	r3, r3, #49152	@ 0xc000
 8003394:	6879      	ldr	r1, [r7, #4]
 8003396:	6809      	ldr	r1, [r1, #0]
 8003398:	4313      	orrs	r3, r2
 800339a:	61cb      	str	r3, [r1, #28]

  /*---------------------------- I2Cx CR1 Configuration ----------------------*/
  /* Configure I2Cx: Generalcall and NoStretch mode */
  MODIFY_REG(hi2c->Instance->CR1, (I2C_CR1_ENGC | I2C_CR1_NOSTRETCH), (hi2c->Init.GeneralCallMode | hi2c->Init.NoStretchMode));
 800339c:	687b      	ldr	r3, [r7, #4]
 800339e:	681b      	ldr	r3, [r3, #0]
 80033a0:	681b      	ldr	r3, [r3, #0]
 80033a2:	f023 01c0 	bic.w	r1, r3, #192	@ 0xc0
 80033a6:	687b      	ldr	r3, [r7, #4]
 80033a8:	69da      	ldr	r2, [r3, #28]
 80033aa:	687b      	ldr	r3, [r7, #4]
 80033ac:	6a1b      	ldr	r3, [r3, #32]
 80033ae:	431a      	orrs	r2, r3
 80033b0:	687b      	ldr	r3, [r7, #4]
 80033b2:	681b      	ldr	r3, [r3, #0]
 80033b4:	430a      	orrs	r2, r1
 80033b6:	601a      	str	r2, [r3, #0]

  /*---------------------------- I2Cx OAR1 Configuration ---------------------*/
  /* Configure I2Cx: Own Address1 and addressing mode */
  MODIFY_REG(hi2c->Instance->OAR1, (I2C_OAR1_ADDMODE | I2C_OAR1_ADD8_9 | I2C_OAR1_ADD1_7 | I2C_OAR1_ADD0), (hi2c->Init.AddressingMode | hi2c->Init.OwnAddress1));
 80033b8:	687b      	ldr	r3, [r7, #4]
 80033ba:	681b      	ldr	r3, [r3, #0]
 80033bc:	689b      	ldr	r3, [r3, #8]
 80033be:	f423 4303 	bic.w	r3, r3, #33536	@ 0x8300
 80033c2:	f023 03ff 	bic.w	r3, r3, #255	@ 0xff
 80033c6:	687a      	ldr	r2, [r7, #4]
 80033c8:	6911      	ldr	r1, [r2, #16]
 80033ca:	687a      	ldr	r2, [r7, #4]
 80033cc:	68d2      	ldr	r2, [r2, #12]
 80033ce:	4311      	orrs	r1, r2
 80033d0:	687a      	ldr	r2, [r7, #4]
 80033d2:	6812      	ldr	r2, [r2, #0]
 80033d4:	430b      	orrs	r3, r1
 80033d6:	6093      	str	r3, [r2, #8]

  /*---------------------------- I2Cx OAR2 Configuration ---------------------*/
  /* Configure I2Cx: Dual mode and Own Address2 */
  MODIFY_REG(hi2c->Instance->OAR2, (I2C_OAR2_ENDUAL | I2C_OAR2_ADD2), (hi2c->Init.DualAddressMode | hi2c->Init.OwnAddress2));
 80033d8:	687b      	ldr	r3, [r7, #4]
 80033da:	681b      	ldr	r3, [r3, #0]
 80033dc:	68db      	ldr	r3, [r3, #12]
 80033de:	f023 01ff 	bic.w	r1, r3, #255	@ 0xff
 80033e2:	687b      	ldr	r3, [r7, #4]
 80033e4:	695a      	ldr	r2, [r3, #20]
 80033e6:	687b      	ldr	r3, [r7, #4]
 80033e8:	699b      	ldr	r3, [r3, #24]
 80033ea:	431a      	orrs	r2, r3
 80033ec:	687b      	ldr	r3, [r7, #4]
 80033ee:	681b      	ldr	r3, [r3, #0]
 80033f0:	430a      	orrs	r2, r1
 80033f2:	60da      	str	r2, [r3, #12]

  /* Enable the selected I2C peripheral */
  __HAL_I2C_ENABLE(hi2c);
 80033f4:	687b      	ldr	r3, [r7, #4]
 80033f6:	681b      	ldr	r3, [r3, #0]
 80033f8:	681a      	ldr	r2, [r3, #0]
 80033fa:	687b      	ldr	r3, [r7, #4]
 80033fc:	681b      	ldr	r3, [r3, #0]
 80033fe:	f042 0201 	orr.w	r2, r2, #1
 8003402:	601a      	str	r2, [r3, #0]

  hi2c->ErrorCode = HAL_I2C_ERROR_NONE;
 8003404:	687b      	ldr	r3, [r7, #4]
 8003406:	2200      	movs	r2, #0
 8003408:	641a      	str	r2, [r3, #64]	@ 0x40
  hi2c->State = HAL_I2C_STATE_READY;
 800340a:	687b      	ldr	r3, [r7, #4]
 800340c:	2220      	movs	r2, #32
 800340e:	f883 203d 	strb.w	r2, [r3, #61]	@ 0x3d
  hi2c->PreviousState = I2C_STATE_NONE;
 8003412:	687b      	ldr	r3, [r7, #4]
 8003414:	2200      	movs	r2, #0
 8003416:	631a      	str	r2, [r3, #48]	@ 0x30
  hi2c->Mode = HAL_I2C_MODE_NONE;
 8003418:	687b      	ldr	r3, [r7, #4]
 800341a:	2200      	movs	r2, #0
 800341c:	f883 203e 	strb.w	r2, [r3, #62]	@ 0x3e

  return HAL_OK;
 8003420:	2300      	movs	r3, #0
}
 8003422:	4618      	mov	r0, r3
 8003424:	3710      	adds	r7, #16
 8003426:	46bd      	mov	sp, r7
 8003428:	bd80      	pop	{r7, pc}
 800342a:	bf00      	nop
 800342c:	000186a0 	.word	0x000186a0
 8003430:	001e847f 	.word	0x001e847f
 8003434:	003d08ff 	.word	0x003d08ff
 8003438:	431bde83 	.word	0x431bde83
 800343c:	10624dd3 	.word	0x10624dd3

08003440 <HAL_I2C_Mem_Write>:
  * @param  Size Amount of data to be sent
  * @param  Timeout Timeout duration
  * @retval HAL status
  */
HAL_StatusTypeDef HAL_I2C_Mem_Write(I2C_HandleTypeDef *hi2c, uint16_t DevAddress, uint16_t MemAddress, uint16_t MemAddSize, uint8_t *pData, uint16_t Size, uint32_t Timeout)
{
 8003440:	b580      	push	{r7, lr}
 8003442:	b088      	sub	sp, #32
 8003444:	af02      	add	r7, sp, #8
 8003446:	60f8      	str	r0, [r7, #12]
 8003448:	4608      	mov	r0, r1
 800344a:	4611      	mov	r1, r2
 800344c:	461a      	mov	r2, r3
 800344e:	4603      	mov	r3, r0
 8003450:	817b      	strh	r3, [r7, #10]
 8003452:	460b      	mov	r3, r1
 8003454:	813b      	strh	r3, [r7, #8]
 8003456:	4613      	mov	r3, r2
 8003458:	80fb      	strh	r3, [r7, #6]
  /* Init tickstart for timeout management*/
  uint32_t tickstart = HAL_GetTick();
 800345a:	f7ff fbf9 	bl	8002c50 <HAL_GetTick>
 800345e:	6178      	str	r0, [r7, #20]

  /* Check the parameters */
  assert_param(IS_I2C_MEMADD_SIZE(MemAddSize));

  if (hi2c->State == HAL_I2C_STATE_READY)
 8003460:	68fb      	ldr	r3, [r7, #12]
 8003462:	f893 303d 	ldrb.w	r3, [r3, #61]	@ 0x3d
 8003466:	b2db      	uxtb	r3, r3
 8003468:	2b20      	cmp	r3, #32
 800346a:	f040 80d9 	bne.w	8003620 <HAL_I2C_Mem_Write+0x1e0>
  {
    /* Wait until BUSY flag is reset */
    if (I2C_WaitOnFlagUntilTimeout(hi2c, I2C_FLAG_BUSY, SET, I2C_TIMEOUT_BUSY_FLAG, tickstart) != HAL_OK)
 800346e:	697b      	ldr	r3, [r7, #20]
 8003470:	9300      	str	r3, [sp, #0]
 8003472:	2319      	movs	r3, #25
 8003474:	2201      	movs	r2, #1
 8003476:	496d      	ldr	r1, [pc, #436]	@ (800362c <HAL_I2C_Mem_Write+0x1ec>)
 8003478:	68f8      	ldr	r0, [r7, #12]
 800347a:	f000 fcc1 	bl	8003e00 <I2C_WaitOnFlagUntilTimeout>
 800347e:	4603      	mov	r3, r0
 8003480:	2b00      	cmp	r3, #0
 8003482:	d001      	beq.n	8003488 <HAL_I2C_Mem_Write+0x48>
    {
      return HAL_BUSY;
 8003484:	2302      	movs	r3, #2
 8003486:	e0cc      	b.n	8003622 <HAL_I2C_Mem_Write+0x1e2>
    }

    /* Process Locked */
    __HAL_LOCK(hi2c);
 8003488:	68fb      	ldr	r3, [r7, #12]
 800348a:	f893 303c 	ldrb.w	r3, [r3, #60]	@ 0x3c
 800348e:	2b01      	cmp	r3, #1
 8003490:	d101      	bne.n	8003496 <HAL_I2C_Mem_Write+0x56>
 8003492:	2302      	movs	r3, #2
 8003494:	e0c5      	b.n	8003622 <HAL_I2C_Mem_Write+0x1e2>
 8003496:	68fb      	ldr	r3, [r7, #12]
 8003498:	2201      	movs	r2, #1
 800349a:	f883 203c 	strb.w	r2, [r3, #60]	@ 0x3c

    /* Check if the I2C is already enabled */
    if ((hi2c->Instance->CR1 & I2C_CR1_PE) != I2C_CR1_PE)
 800349e:	68fb      	ldr	r3, [r7, #12]
 80034a0:	681b      	ldr	r3, [r3, #0]
 80034a2:	681b      	ldr	r3, [r3, #0]
 80034a4:	f003 0301 	and.w	r3, r3, #1
 80034a8:	2b01      	cmp	r3, #1
 80034aa:	d007      	beq.n	80034bc <HAL_I2C_Mem_Write+0x7c>
    {
      /* Enable I2C peripheral */
      __HAL_I2C_ENABLE(hi2c);
 80034ac:	68fb      	ldr	r3, [r7, #12]
 80034ae:	681b      	ldr	r3, [r3, #0]
 80034b0:	681a      	ldr	r2, [r3, #0]
 80034b2:	68fb      	ldr	r3, [r7, #12]
 80034b4:	681b      	ldr	r3, [r3, #0]
 80034b6:	f042 0201 	orr.w	r2, r2, #1
 80034ba:	601a      	str	r2, [r3, #0]
    }

    /* Disable Pos */
    CLEAR_BIT(hi2c->Instance->CR1, I2C_CR1_POS);
 80034bc:	68fb      	ldr	r3, [r7, #12]
 80034be:	681b      	ldr	r3, [r3, #0]
 80034c0:	681a      	ldr	r2, [r3, #0]
 80034c2:	68fb      	ldr	r3, [r7, #12]
 80034c4:	681b      	ldr	r3, [r3, #0]
 80034c6:	f422 6200 	bic.w	r2, r2, #2048	@ 0x800
 80034ca:	601a      	str	r2, [r3, #0]

    hi2c->State     = HAL_I2C_STATE_BUSY_TX;
 80034cc:	68fb      	ldr	r3, [r7, #12]
 80034ce:	2221      	movs	r2, #33	@ 0x21
 80034d0:	f883 203d 	strb.w	r2, [r3, #61]	@ 0x3d
    hi2c->Mode      = HAL_I2C_MODE_MEM;
 80034d4:	68fb      	ldr	r3, [r7, #12]
 80034d6:	2240      	movs	r2, #64	@ 0x40
 80034d8:	f883 203e 	strb.w	r2, [r3, #62]	@ 0x3e
    hi2c->ErrorCode = HAL_I2C_ERROR_NONE;
 80034dc:	68fb      	ldr	r3, [r7, #12]
 80034de:	2200      	movs	r2, #0
 80034e0:	641a      	str	r2, [r3, #64]	@ 0x40

    /* Prepare transfer parameters */
    hi2c->pBuffPtr    = pData;
 80034e2:	68fb      	ldr	r3, [r7, #12]
 80034e4:	6a3a      	ldr	r2, [r7, #32]
 80034e6:	625a      	str	r2, [r3, #36]	@ 0x24
    hi2c->XferCount   = Size;
 80034e8:	68fb      	ldr	r3, [r7, #12]
 80034ea:	8cba      	ldrh	r2, [r7, #36]	@ 0x24
 80034ec:	855a      	strh	r2, [r3, #42]	@ 0x2a
    hi2c->XferSize    = hi2c->XferCount;
 80034ee:	68fb      	ldr	r3, [r7, #12]
 80034f0:	8d5b      	ldrh	r3, [r3, #42]	@ 0x2a
 80034f2:	b29a      	uxth	r2, r3
 80034f4:	68fb      	ldr	r3, [r7, #12]
 80034f6:	851a      	strh	r2, [r3, #40]	@ 0x28
    hi2c->XferOptions = I2C_NO_OPTION_FRAME;
 80034f8:	68fb      	ldr	r3, [r7, #12]
 80034fa:	4a4d      	ldr	r2, [pc, #308]	@ (8003630 <HAL_I2C_Mem_Write+0x1f0>)
 80034fc:	62da      	str	r2, [r3, #44]	@ 0x2c

    /* Send Slave Address and Memory Address */
    if (I2C_RequestMemoryWrite(hi2c, DevAddress, MemAddress, MemAddSize, Timeout, tickstart) != HAL_OK)
 80034fe:	88f8      	ldrh	r0, [r7, #6]
 8003500:	893a      	ldrh	r2, [r7, #8]
 8003502:	8979      	ldrh	r1, [r7, #10]
 8003504:	697b      	ldr	r3, [r7, #20]
 8003506:	9301      	str	r3, [sp, #4]
 8003508:	6abb      	ldr	r3, [r7, #40]	@ 0x28
 800350a:	9300      	str	r3, [sp, #0]
 800350c:	4603      	mov	r3, r0
 800350e:	68f8      	ldr	r0, [r7, #12]
 8003510:	f000 faf8 	bl	8003b04 <I2C_RequestMemoryWrite>
 8003514:	4603      	mov	r3, r0
 8003516:	2b00      	cmp	r3, #0
 8003518:	d052      	beq.n	80035c0 <HAL_I2C_Mem_Write+0x180>
    {
      return HAL_ERROR;
 800351a:	2301      	movs	r3, #1
 800351c:	e081      	b.n	8003622 <HAL_I2C_Mem_Write+0x1e2>
    }

    while (hi2c->XferSize > 0U)
    {
      /* Wait until TXE flag is set */
      if (I2C_WaitOnTXEFlagUntilTimeout(hi2c, Timeout, tickstart) != HAL_OK)
 800351e:	697a      	ldr	r2, [r7, #20]
 8003520:	6ab9      	ldr	r1, [r7, #40]	@ 0x28
 8003522:	68f8      	ldr	r0, [r7, #12]
 8003524:	f000 fd86 	bl	8004034 <I2C_WaitOnTXEFlagUntilTimeout>
 8003528:	4603      	mov	r3, r0
 800352a:	2b00      	cmp	r3, #0
 800352c:	d00d      	beq.n	800354a <HAL_I2C_Mem_Write+0x10a>
      {
        if (hi2c->ErrorCode == HAL_I2C_ERROR_AF)
 800352e:	68fb      	ldr	r3, [r7, #12]
 8003530:	6c1b      	ldr	r3, [r3, #64]	@ 0x40
 8003532:	2b04      	cmp	r3, #4
 8003534:	d107      	bne.n	8003546 <HAL_I2C_Mem_Write+0x106>
        {
          /* Generate Stop */
          SET_BIT(hi2c->Instance->CR1, I2C_CR1_STOP);
 8003536:	68fb      	ldr	r3, [r7, #12]
 8003538:	681b      	ldr	r3, [r3, #0]
 800353a:	681a      	ldr	r2, [r3, #0]
 800353c:	68fb      	ldr	r3, [r7, #12]
 800353e:	681b      	ldr	r3, [r3, #0]
 8003540:	f442 7200 	orr.w	r2, r2, #512	@ 0x200
 8003544:	601a      	str	r2, [r3, #0]
        }
        return HAL_ERROR;
 8003546:	2301      	movs	r3, #1
 8003548:	e06b      	b.n	8003622 <HAL_I2C_Mem_Write+0x1e2>
      }

      /* Write data to DR */
      hi2c->Instance->DR = *hi2c->pBuffPtr;
 800354a:	68fb      	ldr	r3, [r7, #12]
 800354c:	6a5b      	ldr	r3, [r3, #36]	@ 0x24
 800354e:	781a      	ldrb	r2, [r3, #0]
 8003550:	68fb      	ldr	r3, [r7, #12]
 8003552:	681b      	ldr	r3, [r3, #0]
 8003554:	611a      	str	r2, [r3, #16]

      /* Increment Buffer pointer */
      hi2c->pBuffPtr++;
 8003556:	68fb      	ldr	r3, [r7, #12]
 8003558:	6a5b      	ldr	r3, [r3, #36]	@ 0x24
 800355a:	1c5a      	adds	r2, r3, #1
 800355c:	68fb      	ldr	r3, [r7, #12]
 800355e:	625a      	str	r2, [r3, #36]	@ 0x24

      /* Update counter */
      hi2c->XferSize--;
 8003560:	68fb      	ldr	r3, [r7, #12]
 8003562:	8d1b      	ldrh	r3, [r3, #40]	@ 0x28
 8003564:	3b01      	subs	r3, #1
 8003566:	b29a      	uxth	r2, r3
 8003568:	68fb      	ldr	r3, [r7, #12]
 800356a:	851a      	strh	r2, [r3, #40]	@ 0x28
      hi2c->XferCount--;
 800356c:	68fb      	ldr	r3, [r7, #12]
 800356e:	8d5b      	ldrh	r3, [r3, #42]	@ 0x2a
 8003570:	b29b      	uxth	r3, r3
 8003572:	3b01      	subs	r3, #1
 8003574:	b29a      	uxth	r2, r3
 8003576:	68fb      	ldr	r3, [r7, #12]
 8003578:	855a      	strh	r2, [r3, #42]	@ 0x2a

      if ((__HAL_I2C_GET_FLAG(hi2c, I2C_FLAG_BTF) == SET) && (hi2c->XferSize != 0U))
 800357a:	68fb      	ldr	r3, [r7, #12]
 800357c:	681b      	ldr	r3, [r3, #0]
 800357e:	695b      	ldr	r3, [r3, #20]
 8003580:	f003 0304 	and.w	r3, r3, #4
 8003584:	2b04      	cmp	r3, #4
 8003586:	d11b      	bne.n	80035c0 <HAL_I2C_Mem_Write+0x180>
 8003588:	68fb      	ldr	r3, [r7, #12]
 800358a:	8d1b      	ldrh	r3, [r3, #40]	@ 0x28
 800358c:	2b00      	cmp	r3, #0
 800358e:	d017      	beq.n	80035c0 <HAL_I2C_Mem_Write+0x180>
      {
        /* Write data to DR */
        hi2c->Instance->DR = *hi2c->pBuffPtr;
 8003590:	68fb      	ldr	r3, [r7, #12]
 8003592:	6a5b      	ldr	r3, [r3, #36]	@ 0x24
 8003594:	781a      	ldrb	r2, [r3, #0]
 8003596:	68fb      	ldr	r3, [r7, #12]
 8003598:	681b      	ldr	r3, [r3, #0]
 800359a:	611a      	str	r2, [r3, #16]

        /* Increment Buffer pointer */
        hi2c->pBuffPtr++;
 800359c:	68fb      	ldr	r3, [r7, #12]
 800359e:	6a5b      	ldr	r3, [r3, #36]	@ 0x24
 80035a0:	1c5a      	adds	r2, r3, #1
 80035a2:	68fb      	ldr	r3, [r7, #12]
 80035a4:	625a      	str	r2, [r3, #36]	@ 0x24

        /* Update counter */
        hi2c->XferSize--;
 80035a6:	68fb      	ldr	r3, [r7, #12]
 80035a8:	8d1b      	ldrh	r3, [r3, #40]	@ 0x28
 80035aa:	3b01      	subs	r3, #1
 80035ac:	b29a      	uxth	r2, r3
 80035ae:	68fb      	ldr	r3, [r7, #12]
 80035b0:	851a      	strh	r2, [r3, #40]	@ 0x28
        hi2c->XferCount--;
 80035b2:	68fb      	ldr	r3, [r7, #12]
 80035b4:	8d5b      	ldrh	r3, [r3, #42]	@ 0x2a
 80035b6:	b29b      	uxth	r3, r3
 80035b8:	3b01      	subs	r3, #1
 80035ba:	b29a      	uxth	r2, r3
 80035bc:	68fb      	ldr	r3, [r7, #12]
 80035be:	855a      	strh	r2, [r3, #42]	@ 0x2a
    while (hi2c->XferSize > 0U)
 80035c0:	68fb      	ldr	r3, [r7, #12]
 80035c2:	8d1b      	ldrh	r3, [r3, #40]	@ 0x28
 80035c4:	2b00      	cmp	r3, #0
 80035c6:	d1aa      	bne.n	800351e <HAL_I2C_Mem_Write+0xde>
      }
    }

    /* Wait until BTF flag is set */
    if (I2C_WaitOnBTFFlagUntilTimeout(hi2c, Timeout, tickstart) != HAL_OK)
 80035c8:	697a      	ldr	r2, [r7, #20]
 80035ca:	6ab9      	ldr	r1, [r7, #40]	@ 0x28
 80035cc:	68f8      	ldr	r0, [r7, #12]
 80035ce:	f000 fd79 	bl	80040c4 <I2C_WaitOnBTFFlagUntilTimeout>
 80035d2:	4603      	mov	r3, r0
 80035d4:	2b00      	cmp	r3, #0
 80035d6:	d00d      	beq.n	80035f4 <HAL_I2C_Mem_Write+0x1b4>
    {
      if (hi2c->ErrorCode == HAL_I2C_ERROR_AF)
 80035d8:	68fb      	ldr	r3, [r7, #12]
 80035da:	6c1b      	ldr	r3, [r3, #64]	@ 0x40
 80035dc:	2b04      	cmp	r3, #4
 80035de:	d107      	bne.n	80035f0 <HAL_I2C_Mem_Write+0x1b0>
      {
        /* Generate Stop */
        SET_BIT(hi2c->Instance->CR1, I2C_CR1_STOP);
 80035e0:	68fb      	ldr	r3, [r7, #12]
 80035e2:	681b      	ldr	r3, [r3, #0]
 80035e4:	681a      	ldr	r2, [r3, #0]
 80035e6:	68fb      	ldr	r3, [r7, #12]
 80035e8:	681b      	ldr	r3, [r3, #0]
 80035ea:	f442 7200 	orr.w	r2, r2, #512	@ 0x200
 80035ee:	601a      	str	r2, [r3, #0]
      }
      return HAL_ERROR;
 80035f0:	2301      	movs	r3, #1
 80035f2:	e016      	b.n	8003622 <HAL_I2C_Mem_Write+0x1e2>
    }

    /* Generate Stop */
    SET_BIT(hi2c->Instance->CR1, I2C_CR1_STOP);
 80035f4:	68fb      	ldr	r3, [r7, #12]
 80035f6:	681b      	ldr	r3, [r3, #0]
 80035f8:	681a      	ldr	r2, [r3, #0]
 80035fa:	68fb      	ldr	r3, [r7, #12]
 80035fc:	681b      	ldr	r3, [r3, #0]
 80035fe:	f442 7200 	orr.w	r2, r2, #512	@ 0x200
 8003602:	601a      	str	r2, [r3, #0]

    hi2c->State = HAL_I2C_STATE_READY;
 8003604:	68fb      	ldr	r3, [r7, #12]
 8003606:	2220      	movs	r2, #32
 8003608:	f883 203d 	strb.w	r2, [r3, #61]	@ 0x3d
    hi2c->Mode = HAL_I2C_MODE_NONE;
 800360c:	68fb      	ldr	r3, [r7, #12]
 800360e:	2200      	movs	r2, #0
 8003610:	f883 203e 	strb.w	r2, [r3, #62]	@ 0x3e

    /* Process Unlocked */
    __HAL_UNLOCK(hi2c);
 8003614:	68fb      	ldr	r3, [r7, #12]
 8003616:	2200      	movs	r2, #0
 8003618:	f883 203c 	strb.w	r2, [r3, #60]	@ 0x3c

    return HAL_OK;
 800361c:	2300      	movs	r3, #0
 800361e:	e000      	b.n	8003622 <HAL_I2C_Mem_Write+0x1e2>
  }
  else
  {
    return HAL_BUSY;
 8003620:	2302      	movs	r3, #2
  }
}
 8003622:	4618      	mov	r0, r3
 8003624:	3718      	adds	r7, #24
 8003626:	46bd      	mov	sp, r7
 8003628:	bd80      	pop	{r7, pc}
 800362a:	bf00      	nop
 800362c:	00100002 	.word	0x00100002
 8003630:	ffff0000 	.word	0xffff0000

08003634 <HAL_I2C_Mem_Read>:
  * @param  Size Amount of data to be sent
  * @param  Timeout Timeout duration
  * @retval HAL status
  */
HAL_StatusTypeDef HAL_I2C_Mem_Read(I2C_HandleTypeDef *hi2c, uint16_t DevAddress, uint16_t MemAddress, uint16_t MemAddSize, uint8_t *pData, uint16_t Size, uint32_t Timeout)
{
 8003634:	b580      	push	{r7, lr}
 8003636:	b08c      	sub	sp, #48	@ 0x30
 8003638:	af02      	add	r7, sp, #8
 800363a:	60f8      	str	r0, [r7, #12]
 800363c:	4608      	mov	r0, r1
 800363e:	4611      	mov	r1, r2
 8003640:	461a      	mov	r2, r3
 8003642:	4603      	mov	r3, r0
 8003644:	817b      	strh	r3, [r7, #10]
 8003646:	460b      	mov	r3, r1
 8003648:	813b      	strh	r3, [r7, #8]
 800364a:	4613      	mov	r3, r2
 800364c:	80fb      	strh	r3, [r7, #6]
  __IO uint32_t count = 0U;
 800364e:	2300      	movs	r3, #0
 8003650:	623b      	str	r3, [r7, #32]

  /* Init tickstart for timeout management*/
  uint32_t tickstart = HAL_GetTick();
 8003652:	f7ff fafd 	bl	8002c50 <HAL_GetTick>
 8003656:	6278      	str	r0, [r7, #36]	@ 0x24

  /* Check the parameters */
  assert_param(IS_I2C_MEMADD_SIZE(MemAddSize));

  if (hi2c->State == HAL_I2C_STATE_READY)
 8003658:	68fb      	ldr	r3, [r7, #12]
 800365a:	f893 303d 	ldrb.w	r3, [r3, #61]	@ 0x3d
 800365e:	b2db      	uxtb	r3, r3
 8003660:	2b20      	cmp	r3, #32
 8003662:	f040 8244 	bne.w	8003aee <HAL_I2C_Mem_Read+0x4ba>
  {
    /* Wait until BUSY flag is reset */
    if (I2C_WaitOnFlagUntilTimeout(hi2c, I2C_FLAG_BUSY, SET, I2C_TIMEOUT_BUSY_FLAG, tickstart) != HAL_OK)
 8003666:	6a7b      	ldr	r3, [r7, #36]	@ 0x24
 8003668:	9300      	str	r3, [sp, #0]
 800366a:	2319      	movs	r3, #25
 800366c:	2201      	movs	r2, #1
 800366e:	4982      	ldr	r1, [pc, #520]	@ (8003878 <HAL_I2C_Mem_Read+0x244>)
 8003670:	68f8      	ldr	r0, [r7, #12]
 8003672:	f000 fbc5 	bl	8003e00 <I2C_WaitOnFlagUntilTimeout>
 8003676:	4603      	mov	r3, r0
 8003678:	2b00      	cmp	r3, #0
 800367a:	d001      	beq.n	8003680 <HAL_I2C_Mem_Read+0x4c>
    {
      return HAL_BUSY;
 800367c:	2302      	movs	r3, #2
 800367e:	e237      	b.n	8003af0 <HAL_I2C_Mem_Read+0x4bc>
    }

    /* Process Locked */
    __HAL_LOCK(hi2c);
 8003680:	68fb      	ldr	r3, [r7, #12]
 8003682:	f893 303c 	ldrb.w	r3, [r3, #60]	@ 0x3c
 8003686:	2b01      	cmp	r3, #1
 8003688:	d101      	bne.n	800368e <HAL_I2C_Mem_Read+0x5a>
 800368a:	2302      	movs	r3, #2
 800368c:	e230      	b.n	8003af0 <HAL_I2C_Mem_Read+0x4bc>
 800368e:	68fb      	ldr	r3, [r7, #12]
 8003690:	2201      	movs	r2, #1
 8003692:	f883 203c 	strb.w	r2, [r3, #60]	@ 0x3c

    /* Check if the I2C is already enabled */
    if ((hi2c->Instance->CR1 & I2C_CR1_PE) != I2C_CR1_PE)
 8003696:	68fb      	ldr	r3, [r7, #12]
 8003698:	681b      	ldr	r3, [r3, #0]
 800369a:	681b      	ldr	r3, [r3, #0]
 800369c:	f003 0301 	and.w	r3, r3, #1
 80036a0:	2b01      	cmp	r3, #1
 80036a2:	d007      	beq.n	80036b4 <HAL_I2C_Mem_Read+0x80>
    {
      /* Enable I2C peripheral */
      __HAL_I2C_ENABLE(hi2c);
 80036a4:	68fb      	ldr	r3, [r7, #12]
 80036a6:	681b      	ldr	r3, [r3, #0]
 80036a8:	681a      	ldr	r2, [r3, #0]
 80036aa:	68fb      	ldr	r3, [r7, #12]
 80036ac:	681b      	ldr	r3, [r3, #0]
 80036ae:	f042 0201 	orr.w	r2, r2, #1
 80036b2:	601a      	str	r2, [r3, #0]
    }

    /* Disable Pos */
    CLEAR_BIT(hi2c->Instance->CR1, I2C_CR1_POS);
 80036b4:	68fb      	ldr	r3, [r7, #12]
 80036b6:	681b      	ldr	r3, [r3, #0]
 80036b8:	681a      	ldr	r2, [r3, #0]
 80036ba:	68fb      	ldr	r3, [r7, #12]
 80036bc:	681b      	ldr	r3, [r3, #0]
 80036be:	f422 6200 	bic.w	r2, r2, #2048	@ 0x800
 80036c2:	601a      	str	r2, [r3, #0]

    hi2c->State     = HAL_I2C_STATE_BUSY_RX;
 80036c4:	68fb      	ldr	r3, [r7, #12]
 80036c6:	2222      	movs	r2, #34	@ 0x22
 80036c8:	f883 203d 	strb.w	r2, [r3, #61]	@ 0x3d
    hi2c->Mode      = HAL_I2C_MODE_MEM;
 80036cc:	68fb      	ldr	r3, [r7, #12]
 80036ce:	2240      	movs	r2, #64	@ 0x40
 80036d0:	f883 203e 	strb.w	r2, [r3, #62]	@ 0x3e
    hi2c->ErrorCode = HAL_I2C_ERROR_NONE;
 80036d4:	68fb      	ldr	r3, [r7, #12]
 80036d6:	2200      	movs	r2, #0
 80036d8:	641a      	str	r2, [r3, #64]	@ 0x40

    /* Prepare transfer parameters */
    hi2c->pBuffPtr    = pData;
 80036da:	68fb      	ldr	r3, [r7, #12]
 80036dc:	6b3a      	ldr	r2, [r7, #48]	@ 0x30
 80036de:	625a      	str	r2, [r3, #36]	@ 0x24
    hi2c->XferCount   = Size;
 80036e0:	68fb      	ldr	r3, [r7, #12]
 80036e2:	8eba      	ldrh	r2, [r7, #52]	@ 0x34
 80036e4:	855a      	strh	r2, [r3, #42]	@ 0x2a
    hi2c->XferSize    = hi2c->XferCount;
 80036e6:	68fb      	ldr	r3, [r7, #12]
 80036e8:	8d5b      	ldrh	r3, [r3, #42]	@ 0x2a
 80036ea:	b29a      	uxth	r2, r3
 80036ec:	68fb      	ldr	r3, [r7, #12]
 80036ee:	851a      	strh	r2, [r3, #40]	@ 0x28
    hi2c->XferOptions = I2C_NO_OPTION_FRAME;
 80036f0:	68fb      	ldr	r3, [r7, #12]
 80036f2:	4a62      	ldr	r2, [pc, #392]	@ (800387c <HAL_I2C_Mem_Read+0x248>)
 80036f4:	62da      	str	r2, [r3, #44]	@ 0x2c

    /* Send Slave Address and Memory Address */
    if (I2C_RequestMemoryRead(hi2c, DevAddress, MemAddress, MemAddSize, Timeout, tickstart) != HAL_OK)
 80036f6:	88f8      	ldrh	r0, [r7, #6]
 80036f8:	893a      	ldrh	r2, [r7, #8]
 80036fa:	8979      	ldrh	r1, [r7, #10]
 80036fc:	6a7b      	ldr	r3, [r7, #36]	@ 0x24
 80036fe:	9301      	str	r3, [sp, #4]
 8003700:	6bbb      	ldr	r3, [r7, #56]	@ 0x38
 8003702:	9300      	str	r3, [sp, #0]
 8003704:	4603      	mov	r3, r0
 8003706:	68f8      	ldr	r0, [r7, #12]
 8003708:	f000 fa92 	bl	8003c30 <I2C_RequestMemoryRead>
 800370c:	4603      	mov	r3, r0
 800370e:	2b00      	cmp	r3, #0
 8003710:	d001      	beq.n	8003716 <HAL_I2C_Mem_Read+0xe2>
    {
      return HAL_ERROR;
 8003712:	2301      	movs	r3, #1
 8003714:	e1ec      	b.n	8003af0 <HAL_I2C_Mem_Read+0x4bc>
    }

    if (hi2c->XferSize == 0U)
 8003716:	68fb      	ldr	r3, [r7, #12]
 8003718:	8d1b      	ldrh	r3, [r3, #40]	@ 0x28
 800371a:	2b00      	cmp	r3, #0
 800371c:	d113      	bne.n	8003746 <HAL_I2C_Mem_Read+0x112>
    {
      /* Clear ADDR flag */
      __HAL_I2C_CLEAR_ADDRFLAG(hi2c);
 800371e:	2300      	movs	r3, #0
 8003720:	61fb      	str	r3, [r7, #28]
 8003722:	68fb      	ldr	r3, [r7, #12]
 8003724:	681b      	ldr	r3, [r3, #0]
 8003726:	695b      	ldr	r3, [r3, #20]
 8003728:	61fb      	str	r3, [r7, #28]
 800372a:	68fb      	ldr	r3, [r7, #12]
 800372c:	681b      	ldr	r3, [r3, #0]
 800372e:	699b      	ldr	r3, [r3, #24]
 8003730:	61fb      	str	r3, [r7, #28]
 8003732:	69fb      	ldr	r3, [r7, #28]

      /* Generate Stop */
      SET_BIT(hi2c->Instance->CR1, I2C_CR1_STOP);
 8003734:	68fb      	ldr	r3, [r7, #12]
 8003736:	681b      	ldr	r3, [r3, #0]
 8003738:	681a      	ldr	r2, [r3, #0]
 800373a:	68fb      	ldr	r3, [r7, #12]
 800373c:	681b      	ldr	r3, [r3, #0]
 800373e:	f442 7200 	orr.w	r2, r2, #512	@ 0x200
 8003742:	601a      	str	r2, [r3, #0]
 8003744:	e1c0      	b.n	8003ac8 <HAL_I2C_Mem_Read+0x494>
    }
    else if (hi2c->XferSize == 1U)
 8003746:	68fb      	ldr	r3, [r7, #12]
 8003748:	8d1b      	ldrh	r3, [r3, #40]	@ 0x28
 800374a:	2b01      	cmp	r3, #1
 800374c:	d11e      	bne.n	800378c <HAL_I2C_Mem_Read+0x158>
    {
      /* Disable Acknowledge */
      CLEAR_BIT(hi2c->Instance->CR1, I2C_CR1_ACK);
 800374e:	68fb      	ldr	r3, [r7, #12]
 8003750:	681b      	ldr	r3, [r3, #0]
 8003752:	681a      	ldr	r2, [r3, #0]
 8003754:	68fb      	ldr	r3, [r7, #12]
 8003756:	681b      	ldr	r3, [r3, #0]
 8003758:	f422 6280 	bic.w	r2, r2, #1024	@ 0x400
 800375c:	601a      	str	r2, [r3, #0]
  __ASM volatile ("cpsid i" : : : "memory");
 800375e:	b672      	cpsid	i
}
 8003760:	bf00      	nop
      /* Disable all active IRQs around ADDR clearing and STOP programming because the EV6_3
         software sequence must complete before the current byte end of transfer */
      __disable_irq();

      /* Clear ADDR flag */
      __HAL_I2C_CLEAR_ADDRFLAG(hi2c);
 8003762:	2300      	movs	r3, #0
 8003764:	61bb      	str	r3, [r7, #24]
 8003766:	68fb      	ldr	r3, [r7, #12]
 8003768:	681b      	ldr	r3, [r3, #0]
 800376a:	695b      	ldr	r3, [r3, #20]
 800376c:	61bb      	str	r3, [r7, #24]
 800376e:	68fb      	ldr	r3, [r7, #12]
 8003770:	681b      	ldr	r3, [r3, #0]
 8003772:	699b      	ldr	r3, [r3, #24]
 8003774:	61bb      	str	r3, [r7, #24]
 8003776:	69bb      	ldr	r3, [r7, #24]

      /* Generate Stop */
      SET_BIT(hi2c->Instance->CR1, I2C_CR1_STOP);
 8003778:	68fb      	ldr	r3, [r7, #12]
 800377a:	681b      	ldr	r3, [r3, #0]
 800377c:	681a      	ldr	r2, [r3, #0]
 800377e:	68fb      	ldr	r3, [r7, #12]
 8003780:	681b      	ldr	r3, [r3, #0]
 8003782:	f442 7200 	orr.w	r2, r2, #512	@ 0x200
 8003786:	601a      	str	r2, [r3, #0]
  __ASM volatile ("cpsie i" : : : "memory");
 8003788:	b662      	cpsie	i
}
 800378a:	e035      	b.n	80037f8 <HAL_I2C_Mem_Read+0x1c4>

      /* Re-enable IRQs */
      __enable_irq();
    }
    else if (hi2c->XferSize == 2U)
 800378c:	68fb      	ldr	r3, [r7, #12]
 800378e:	8d1b      	ldrh	r3, [r3, #40]	@ 0x28
 8003790:	2b02      	cmp	r3, #2
 8003792:	d11e      	bne.n	80037d2 <HAL_I2C_Mem_Read+0x19e>
    {
      /* Enable Pos */
      SET_BIT(hi2c->Instance->CR1, I2C_CR1_POS);
 8003794:	68fb      	ldr	r3, [r7, #12]
 8003796:	681b      	ldr	r3, [r3, #0]
 8003798:	681a      	ldr	r2, [r3, #0]
 800379a:	68fb      	ldr	r3, [r7, #12]
 800379c:	681b      	ldr	r3, [r3, #0]
 800379e:	f442 6200 	orr.w	r2, r2, #2048	@ 0x800
 80037a2:	601a      	str	r2, [r3, #0]
  __ASM volatile ("cpsid i" : : : "memory");
 80037a4:	b672      	cpsid	i
}
 80037a6:	bf00      	nop
      /* Disable all active IRQs around ADDR clearing and STOP programming because the EV6_3
         software sequence must complete before the current byte end of transfer */
      __disable_irq();

      /* Clear ADDR flag */
      __HAL_I2C_CLEAR_ADDRFLAG(hi2c);
 80037a8:	2300      	movs	r3, #0
 80037aa:	617b      	str	r3, [r7, #20]
 80037ac:	68fb      	ldr	r3, [r7, #12]
 80037ae:	681b      	ldr	r3, [r3, #0]
 80037b0:	695b      	ldr	r3, [r3, #20]
 80037b2:	617b      	str	r3, [r7, #20]
 80037b4:	68fb      	ldr	r3, [r7, #12]
 80037b6:	681b      	ldr	r3, [r3, #0]
 80037b8:	699b      	ldr	r3, [r3, #24]
 80037ba:	617b      	str	r3, [r7, #20]
 80037bc:	697b      	ldr	r3, [r7, #20]

      /* Disable Acknowledge */
      CLEAR_BIT(hi2c->Instance->CR1, I2C_CR1_ACK);
 80037be:	68fb      	ldr	r3, [r7, #12]
 80037c0:	681b      	ldr	r3, [r3, #0]
 80037c2:	681a      	ldr	r2, [r3, #0]
 80037c4:	68fb      	ldr	r3, [r7, #12]
 80037c6:	681b      	ldr	r3, [r3, #0]
 80037c8:	f422 6280 	bic.w	r2, r2, #1024	@ 0x400
 80037cc:	601a      	str	r2, [r3, #0]
  __ASM volatile ("cpsie i" : : : "memory");
 80037ce:	b662      	cpsie	i
}
 80037d0:	e012      	b.n	80037f8 <HAL_I2C_Mem_Read+0x1c4>
      __enable_irq();
    }
    else
    {
      /* Enable Acknowledge */
      SET_BIT(hi2c->Instance->CR1, I2C_CR1_ACK);
 80037d2:	68fb      	ldr	r3, [r7, #12]
 80037d4:	681b      	ldr	r3, [r3, #0]
 80037d6:	681a      	ldr	r2, [r3, #0]
 80037d8:	68fb      	ldr	r3, [r7, #12]
 80037da:	681b      	ldr	r3, [r3, #0]
 80037dc:	f442 6280 	orr.w	r2, r2, #1024	@ 0x400
 80037e0:	601a      	str	r2, [r3, #0]
      /* Clear ADDR flag */
      __HAL_I2C_CLEAR_ADDRFLAG(hi2c);
 80037e2:	2300      	movs	r3, #0
 80037e4:	613b      	str	r3, [r7, #16]
 80037e6:	68fb      	ldr	r3, [r7, #12]
 80037e8:	681b      	ldr	r3, [r3, #0]
 80037ea:	695b      	ldr	r3, [r3, #20]
 80037ec:	613b      	str	r3, [r7, #16]
 80037ee:	68fb      	ldr	r3, [r7, #12]
 80037f0:	681b      	ldr	r3, [r3, #0]
 80037f2:	699b      	ldr	r3, [r3, #24]
 80037f4:	613b      	str	r3, [r7, #16]
 80037f6:	693b      	ldr	r3, [r7, #16]
    }

    while (hi2c->XferSize > 0U)
 80037f8:	e166      	b.n	8003ac8 <HAL_I2C_Mem_Read+0x494>
    {
      if (hi2c->XferSize <= 3U)
 80037fa:	68fb      	ldr	r3, [r7, #12]
 80037fc:	8d1b      	ldrh	r3, [r3, #40]	@ 0x28
 80037fe:	2b03      	cmp	r3, #3
 8003800:	f200 811f 	bhi.w	8003a42 <HAL_I2C_Mem_Read+0x40e>
      {
        /* One byte */
        if (hi2c->XferSize == 1U)
 8003804:	68fb      	ldr	r3, [r7, #12]
 8003806:	8d1b      	ldrh	r3, [r3, #40]	@ 0x28
 8003808:	2b01      	cmp	r3, #1
 800380a:	d123      	bne.n	8003854 <HAL_I2C_Mem_Read+0x220>
        {
          /* Wait until RXNE flag is set */
          if (I2C_WaitOnRXNEFlagUntilTimeout(hi2c, Timeout, tickstart) != HAL_OK)
 800380c:	6a7a      	ldr	r2, [r7, #36]	@ 0x24
 800380e:	6bb9      	ldr	r1, [r7, #56]	@ 0x38
 8003810:	68f8      	ldr	r0, [r7, #12]
 8003812:	f000 fc9f 	bl	8004154 <I2C_WaitOnRXNEFlagUntilTimeout>
 8003816:	4603      	mov	r3, r0
 8003818:	2b00      	cmp	r3, #0
 800381a:	d001      	beq.n	8003820 <HAL_I2C_Mem_Read+0x1ec>
          {
            return HAL_ERROR;
 800381c:	2301      	movs	r3, #1
 800381e:	e167      	b.n	8003af0 <HAL_I2C_Mem_Read+0x4bc>
          }

          /* Read data from DR */
          *hi2c->pBuffPtr = (uint8_t)hi2c->Instance->DR;
 8003820:	68fb      	ldr	r3, [r7, #12]
 8003822:	681b      	ldr	r3, [r3, #0]
 8003824:	691a      	ldr	r2, [r3, #16]
 8003826:	68fb      	ldr	r3, [r7, #12]
 8003828:	6a5b      	ldr	r3, [r3, #36]	@ 0x24
 800382a:	b2d2      	uxtb	r2, r2
 800382c:	701a      	strb	r2, [r3, #0]

          /* Increment Buffer pointer */
          hi2c->pBuffPtr++;
 800382e:	68fb      	ldr	r3, [r7, #12]
 8003830:	6a5b      	ldr	r3, [r3, #36]	@ 0x24
 8003832:	1c5a      	adds	r2, r3, #1
 8003834:	68fb      	ldr	r3, [r7, #12]
 8003836:	625a      	str	r2, [r3, #36]	@ 0x24

          /* Update counter */
          hi2c->XferSize--;
 8003838:	68fb      	ldr	r3, [r7, #12]
 800383a:	8d1b      	ldrh	r3, [r3, #40]	@ 0x28
 800383c:	3b01      	subs	r3, #1
 800383e:	b29a      	uxth	r2, r3
 8003840:	68fb      	ldr	r3, [r7, #12]
 8003842:	851a      	strh	r2, [r3, #40]	@ 0x28
          hi2c->XferCount--;
 8003844:	68fb      	ldr	r3, [r7, #12]
 8003846:	8d5b      	ldrh	r3, [r3, #42]	@ 0x2a
 8003848:	b29b      	uxth	r3, r3
 800384a:	3b01      	subs	r3, #1
 800384c:	b29a      	uxth	r2, r3
 800384e:	68fb      	ldr	r3, [r7, #12]
 8003850:	855a      	strh	r2, [r3, #42]	@ 0x2a
 8003852:	e139      	b.n	8003ac8 <HAL_I2C_Mem_Read+0x494>
        }
        /* Two bytes */
        else if (hi2c->XferSize == 2U)
 8003854:	68fb      	ldr	r3, [r7, #12]
 8003856:	8d1b      	ldrh	r3, [r3, #40]	@ 0x28
 8003858:	2b02      	cmp	r3, #2
 800385a:	d152      	bne.n	8003902 <HAL_I2C_Mem_Read+0x2ce>
        {
          /* Wait until BTF flag is set */
          if (I2C_WaitOnFlagUntilTimeout(hi2c, I2C_FLAG_BTF, RESET, Timeout, tickstart) != HAL_OK)
 800385c:	6a7b      	ldr	r3, [r7, #36]	@ 0x24
 800385e:	9300      	str	r3, [sp, #0]
 8003860:	6bbb      	ldr	r3, [r7, #56]	@ 0x38
 8003862:	2200      	movs	r2, #0
 8003864:	4906      	ldr	r1, [pc, #24]	@ (8003880 <HAL_I2C_Mem_Read+0x24c>)
 8003866:	68f8      	ldr	r0, [r7, #12]
 8003868:	f000 faca 	bl	8003e00 <I2C_WaitOnFlagUntilTimeout>
 800386c:	4603      	mov	r3, r0
 800386e:	2b00      	cmp	r3, #0
 8003870:	d008      	beq.n	8003884 <HAL_I2C_Mem_Read+0x250>
          {
            return HAL_ERROR;
 8003872:	2301      	movs	r3, #1
 8003874:	e13c      	b.n	8003af0 <HAL_I2C_Mem_Read+0x4bc>
 8003876:	bf00      	nop
 8003878:	00100002 	.word	0x00100002
 800387c:	ffff0000 	.word	0xffff0000
 8003880:	00010004 	.word	0x00010004
  __ASM volatile ("cpsid i" : : : "memory");
 8003884:	b672      	cpsid	i
}
 8003886:	bf00      	nop
          /* Disable all active IRQs around ADDR clearing and STOP programming because the EV6_3
             software sequence must complete before the current byte end of transfer */
          __disable_irq();

          /* Generate Stop */
          SET_BIT(hi2c->Instance->CR1, I2C_CR1_STOP);
 8003888:	68fb      	ldr	r3, [r7, #12]
 800388a:	681b      	ldr	r3, [r3, #0]
 800388c:	681a      	ldr	r2, [r3, #0]
 800388e:	68fb      	ldr	r3, [r7, #12]
 8003890:	681b      	ldr	r3, [r3, #0]
 8003892:	f442 7200 	orr.w	r2, r2, #512	@ 0x200
 8003896:	601a      	str	r2, [r3, #0]

          /* Read data from DR */
          *hi2c->pBuffPtr = (uint8_t)hi2c->Instance->DR;
 8003898:	68fb      	ldr	r3, [r7, #12]
 800389a:	681b      	ldr	r3, [r3, #0]
 800389c:	691a      	ldr	r2, [r3, #16]
 800389e:	68fb      	ldr	r3, [r7, #12]
 80038a0:	6a5b      	ldr	r3, [r3, #36]	@ 0x24
 80038a2:	b2d2      	uxtb	r2, r2
 80038a4:	701a      	strb	r2, [r3, #0]

          /* Increment Buffer pointer */
          hi2c->pBuffPtr++;
 80038a6:	68fb      	ldr	r3, [r7, #12]
 80038a8:	6a5b      	ldr	r3, [r3, #36]	@ 0x24
 80038aa:	1c5a      	adds	r2, r3, #1
 80038ac:	68fb      	ldr	r3, [r7, #12]
 80038ae:	625a      	str	r2, [r3, #36]	@ 0x24

          /* Update counter */
          hi2c->XferSize--;
 80038b0:	68fb      	ldr	r3, [r7, #12]
 80038b2:	8d1b      	ldrh	r3, [r3, #40]	@ 0x28
 80038b4:	3b01      	subs	r3, #1
 80038b6:	b29a      	uxth	r2, r3
 80038b8:	68fb      	ldr	r3, [r7, #12]
 80038ba:	851a      	strh	r2, [r3, #40]	@ 0x28
          hi2c->XferCount--;
 80038bc:	68fb      	ldr	r3, [r7, #12]
 80038be:	8d5b      	ldrh	r3, [r3, #42]	@ 0x2a
 80038c0:	b29b      	uxth	r3, r3
 80038c2:	3b01      	subs	r3, #1
 80038c4:	b29a      	uxth	r2, r3
 80038c6:	68fb      	ldr	r3, [r7, #12]
 80038c8:	855a      	strh	r2, [r3, #42]	@ 0x2a
  __ASM volatile ("cpsie i" : : : "memory");
 80038ca:	b662      	cpsie	i
}
 80038cc:	bf00      	nop

          /* Re-enable IRQs */
          __enable_irq();

          /* Read data from DR */
          *hi2c->pBuffPtr = (uint8_t)hi2c->Instance->DR;
 80038ce:	68fb      	ldr	r3, [r7, #12]
 80038d0:	681b      	ldr	r3, [r3, #0]
 80038d2:	691a      	ldr	r2, [r3, #16]
 80038d4:	68fb      	ldr	r3, [r7, #12]
 80038d6:	6a5b      	ldr	r3, [r3, #36]	@ 0x24
 80038d8:	b2d2      	uxtb	r2, r2
 80038da:	701a      	strb	r2, [r3, #0]

          /* Increment Buffer pointer */
          hi2c->pBuffPtr++;
 80038dc:	68fb      	ldr	r3, [r7, #12]
 80038de:	6a5b      	ldr	r3, [r3, #36]	@ 0x24
 80038e0:	1c5a      	adds	r2, r3, #1
 80038e2:	68fb      	ldr	r3, [r7, #12]
 80038e4:	625a      	str	r2, [r3, #36]	@ 0x24

          /* Update counter */
          hi2c->XferSize--;
 80038e6:	68fb      	ldr	r3, [r7, #12]
 80038e8:	8d1b      	ldrh	r3, [r3, #40]	@ 0x28
 80038ea:	3b01      	subs	r3, #1
 80038ec:	b29a      	uxth	r2, r3
 80038ee:	68fb      	ldr	r3, [r7, #12]
 80038f0:	851a      	strh	r2, [r3, #40]	@ 0x28
          hi2c->XferCount--;
 80038f2:	68fb      	ldr	r3, [r7, #12]
 80038f4:	8d5b      	ldrh	r3, [r3, #42]	@ 0x2a
 80038f6:	b29b      	uxth	r3, r3
 80038f8:	3b01      	subs	r3, #1
 80038fa:	b29a      	uxth	r2, r3
 80038fc:	68fb      	ldr	r3, [r7, #12]
 80038fe:	855a      	strh	r2, [r3, #42]	@ 0x2a
 8003900:	e0e2      	b.n	8003ac8 <HAL_I2C_Mem_Read+0x494>
        }
        /* 3 Last bytes */
        else
        {
          /* Wait until BTF flag is set */
          if (I2C_WaitOnFlagUntilTimeout(hi2c, I2C_FLAG_BTF, RESET, Timeout, tickstart) != HAL_OK)
 8003902:	6a7b      	ldr	r3, [r7, #36]	@ 0x24
 8003904:	9300      	str	r3, [sp, #0]
 8003906:	6bbb      	ldr	r3, [r7, #56]	@ 0x38
 8003908:	2200      	movs	r2, #0
 800390a:	497b      	ldr	r1, [pc, #492]	@ (8003af8 <HAL_I2C_Mem_Read+0x4c4>)
 800390c:	68f8      	ldr	r0, [r7, #12]
 800390e:	f000 fa77 	bl	8003e00 <I2C_WaitOnFlagUntilTimeout>
 8003912:	4603      	mov	r3, r0
 8003914:	2b00      	cmp	r3, #0
 8003916:	d001      	beq.n	800391c <HAL_I2C_Mem_Read+0x2e8>
          {
            return HAL_ERROR;
 8003918:	2301      	movs	r3, #1
 800391a:	e0e9      	b.n	8003af0 <HAL_I2C_Mem_Read+0x4bc>
          }

          /* Disable Acknowledge */
          CLEAR_BIT(hi2c->Instance->CR1, I2C_CR1_ACK);
 800391c:	68fb      	ldr	r3, [r7, #12]
 800391e:	681b      	ldr	r3, [r3, #0]
 8003920:	681a      	ldr	r2, [r3, #0]
 8003922:	68fb      	ldr	r3, [r7, #12]
 8003924:	681b      	ldr	r3, [r3, #0]
 8003926:	f422 6280 	bic.w	r2, r2, #1024	@ 0x400
 800392a:	601a      	str	r2, [r3, #0]
  __ASM volatile ("cpsid i" : : : "memory");
 800392c:	b672      	cpsid	i
}
 800392e:	bf00      	nop
          /* Disable all active IRQs around ADDR clearing and STOP programming because the EV6_3
             software sequence must complete before the current byte end of transfer */
          __disable_irq();

          /* Read data from DR */
          *hi2c->pBuffPtr = (uint8_t)hi2c->Instance->DR;
 8003930:	68fb      	ldr	r3, [r7, #12]
 8003932:	681b      	ldr	r3, [r3, #0]
 8003934:	691a      	ldr	r2, [r3, #16]
 8003936:	68fb      	ldr	r3, [r7, #12]
 8003938:	6a5b      	ldr	r3, [r3, #36]	@ 0x24
 800393a:	b2d2      	uxtb	r2, r2
 800393c:	701a      	strb	r2, [r3, #0]

          /* Increment Buffer pointer */
          hi2c->pBuffPtr++;
 800393e:	68fb      	ldr	r3, [r7, #12]
 8003940:	6a5b      	ldr	r3, [r3, #36]	@ 0x24
 8003942:	1c5a      	adds	r2, r3, #1
 8003944:	68fb      	ldr	r3, [r7, #12]
 8003946:	625a      	str	r2, [r3, #36]	@ 0x24

          /* Update counter */
          hi2c->XferSize--;
 8003948:	68fb      	ldr	r3, [r7, #12]
 800394a:	8d1b      	ldrh	r3, [r3, #40]	@ 0x28
 800394c:	3b01      	subs	r3, #1
 800394e:	b29a      	uxth	r2, r3
 8003950:	68fb      	ldr	r3, [r7, #12]
 8003952:	851a      	strh	r2, [r3, #40]	@ 0x28
          hi2c->XferCount--;
 8003954:	68fb      	ldr	r3, [r7, #12]
 8003956:	8d5b      	ldrh	r3, [r3, #42]	@ 0x2a
 8003958:	b29b      	uxth	r3, r3
 800395a:	3b01      	subs	r3, #1
 800395c:	b29a      	uxth	r2, r3
 800395e:	68fb      	ldr	r3, [r7, #12]
 8003960:	855a      	strh	r2, [r3, #42]	@ 0x2a

          /* Wait until BTF flag is set */
          count = I2C_TIMEOUT_FLAG * (SystemCoreClock / 25U / 1000U);
 8003962:	4b66      	ldr	r3, [pc, #408]	@ (8003afc <HAL_I2C_Mem_Read+0x4c8>)
 8003964:	681b      	ldr	r3, [r3, #0]
 8003966:	08db      	lsrs	r3, r3, #3
 8003968:	4a65      	ldr	r2, [pc, #404]	@ (8003b00 <HAL_I2C_Mem_Read+0x4cc>)
 800396a:	fba2 2303 	umull	r2, r3, r2, r3
 800396e:	0a1a      	lsrs	r2, r3, #8
 8003970:	4613      	mov	r3, r2
 8003972:	009b      	lsls	r3, r3, #2
 8003974:	4413      	add	r3, r2
 8003976:	00da      	lsls	r2, r3, #3
 8003978:	1ad3      	subs	r3, r2, r3
 800397a:	623b      	str	r3, [r7, #32]
          do
          {
            count--;
 800397c:	6a3b      	ldr	r3, [r7, #32]
 800397e:	3b01      	subs	r3, #1
 8003980:	623b      	str	r3, [r7, #32]
            if (count == 0U)
 8003982:	6a3b      	ldr	r3, [r7, #32]
 8003984:	2b00      	cmp	r3, #0
 8003986:	d118      	bne.n	80039ba <HAL_I2C_Mem_Read+0x386>
            {
              hi2c->PreviousState       = I2C_STATE_NONE;
 8003988:	68fb      	ldr	r3, [r7, #12]
 800398a:	2200      	movs	r2, #0
 800398c:	631a      	str	r2, [r3, #48]	@ 0x30
              hi2c->State               = HAL_I2C_STATE_READY;
 800398e:	68fb      	ldr	r3, [r7, #12]
 8003990:	2220      	movs	r2, #32
 8003992:	f883 203d 	strb.w	r2, [r3, #61]	@ 0x3d
              hi2c->Mode                = HAL_I2C_MODE_NONE;
 8003996:	68fb      	ldr	r3, [r7, #12]
 8003998:	2200      	movs	r2, #0
 800399a:	f883 203e 	strb.w	r2, [r3, #62]	@ 0x3e
              hi2c->ErrorCode           |= HAL_I2C_ERROR_TIMEOUT;
 800399e:	68fb      	ldr	r3, [r7, #12]
 80039a0:	6c1b      	ldr	r3, [r3, #64]	@ 0x40
 80039a2:	f043 0220 	orr.w	r2, r3, #32
 80039a6:	68fb      	ldr	r3, [r7, #12]
 80039a8:	641a      	str	r2, [r3, #64]	@ 0x40
  __ASM volatile ("cpsie i" : : : "memory");
 80039aa:	b662      	cpsie	i
}
 80039ac:	bf00      	nop

              /* Re-enable IRQs */
              __enable_irq();

              /* Process Unlocked */
              __HAL_UNLOCK(hi2c);
 80039ae:	68fb      	ldr	r3, [r7, #12]
 80039b0:	2200      	movs	r2, #0
 80039b2:	f883 203c 	strb.w	r2, [r3, #60]	@ 0x3c

              return HAL_ERROR;
 80039b6:	2301      	movs	r3, #1
 80039b8:	e09a      	b.n	8003af0 <HAL_I2C_Mem_Read+0x4bc>
            }
          }
          while (__HAL_I2C_GET_FLAG(hi2c, I2C_FLAG_BTF) == RESET);
 80039ba:	68fb      	ldr	r3, [r7, #12]
 80039bc:	681b      	ldr	r3, [r3, #0]
 80039be:	695b      	ldr	r3, [r3, #20]
 80039c0:	f003 0304 	and.w	r3, r3, #4
 80039c4:	2b04      	cmp	r3, #4
 80039c6:	d1d9      	bne.n	800397c <HAL_I2C_Mem_Read+0x348>

          /* Generate Stop */
          SET_BIT(hi2c->Instance->CR1, I2C_CR1_STOP);
 80039c8:	68fb      	ldr	r3, [r7, #12]
 80039ca:	681b      	ldr	r3, [r3, #0]
 80039cc:	681a      	ldr	r2, [r3, #0]
 80039ce:	68fb      	ldr	r3, [r7, #12]
 80039d0:	681b      	ldr	r3, [r3, #0]
 80039d2:	f442 7200 	orr.w	r2, r2, #512	@ 0x200
 80039d6:	601a      	str	r2, [r3, #0]

          /* Read data from DR */
          *hi2c->pBuffPtr = (uint8_t)hi2c->Instance->DR;
 80039d8:	68fb      	ldr	r3, [r7, #12]
 80039da:	681b      	ldr	r3, [r3, #0]
 80039dc:	691a      	ldr	r2, [r3, #16]
 80039de:	68fb      	ldr	r3, [r7, #12]
 80039e0:	6a5b      	ldr	r3, [r3, #36]	@ 0x24
 80039e2:	b2d2      	uxtb	r2, r2
 80039e4:	701a      	strb	r2, [r3, #0]

          /* Increment Buffer pointer */
          hi2c->pBuffPtr++;
 80039e6:	68fb      	ldr	r3, [r7, #12]
 80039e8:	6a5b      	ldr	r3, [r3, #36]	@ 0x24
 80039ea:	1c5a      	adds	r2, r3, #1
 80039ec:	68fb      	ldr	r3, [r7, #12]
 80039ee:	625a      	str	r2, [r3, #36]	@ 0x24

          /* Update counter */
          hi2c->XferSize--;
 80039f0:	68fb      	ldr	r3, [r7, #12]
 80039f2:	8d1b      	ldrh	r3, [r3, #40]	@ 0x28
 80039f4:	3b01      	subs	r3, #1
 80039f6:	b29a      	uxth	r2, r3
 80039f8:	68fb      	ldr	r3, [r7, #12]
 80039fa:	851a      	strh	r2, [r3, #40]	@ 0x28
          hi2c->XferCount--;
 80039fc:	68fb      	ldr	r3, [r7, #12]
 80039fe:	8d5b      	ldrh	r3, [r3, #42]	@ 0x2a
 8003a00:	b29b      	uxth	r3, r3
 8003a02:	3b01      	subs	r3, #1
 8003a04:	b29a      	uxth	r2, r3
 8003a06:	68fb      	ldr	r3, [r7, #12]
 8003a08:	855a      	strh	r2, [r3, #42]	@ 0x2a
  __ASM volatile ("cpsie i" : : : "memory");
 8003a0a:	b662      	cpsie	i
}
 8003a0c:	bf00      	nop

          /* Re-enable IRQs */
          __enable_irq();

          /* Read data from DR */
          *hi2c->pBuffPtr = (uint8_t)hi2c->Instance->DR;
 8003a0e:	68fb      	ldr	r3, [r7, #12]
 8003a10:	681b      	ldr	r3, [r3, #0]
 8003a12:	691a      	ldr	r2, [r3, #16]
 8003a14:	68fb      	ldr	r3, [r7, #12]
 8003a16:	6a5b      	ldr	r3, [r3, #36]	@ 0x24
 8003a18:	b2d2      	uxtb	r2, r2
 8003a1a:	701a      	strb	r2, [r3, #0]

          /* Increment Buffer pointer */
          hi2c->pBuffPtr++;
 8003a1c:	68fb      	ldr	r3, [r7, #12]
 8003a1e:	6a5b      	ldr	r3, [r3, #36]	@ 0x24
 8003a20:	1c5a      	adds	r2, r3, #1
 8003a22:	68fb      	ldr	r3, [r7, #12]
 8003a24:	625a      	str	r2, [r3, #36]	@ 0x24

          /* Update counter */
          hi2c->XferSize--;
 8003a26:	68fb      	ldr	r3, [r7, #12]
 8003a28:	8d1b      	ldrh	r3, [r3, #40]	@ 0x28
 8003a2a:	3b01      	subs	r3, #1
 8003a2c:	b29a      	uxth	r2, r3
 8003a2e:	68fb      	ldr	r3, [r7, #12]
 8003a30:	851a      	strh	r2, [r3, #40]	@ 0x28
          hi2c->XferCount--;
 8003a32:	68fb      	ldr	r3, [r7, #12]
 8003a34:	8d5b      	ldrh	r3, [r3, #42]	@ 0x2a
 8003a36:	b29b      	uxth	r3, r3
 8003a38:	3b01      	subs	r3, #1
 8003a3a:	b29a      	uxth	r2, r3
 8003a3c:	68fb      	ldr	r3, [r7, #12]
 8003a3e:	855a      	strh	r2, [r3, #42]	@ 0x2a
 8003a40:	e042      	b.n	8003ac8 <HAL_I2C_Mem_Read+0x494>
        }
      }
      else
      {
        /* Wait until RXNE flag is set */
        if (I2C_WaitOnRXNEFlagUntilTimeout(hi2c, Timeout, tickstart) != HAL_OK)
 8003a42:	6a7a      	ldr	r2, [r7, #36]	@ 0x24
 8003a44:	6bb9      	ldr	r1, [r7, #56]	@ 0x38
 8003a46:	68f8      	ldr	r0, [r7, #12]
 8003a48:	f000 fb84 	bl	8004154 <I2C_WaitOnRXNEFlagUntilTimeout>
 8003a4c:	4603      	mov	r3, r0
 8003a4e:	2b00      	cmp	r3, #0
 8003a50:	d001      	beq.n	8003a56 <HAL_I2C_Mem_Read+0x422>
        {
          return HAL_ERROR;
 8003a52:	2301      	movs	r3, #1
 8003a54:	e04c      	b.n	8003af0 <HAL_I2C_Mem_Read+0x4bc>
        }

        /* Read data from DR */
        *hi2c->pBuffPtr = (uint8_t)hi2c->Instance->DR;
 8003a56:	68fb      	ldr	r3, [r7, #12]
 8003a58:	681b      	ldr	r3, [r3, #0]
 8003a5a:	691a      	ldr	r2, [r3, #16]
 8003a5c:	68fb      	ldr	r3, [r7, #12]
 8003a5e:	6a5b      	ldr	r3, [r3, #36]	@ 0x24
 8003a60:	b2d2      	uxtb	r2, r2
 8003a62:	701a      	strb	r2, [r3, #0]

        /* Increment Buffer pointer */
        hi2c->pBuffPtr++;
 8003a64:	68fb      	ldr	r3, [r7, #12]
 8003a66:	6a5b      	ldr	r3, [r3, #36]	@ 0x24
 8003a68:	1c5a      	adds	r2, r3, #1
 8003a6a:	68fb      	ldr	r3, [r7, #12]
 8003a6c:	625a      	str	r2, [r3, #36]	@ 0x24

        /* Update counter */
        hi2c->XferSize--;
 8003a6e:	68fb      	ldr	r3, [r7, #12]
 8003a70:	8d1b      	ldrh	r3, [r3, #40]	@ 0x28
 8003a72:	3b01      	subs	r3, #1
 8003a74:	b29a      	uxth	r2, r3
 8003a76:	68fb      	ldr	r3, [r7, #12]
 8003a78:	851a      	strh	r2, [r3, #40]	@ 0x28
        hi2c->XferCount--;
 8003a7a:	68fb      	ldr	r3, [r7, #12]
 8003a7c:	8d5b      	ldrh	r3, [r3, #42]	@ 0x2a
 8003a7e:	b29b      	uxth	r3, r3
 8003a80:	3b01      	subs	r3, #1
 8003a82:	b29a      	uxth	r2, r3
 8003a84:	68fb      	ldr	r3, [r7, #12]
 8003a86:	855a      	strh	r2, [r3, #42]	@ 0x2a

        if (__HAL_I2C_GET_FLAG(hi2c, I2C_FLAG_BTF) == SET)
 8003a88:	68fb      	ldr	r3, [r7, #12]
 8003a8a:	681b      	ldr	r3, [r3, #0]
 8003a8c:	695b      	ldr	r3, [r3, #20]
 8003a8e:	f003 0304 	and.w	r3, r3, #4
 8003a92:	2b04      	cmp	r3, #4
 8003a94:	d118      	bne.n	8003ac8 <HAL_I2C_Mem_Read+0x494>
        {
          /* Read data from DR */
          *hi2c->pBuffPtr = (uint8_t)hi2c->Instance->DR;
 8003a96:	68fb      	ldr	r3, [r7, #12]
 8003a98:	681b      	ldr	r3, [r3, #0]
 8003a9a:	691a      	ldr	r2, [r3, #16]
 8003a9c:	68fb      	ldr	r3, [r7, #12]
 8003a9e:	6a5b      	ldr	r3, [r3, #36]	@ 0x24
 8003aa0:	b2d2      	uxtb	r2, r2
 8003aa2:	701a      	strb	r2, [r3, #0]

          /* Increment Buffer pointer */
          hi2c->pBuffPtr++;
 8003aa4:	68fb      	ldr	r3, [r7, #12]
 8003aa6:	6a5b      	ldr	r3, [r3, #36]	@ 0x24
 8003aa8:	1c5a      	adds	r2, r3, #1
 8003aaa:	68fb      	ldr	r3, [r7, #12]
 8003aac:	625a      	str	r2, [r3, #36]	@ 0x24

          /* Update counter */
          hi2c->XferSize--;
 8003aae:	68fb      	ldr	r3, [r7, #12]
 8003ab0:	8d1b      	ldrh	r3, [r3, #40]	@ 0x28
 8003ab2:	3b01      	subs	r3, #1
 8003ab4:	b29a      	uxth	r2, r3
 8003ab6:	68fb      	ldr	r3, [r7, #12]
 8003ab8:	851a      	strh	r2, [r3, #40]	@ 0x28
          hi2c->XferCount--;
 8003aba:	68fb      	ldr	r3, [r7, #12]
 8003abc:	8d5b      	ldrh	r3, [r3, #42]	@ 0x2a
 8003abe:	b29b      	uxth	r3, r3
 8003ac0:	3b01      	subs	r3, #1
 8003ac2:	b29a      	uxth	r2, r3
 8003ac4:	68fb      	ldr	r3, [r7, #12]
 8003ac6:	855a      	strh	r2, [r3, #42]	@ 0x2a
    while (hi2c->XferSize > 0U)
 8003ac8:	68fb      	ldr	r3, [r7, #12]
 8003aca:	8d1b      	ldrh	r3, [r3, #40]	@ 0x28
 8003acc:	2b00      	cmp	r3, #0
 8003ace:	f47f ae94 	bne.w	80037fa <HAL_I2C_Mem_Read+0x1c6>
        }
      }
    }

    hi2c->State = HAL_I2C_STATE_READY;
 8003ad2:	68fb      	ldr	r3, [r7, #12]
 8003ad4:	2220      	movs	r2, #32
 8003ad6:	f883 203d 	strb.w	r2, [r3, #61]	@ 0x3d
    hi2c->Mode = HAL_I2C_MODE_NONE;
 8003ada:	68fb      	ldr	r3, [r7, #12]
 8003adc:	2200      	movs	r2, #0
 8003ade:	f883 203e 	strb.w	r2, [r3, #62]	@ 0x3e

    /* Process Unlocked */
    __HAL_UNLOCK(hi2c);
 8003ae2:	68fb      	ldr	r3, [r7, #12]
 8003ae4:	2200      	movs	r2, #0
 8003ae6:	f883 203c 	strb.w	r2, [r3, #60]	@ 0x3c

    return HAL_OK;
 8003aea:	2300      	movs	r3, #0
 8003aec:	e000      	b.n	8003af0 <HAL_I2C_Mem_Read+0x4bc>
  }
  else
  {
    return HAL_BUSY;
 8003aee:	2302      	movs	r3, #2
  }
}
 8003af0:	4618      	mov	r0, r3
 8003af2:	3728      	adds	r7, #40	@ 0x28
 8003af4:	46bd      	mov	sp, r7
 8003af6:	bd80      	pop	{r7, pc}
 8003af8:	00010004 	.word	0x00010004
 8003afc:	20000090 	.word	0x20000090
 8003b00:	14f8b589 	.word	0x14f8b589

08003b04 <I2C_RequestMemoryWrite>:
  * @param  Timeout Timeout duration
  * @param  Tickstart Tick start value
  * @retval HAL status
  */
static HAL_StatusTypeDef I2C_RequestMemoryWrite(I2C_HandleTypeDef *hi2c, uint16_t DevAddress, uint16_t MemAddress, uint16_t MemAddSize, uint32_t Timeout, uint32_t Tickstart)
{
 8003b04:	b580      	push	{r7, lr}
 8003b06:	b088      	sub	sp, #32
 8003b08:	af02      	add	r7, sp, #8
 8003b0a:	60f8      	str	r0, [r7, #12]
 8003b0c:	4608      	mov	r0, r1
 8003b0e:	4611      	mov	r1, r2
 8003b10:	461a      	mov	r2, r3
 8003b12:	4603      	mov	r3, r0
 8003b14:	817b      	strh	r3, [r7, #10]
 8003b16:	460b      	mov	r3, r1
 8003b18:	813b      	strh	r3, [r7, #8]
 8003b1a:	4613      	mov	r3, r2
 8003b1c:	80fb      	strh	r3, [r7, #6]
  /* Generate Start */
  SET_BIT(hi2c->Instance->CR1, I2C_CR1_START);
 8003b1e:	68fb      	ldr	r3, [r7, #12]
 8003b20:	681b      	ldr	r3, [r3, #0]
 8003b22:	681a      	ldr	r2, [r3, #0]
 8003b24:	68fb      	ldr	r3, [r7, #12]
 8003b26:	681b      	ldr	r3, [r3, #0]
 8003b28:	f442 7280 	orr.w	r2, r2, #256	@ 0x100
 8003b2c:	601a      	str	r2, [r3, #0]

  /* Wait until SB flag is set */
  if (I2C_WaitOnFlagUntilTimeout(hi2c, I2C_FLAG_SB, RESET, Timeout, Tickstart) != HAL_OK)
 8003b2e:	6a7b      	ldr	r3, [r7, #36]	@ 0x24
 8003b30:	9300      	str	r3, [sp, #0]
 8003b32:	6a3b      	ldr	r3, [r7, #32]
 8003b34:	2200      	movs	r2, #0
 8003b36:	f04f 1101 	mov.w	r1, #65537	@ 0x10001
 8003b3a:	68f8      	ldr	r0, [r7, #12]
 8003b3c:	f000 f960 	bl	8003e00 <I2C_WaitOnFlagUntilTimeout>
 8003b40:	4603      	mov	r3, r0
 8003b42:	2b00      	cmp	r3, #0
 8003b44:	d00d      	beq.n	8003b62 <I2C_RequestMemoryWrite+0x5e>
  {
    if (READ_BIT(hi2c->Instance->CR1, I2C_CR1_START) == I2C_CR1_START)
 8003b46:	68fb      	ldr	r3, [r7, #12]
 8003b48:	681b      	ldr	r3, [r3, #0]
 8003b4a:	681b      	ldr	r3, [r3, #0]
 8003b4c:	f403 7380 	and.w	r3, r3, #256	@ 0x100
 8003b50:	f5b3 7f80 	cmp.w	r3, #256	@ 0x100
 8003b54:	d103      	bne.n	8003b5e <I2C_RequestMemoryWrite+0x5a>
    {
      hi2c->ErrorCode = HAL_I2C_WRONG_START;
 8003b56:	68fb      	ldr	r3, [r7, #12]
 8003b58:	f44f 7200 	mov.w	r2, #512	@ 0x200
 8003b5c:	641a      	str	r2, [r3, #64]	@ 0x40
    }
    return HAL_TIMEOUT;
 8003b5e:	2303      	movs	r3, #3
 8003b60:	e05f      	b.n	8003c22 <I2C_RequestMemoryWrite+0x11e>
  }

  /* Send slave address */
  hi2c->Instance->DR = I2C_7BIT_ADD_WRITE(DevAddress);
 8003b62:	897b      	ldrh	r3, [r7, #10]
 8003b64:	b2db      	uxtb	r3, r3
 8003b66:	461a      	mov	r2, r3
 8003b68:	68fb      	ldr	r3, [r7, #12]
 8003b6a:	681b      	ldr	r3, [r3, #0]
 8003b6c:	f002 02fe 	and.w	r2, r2, #254	@ 0xfe
 8003b70:	611a      	str	r2, [r3, #16]

  /* Wait until ADDR flag is set */
  if (I2C_WaitOnMasterAddressFlagUntilTimeout(hi2c, I2C_FLAG_ADDR, Timeout, Tickstart) != HAL_OK)
 8003b72:	6a7b      	ldr	r3, [r7, #36]	@ 0x24
 8003b74:	6a3a      	ldr	r2, [r7, #32]
 8003b76:	492d      	ldr	r1, [pc, #180]	@ (8003c2c <I2C_RequestMemoryWrite+0x128>)
 8003b78:	68f8      	ldr	r0, [r7, #12]
 8003b7a:	f000 f9bb 	bl	8003ef4 <I2C_WaitOnMasterAddressFlagUntilTimeout>
 8003b7e:	4603      	mov	r3, r0
 8003b80:	2b00      	cmp	r3, #0
 8003b82:	d001      	beq.n	8003b88 <I2C_RequestMemoryWrite+0x84>
  {
    return HAL_ERROR;
 8003b84:	2301      	movs	r3, #1
 8003b86:	e04c      	b.n	8003c22 <I2C_RequestMemoryWrite+0x11e>
  }

  /* Clear ADDR flag */
  __HAL_I2C_CLEAR_ADDRFLAG(hi2c);
 8003b88:	2300      	movs	r3, #0
 8003b8a:	617b      	str	r3, [r7, #20]
 8003b8c:	68fb      	ldr	r3, [r7, #12]
 8003b8e:	681b      	ldr	r3, [r3, #0]
 8003b90:	695b      	ldr	r3, [r3, #20]
 8003b92:	617b      	str	r3, [r7, #20]
 8003b94:	68fb      	ldr	r3, [r7, #12]
 8003b96:	681b      	ldr	r3, [r3, #0]
 8003b98:	699b      	ldr	r3, [r3, #24]
 8003b9a:	617b      	str	r3, [r7, #20]
 8003b9c:	697b      	ldr	r3, [r7, #20]

  /* Wait until TXE flag is set */
  if (I2C_WaitOnTXEFlagUntilTimeout(hi2c, Timeout, Tickstart) != HAL_OK)
 8003b9e:	6a7a      	ldr	r2, [r7, #36]	@ 0x24
 8003ba0:	6a39      	ldr	r1, [r7, #32]
 8003ba2:	68f8      	ldr	r0, [r7, #12]
 8003ba4:	f000 fa46 	bl	8004034 <I2C_WaitOnTXEFlagUntilTimeout>
 8003ba8:	4603      	mov	r3, r0
 8003baa:	2b00      	cmp	r3, #0
 8003bac:	d00d      	beq.n	8003bca <I2C_RequestMemoryWrite+0xc6>
  {
    if (hi2c->ErrorCode == HAL_I2C_ERROR_AF)
 8003bae:	68fb      	ldr	r3, [r7, #12]
 8003bb0:	6c1b      	ldr	r3, [r3, #64]	@ 0x40
 8003bb2:	2b04      	cmp	r3, #4
 8003bb4:	d107      	bne.n	8003bc6 <I2C_RequestMemoryWrite+0xc2>
    {
      /* Generate Stop */
      SET_BIT(hi2c->Instance->CR1, I2C_CR1_STOP);
 8003bb6:	68fb      	ldr	r3, [r7, #12]
 8003bb8:	681b      	ldr	r3, [r3, #0]
 8003bba:	681a      	ldr	r2, [r3, #0]
 8003bbc:	68fb      	ldr	r3, [r7, #12]
 8003bbe:	681b      	ldr	r3, [r3, #0]
 8003bc0:	f442 7200 	orr.w	r2, r2, #512	@ 0x200
 8003bc4:	601a      	str	r2, [r3, #0]
    }
    return HAL_ERROR;
 8003bc6:	2301      	movs	r3, #1
 8003bc8:	e02b      	b.n	8003c22 <I2C_RequestMemoryWrite+0x11e>
  }

  /* If Memory address size is 8Bit */
  if (MemAddSize == I2C_MEMADD_SIZE_8BIT)
 8003bca:	88fb      	ldrh	r3, [r7, #6]
 8003bcc:	2b01      	cmp	r3, #1
 8003bce:	d105      	bne.n	8003bdc <I2C_RequestMemoryWrite+0xd8>
  {
    /* Send Memory Address */
    hi2c->Instance->DR = I2C_MEM_ADD_LSB(MemAddress);
 8003bd0:	893b      	ldrh	r3, [r7, #8]
 8003bd2:	b2da      	uxtb	r2, r3
 8003bd4:	68fb      	ldr	r3, [r7, #12]
 8003bd6:	681b      	ldr	r3, [r3, #0]
 8003bd8:	611a      	str	r2, [r3, #16]
 8003bda:	e021      	b.n	8003c20 <I2C_RequestMemoryWrite+0x11c>
  }
  /* If Memory address size is 16Bit */
  else
  {
    /* Send MSB of Memory Address */
    hi2c->Instance->DR = I2C_MEM_ADD_MSB(MemAddress);
 8003bdc:	893b      	ldrh	r3, [r7, #8]
 8003bde:	0a1b      	lsrs	r3, r3, #8
 8003be0:	b29b      	uxth	r3, r3
 8003be2:	b2da      	uxtb	r2, r3
 8003be4:	68fb      	ldr	r3, [r7, #12]
 8003be6:	681b      	ldr	r3, [r3, #0]
 8003be8:	611a      	str	r2, [r3, #16]

    /* Wait until TXE flag is set */
    if (I2C_WaitOnTXEFlagUntilTimeout(hi2c, Timeout, Tickstart) != HAL_OK)
 8003bea:	6a7a      	ldr	r2, [r7, #36]	@ 0x24
 8003bec:	6a39      	ldr	r1, [r7, #32]
 8003bee:	68f8      	ldr	r0, [r7, #12]
 8003bf0:	f000 fa20 	bl	8004034 <I2C_WaitOnTXEFlagUntilTimeout>
 8003bf4:	4603      	mov	r3, r0
 8003bf6:	2b00      	cmp	r3, #0
 8003bf8:	d00d      	beq.n	8003c16 <I2C_RequestMemoryWrite+0x112>
    {
      if (hi2c->ErrorCode == HAL_I2C_ERROR_AF)
 8003bfa:	68fb      	ldr	r3, [r7, #12]
 8003bfc:	6c1b      	ldr	r3, [r3, #64]	@ 0x40
 8003bfe:	2b04      	cmp	r3, #4
 8003c00:	d107      	bne.n	8003c12 <I2C_RequestMemoryWrite+0x10e>
      {
        /* Generate Stop */
        SET_BIT(hi2c->Instance->CR1, I2C_CR1_STOP);
 8003c02:	68fb      	ldr	r3, [r7, #12]
 8003c04:	681b      	ldr	r3, [r3, #0]
 8003c06:	681a      	ldr	r2, [r3, #0]
 8003c08:	68fb      	ldr	r3, [r7, #12]
 8003c0a:	681b      	ldr	r3, [r3, #0]
 8003c0c:	f442 7200 	orr.w	r2, r2, #512	@ 0x200
 8003c10:	601a      	str	r2, [r3, #0]
      }
      return HAL_ERROR;
 8003c12:	2301      	movs	r3, #1
 8003c14:	e005      	b.n	8003c22 <I2C_RequestMemoryWrite+0x11e>
    }

    /* Send LSB of Memory Address */
    hi2c->Instance->DR = I2C_MEM_ADD_LSB(MemAddress);
 8003c16:	893b      	ldrh	r3, [r7, #8]
 8003c18:	b2da      	uxtb	r2, r3
 8003c1a:	68fb      	ldr	r3, [r7, #12]
 8003c1c:	681b      	ldr	r3, [r3, #0]
 8003c1e:	611a      	str	r2, [r3, #16]
  }

  return HAL_OK;
 8003c20:	2300      	movs	r3, #0
}
 8003c22:	4618      	mov	r0, r3
 8003c24:	3718      	adds	r7, #24
 8003c26:	46bd      	mov	sp, r7
 8003c28:	bd80      	pop	{r7, pc}
 8003c2a:	bf00      	nop
 8003c2c:	00010002 	.word	0x00010002

08003c30 <I2C_RequestMemoryRead>:
  * @param  Timeout Timeout duration
  * @param  Tickstart Tick start value
  * @retval HAL status
  */
static HAL_StatusTypeDef I2C_RequestMemoryRead(I2C_HandleTypeDef *hi2c, uint16_t DevAddress, uint16_t MemAddress, uint16_t MemAddSize, uint32_t Timeout, uint32_t Tickstart)
{
 8003c30:	b580      	push	{r7, lr}
 8003c32:	b088      	sub	sp, #32
 8003c34:	af02      	add	r7, sp, #8
 8003c36:	60f8      	str	r0, [r7, #12]
 8003c38:	4608      	mov	r0, r1
 8003c3a:	4611      	mov	r1, r2
 8003c3c:	461a      	mov	r2, r3
 8003c3e:	4603      	mov	r3, r0
 8003c40:	817b      	strh	r3, [r7, #10]
 8003c42:	460b      	mov	r3, r1
 8003c44:	813b      	strh	r3, [r7, #8]
 8003c46:	4613      	mov	r3, r2
 8003c48:	80fb      	strh	r3, [r7, #6]
  /* Enable Acknowledge */
  SET_BIT(hi2c->Instance->CR1, I2C_CR1_ACK);
 8003c4a:	68fb      	ldr	r3, [r7, #12]
 8003c4c:	681b      	ldr	r3, [r3, #0]
 8003c4e:	681a      	ldr	r2, [r3, #0]
 8003c50:	68fb      	ldr	r3, [r7, #12]
 8003c52:	681b      	ldr	r3, [r3, #0]
 8003c54:	f442 6280 	orr.w	r2, r2, #1024	@ 0x400
 8003c58:	601a      	str	r2, [r3, #0]

  /* Generate Start */
  SET_BIT(hi2c->Instance->CR1, I2C_CR1_START);
 8003c5a:	68fb      	ldr	r3, [r7, #12]
 8003c5c:	681b      	ldr	r3, [r3, #0]
 8003c5e:	681a      	ldr	r2, [r3, #0]
 8003c60:	68fb      	ldr	r3, [r7, #12]
 8003c62:	681b      	ldr	r3, [r3, #0]
 8003c64:	f442 7280 	orr.w	r2, r2, #256	@ 0x100
 8003c68:	601a      	str	r2, [r3, #0]

  /* Wait until SB flag is set */
  if (I2C_WaitOnFlagUntilTimeout(hi2c, I2C_FLAG_SB, RESET, Timeout, Tickstart) != HAL_OK)
 8003c6a:	6a7b      	ldr	r3, [r7, #36]	@ 0x24
 8003c6c:	9300      	str	r3, [sp, #0]
 8003c6e:	6a3b      	ldr	r3, [r7, #32]
 8003c70:	2200      	movs	r2, #0
 8003c72:	f04f 1101 	mov.w	r1, #65537	@ 0x10001
 8003c76:	68f8      	ldr	r0, [r7, #12]
 8003c78:	f000 f8c2 	bl	8003e00 <I2C_WaitOnFlagUntilTimeout>
 8003c7c:	4603      	mov	r3, r0
 8003c7e:	2b00      	cmp	r3, #0
 8003c80:	d00d      	beq.n	8003c9e <I2C_RequestMemoryRead+0x6e>
  {
    if (READ_BIT(hi2c->Instance->CR1, I2C_CR1_START) == I2C_CR1_START)
 8003c82:	68fb      	ldr	r3, [r7, #12]
 8003c84:	681b      	ldr	r3, [r3, #0]
 8003c86:	681b      	ldr	r3, [r3, #0]
 8003c88:	f403 7380 	and.w	r3, r3, #256	@ 0x100
 8003c8c:	f5b3 7f80 	cmp.w	r3, #256	@ 0x100
 8003c90:	d103      	bne.n	8003c9a <I2C_RequestMemoryRead+0x6a>
    {
      hi2c->ErrorCode = HAL_I2C_WRONG_START;
 8003c92:	68fb      	ldr	r3, [r7, #12]
 8003c94:	f44f 7200 	mov.w	r2, #512	@ 0x200
 8003c98:	641a      	str	r2, [r3, #64]	@ 0x40
    }
    return HAL_TIMEOUT;
 8003c9a:	2303      	movs	r3, #3
 8003c9c:	e0aa      	b.n	8003df4 <I2C_RequestMemoryRead+0x1c4>
  }

  /* Send slave address */
  hi2c->Instance->DR = I2C_7BIT_ADD_WRITE(DevAddress);
 8003c9e:	897b      	ldrh	r3, [r7, #10]
 8003ca0:	b2db      	uxtb	r3, r3
 8003ca2:	461a      	mov	r2, r3
 8003ca4:	68fb      	ldr	r3, [r7, #12]
 8003ca6:	681b      	ldr	r3, [r3, #0]
 8003ca8:	f002 02fe 	and.w	r2, r2, #254	@ 0xfe
 8003cac:	611a      	str	r2, [r3, #16]

  /* Wait until ADDR flag is set */
  if (I2C_WaitOnMasterAddressFlagUntilTimeout(hi2c, I2C_FLAG_ADDR, Timeout, Tickstart) != HAL_OK)
 8003cae:	6a7b      	ldr	r3, [r7, #36]	@ 0x24
 8003cb0:	6a3a      	ldr	r2, [r7, #32]
 8003cb2:	4952      	ldr	r1, [pc, #328]	@ (8003dfc <I2C_RequestMemoryRead+0x1cc>)
 8003cb4:	68f8      	ldr	r0, [r7, #12]
 8003cb6:	f000 f91d 	bl	8003ef4 <I2C_WaitOnMasterAddressFlagUntilTimeout>
 8003cba:	4603      	mov	r3, r0
 8003cbc:	2b00      	cmp	r3, #0
 8003cbe:	d001      	beq.n	8003cc4 <I2C_RequestMemoryRead+0x94>
  {
    return HAL_ERROR;
 8003cc0:	2301      	movs	r3, #1
 8003cc2:	e097      	b.n	8003df4 <I2C_RequestMemoryRead+0x1c4>
  }

  /* Clear ADDR flag */
  __HAL_I2C_CLEAR_ADDRFLAG(hi2c);
 8003cc4:	2300      	movs	r3, #0
 8003cc6:	617b      	str	r3, [r7, #20]
 8003cc8:	68fb      	ldr	r3, [r7, #12]
 8003cca:	681b      	ldr	r3, [r3, #0]
 8003ccc:	695b      	ldr	r3, [r3, #20]
 8003cce:	617b      	str	r3, [r7, #20]
 8003cd0:	68fb      	ldr	r3, [r7, #12]
 8003cd2:	681b      	ldr	r3, [r3, #0]
 8003cd4:	699b      	ldr	r3, [r3, #24]
 8003cd6:	617b      	str	r3, [r7, #20]
 8003cd8:	697b      	ldr	r3, [r7, #20]

  /* Wait until TXE flag is set */
  if (I2C_WaitOnTXEFlagUntilTimeout(hi2c, Timeout, Tickstart) != HAL_OK)
 8003cda:	6a7a      	ldr	r2, [r7, #36]	@ 0x24
 8003cdc:	6a39      	ldr	r1, [r7, #32]
 8003cde:	68f8      	ldr	r0, [r7, #12]
 8003ce0:	f000 f9a8 	bl	8004034 <I2C_WaitOnTXEFlagUntilTimeout>
 8003ce4:	4603      	mov	r3, r0
 8003ce6:	2b00      	cmp	r3, #0
 8003ce8:	d00d      	beq.n	8003d06 <I2C_RequestMemoryRead+0xd6>
  {
    if (hi2c->ErrorCode == HAL_I2C_ERROR_AF)
 8003cea:	68fb      	ldr	r3, [r7, #12]
 8003cec:	6c1b      	ldr	r3, [r3, #64]	@ 0x40
 8003cee:	2b04      	cmp	r3, #4
 8003cf0:	d107      	bne.n	8003d02 <I2C_RequestMemoryRead+0xd2>
    {
      /* Generate Stop */
      SET_BIT(hi2c->Instance->CR1, I2C_CR1_STOP);
 8003cf2:	68fb      	ldr	r3, [r7, #12]
 8003cf4:	681b      	ldr	r3, [r3, #0]
 8003cf6:	681a      	ldr	r2, [r3, #0]
 8003cf8:	68fb      	ldr	r3, [r7, #12]
 8003cfa:	681b      	ldr	r3, [r3, #0]
 8003cfc:	f442 7200 	orr.w	r2, r2, #512	@ 0x200
 8003d00:	601a      	str	r2, [r3, #0]
    }
    return HAL_ERROR;
 8003d02:	2301      	movs	r3, #1
 8003d04:	e076      	b.n	8003df4 <I2C_RequestMemoryRead+0x1c4>
  }

  /* If Memory address size is 8Bit */
  if (MemAddSize == I2C_MEMADD_SIZE_8BIT)
 8003d06:	88fb      	ldrh	r3, [r7, #6]
 8003d08:	2b01      	cmp	r3, #1
 8003d0a:	d105      	bne.n	8003d18 <I2C_RequestMemoryRead+0xe8>
  {
    /* Send Memory Address */
    hi2c->Instance->DR = I2C_MEM_ADD_LSB(MemAddress);
 8003d0c:	893b      	ldrh	r3, [r7, #8]
 8003d0e:	b2da      	uxtb	r2, r3
 8003d10:	68fb      	ldr	r3, [r7, #12]
 8003d12:	681b      	ldr	r3, [r3, #0]
 8003d14:	611a      	str	r2, [r3, #16]
 8003d16:	e021      	b.n	8003d5c <I2C_RequestMemoryRead+0x12c>
  }
  /* If Memory address size is 16Bit */
  else
  {
    /* Send MSB of Memory Address */
    hi2c->Instance->DR = I2C_MEM_ADD_MSB(MemAddress);
 8003d18:	893b      	ldrh	r3, [r7, #8]
 8003d1a:	0a1b      	lsrs	r3, r3, #8
 8003d1c:	b29b      	uxth	r3, r3
 8003d1e:	b2da      	uxtb	r2, r3
 8003d20:	68fb      	ldr	r3, [r7, #12]
 8003d22:	681b      	ldr	r3, [r3, #0]
 8003d24:	611a      	str	r2, [r3, #16]

    /* Wait until TXE flag is set */
    if (I2C_WaitOnTXEFlagUntilTimeout(hi2c, Timeout, Tickstart) != HAL_OK)
 8003d26:	6a7a      	ldr	r2, [r7, #36]	@ 0x24
 8003d28:	6a39      	ldr	r1, [r7, #32]
 8003d2a:	68f8      	ldr	r0, [r7, #12]
 8003d2c:	f000 f982 	bl	8004034 <I2C_WaitOnTXEFlagUntilTimeout>
 8003d30:	4603      	mov	r3, r0
 8003d32:	2b00      	cmp	r3, #0
 8003d34:	d00d      	beq.n	8003d52 <I2C_RequestMemoryRead+0x122>
    {
      if (hi2c->ErrorCode == HAL_I2C_ERROR_AF)
 8003d36:	68fb      	ldr	r3, [r7, #12]
 8003d38:	6c1b      	ldr	r3, [r3, #64]	@ 0x40
 8003d3a:	2b04      	cmp	r3, #4
 8003d3c:	d107      	bne.n	8003d4e <I2C_RequestMemoryRead+0x11e>
      {
        /* Generate Stop */
        SET_BIT(hi2c->Instance->CR1, I2C_CR1_STOP);
 8003d3e:	68fb      	ldr	r3, [r7, #12]
 8003d40:	681b      	ldr	r3, [r3, #0]
 8003d42:	681a      	ldr	r2, [r3, #0]
 8003d44:	68fb      	ldr	r3, [r7, #12]
 8003d46:	681b      	ldr	r3, [r3, #0]
 8003d48:	f442 7200 	orr.w	r2, r2, #512	@ 0x200
 8003d4c:	601a      	str	r2, [r3, #0]
      }
      return HAL_ERROR;
 8003d4e:	2301      	movs	r3, #1
 8003d50:	e050      	b.n	8003df4 <I2C_RequestMemoryRead+0x1c4>
    }

    /* Send LSB of Memory Address */
    hi2c->Instance->DR = I2C_MEM_ADD_LSB(MemAddress);
 8003d52:	893b      	ldrh	r3, [r7, #8]
 8003d54:	b2da      	uxtb	r2, r3
 8003d56:	68fb      	ldr	r3, [r7, #12]
 8003d58:	681b      	ldr	r3, [r3, #0]
 8003d5a:	611a      	str	r2, [r3, #16]
  }

  /* Wait until TXE flag is set */
  if (I2C_WaitOnTXEFlagUntilTimeout(hi2c, Timeout, Tickstart) != HAL_OK)
 8003d5c:	6a7a      	ldr	r2, [r7, #36]	@ 0x24
 8003d5e:	6a39      	ldr	r1, [r7, #32]
 8003d60:	68f8      	ldr	r0, [r7, #12]
 8003d62:	f000 f967 	bl	8004034 <I2C_WaitOnTXEFlagUntilTimeout>
 8003d66:	4603      	mov	r3, r0
 8003d68:	2b00      	cmp	r3, #0
 8003d6a:	d00d      	beq.n	8003d88 <I2C_RequestMemoryRead+0x158>
  {
    if (hi2c->ErrorCode == HAL_I2C_ERROR_AF)
 8003d6c:	68fb      	ldr	r3, [r7, #12]
 8003d6e:	6c1b      	ldr	r3, [r3, #64]	@ 0x40
 8003d70:	2b04      	cmp	r3, #4
 8003d72:	d107      	bne.n	8003d84 <I2C_RequestMemoryRead+0x154>
    {
      /* Generate Stop */
      SET_BIT(hi2c->Instance->CR1, I2C_CR1_STOP);
 8003d74:	68fb      	ldr	r3, [r7, #12]
 8003d76:	681b      	ldr	r3, [r3, #0]
 8003d78:	681a      	ldr	r2, [r3, #0]
 8003d7a:	68fb      	ldr	r3, [r7, #12]
 8003d7c:	681b      	ldr	r3, [r3, #0]
 8003d7e:	f442 7200 	orr.w	r2, r2, #512	@ 0x200
 8003d82:	601a      	str	r2, [r3, #0]
    }
    return HAL_ERROR;
 8003d84:	2301      	movs	r3, #1
 8003d86:	e035      	b.n	8003df4 <I2C_RequestMemoryRead+0x1c4>
  }

  /* Generate Restart */
  SET_BIT(hi2c->Instance->CR1, I2C_CR1_START);
 8003d88:	68fb      	ldr	r3, [r7, #12]
 8003d8a:	681b      	ldr	r3, [r3, #0]
 8003d8c:	681a      	ldr	r2, [r3, #0]
 8003d8e:	68fb      	ldr	r3, [r7, #12]
 8003d90:	681b      	ldr	r3, [r3, #0]
 8003d92:	f442 7280 	orr.w	r2, r2, #256	@ 0x100
 8003d96:	601a      	str	r2, [r3, #0]

  /* Wait until SB flag is set */
  if (I2C_WaitOnFlagUntilTimeout(hi2c, I2C_FLAG_SB, RESET, Timeout, Tickstart) != HAL_OK)
 8003d98:	6a7b      	ldr	r3, [r7, #36]	@ 0x24
 8003d9a:	9300      	str	r3, [sp, #0]
 8003d9c:	6a3b      	ldr	r3, [r7, #32]
 8003d9e:	2200      	movs	r2, #0
 8003da0:	f04f 1101 	mov.w	r1, #65537	@ 0x10001
 8003da4:	68f8      	ldr	r0, [r7, #12]
 8003da6:	f000 f82b 	bl	8003e00 <I2C_WaitOnFlagUntilTimeout>
 8003daa:	4603      	mov	r3, r0
 8003dac:	2b00      	cmp	r3, #0
 8003dae:	d00d      	beq.n	8003dcc <I2C_RequestMemoryRead+0x19c>
  {
    if (READ_BIT(hi2c->Instance->CR1, I2C_CR1_START) == I2C_CR1_START)
 8003db0:	68fb      	ldr	r3, [r7, #12]
 8003db2:	681b      	ldr	r3, [r3, #0]
 8003db4:	681b      	ldr	r3, [r3, #0]
 8003db6:	f403 7380 	and.w	r3, r3, #256	@ 0x100
 8003dba:	f5b3 7f80 	cmp.w	r3, #256	@ 0x100
 8003dbe:	d103      	bne.n	8003dc8 <I2C_RequestMemoryRead+0x198>
    {
      hi2c->ErrorCode = HAL_I2C_WRONG_START;
 8003dc0:	68fb      	ldr	r3, [r7, #12]
 8003dc2:	f44f 7200 	mov.w	r2, #512	@ 0x200
 8003dc6:	641a      	str	r2, [r3, #64]	@ 0x40
    }
    return HAL_TIMEOUT;
 8003dc8:	2303      	movs	r3, #3
 8003dca:	e013      	b.n	8003df4 <I2C_RequestMemoryRead+0x1c4>
  }

  /* Send slave address */
  hi2c->Instance->DR = I2C_7BIT_ADD_READ(DevAddress);
 8003dcc:	897b      	ldrh	r3, [r7, #10]
 8003dce:	b2db      	uxtb	r3, r3
 8003dd0:	f043 0301 	orr.w	r3, r3, #1
 8003dd4:	b2da      	uxtb	r2, r3
 8003dd6:	68fb      	ldr	r3, [r7, #12]
 8003dd8:	681b      	ldr	r3, [r3, #0]
 8003dda:	611a      	str	r2, [r3, #16]

  /* Wait until ADDR flag is set */
  if (I2C_WaitOnMasterAddressFlagUntilTimeout(hi2c, I2C_FLAG_ADDR, Timeout, Tickstart) != HAL_OK)
 8003ddc:	6a7b      	ldr	r3, [r7, #36]	@ 0x24
 8003dde:	6a3a      	ldr	r2, [r7, #32]
 8003de0:	4906      	ldr	r1, [pc, #24]	@ (8003dfc <I2C_RequestMemoryRead+0x1cc>)
 8003de2:	68f8      	ldr	r0, [r7, #12]
 8003de4:	f000 f886 	bl	8003ef4 <I2C_WaitOnMasterAddressFlagUntilTimeout>
 8003de8:	4603      	mov	r3, r0
 8003dea:	2b00      	cmp	r3, #0
 8003dec:	d001      	beq.n	8003df2 <I2C_RequestMemoryRead+0x1c2>
  {
    return HAL_ERROR;
 8003dee:	2301      	movs	r3, #1
 8003df0:	e000      	b.n	8003df4 <I2C_RequestMemoryRead+0x1c4>
  }

  return HAL_OK;
 8003df2:	2300      	movs	r3, #0
}
 8003df4:	4618      	mov	r0, r3
 8003df6:	3718      	adds	r7, #24
 8003df8:	46bd      	mov	sp, r7
 8003dfa:	bd80      	pop	{r7, pc}
 8003dfc:	00010002 	.word	0x00010002

08003e00 <I2C_WaitOnFlagUntilTimeout>:
  * @param  Timeout Timeout duration
  * @param  Tickstart Tick start value
  * @retval HAL status
  */
static HAL_StatusTypeDef I2C_WaitOnFlagUntilTimeout(I2C_HandleTypeDef *hi2c, uint32_t Flag, FlagStatus Status, uint32_t Timeout, uint32_t Tickstart)
{
 8003e00:	b580      	push	{r7, lr}
 8003e02:	b084      	sub	sp, #16
 8003e04:	af00      	add	r7, sp, #0
 8003e06:	60f8      	str	r0, [r7, #12]
 8003e08:	60b9      	str	r1, [r7, #8]
 8003e0a:	603b      	str	r3, [r7, #0]
 8003e0c:	4613      	mov	r3, r2
 8003e0e:	71fb      	strb	r3, [r7, #7]
  /* Wait until flag is set */
  while (__HAL_I2C_GET_FLAG(hi2c, Flag) == Status)
 8003e10:	e048      	b.n	8003ea4 <I2C_WaitOnFlagUntilTimeout+0xa4>
  {
    /* Check for the Timeout */
    if (Timeout != HAL_MAX_DELAY)
 8003e12:	683b      	ldr	r3, [r7, #0]
 8003e14:	f1b3 3fff 	cmp.w	r3, #4294967295
 8003e18:	d044      	beq.n	8003ea4 <I2C_WaitOnFlagUntilTimeout+0xa4>
    {
      if (((HAL_GetTick() - Tickstart) > Timeout) || (Timeout == 0U))
 8003e1a:	f7fe ff19 	bl	8002c50 <HAL_GetTick>
 8003e1e:	4602      	mov	r2, r0
 8003e20:	69bb      	ldr	r3, [r7, #24]
 8003e22:	1ad3      	subs	r3, r2, r3
 8003e24:	683a      	ldr	r2, [r7, #0]
 8003e26:	429a      	cmp	r2, r3
 8003e28:	d302      	bcc.n	8003e30 <I2C_WaitOnFlagUntilTimeout+0x30>
 8003e2a:	683b      	ldr	r3, [r7, #0]
 8003e2c:	2b00      	cmp	r3, #0
 8003e2e:	d139      	bne.n	8003ea4 <I2C_WaitOnFlagUntilTimeout+0xa4>
      {
        if ((__HAL_I2C_GET_FLAG(hi2c, Flag) == Status))
 8003e30:	68bb      	ldr	r3, [r7, #8]
 8003e32:	0c1b      	lsrs	r3, r3, #16
 8003e34:	b2db      	uxtb	r3, r3
 8003e36:	2b01      	cmp	r3, #1
 8003e38:	d10d      	bne.n	8003e56 <I2C_WaitOnFlagUntilTimeout+0x56>
 8003e3a:	68fb      	ldr	r3, [r7, #12]
 8003e3c:	681b      	ldr	r3, [r3, #0]
 8003e3e:	695b      	ldr	r3, [r3, #20]
 8003e40:	43da      	mvns	r2, r3
 8003e42:	68bb      	ldr	r3, [r7, #8]
 8003e44:	4013      	ands	r3, r2
 8003e46:	b29b      	uxth	r3, r3
 8003e48:	2b00      	cmp	r3, #0
 8003e4a:	bf0c      	ite	eq
 8003e4c:	2301      	moveq	r3, #1
 8003e4e:	2300      	movne	r3, #0
 8003e50:	b2db      	uxtb	r3, r3
 8003e52:	461a      	mov	r2, r3
 8003e54:	e00c      	b.n	8003e70 <I2C_WaitOnFlagUntilTimeout+0x70>
 8003e56:	68fb      	ldr	r3, [r7, #12]
 8003e58:	681b      	ldr	r3, [r3, #0]
 8003e5a:	699b      	ldr	r3, [r3, #24]
 8003e5c:	43da      	mvns	r2, r3
 8003e5e:	68bb      	ldr	r3, [r7, #8]
 8003e60:	4013      	ands	r3, r2
 8003e62:	b29b      	uxth	r3, r3
 8003e64:	2b00      	cmp	r3, #0
 8003e66:	bf0c      	ite	eq
 8003e68:	2301      	moveq	r3, #1
 8003e6a:	2300      	movne	r3, #0
 8003e6c:	b2db      	uxtb	r3, r3
 8003e6e:	461a      	mov	r2, r3
 8003e70:	79fb      	ldrb	r3, [r7, #7]
 8003e72:	429a      	cmp	r2, r3
 8003e74:	d116      	bne.n	8003ea4 <I2C_WaitOnFlagUntilTimeout+0xa4>
        {
          hi2c->PreviousState     = I2C_STATE_NONE;
 8003e76:	68fb      	ldr	r3, [r7, #12]
 8003e78:	2200      	movs	r2, #0
 8003e7a:	631a      	str	r2, [r3, #48]	@ 0x30
          hi2c->State             = HAL_I2C_STATE_READY;
 8003e7c:	68fb      	ldr	r3, [r7, #12]
 8003e7e:	2220      	movs	r2, #32
 8003e80:	f883 203d 	strb.w	r2, [r3, #61]	@ 0x3d
          hi2c->Mode              = HAL_I2C_MODE_NONE;
 8003e84:	68fb      	ldr	r3, [r7, #12]
 8003e86:	2200      	movs	r2, #0
 8003e88:	f883 203e 	strb.w	r2, [r3, #62]	@ 0x3e
          hi2c->ErrorCode         |= HAL_I2C_ERROR_TIMEOUT;
 8003e8c:	68fb      	ldr	r3, [r7, #12]
 8003e8e:	6c1b      	ldr	r3, [r3, #64]	@ 0x40
 8003e90:	f043 0220 	orr.w	r2, r3, #32
 8003e94:	68fb      	ldr	r3, [r7, #12]
 8003e96:	641a      	str	r2, [r3, #64]	@ 0x40

          /* Process Unlocked */
          __HAL_UNLOCK(hi2c);
 8003e98:	68fb      	ldr	r3, [r7, #12]
 8003e9a:	2200      	movs	r2, #0
 8003e9c:	f883 203c 	strb.w	r2, [r3, #60]	@ 0x3c

          return HAL_ERROR;
 8003ea0:	2301      	movs	r3, #1
 8003ea2:	e023      	b.n	8003eec <I2C_WaitOnFlagUntilTimeout+0xec>
  while (__HAL_I2C_GET_FLAG(hi2c, Flag) == Status)
 8003ea4:	68bb      	ldr	r3, [r7, #8]
 8003ea6:	0c1b      	lsrs	r3, r3, #16
 8003ea8:	b2db      	uxtb	r3, r3
 8003eaa:	2b01      	cmp	r3, #1
 8003eac:	d10d      	bne.n	8003eca <I2C_WaitOnFlagUntilTimeout+0xca>
 8003eae:	68fb      	ldr	r3, [r7, #12]
 8003eb0:	681b      	ldr	r3, [r3, #0]
 8003eb2:	695b      	ldr	r3, [r3, #20]
 8003eb4:	43da      	mvns	r2, r3
 8003eb6:	68bb      	ldr	r3, [r7, #8]
 8003eb8:	4013      	ands	r3, r2
 8003eba:	b29b      	uxth	r3, r3
 8003ebc:	2b00      	cmp	r3, #0
 8003ebe:	bf0c      	ite	eq
 8003ec0:	2301      	moveq	r3, #1
 8003ec2:	2300      	movne	r3, #0
 8003ec4:	b2db      	uxtb	r3, r3
 8003ec6:	461a      	mov	r2, r3
 8003ec8:	e00c      	b.n	8003ee4 <I2C_WaitOnFlagUntilTimeout+0xe4>
 8003eca:	68fb      	ldr	r3, [r7, #12]
 8003ecc:	681b      	ldr	r3, [r3, #0]
 8003ece:	699b      	ldr	r3, [r3, #24]
 8003ed0:	43da      	mvns	r2, r3
 8003ed2:	68bb      	ldr	r3, [r7, #8]
 8003ed4:	4013      	ands	r3, r2
 8003ed6:	b29b      	uxth	r3, r3
 8003ed8:	2b00      	cmp	r3, #0
 8003eda:	bf0c      	ite	eq
 8003edc:	2301      	moveq	r3, #1
 8003ede:	2300      	movne	r3, #0
 8003ee0:	b2db      	uxtb	r3, r3
 8003ee2:	461a      	mov	r2, r3
 8003ee4:	79fb      	ldrb	r3, [r7, #7]
 8003ee6:	429a      	cmp	r2, r3
 8003ee8:	d093      	beq.n	8003e12 <I2C_WaitOnFlagUntilTimeout+0x12>
        }
      }
    }
  }
  return HAL_OK;
 8003eea:	2300      	movs	r3, #0
}
 8003eec:	4618      	mov	r0, r3
 8003eee:	3710      	adds	r7, #16
 8003ef0:	46bd      	mov	sp, r7
 8003ef2:	bd80      	pop	{r7, pc}

08003ef4 <I2C_WaitOnMasterAddressFlagUntilTimeout>:
  * @param  Timeout Timeout duration
  * @param  Tickstart Tick start value
  * @retval HAL status
  */
static HAL_StatusTypeDef I2C_WaitOnMasterAddressFlagUntilTimeout(I2C_HandleTypeDef *hi2c, uint32_t Flag, uint32_t Timeout, uint32_t Tickstart)
{
 8003ef4:	b580      	push	{r7, lr}
 8003ef6:	b084      	sub	sp, #16
 8003ef8:	af00      	add	r7, sp, #0
 8003efa:	60f8      	str	r0, [r7, #12]
 8003efc:	60b9      	str	r1, [r7, #8]
 8003efe:	607a      	str	r2, [r7, #4]
 8003f00:	603b      	str	r3, [r7, #0]
  while (__HAL_I2C_GET_FLAG(hi2c, Flag) == RESET)
 8003f02:	e071      	b.n	8003fe8 <I2C_WaitOnMasterAddressFlagUntilTimeout+0xf4>
  {
    if (__HAL_I2C_GET_FLAG(hi2c, I2C_FLAG_AF) == SET)
 8003f04:	68fb      	ldr	r3, [r7, #12]
 8003f06:	681b      	ldr	r3, [r3, #0]
 8003f08:	695b      	ldr	r3, [r3, #20]
 8003f0a:	f403 6380 	and.w	r3, r3, #1024	@ 0x400
 8003f0e:	f5b3 6f80 	cmp.w	r3, #1024	@ 0x400
 8003f12:	d123      	bne.n	8003f5c <I2C_WaitOnMasterAddressFlagUntilTimeout+0x68>
    {
      /* Generate Stop */
      SET_BIT(hi2c->Instance->CR1, I2C_CR1_STOP);
 8003f14:	68fb      	ldr	r3, [r7, #12]
 8003f16:	681b      	ldr	r3, [r3, #0]
 8003f18:	681a      	ldr	r2, [r3, #0]
 8003f1a:	68fb      	ldr	r3, [r7, #12]
 8003f1c:	681b      	ldr	r3, [r3, #0]
 8003f1e:	f442 7200 	orr.w	r2, r2, #512	@ 0x200
 8003f22:	601a      	str	r2, [r3, #0]

      /* Clear AF Flag */
      __HAL_I2C_CLEAR_FLAG(hi2c, I2C_FLAG_AF);
 8003f24:	68fb      	ldr	r3, [r7, #12]
 8003f26:	681b      	ldr	r3, [r3, #0]
 8003f28:	f46f 6280 	mvn.w	r2, #1024	@ 0x400
 8003f2c:	615a      	str	r2, [r3, #20]

      hi2c->PreviousState       = I2C_STATE_NONE;
 8003f2e:	68fb      	ldr	r3, [r7, #12]
 8003f30:	2200      	movs	r2, #0
 8003f32:	631a      	str	r2, [r3, #48]	@ 0x30
      hi2c->State               = HAL_I2C_STATE_READY;
 8003f34:	68fb      	ldr	r3, [r7, #12]
 8003f36:	2220      	movs	r2, #32
 8003f38:	f883 203d 	strb.w	r2, [r3, #61]	@ 0x3d
      hi2c->Mode                = HAL_I2C_MODE_NONE;
 8003f3c:	68fb      	ldr	r3, [r7, #12]
 8003f3e:	2200      	movs	r2, #0
 8003f40:	f883 203e 	strb.w	r2, [r3, #62]	@ 0x3e
      hi2c->ErrorCode           |= HAL_I2C_ERROR_AF;
 8003f44:	68fb      	ldr	r3, [r7, #12]
 8003f46:	6c1b      	ldr	r3, [r3, #64]	@ 0x40
 8003f48:	f043 0204 	orr.w	r2, r3, #4
 8003f4c:	68fb      	ldr	r3, [r7, #12]
 8003f4e:	641a      	str	r2, [r3, #64]	@ 0x40

      /* Process Unlocked */
      __HAL_UNLOCK(hi2c);
 8003f50:	68fb      	ldr	r3, [r7, #12]
 8003f52:	2200      	movs	r2, #0
 8003f54:	f883 203c 	strb.w	r2, [r3, #60]	@ 0x3c

      return HAL_ERROR;
 8003f58:	2301      	movs	r3, #1
 8003f5a:	e067      	b.n	800402c <I2C_WaitOnMasterAddressFlagUntilTimeout+0x138>
    }

    /* Check for the Timeout */
    if (Timeout != HAL_MAX_DELAY)
 8003f5c:	687b      	ldr	r3, [r7, #4]
 8003f5e:	f1b3 3fff 	cmp.w	r3, #4294967295
 8003f62:	d041      	beq.n	8003fe8 <I2C_WaitOnMasterAddressFlagUntilTimeout+0xf4>
    {
      if (((HAL_GetTick() - Tickstart) > Timeout) || (Timeout == 0U))
 8003f64:	f7fe fe74 	bl	8002c50 <HAL_GetTick>
 8003f68:	4602      	mov	r2, r0
 8003f6a:	683b      	ldr	r3, [r7, #0]
 8003f6c:	1ad3      	subs	r3, r2, r3
 8003f6e:	687a      	ldr	r2, [r7, #4]
 8003f70:	429a      	cmp	r2, r3
 8003f72:	d302      	bcc.n	8003f7a <I2C_WaitOnMasterAddressFlagUntilTimeout+0x86>
 8003f74:	687b      	ldr	r3, [r7, #4]
 8003f76:	2b00      	cmp	r3, #0
 8003f78:	d136      	bne.n	8003fe8 <I2C_WaitOnMasterAddressFlagUntilTimeout+0xf4>
      {
        if ((__HAL_I2C_GET_FLAG(hi2c, Flag) == RESET))
 8003f7a:	68bb      	ldr	r3, [r7, #8]
 8003f7c:	0c1b      	lsrs	r3, r3, #16
 8003f7e:	b2db      	uxtb	r3, r3
 8003f80:	2b01      	cmp	r3, #1
 8003f82:	d10c      	bne.n	8003f9e <I2C_WaitOnMasterAddressFlagUntilTimeout+0xaa>
 8003f84:	68fb      	ldr	r3, [r7, #12]
 8003f86:	681b      	ldr	r3, [r3, #0]
 8003f88:	695b      	ldr	r3, [r3, #20]
 8003f8a:	43da      	mvns	r2, r3
 8003f8c:	68bb      	ldr	r3, [r7, #8]
 8003f8e:	4013      	ands	r3, r2
 8003f90:	b29b      	uxth	r3, r3
 8003f92:	2b00      	cmp	r3, #0
 8003f94:	bf14      	ite	ne
 8003f96:	2301      	movne	r3, #1
 8003f98:	2300      	moveq	r3, #0
 8003f9a:	b2db      	uxtb	r3, r3
 8003f9c:	e00b      	b.n	8003fb6 <I2C_WaitOnMasterAddressFlagUntilTimeout+0xc2>
 8003f9e:	68fb      	ldr	r3, [r7, #12]
 8003fa0:	681b      	ldr	r3, [r3, #0]
 8003fa2:	699b      	ldr	r3, [r3, #24]
 8003fa4:	43da      	mvns	r2, r3
 8003fa6:	68bb      	ldr	r3, [r7, #8]
 8003fa8:	4013      	ands	r3, r2
 8003faa:	b29b      	uxth	r3, r3
 8003fac:	2b00      	cmp	r3, #0
 8003fae:	bf14      	ite	ne
 8003fb0:	2301      	movne	r3, #1
 8003fb2:	2300      	moveq	r3, #0
 8003fb4:	b2db      	uxtb	r3, r3
 8003fb6:	2b00      	cmp	r3, #0
 8003fb8:	d016      	beq.n	8003fe8 <I2C_WaitOnMasterAddressFlagUntilTimeout+0xf4>
        {
          hi2c->PreviousState       = I2C_STATE_NONE;
 8003fba:	68fb      	ldr	r3, [r7, #12]
 8003fbc:	2200      	movs	r2, #0
 8003fbe:	631a      	str	r2, [r3, #48]	@ 0x30
          hi2c->State               = HAL_I2C_STATE_READY;
 8003fc0:	68fb      	ldr	r3, [r7, #12]
 8003fc2:	2220      	movs	r2, #32
 8003fc4:	f883 203d 	strb.w	r2, [r3, #61]	@ 0x3d
          hi2c->Mode                = HAL_I2C_MODE_NONE;
 8003fc8:	68fb      	ldr	r3, [r7, #12]
 8003fca:	2200      	movs	r2, #0
 8003fcc:	f883 203e 	strb.w	r2, [r3, #62]	@ 0x3e
          hi2c->ErrorCode           |= HAL_I2C_ERROR_TIMEOUT;
 8003fd0:	68fb      	ldr	r3, [r7, #12]
 8003fd2:	6c1b      	ldr	r3, [r3, #64]	@ 0x40
 8003fd4:	f043 0220 	orr.w	r2, r3, #32
 8003fd8:	68fb      	ldr	r3, [r7, #12]
 8003fda:	641a      	str	r2, [r3, #64]	@ 0x40

          /* Process Unlocked */
          __HAL_UNLOCK(hi2c);
 8003fdc:	68fb      	ldr	r3, [r7, #12]
 8003fde:	2200      	movs	r2, #0
 8003fe0:	f883 203c 	strb.w	r2, [r3, #60]	@ 0x3c

          return HAL_ERROR;
 8003fe4:	2301      	movs	r3, #1
 8003fe6:	e021      	b.n	800402c <I2C_WaitOnMasterAddressFlagUntilTimeout+0x138>
  while (__HAL_I2C_GET_FLAG(hi2c, Flag) == RESET)
 8003fe8:	68bb      	ldr	r3, [r7, #8]
 8003fea:	0c1b      	lsrs	r3, r3, #16
 8003fec:	b2db      	uxtb	r3, r3
 8003fee:	2b01      	cmp	r3, #1
 8003ff0:	d10c      	bne.n	800400c <I2C_WaitOnMasterAddressFlagUntilTimeout+0x118>
 8003ff2:	68fb      	ldr	r3, [r7, #12]
 8003ff4:	681b      	ldr	r3, [r3, #0]
 8003ff6:	695b      	ldr	r3, [r3, #20]
 8003ff8:	43da      	mvns	r2, r3
 8003ffa:	68bb      	ldr	r3, [r7, #8]
 8003ffc:	4013      	ands	r3, r2
 8003ffe:	b29b      	uxth	r3, r3
 8004000:	2b00      	cmp	r3, #0
 8004002:	bf14      	ite	ne
 8004004:	2301      	movne	r3, #1
 8004006:	2300      	moveq	r3, #0
 8004008:	b2db      	uxtb	r3, r3
 800400a:	e00b      	b.n	8004024 <I2C_WaitOnMasterAddressFlagUntilTimeout+0x130>
 800400c:	68fb      	ldr	r3, [r7, #12]
 800400e:	681b      	ldr	r3, [r3, #0]
 8004010:	699b      	ldr	r3, [r3, #24]
 8004012:	43da      	mvns	r2, r3
 8004014:	68bb      	ldr	r3, [r7, #8]
 8004016:	4013      	ands	r3, r2
 8004018:	b29b      	uxth	r3, r3
 800401a:	2b00      	cmp	r3, #0
 800401c:	bf14      	ite	ne
 800401e:	2301      	movne	r3, #1
 8004020:	2300      	moveq	r3, #0
 8004022:	b2db      	uxtb	r3, r3
 8004024:	2b00      	cmp	r3, #0
 8004026:	f47f af6d 	bne.w	8003f04 <I2C_WaitOnMasterAddressFlagUntilTimeout+0x10>
        }
      }
    }
  }
  return HAL_OK;
 800402a:	2300      	movs	r3, #0
}
 800402c:	4618      	mov	r0, r3
 800402e:	3710      	adds	r7, #16
 8004030:	46bd      	mov	sp, r7
 8004032:	bd80      	pop	{r7, pc}

08004034 <I2C_WaitOnTXEFlagUntilTimeout>:
  * @param  Timeout Timeout duration
  * @param  Tickstart Tick start value
  * @retval HAL status
  */
static HAL_StatusTypeDef I2C_WaitOnTXEFlagUntilTimeout(I2C_HandleTypeDef *hi2c, uint32_t Timeout, uint32_t Tickstart)
{
 8004034:	b580      	push	{r7, lr}
 8004036:	b084      	sub	sp, #16
 8004038:	af00      	add	r7, sp, #0
 800403a:	60f8      	str	r0, [r7, #12]
 800403c:	60b9      	str	r1, [r7, #8]
 800403e:	607a      	str	r2, [r7, #4]
  while (__HAL_I2C_GET_FLAG(hi2c, I2C_FLAG_TXE) == RESET)
 8004040:	e034      	b.n	80040ac <I2C_WaitOnTXEFlagUntilTimeout+0x78>
  {
    /* Check if a NACK is detected */
    if (I2C_IsAcknowledgeFailed(hi2c) != HAL_OK)
 8004042:	68f8      	ldr	r0, [r7, #12]
 8004044:	f000 f8e3 	bl	800420e <I2C_IsAcknowledgeFailed>
 8004048:	4603      	mov	r3, r0
 800404a:	2b00      	cmp	r3, #0
 800404c:	d001      	beq.n	8004052 <I2C_WaitOnTXEFlagUntilTimeout+0x1e>
    {
      return HAL_ERROR;
 800404e:	2301      	movs	r3, #1
 8004050:	e034      	b.n	80040bc <I2C_WaitOnTXEFlagUntilTimeout+0x88>
    }

    /* Check for the Timeout */
    if (Timeout != HAL_MAX_DELAY)
 8004052:	68bb      	ldr	r3, [r7, #8]
 8004054:	f1b3 3fff 	cmp.w	r3, #4294967295
 8004058:	d028      	beq.n	80040ac <I2C_WaitOnTXEFlagUntilTimeout+0x78>
    {
      if (((HAL_GetTick() - Tickstart) > Timeout) || (Timeout == 0U))
 800405a:	f7fe fdf9 	bl	8002c50 <HAL_GetTick>
 800405e:	4602      	mov	r2, r0
 8004060:	687b      	ldr	r3, [r7, #4]
 8004062:	1ad3      	subs	r3, r2, r3
 8004064:	68ba      	ldr	r2, [r7, #8]
 8004066:	429a      	cmp	r2, r3
 8004068:	d302      	bcc.n	8004070 <I2C_WaitOnTXEFlagUntilTimeout+0x3c>
 800406a:	68bb      	ldr	r3, [r7, #8]
 800406c:	2b00      	cmp	r3, #0
 800406e:	d11d      	bne.n	80040ac <I2C_WaitOnTXEFlagUntilTimeout+0x78>
      {
        if ((__HAL_I2C_GET_FLAG(hi2c, I2C_FLAG_TXE) == RESET))
 8004070:	68fb      	ldr	r3, [r7, #12]
 8004072:	681b      	ldr	r3, [r3, #0]
 8004074:	695b      	ldr	r3, [r3, #20]
 8004076:	f003 0380 	and.w	r3, r3, #128	@ 0x80
 800407a:	2b80      	cmp	r3, #128	@ 0x80
 800407c:	d016      	beq.n	80040ac <I2C_WaitOnTXEFlagUntilTimeout+0x78>
        {
          hi2c->PreviousState       = I2C_STATE_NONE;
 800407e:	68fb      	ldr	r3, [r7, #12]
 8004080:	2200      	movs	r2, #0
 8004082:	631a      	str	r2, [r3, #48]	@ 0x30
          hi2c->State               = HAL_I2C_STATE_READY;
 8004084:	68fb      	ldr	r3, [r7, #12]
 8004086:	2220      	movs	r2, #32
 8004088:	f883 203d 	strb.w	r2, [r3, #61]	@ 0x3d
          hi2c->Mode                = HAL_I2C_MODE_NONE;
 800408c:	68fb      	ldr	r3, [r7, #12]
 800408e:	2200      	movs	r2, #0
 8004090:	f883 203e 	strb.w	r2, [r3, #62]	@ 0x3e
          hi2c->ErrorCode           |= HAL_I2C_ERROR_TIMEOUT;
 8004094:	68fb      	ldr	r3, [r7, #12]
 8004096:	6c1b      	ldr	r3, [r3, #64]	@ 0x40
 8004098:	f043 0220 	orr.w	r2, r3, #32
 800409c:	68fb      	ldr	r3, [r7, #12]
 800409e:	641a      	str	r2, [r3, #64]	@ 0x40

          /* Process Unlocked */
          __HAL_UNLOCK(hi2c);
 80040a0:	68fb      	ldr	r3, [r7, #12]
 80040a2:	2200      	movs	r2, #0
 80040a4:	f883 203c 	strb.w	r2, [r3, #60]	@ 0x3c

          return HAL_ERROR;
 80040a8:	2301      	movs	r3, #1
 80040aa:	e007      	b.n	80040bc <I2C_WaitOnTXEFlagUntilTimeout+0x88>
  while (__HAL_I2C_GET_FLAG(hi2c, I2C_FLAG_TXE) == RESET)
 80040ac:	68fb      	ldr	r3, [r7, #12]
 80040ae:	681b      	ldr	r3, [r3, #0]
 80040b0:	695b      	ldr	r3, [r3, #20]
 80040b2:	f003 0380 	and.w	r3, r3, #128	@ 0x80
 80040b6:	2b80      	cmp	r3, #128	@ 0x80
 80040b8:	d1c3      	bne.n	8004042 <I2C_WaitOnTXEFlagUntilTimeout+0xe>
        }
      }
    }
  }
  return HAL_OK;
 80040ba:	2300      	movs	r3, #0
}
 80040bc:	4618      	mov	r0, r3
 80040be:	3710      	adds	r7, #16
 80040c0:	46bd      	mov	sp, r7
 80040c2:	bd80      	pop	{r7, pc}

080040c4 <I2C_WaitOnBTFFlagUntilTimeout>:
  * @param  Timeout Timeout duration
  * @param  Tickstart Tick start value
  * @retval HAL status
  */
static HAL_StatusTypeDef I2C_WaitOnBTFFlagUntilTimeout(I2C_HandleTypeDef *hi2c, uint32_t Timeout, uint32_t Tickstart)
{
 80040c4:	b580      	push	{r7, lr}
 80040c6:	b084      	sub	sp, #16
 80040c8:	af00      	add	r7, sp, #0
 80040ca:	60f8      	str	r0, [r7, #12]
 80040cc:	60b9      	str	r1, [r7, #8]
 80040ce:	607a      	str	r2, [r7, #4]
  while (__HAL_I2C_GET_FLAG(hi2c, I2C_FLAG_BTF) == RESET)
 80040d0:	e034      	b.n	800413c <I2C_WaitOnBTFFlagUntilTimeout+0x78>
  {
    /* Check if a NACK is detected */
    if (I2C_IsAcknowledgeFailed(hi2c) != HAL_OK)
 80040d2:	68f8      	ldr	r0, [r7, #12]
 80040d4:	f000 f89b 	bl	800420e <I2C_IsAcknowledgeFailed>
 80040d8:	4603      	mov	r3, r0
 80040da:	2b00      	cmp	r3, #0
 80040dc:	d001      	beq.n	80040e2 <I2C_WaitOnBTFFlagUntilTimeout+0x1e>
    {
      return HAL_ERROR;
 80040de:	2301      	movs	r3, #1
 80040e0:	e034      	b.n	800414c <I2C_WaitOnBTFFlagUntilTimeout+0x88>
    }

    /* Check for the Timeout */
    if (Timeout != HAL_MAX_DELAY)
 80040e2:	68bb      	ldr	r3, [r7, #8]
 80040e4:	f1b3 3fff 	cmp.w	r3, #4294967295
 80040e8:	d028      	beq.n	800413c <I2C_WaitOnBTFFlagUntilTimeout+0x78>
    {
      if (((HAL_GetTick() - Tickstart) > Timeout) || (Timeout == 0U))
 80040ea:	f7fe fdb1 	bl	8002c50 <HAL_GetTick>
 80040ee:	4602      	mov	r2, r0
 80040f0:	687b      	ldr	r3, [r7, #4]
 80040f2:	1ad3      	subs	r3, r2, r3
 80040f4:	68ba      	ldr	r2, [r7, #8]
 80040f6:	429a      	cmp	r2, r3
 80040f8:	d302      	bcc.n	8004100 <I2C_WaitOnBTFFlagUntilTimeout+0x3c>
 80040fa:	68bb      	ldr	r3, [r7, #8]
 80040fc:	2b00      	cmp	r3, #0
 80040fe:	d11d      	bne.n	800413c <I2C_WaitOnBTFFlagUntilTimeout+0x78>
      {
        if ((__HAL_I2C_GET_FLAG(hi2c, I2C_FLAG_BTF) == RESET))
 8004100:	68fb      	ldr	r3, [r7, #12]
 8004102:	681b      	ldr	r3, [r3, #0]
 8004104:	695b      	ldr	r3, [r3, #20]
 8004106:	f003 0304 	and.w	r3, r3, #4
 800410a:	2b04      	cmp	r3, #4
 800410c:	d016      	beq.n	800413c <I2C_WaitOnBTFFlagUntilTimeout+0x78>
        {
          hi2c->PreviousState       = I2C_STATE_NONE;
 800410e:	68fb      	ldr	r3, [r7, #12]
 8004110:	2200      	movs	r2, #0
 8004112:	631a      	str	r2, [r3, #48]	@ 0x30
          hi2c->State               = HAL_I2C_STATE_READY;
 8004114:	68fb      	ldr	r3, [r7, #12]
 8004116:	2220      	movs	r2, #32
 8004118:	f883 203d 	strb.w	r2, [r3, #61]	@ 0x3d
          hi2c->Mode                = HAL_I2C_MODE_NONE;
 800411c:	68fb      	ldr	r3, [r7, #12]
 800411e:	2200      	movs	r2, #0
 8004120:	f883 203e 	strb.w	r2, [r3, #62]	@ 0x3e
          hi2c->ErrorCode           |= HAL_I2C_ERROR_TIMEOUT;
 8004124:	68fb      	ldr	r3, [r7, #12]
 8004126:	6c1b      	ldr	r3, [r3, #64]	@ 0x40
 8004128:	f043 0220 	orr.w	r2, r3, #32
 800412c:	68fb      	ldr	r3, [r7, #12]
 800412e:	641a      	str	r2, [r3, #64]	@ 0x40

          /* Process Unlocked */
          __HAL_UNLOCK(hi2c);
 8004130:	68fb      	ldr	r3, [r7, #12]
 8004132:	2200      	movs	r2, #0
 8004134:	f883 203c 	strb.w	r2, [r3, #60]	@ 0x3c

          return HAL_ERROR;
 8004138:	2301      	movs	r3, #1
 800413a:	e007      	b.n	800414c <I2C_WaitOnBTFFlagUntilTimeout+0x88>
  while (__HAL_I2C_GET_FLAG(hi2c, I2C_FLAG_BTF) == RESET)
 800413c:	68fb      	ldr	r3, [r7, #12]
 800413e:	681b      	ldr	r3, [r3, #0]
 8004140:	695b      	ldr	r3, [r3, #20]
 8004142:	f003 0304 	and.w	r3, r3, #4
 8004146:	2b04      	cmp	r3, #4
 8004148:	d1c3      	bne.n	80040d2 <I2C_WaitOnBTFFlagUntilTimeout+0xe>
        }
      }
    }
  }
  return HAL_OK;
 800414a:	2300      	movs	r3, #0
}
 800414c:	4618      	mov	r0, r3
 800414e:	3710      	adds	r7, #16
 8004150:	46bd      	mov	sp, r7
 8004152:	bd80      	pop	{r7, pc}

08004154 <I2C_WaitOnRXNEFlagUntilTimeout>:
  * @param  Timeout Timeout duration
  * @param  Tickstart Tick start value
  * @retval HAL status
  */
static HAL_StatusTypeDef I2C_WaitOnRXNEFlagUntilTimeout(I2C_HandleTypeDef *hi2c, uint32_t Timeout, uint32_t Tickstart)
{
 8004154:	b580      	push	{r7, lr}
 8004156:	b084      	sub	sp, #16
 8004158:	af00      	add	r7, sp, #0
 800415a:	60f8      	str	r0, [r7, #12]
 800415c:	60b9      	str	r1, [r7, #8]
 800415e:	607a      	str	r2, [r7, #4]

  while (__HAL_I2C_GET_FLAG(hi2c, I2C_FLAG_RXNE) == RESET)
 8004160:	e049      	b.n	80041f6 <I2C_WaitOnRXNEFlagUntilTimeout+0xa2>
  {
    /* Check if a STOPF is detected */
    if (__HAL_I2C_GET_FLAG(hi2c, I2C_FLAG_STOPF) == SET)
 8004162:	68fb      	ldr	r3, [r7, #12]
 8004164:	681b      	ldr	r3, [r3, #0]
 8004166:	695b      	ldr	r3, [r3, #20]
 8004168:	f003 0310 	and.w	r3, r3, #16
 800416c:	2b10      	cmp	r3, #16
 800416e:	d119      	bne.n	80041a4 <I2C_WaitOnRXNEFlagUntilTimeout+0x50>
    {
      /* Clear STOP Flag */
      __HAL_I2C_CLEAR_FLAG(hi2c, I2C_FLAG_STOPF);
 8004170:	68fb      	ldr	r3, [r7, #12]
 8004172:	681b      	ldr	r3, [r3, #0]
 8004174:	f06f 0210 	mvn.w	r2, #16
 8004178:	615a      	str	r2, [r3, #20]

      hi2c->PreviousState       = I2C_STATE_NONE;
 800417a:	68fb      	ldr	r3, [r7, #12]
 800417c:	2200      	movs	r2, #0
 800417e:	631a      	str	r2, [r3, #48]	@ 0x30
      hi2c->State               = HAL_I2C_STATE_READY;
 8004180:	68fb      	ldr	r3, [r7, #12]
 8004182:	2220      	movs	r2, #32
 8004184:	f883 203d 	strb.w	r2, [r3, #61]	@ 0x3d
      hi2c->Mode                = HAL_I2C_MODE_NONE;
 8004188:	68fb      	ldr	r3, [r7, #12]
 800418a:	2200      	movs	r2, #0
 800418c:	f883 203e 	strb.w	r2, [r3, #62]	@ 0x3e
      hi2c->ErrorCode           |= HAL_I2C_ERROR_NONE;
 8004190:	68fb      	ldr	r3, [r7, #12]
 8004192:	6c1a      	ldr	r2, [r3, #64]	@ 0x40
 8004194:	68fb      	ldr	r3, [r7, #12]
 8004196:	641a      	str	r2, [r3, #64]	@ 0x40

      /* Process Unlocked */
      __HAL_UNLOCK(hi2c);
 8004198:	68fb      	ldr	r3, [r7, #12]
 800419a:	2200      	movs	r2, #0
 800419c:	f883 203c 	strb.w	r2, [r3, #60]	@ 0x3c

      return HAL_ERROR;
 80041a0:	2301      	movs	r3, #1
 80041a2:	e030      	b.n	8004206 <I2C_WaitOnRXNEFlagUntilTimeout+0xb2>
    }

    /* Check for the Timeout */
    if (((HAL_GetTick() - Tickstart) > Timeout) || (Timeout == 0U))
 80041a4:	f7fe fd54 	bl	8002c50 <HAL_GetTick>
 80041a8:	4602      	mov	r2, r0
 80041aa:	687b      	ldr	r3, [r7, #4]
 80041ac:	1ad3      	subs	r3, r2, r3
 80041ae:	68ba      	ldr	r2, [r7, #8]
 80041b0:	429a      	cmp	r2, r3
 80041b2:	d302      	bcc.n	80041ba <I2C_WaitOnRXNEFlagUntilTimeout+0x66>
 80041b4:	68bb      	ldr	r3, [r7, #8]
 80041b6:	2b00      	cmp	r3, #0
 80041b8:	d11d      	bne.n	80041f6 <I2C_WaitOnRXNEFlagUntilTimeout+0xa2>
    {
      if ((__HAL_I2C_GET_FLAG(hi2c, I2C_FLAG_RXNE) == RESET))
 80041ba:	68fb      	ldr	r3, [r7, #12]
 80041bc:	681b      	ldr	r3, [r3, #0]
 80041be:	695b      	ldr	r3, [r3, #20]
 80041c0:	f003 0340 	and.w	r3, r3, #64	@ 0x40
 80041c4:	2b40      	cmp	r3, #64	@ 0x40
 80041c6:	d016      	beq.n	80041f6 <I2C_WaitOnRXNEFlagUntilTimeout+0xa2>
      {
        hi2c->PreviousState       = I2C_STATE_NONE;
 80041c8:	68fb      	ldr	r3, [r7, #12]
 80041ca:	2200      	movs	r2, #0
 80041cc:	631a      	str	r2, [r3, #48]	@ 0x30
        hi2c->State               = HAL_I2C_STATE_READY;
 80041ce:	68fb      	ldr	r3, [r7, #12]
 80041d0:	2220      	movs	r2, #32
 80041d2:	f883 203d 	strb.w	r2, [r3, #61]	@ 0x3d
        hi2c->Mode                = HAL_I2C_MODE_NONE;
 80041d6:	68fb      	ldr	r3, [r7, #12]
 80041d8:	2200      	movs	r2, #0
 80041da:	f883 203e 	strb.w	r2, [r3, #62]	@ 0x3e
        hi2c->ErrorCode           |= HAL_I2C_ERROR_TIMEOUT;
 80041de:	68fb      	ldr	r3, [r7, #12]
 80041e0:	6c1b      	ldr	r3, [r3, #64]	@ 0x40
 80041e2:	f043 0220 	orr.w	r2, r3, #32
 80041e6:	68fb      	ldr	r3, [r7, #12]
 80041e8:	641a      	str	r2, [r3, #64]	@ 0x40

        /* Process Unlocked */
        __HAL_UNLOCK(hi2c);
 80041ea:	68fb      	ldr	r3, [r7, #12]
 80041ec:	2200      	movs	r2, #0
 80041ee:	f883 203c 	strb.w	r2, [r3, #60]	@ 0x3c

        return HAL_ERROR;
 80041f2:	2301      	movs	r3, #1
 80041f4:	e007      	b.n	8004206 <I2C_WaitOnRXNEFlagUntilTimeout+0xb2>
  while (__HAL_I2C_GET_FLAG(hi2c, I2C_FLAG_RXNE) == RESET)
 80041f6:	68fb      	ldr	r3, [r7, #12]
 80041f8:	681b      	ldr	r3, [r3, #0]
 80041fa:	695b      	ldr	r3, [r3, #20]
 80041fc:	f003 0340 	and.w	r3, r3, #64	@ 0x40
 8004200:	2b40      	cmp	r3, #64	@ 0x40
 8004202:	d1ae      	bne.n	8004162 <I2C_WaitOnRXNEFlagUntilTimeout+0xe>
      }
    }
  }
  return HAL_OK;
 8004204:	2300      	movs	r3, #0
}
 8004206:	4618      	mov	r0, r3
 8004208:	3710      	adds	r7, #16
 800420a:	46bd      	mov	sp, r7
 800420c:	bd80      	pop	{r7, pc}

0800420e <I2C_IsAcknowledgeFailed>:
  * @param  hi2c Pointer to a I2C_HandleTypeDef structure that contains
  *                the configuration information for the specified I2C.
  * @retval HAL status
  */
static HAL_StatusTypeDef I2C_IsAcknowledgeFailed(I2C_HandleTypeDef *hi2c)
{
 800420e:	b480      	push	{r7}
 8004210:	b083      	sub	sp, #12
 8004212:	af00      	add	r7, sp, #0
 8004214:	6078      	str	r0, [r7, #4]
  if (__HAL_I2C_GET_FLAG(hi2c, I2C_FLAG_AF) == SET)
 8004216:	687b      	ldr	r3, [r7, #4]
 8004218:	681b      	ldr	r3, [r3, #0]
 800421a:	695b      	ldr	r3, [r3, #20]
 800421c:	f403 6380 	and.w	r3, r3, #1024	@ 0x400
 8004220:	f5b3 6f80 	cmp.w	r3, #1024	@ 0x400
 8004224:	d11b      	bne.n	800425e <I2C_IsAcknowledgeFailed+0x50>
  {
    /* Clear NACKF Flag */
    __HAL_I2C_CLEAR_FLAG(hi2c, I2C_FLAG_AF);
 8004226:	687b      	ldr	r3, [r7, #4]
 8004228:	681b      	ldr	r3, [r3, #0]
 800422a:	f46f 6280 	mvn.w	r2, #1024	@ 0x400
 800422e:	615a      	str	r2, [r3, #20]

    hi2c->PreviousState       = I2C_STATE_NONE;
 8004230:	687b      	ldr	r3, [r7, #4]
 8004232:	2200      	movs	r2, #0
 8004234:	631a      	str	r2, [r3, #48]	@ 0x30
    hi2c->State               = HAL_I2C_STATE_READY;
 8004236:	687b      	ldr	r3, [r7, #4]
 8004238:	2220      	movs	r2, #32
 800423a:	f883 203d 	strb.w	r2, [r3, #61]	@ 0x3d
    hi2c->Mode                = HAL_I2C_MODE_NONE;
 800423e:	687b      	ldr	r3, [r7, #4]
 8004240:	2200      	movs	r2, #0
 8004242:	f883 203e 	strb.w	r2, [r3, #62]	@ 0x3e
    hi2c->ErrorCode           |= HAL_I2C_ERROR_AF;
 8004246:	687b      	ldr	r3, [r7, #4]
 8004248:	6c1b      	ldr	r3, [r3, #64]	@ 0x40
 800424a:	f043 0204 	orr.w	r2, r3, #4
 800424e:	687b      	ldr	r3, [r7, #4]
 8004250:	641a      	str	r2, [r3, #64]	@ 0x40

    /* Process Unlocked */
    __HAL_UNLOCK(hi2c);
 8004252:	687b      	ldr	r3, [r7, #4]
 8004254:	2200      	movs	r2, #0
 8004256:	f883 203c 	strb.w	r2, [r3, #60]	@ 0x3c

    return HAL_ERROR;
 800425a:	2301      	movs	r3, #1
 800425c:	e000      	b.n	8004260 <I2C_IsAcknowledgeFailed+0x52>
  }
  return HAL_OK;
 800425e:	2300      	movs	r3, #0
}
 8004260:	4618      	mov	r0, r3
 8004262:	370c      	adds	r7, #12
 8004264:	46bd      	mov	sp, r7
 8004266:	bc80      	pop	{r7}
 8004268:	4770      	bx	lr
	...

0800426c <HAL_RCC_OscConfig>:
  *         supported by this macro. User should request a transition to HSE Off
  *         first and then HSE On or HSE Bypass.
  * @retval HAL status
  */
HAL_StatusTypeDef HAL_RCC_OscConfig(RCC_OscInitTypeDef  *RCC_OscInitStruct)
{
 800426c:	b580      	push	{r7, lr}
 800426e:	b086      	sub	sp, #24
 8004270:	af00      	add	r7, sp, #0
 8004272:	6078      	str	r0, [r7, #4]
  uint32_t tickstart;
  uint32_t pll_config;

  /* Check Null pointer */
  if (RCC_OscInitStruct == NULL)
 8004274:	687b      	ldr	r3, [r7, #4]
 8004276:	2b00      	cmp	r3, #0
 8004278:	d101      	bne.n	800427e <HAL_RCC_OscConfig+0x12>
  {
    return HAL_ERROR;
 800427a:	2301      	movs	r3, #1
 800427c:	e272      	b.n	8004764 <HAL_RCC_OscConfig+0x4f8>

  /* Check the parameters */
  assert_param(IS_RCC_OSCILLATORTYPE(RCC_OscInitStruct->OscillatorType));

  /*------------------------------- HSE Configuration ------------------------*/
  if (((RCC_OscInitStruct->OscillatorType) & RCC_OSCILLATORTYPE_HSE) == RCC_OSCILLATORTYPE_HSE)
 800427e:	687b      	ldr	r3, [r7, #4]
 8004280:	681b      	ldr	r3, [r3, #0]
 8004282:	f003 0301 	and.w	r3, r3, #1
 8004286:	2b00      	cmp	r3, #0
 8004288:	f000 8087 	beq.w	800439a <HAL_RCC_OscConfig+0x12e>
  {
    /* Check the parameters */
    assert_param(IS_RCC_HSE(RCC_OscInitStruct->HSEState));

    /* When the HSE is used as system clock or clock source for PLL in these cases it is not allowed to be disabled */
    if ((__HAL_RCC_GET_SYSCLK_SOURCE() == RCC_SYSCLKSOURCE_STATUS_HSE)
 800428c:	4b92      	ldr	r3, [pc, #584]	@ (80044d8 <HAL_RCC_OscConfig+0x26c>)
 800428e:	685b      	ldr	r3, [r3, #4]
 8004290:	f003 030c 	and.w	r3, r3, #12
 8004294:	2b04      	cmp	r3, #4
 8004296:	d00c      	beq.n	80042b2 <HAL_RCC_OscConfig+0x46>
        || ((__HAL_RCC_GET_SYSCLK_SOURCE() == RCC_SYSCLKSOURCE_STATUS_PLLCLK) && (__HAL_RCC_GET_PLL_OSCSOURCE() == RCC_PLLSOURCE_HSE)))
 8004298:	4b8f      	ldr	r3, [pc, #572]	@ (80044d8 <HAL_RCC_OscConfig+0x26c>)
 800429a:	685b      	ldr	r3, [r3, #4]
 800429c:	f003 030c 	and.w	r3, r3, #12
 80042a0:	2b08      	cmp	r3, #8
 80042a2:	d112      	bne.n	80042ca <HAL_RCC_OscConfig+0x5e>
 80042a4:	4b8c      	ldr	r3, [pc, #560]	@ (80044d8 <HAL_RCC_OscConfig+0x26c>)
 80042a6:	685b      	ldr	r3, [r3, #4]
 80042a8:	f403 3380 	and.w	r3, r3, #65536	@ 0x10000
 80042ac:	f5b3 3f80 	cmp.w	r3, #65536	@ 0x10000
 80042b0:	d10b      	bne.n	80042ca <HAL_RCC_OscConfig+0x5e>
    {
      if ((__HAL_RCC_GET_FLAG(RCC_FLAG_HSERDY) != RESET) && (RCC_OscInitStruct->HSEState == RCC_HSE_OFF))
 80042b2:	4b89      	ldr	r3, [pc, #548]	@ (80044d8 <HAL_RCC_OscConfig+0x26c>)
 80042b4:	681b      	ldr	r3, [r3, #0]
 80042b6:	f403 3300 	and.w	r3, r3, #131072	@ 0x20000
 80042ba:	2b00      	cmp	r3, #0
 80042bc:	d06c      	beq.n	8004398 <HAL_RCC_OscConfig+0x12c>
 80042be:	687b      	ldr	r3, [r7, #4]
 80042c0:	685b      	ldr	r3, [r3, #4]
 80042c2:	2b00      	cmp	r3, #0
 80042c4:	d168      	bne.n	8004398 <HAL_RCC_OscConfig+0x12c>
      {
        return HAL_ERROR;
 80042c6:	2301      	movs	r3, #1
 80042c8:	e24c      	b.n	8004764 <HAL_RCC_OscConfig+0x4f8>
      }
    }
    else
    {
      /* Set the new HSE configuration ---------------------------------------*/
      __HAL_RCC_HSE_CONFIG(RCC_OscInitStruct->HSEState);
 80042ca:	687b      	ldr	r3, [r7, #4]
 80042cc:	685b      	ldr	r3, [r3, #4]
 80042ce:	f5b3 3f80 	cmp.w	r3, #65536	@ 0x10000
 80042d2:	d106      	bne.n	80042e2 <HAL_RCC_OscConfig+0x76>
 80042d4:	4b80      	ldr	r3, [pc, #512]	@ (80044d8 <HAL_RCC_OscConfig+0x26c>)
 80042d6:	681b      	ldr	r3, [r3, #0]
 80042d8:	4a7f      	ldr	r2, [pc, #508]	@ (80044d8 <HAL_RCC_OscConfig+0x26c>)
 80042da:	f443 3380 	orr.w	r3, r3, #65536	@ 0x10000
 80042de:	6013      	str	r3, [r2, #0]
 80042e0:	e02e      	b.n	8004340 <HAL_RCC_OscConfig+0xd4>
 80042e2:	687b      	ldr	r3, [r7, #4]
 80042e4:	685b      	ldr	r3, [r3, #4]
 80042e6:	2b00      	cmp	r3, #0
 80042e8:	d10c      	bne.n	8004304 <HAL_RCC_OscConfig+0x98>
 80042ea:	4b7b      	ldr	r3, [pc, #492]	@ (80044d8 <HAL_RCC_OscConfig+0x26c>)
 80042ec:	681b      	ldr	r3, [r3, #0]
 80042ee:	4a7a      	ldr	r2, [pc, #488]	@ (80044d8 <HAL_RCC_OscConfig+0x26c>)
 80042f0:	f423 3380 	bic.w	r3, r3, #65536	@ 0x10000
 80042f4:	6013      	str	r3, [r2, #0]
 80042f6:	4b78      	ldr	r3, [pc, #480]	@ (80044d8 <HAL_RCC_OscConfig+0x26c>)
 80042f8:	681b      	ldr	r3, [r3, #0]
 80042fa:	4a77      	ldr	r2, [pc, #476]	@ (80044d8 <HAL_RCC_OscConfig+0x26c>)
 80042fc:	f423 2380 	bic.w	r3, r3, #262144	@ 0x40000
 8004300:	6013      	str	r3, [r2, #0]
 8004302:	e01d      	b.n	8004340 <HAL_RCC_OscConfig+0xd4>
 8004304:	687b      	ldr	r3, [r7, #4]
 8004306:	685b      	ldr	r3, [r3, #4]
 8004308:	f5b3 2fa0 	cmp.w	r3, #327680	@ 0x50000
 800430c:	d10c      	bne.n	8004328 <HAL_RCC_OscConfig+0xbc>
 800430e:	4b72      	ldr	r3, [pc, #456]	@ (80044d8 <HAL_RCC_OscConfig+0x26c>)
 8004310:	681b      	ldr	r3, [r3, #0]
 8004312:	4a71      	ldr	r2, [pc, #452]	@ (80044d8 <HAL_RCC_OscConfig+0x26c>)
 8004314:	f443 2380 	orr.w	r3, r3, #262144	@ 0x40000
 8004318:	6013      	str	r3, [r2, #0]
 800431a:	4b6f      	ldr	r3, [pc, #444]	@ (80044d8 <HAL_RCC_OscConfig+0x26c>)
 800431c:	681b      	ldr	r3, [r3, #0]
 800431e:	4a6e      	ldr	r2, [pc, #440]	@ (80044d8 <HAL_RCC_OscConfig+0x26c>)
 8004320:	f443 3380 	orr.w	r3, r3, #65536	@ 0x10000
 8004324:	6013      	str	r3, [r2, #0]
 8004326:	e00b      	b.n	8004340 <HAL_RCC_OscConfig+0xd4>
 8004328:	4b6b      	ldr	r3, [pc, #428]	@ (80044d8 <HAL_RCC_OscConfig+0x26c>)
 800432a:	681b      	ldr	r3, [r3, #0]
 800432c:	4a6a      	ldr	r2, [pc, #424]	@ (80044d8 <HAL_RCC_OscConfig+0x26c>)
 800432e:	f423 3380 	bic.w	r3, r3, #65536	@ 0x10000
 8004332:	6013      	str	r3, [r2, #0]
 8004334:	4b68      	ldr	r3, [pc, #416]	@ (80044d8 <HAL_RCC_OscConfig+0x26c>)
 8004336:	681b      	ldr	r3, [r3, #0]
 8004338:	4a67      	ldr	r2, [pc, #412]	@ (80044d8 <HAL_RCC_OscConfig+0x26c>)
 800433a:	f423 2380 	bic.w	r3, r3, #262144	@ 0x40000
 800433e:	6013      	str	r3, [r2, #0]


      /* Check the HSE State */
      if (RCC_OscInitStruct->HSEState != RCC_HSE_OFF)
 8004340:	687b      	ldr	r3, [r7, #4]
 8004342:	685b      	ldr	r3, [r3, #4]
 8004344:	2b00      	cmp	r3, #0
 8004346:	d013      	beq.n	8004370 <HAL_RCC_OscConfig+0x104>
      {
        /* Get Start Tick */
        tickstart = HAL_GetTick();
 8004348:	f7fe fc82 	bl	8002c50 <HAL_GetTick>
 800434c:	6138      	str	r0, [r7, #16]

        /* Wait till HSE is ready */
        while (__HAL_RCC_GET_FLAG(RCC_FLAG_HSERDY) == RESET)
 800434e:	e008      	b.n	8004362 <HAL_RCC_OscConfig+0xf6>
        {
          if ((HAL_GetTick() - tickstart) > HSE_TIMEOUT_VALUE)
 8004350:	f7fe fc7e 	bl	8002c50 <HAL_GetTick>
 8004354:	4602      	mov	r2, r0
 8004356:	693b      	ldr	r3, [r7, #16]
 8004358:	1ad3      	subs	r3, r2, r3
 800435a:	2b64      	cmp	r3, #100	@ 0x64
 800435c:	d901      	bls.n	8004362 <HAL_RCC_OscConfig+0xf6>
          {
            return HAL_TIMEOUT;
 800435e:	2303      	movs	r3, #3
 8004360:	e200      	b.n	8004764 <HAL_RCC_OscConfig+0x4f8>
        while (__HAL_RCC_GET_FLAG(RCC_FLAG_HSERDY) == RESET)
 8004362:	4b5d      	ldr	r3, [pc, #372]	@ (80044d8 <HAL_RCC_OscConfig+0x26c>)
 8004364:	681b      	ldr	r3, [r3, #0]
 8004366:	f403 3300 	and.w	r3, r3, #131072	@ 0x20000
 800436a:	2b00      	cmp	r3, #0
 800436c:	d0f0      	beq.n	8004350 <HAL_RCC_OscConfig+0xe4>
 800436e:	e014      	b.n	800439a <HAL_RCC_OscConfig+0x12e>
        }
      }
      else
      {
        /* Get Start Tick */
        tickstart = HAL_GetTick();
 8004370:	f7fe fc6e 	bl	8002c50 <HAL_GetTick>
 8004374:	6138      	str	r0, [r7, #16]

        /* Wait till HSE is disabled */
        while (__HAL_RCC_GET_FLAG(RCC_FLAG_HSERDY) != RESET)
 8004376:	e008      	b.n	800438a <HAL_RCC_OscConfig+0x11e>
        {
          if ((HAL_GetTick() - tickstart) > HSE_TIMEOUT_VALUE)
 8004378:	f7fe fc6a 	bl	8002c50 <HAL_GetTick>
 800437c:	4602      	mov	r2, r0
 800437e:	693b      	ldr	r3, [r7, #16]
 8004380:	1ad3      	subs	r3, r2, r3
 8004382:	2b64      	cmp	r3, #100	@ 0x64
 8004384:	d901      	bls.n	800438a <HAL_RCC_OscConfig+0x11e>
          {
            return HAL_TIMEOUT;
 8004386:	2303      	movs	r3, #3
 8004388:	e1ec      	b.n	8004764 <HAL_RCC_OscConfig+0x4f8>
        while (__HAL_RCC_GET_FLAG(RCC_FLAG_HSERDY) != RESET)
 800438a:	4b53      	ldr	r3, [pc, #332]	@ (80044d8 <HAL_RCC_OscConfig+0x26c>)
 800438c:	681b      	ldr	r3, [r3, #0]
 800438e:	f403 3300 	and.w	r3, r3, #131072	@ 0x20000
 8004392:	2b00      	cmp	r3, #0
 8004394:	d1f0      	bne.n	8004378 <HAL_RCC_OscConfig+0x10c>
 8004396:	e000      	b.n	800439a <HAL_RCC_OscConfig+0x12e>
      if ((__HAL_RCC_GET_FLAG(RCC_FLAG_HSERDY) != RESET) && (RCC_OscInitStruct->HSEState == RCC_HSE_OFF))
 8004398:	bf00      	nop
        }
      }
    }
  }
  /*----------------------------- HSI Configuration --------------------------*/
  if (((RCC_OscInitStruct->OscillatorType) & RCC_OSCILLATORTYPE_HSI) == RCC_OSCILLATORTYPE_HSI)
 800439a:	687b      	ldr	r3, [r7, #4]
 800439c:	681b      	ldr	r3, [r3, #0]
 800439e:	f003 0302 	and.w	r3, r3, #2
 80043a2:	2b00      	cmp	r3, #0
 80043a4:	d063      	beq.n	800446e <HAL_RCC_OscConfig+0x202>
    /* Check the parameters */
    assert_param(IS_RCC_HSI(RCC_OscInitStruct->HSIState));
    assert_param(IS_RCC_CALIBRATION_VALUE(RCC_OscInitStruct->HSICalibrationValue));

    /* Check if HSI is used as system clock or as PLL source when PLL is selected as system clock */
    if ((__HAL_RCC_GET_SYSCLK_SOURCE() == RCC_SYSCLKSOURCE_STATUS_HSI)
 80043a6:	4b4c      	ldr	r3, [pc, #304]	@ (80044d8 <HAL_RCC_OscConfig+0x26c>)
 80043a8:	685b      	ldr	r3, [r3, #4]
 80043aa:	f003 030c 	and.w	r3, r3, #12
 80043ae:	2b00      	cmp	r3, #0
 80043b0:	d00b      	beq.n	80043ca <HAL_RCC_OscConfig+0x15e>
        || ((__HAL_RCC_GET_SYSCLK_SOURCE() == RCC_SYSCLKSOURCE_STATUS_PLLCLK) && (__HAL_RCC_GET_PLL_OSCSOURCE() == RCC_PLLSOURCE_HSI_DIV2)))
 80043b2:	4b49      	ldr	r3, [pc, #292]	@ (80044d8 <HAL_RCC_OscConfig+0x26c>)
 80043b4:	685b      	ldr	r3, [r3, #4]
 80043b6:	f003 030c 	and.w	r3, r3, #12
 80043ba:	2b08      	cmp	r3, #8
 80043bc:	d11c      	bne.n	80043f8 <HAL_RCC_OscConfig+0x18c>
 80043be:	4b46      	ldr	r3, [pc, #280]	@ (80044d8 <HAL_RCC_OscConfig+0x26c>)
 80043c0:	685b      	ldr	r3, [r3, #4]
 80043c2:	f403 3380 	and.w	r3, r3, #65536	@ 0x10000
 80043c6:	2b00      	cmp	r3, #0
 80043c8:	d116      	bne.n	80043f8 <HAL_RCC_OscConfig+0x18c>
    {
      /* When HSI is used as system clock it will not disabled */
      if ((__HAL_RCC_GET_FLAG(RCC_FLAG_HSIRDY) != RESET) && (RCC_OscInitStruct->HSIState != RCC_HSI_ON))
 80043ca:	4b43      	ldr	r3, [pc, #268]	@ (80044d8 <HAL_RCC_OscConfig+0x26c>)
 80043cc:	681b      	ldr	r3, [r3, #0]
 80043ce:	f003 0302 	and.w	r3, r3, #2
 80043d2:	2b00      	cmp	r3, #0
 80043d4:	d005      	beq.n	80043e2 <HAL_RCC_OscConfig+0x176>
 80043d6:	687b      	ldr	r3, [r7, #4]
 80043d8:	691b      	ldr	r3, [r3, #16]
 80043da:	2b01      	cmp	r3, #1
 80043dc:	d001      	beq.n	80043e2 <HAL_RCC_OscConfig+0x176>
      {
        return HAL_ERROR;
 80043de:	2301      	movs	r3, #1
 80043e0:	e1c0      	b.n	8004764 <HAL_RCC_OscConfig+0x4f8>
      }
      /* Otherwise, just the calibration is allowed */
      else
      {
        /* Adjusts the Internal High Speed oscillator (HSI) calibration value.*/
        __HAL_RCC_HSI_CALIBRATIONVALUE_ADJUST(RCC_OscInitStruct->HSICalibrationValue);
 80043e2:	4b3d      	ldr	r3, [pc, #244]	@ (80044d8 <HAL_RCC_OscConfig+0x26c>)
 80043e4:	681b      	ldr	r3, [r3, #0]
 80043e6:	f023 02f8 	bic.w	r2, r3, #248	@ 0xf8
 80043ea:	687b      	ldr	r3, [r7, #4]
 80043ec:	695b      	ldr	r3, [r3, #20]
 80043ee:	00db      	lsls	r3, r3, #3
 80043f0:	4939      	ldr	r1, [pc, #228]	@ (80044d8 <HAL_RCC_OscConfig+0x26c>)
 80043f2:	4313      	orrs	r3, r2
 80043f4:	600b      	str	r3, [r1, #0]
      if ((__HAL_RCC_GET_FLAG(RCC_FLAG_HSIRDY) != RESET) && (RCC_OscInitStruct->HSIState != RCC_HSI_ON))
 80043f6:	e03a      	b.n	800446e <HAL_RCC_OscConfig+0x202>
      }
    }
    else
    {
      /* Check the HSI State */
      if (RCC_OscInitStruct->HSIState != RCC_HSI_OFF)
 80043f8:	687b      	ldr	r3, [r7, #4]
 80043fa:	691b      	ldr	r3, [r3, #16]
 80043fc:	2b00      	cmp	r3, #0
 80043fe:	d020      	beq.n	8004442 <HAL_RCC_OscConfig+0x1d6>
      {
        /* Enable the Internal High Speed oscillator (HSI). */
        __HAL_RCC_HSI_ENABLE();
 8004400:	4b36      	ldr	r3, [pc, #216]	@ (80044dc <HAL_RCC_OscConfig+0x270>)
 8004402:	2201      	movs	r2, #1
 8004404:	601a      	str	r2, [r3, #0]

        /* Get Start Tick */
        tickstart = HAL_GetTick();
 8004406:	f7fe fc23 	bl	8002c50 <HAL_GetTick>
 800440a:	6138      	str	r0, [r7, #16]

        /* Wait till HSI is ready */
        while (__HAL_RCC_GET_FLAG(RCC_FLAG_HSIRDY) == RESET)
 800440c:	e008      	b.n	8004420 <HAL_RCC_OscConfig+0x1b4>
        {
          if ((HAL_GetTick() - tickstart) > HSI_TIMEOUT_VALUE)
 800440e:	f7fe fc1f 	bl	8002c50 <HAL_GetTick>
 8004412:	4602      	mov	r2, r0
 8004414:	693b      	ldr	r3, [r7, #16]
 8004416:	1ad3      	subs	r3, r2, r3
 8004418:	2b02      	cmp	r3, #2
 800441a:	d901      	bls.n	8004420 <HAL_RCC_OscConfig+0x1b4>
          {
            return HAL_TIMEOUT;
 800441c:	2303      	movs	r3, #3
 800441e:	e1a1      	b.n	8004764 <HAL_RCC_OscConfig+0x4f8>
        while (__HAL_RCC_GET_FLAG(RCC_FLAG_HSIRDY) == RESET)
 8004420:	4b2d      	ldr	r3, [pc, #180]	@ (80044d8 <HAL_RCC_OscConfig+0x26c>)
 8004422:	681b      	ldr	r3, [r3, #0]
 8004424:	f003 0302 	and.w	r3, r3, #2
 8004428:	2b00      	cmp	r3, #0
 800442a:	d0f0      	beq.n	800440e <HAL_RCC_OscConfig+0x1a2>
          }
        }

        /* Adjusts the Internal High Speed oscillator (HSI) calibration value.*/
        __HAL_RCC_HSI_CALIBRATIONVALUE_ADJUST(RCC_OscInitStruct->HSICalibrationValue);
 800442c:	4b2a      	ldr	r3, [pc, #168]	@ (80044d8 <HAL_RCC_OscConfig+0x26c>)
 800442e:	681b      	ldr	r3, [r3, #0]
 8004430:	f023 02f8 	bic.w	r2, r3, #248	@ 0xf8
 8004434:	687b      	ldr	r3, [r7, #4]
 8004436:	695b      	ldr	r3, [r3, #20]
 8004438:	00db      	lsls	r3, r3, #3
 800443a:	4927      	ldr	r1, [pc, #156]	@ (80044d8 <HAL_RCC_OscConfig+0x26c>)
 800443c:	4313      	orrs	r3, r2
 800443e:	600b      	str	r3, [r1, #0]
 8004440:	e015      	b.n	800446e <HAL_RCC_OscConfig+0x202>
      }
      else
      {
        /* Disable the Internal High Speed oscillator (HSI). */
        __HAL_RCC_HSI_DISABLE();
 8004442:	4b26      	ldr	r3, [pc, #152]	@ (80044dc <HAL_RCC_OscConfig+0x270>)
 8004444:	2200      	movs	r2, #0
 8004446:	601a      	str	r2, [r3, #0]

        /* Get Start Tick */
        tickstart = HAL_GetTick();
 8004448:	f7fe fc02 	bl	8002c50 <HAL_GetTick>
 800444c:	6138      	str	r0, [r7, #16]

        /* Wait till HSI is disabled */
        while (__HAL_RCC_GET_FLAG(RCC_FLAG_HSIRDY) != RESET)
 800444e:	e008      	b.n	8004462 <HAL_RCC_OscConfig+0x1f6>
        {
          if ((HAL_GetTick() - tickstart) > HSI_TIMEOUT_VALUE)
 8004450:	f7fe fbfe 	bl	8002c50 <HAL_GetTick>
 8004454:	4602      	mov	r2, r0
 8004456:	693b      	ldr	r3, [r7, #16]
 8004458:	1ad3      	subs	r3, r2, r3
 800445a:	2b02      	cmp	r3, #2
 800445c:	d901      	bls.n	8004462 <HAL_RCC_OscConfig+0x1f6>
          {
            return HAL_TIMEOUT;
 800445e:	2303      	movs	r3, #3
 8004460:	e180      	b.n	8004764 <HAL_RCC_OscConfig+0x4f8>
        while (__HAL_RCC_GET_FLAG(RCC_FLAG_HSIRDY) != RESET)
 8004462:	4b1d      	ldr	r3, [pc, #116]	@ (80044d8 <HAL_RCC_OscConfig+0x26c>)
 8004464:	681b      	ldr	r3, [r3, #0]
 8004466:	f003 0302 	and.w	r3, r3, #2
 800446a:	2b00      	cmp	r3, #0
 800446c:	d1f0      	bne.n	8004450 <HAL_RCC_OscConfig+0x1e4>
        }
      }
    }
  }
  /*------------------------------ LSI Configuration -------------------------*/
  if (((RCC_OscInitStruct->OscillatorType) & RCC_OSCILLATORTYPE_LSI) == RCC_OSCILLATORTYPE_LSI)
 800446e:	687b      	ldr	r3, [r7, #4]
 8004470:	681b      	ldr	r3, [r3, #0]
 8004472:	f003 0308 	and.w	r3, r3, #8
 8004476:	2b00      	cmp	r3, #0
 8004478:	d03a      	beq.n	80044f0 <HAL_RCC_OscConfig+0x284>
  {
    /* Check the parameters */
    assert_param(IS_RCC_LSI(RCC_OscInitStruct->LSIState));

    /* Check the LSI State */
    if (RCC_OscInitStruct->LSIState != RCC_LSI_OFF)
 800447a:	687b      	ldr	r3, [r7, #4]
 800447c:	699b      	ldr	r3, [r3, #24]
 800447e:	2b00      	cmp	r3, #0
 8004480:	d019      	beq.n	80044b6 <HAL_RCC_OscConfig+0x24a>
    {
      /* Enable the Internal Low Speed oscillator (LSI). */
      __HAL_RCC_LSI_ENABLE();
 8004482:	4b17      	ldr	r3, [pc, #92]	@ (80044e0 <HAL_RCC_OscConfig+0x274>)
 8004484:	2201      	movs	r2, #1
 8004486:	601a      	str	r2, [r3, #0]

      /* Get Start Tick */
      tickstart = HAL_GetTick();
 8004488:	f7fe fbe2 	bl	8002c50 <HAL_GetTick>
 800448c:	6138      	str	r0, [r7, #16]

      /* Wait till LSI is ready */
      while (__HAL_RCC_GET_FLAG(RCC_FLAG_LSIRDY) == RESET)
 800448e:	e008      	b.n	80044a2 <HAL_RCC_OscConfig+0x236>
      {
        if ((HAL_GetTick() - tickstart) > LSI_TIMEOUT_VALUE)
 8004490:	f7fe fbde 	bl	8002c50 <HAL_GetTick>
 8004494:	4602      	mov	r2, r0
 8004496:	693b      	ldr	r3, [r7, #16]
 8004498:	1ad3      	subs	r3, r2, r3
 800449a:	2b02      	cmp	r3, #2
 800449c:	d901      	bls.n	80044a2 <HAL_RCC_OscConfig+0x236>
        {
          return HAL_TIMEOUT;
 800449e:	2303      	movs	r3, #3
 80044a0:	e160      	b.n	8004764 <HAL_RCC_OscConfig+0x4f8>
      while (__HAL_RCC_GET_FLAG(RCC_FLAG_LSIRDY) == RESET)
 80044a2:	4b0d      	ldr	r3, [pc, #52]	@ (80044d8 <HAL_RCC_OscConfig+0x26c>)
 80044a4:	6a5b      	ldr	r3, [r3, #36]	@ 0x24
 80044a6:	f003 0302 	and.w	r3, r3, #2
 80044aa:	2b00      	cmp	r3, #0
 80044ac:	d0f0      	beq.n	8004490 <HAL_RCC_OscConfig+0x224>
        }
      }
      /*  To have a fully stabilized clock in the specified range, a software delay of 1ms
          should be added.*/
      RCC_Delay(1);
 80044ae:	2001      	movs	r0, #1
 80044b0:	f000 face 	bl	8004a50 <RCC_Delay>
 80044b4:	e01c      	b.n	80044f0 <HAL_RCC_OscConfig+0x284>
    }
    else
    {
      /* Disable the Internal Low Speed oscillator (LSI). */
      __HAL_RCC_LSI_DISABLE();
 80044b6:	4b0a      	ldr	r3, [pc, #40]	@ (80044e0 <HAL_RCC_OscConfig+0x274>)
 80044b8:	2200      	movs	r2, #0
 80044ba:	601a      	str	r2, [r3, #0]

      /* Get Start Tick */
      tickstart = HAL_GetTick();
 80044bc:	f7fe fbc8 	bl	8002c50 <HAL_GetTick>
 80044c0:	6138      	str	r0, [r7, #16]

      /* Wait till LSI is disabled */
      while (__HAL_RCC_GET_FLAG(RCC_FLAG_LSIRDY) != RESET)
 80044c2:	e00f      	b.n	80044e4 <HAL_RCC_OscConfig+0x278>
      {
        if ((HAL_GetTick() - tickstart) > LSI_TIMEOUT_VALUE)
 80044c4:	f7fe fbc4 	bl	8002c50 <HAL_GetTick>
 80044c8:	4602      	mov	r2, r0
 80044ca:	693b      	ldr	r3, [r7, #16]
 80044cc:	1ad3      	subs	r3, r2, r3
 80044ce:	2b02      	cmp	r3, #2
 80044d0:	d908      	bls.n	80044e4 <HAL_RCC_OscConfig+0x278>
        {
          return HAL_TIMEOUT;
 80044d2:	2303      	movs	r3, #3
 80044d4:	e146      	b.n	8004764 <HAL_RCC_OscConfig+0x4f8>
 80044d6:	bf00      	nop
 80044d8:	40021000 	.word	0x40021000
 80044dc:	42420000 	.word	0x42420000
 80044e0:	42420480 	.word	0x42420480
      while (__HAL_RCC_GET_FLAG(RCC_FLAG_LSIRDY) != RESET)
 80044e4:	4b92      	ldr	r3, [pc, #584]	@ (8004730 <HAL_RCC_OscConfig+0x4c4>)
 80044e6:	6a5b      	ldr	r3, [r3, #36]	@ 0x24
 80044e8:	f003 0302 	and.w	r3, r3, #2
 80044ec:	2b00      	cmp	r3, #0
 80044ee:	d1e9      	bne.n	80044c4 <HAL_RCC_OscConfig+0x258>
        }
      }
    }
  }
  /*------------------------------ LSE Configuration -------------------------*/
  if (((RCC_OscInitStruct->OscillatorType) & RCC_OSCILLATORTYPE_LSE) == RCC_OSCILLATORTYPE_LSE)
 80044f0:	687b      	ldr	r3, [r7, #4]
 80044f2:	681b      	ldr	r3, [r3, #0]
 80044f4:	f003 0304 	and.w	r3, r3, #4
 80044f8:	2b00      	cmp	r3, #0
 80044fa:	f000 80a6 	beq.w	800464a <HAL_RCC_OscConfig+0x3de>
  {
    FlagStatus       pwrclkchanged = RESET;
 80044fe:	2300      	movs	r3, #0
 8004500:	75fb      	strb	r3, [r7, #23]
    /* Check the parameters */
    assert_param(IS_RCC_LSE(RCC_OscInitStruct->LSEState));

    /* Update LSE configuration in Backup Domain control register    */
    /* Requires to enable write access to Backup Domain of necessary */
    if (__HAL_RCC_PWR_IS_CLK_DISABLED())
 8004502:	4b8b      	ldr	r3, [pc, #556]	@ (8004730 <HAL_RCC_OscConfig+0x4c4>)
 8004504:	69db      	ldr	r3, [r3, #28]
 8004506:	f003 5380 	and.w	r3, r3, #268435456	@ 0x10000000
 800450a:	2b00      	cmp	r3, #0
 800450c:	d10d      	bne.n	800452a <HAL_RCC_OscConfig+0x2be>
    {
      __HAL_RCC_PWR_CLK_ENABLE();
 800450e:	4b88      	ldr	r3, [pc, #544]	@ (8004730 <HAL_RCC_OscConfig+0x4c4>)
 8004510:	69db      	ldr	r3, [r3, #28]
 8004512:	4a87      	ldr	r2, [pc, #540]	@ (8004730 <HAL_RCC_OscConfig+0x4c4>)
 8004514:	f043 5380 	orr.w	r3, r3, #268435456	@ 0x10000000
 8004518:	61d3      	str	r3, [r2, #28]
 800451a:	4b85      	ldr	r3, [pc, #532]	@ (8004730 <HAL_RCC_OscConfig+0x4c4>)
 800451c:	69db      	ldr	r3, [r3, #28]
 800451e:	f003 5380 	and.w	r3, r3, #268435456	@ 0x10000000
 8004522:	60bb      	str	r3, [r7, #8]
 8004524:	68bb      	ldr	r3, [r7, #8]
      pwrclkchanged = SET;
 8004526:	2301      	movs	r3, #1
 8004528:	75fb      	strb	r3, [r7, #23]
    }

    if (HAL_IS_BIT_CLR(PWR->CR, PWR_CR_DBP))
 800452a:	4b82      	ldr	r3, [pc, #520]	@ (8004734 <HAL_RCC_OscConfig+0x4c8>)
 800452c:	681b      	ldr	r3, [r3, #0]
 800452e:	f403 7380 	and.w	r3, r3, #256	@ 0x100
 8004532:	2b00      	cmp	r3, #0
 8004534:	d118      	bne.n	8004568 <HAL_RCC_OscConfig+0x2fc>
    {
      /* Enable write access to Backup domain */
      SET_BIT(PWR->CR, PWR_CR_DBP);
 8004536:	4b7f      	ldr	r3, [pc, #508]	@ (8004734 <HAL_RCC_OscConfig+0x4c8>)
 8004538:	681b      	ldr	r3, [r3, #0]
 800453a:	4a7e      	ldr	r2, [pc, #504]	@ (8004734 <HAL_RCC_OscConfig+0x4c8>)
 800453c:	f443 7380 	orr.w	r3, r3, #256	@ 0x100
 8004540:	6013      	str	r3, [r2, #0]

      /* Wait for Backup domain Write protection disable */
      tickstart = HAL_GetTick();
 8004542:	f7fe fb85 	bl	8002c50 <HAL_GetTick>
 8004546:	6138      	str	r0, [r7, #16]

      while (HAL_IS_BIT_CLR(PWR->CR, PWR_CR_DBP))
 8004548:	e008      	b.n	800455c <HAL_RCC_OscConfig+0x2f0>
      {
        if ((HAL_GetTick() - tickstart) > RCC_DBP_TIMEOUT_VALUE)
 800454a:	f7fe fb81 	bl	8002c50 <HAL_GetTick>
 800454e:	4602      	mov	r2, r0
 8004550:	693b      	ldr	r3, [r7, #16]
 8004552:	1ad3      	subs	r3, r2, r3
 8004554:	2b64      	cmp	r3, #100	@ 0x64
 8004556:	d901      	bls.n	800455c <HAL_RCC_OscConfig+0x2f0>
        {
          return HAL_TIMEOUT;
 8004558:	2303      	movs	r3, #3
 800455a:	e103      	b.n	8004764 <HAL_RCC_OscConfig+0x4f8>
      while (HAL_IS_BIT_CLR(PWR->CR, PWR_CR_DBP))
 800455c:	4b75      	ldr	r3, [pc, #468]	@ (8004734 <HAL_RCC_OscConfig+0x4c8>)
 800455e:	681b      	ldr	r3, [r3, #0]
 8004560:	f403 7380 	and.w	r3, r3, #256	@ 0x100
 8004564:	2b00      	cmp	r3, #0
 8004566:	d0f0      	beq.n	800454a <HAL_RCC_OscConfig+0x2de>
        }
      }
    }

    /* Set the new LSE configuration -----------------------------------------*/
    __HAL_RCC_LSE_CONFIG(RCC_OscInitStruct->LSEState);
 8004568:	687b      	ldr	r3, [r7, #4]
 800456a:	68db      	ldr	r3, [r3, #12]
 800456c:	2b01      	cmp	r3, #1
 800456e:	d106      	bne.n	800457e <HAL_RCC_OscConfig+0x312>
 8004570:	4b6f      	ldr	r3, [pc, #444]	@ (8004730 <HAL_RCC_OscConfig+0x4c4>)
 8004572:	6a1b      	ldr	r3, [r3, #32]
 8004574:	4a6e      	ldr	r2, [pc, #440]	@ (8004730 <HAL_RCC_OscConfig+0x4c4>)
 8004576:	f043 0301 	orr.w	r3, r3, #1
 800457a:	6213      	str	r3, [r2, #32]
 800457c:	e02d      	b.n	80045da <HAL_RCC_OscConfig+0x36e>
 800457e:	687b      	ldr	r3, [r7, #4]
 8004580:	68db      	ldr	r3, [r3, #12]
 8004582:	2b00      	cmp	r3, #0
 8004584:	d10c      	bne.n	80045a0 <HAL_RCC_OscConfig+0x334>
 8004586:	4b6a      	ldr	r3, [pc, #424]	@ (8004730 <HAL_RCC_OscConfig+0x4c4>)
 8004588:	6a1b      	ldr	r3, [r3, #32]
 800458a:	4a69      	ldr	r2, [pc, #420]	@ (8004730 <HAL_RCC_OscConfig+0x4c4>)
 800458c:	f023 0301 	bic.w	r3, r3, #1
 8004590:	6213      	str	r3, [r2, #32]
 8004592:	4b67      	ldr	r3, [pc, #412]	@ (8004730 <HAL_RCC_OscConfig+0x4c4>)
 8004594:	6a1b      	ldr	r3, [r3, #32]
 8004596:	4a66      	ldr	r2, [pc, #408]	@ (8004730 <HAL_RCC_OscConfig+0x4c4>)
 8004598:	f023 0304 	bic.w	r3, r3, #4
 800459c:	6213      	str	r3, [r2, #32]
 800459e:	e01c      	b.n	80045da <HAL_RCC_OscConfig+0x36e>
 80045a0:	687b      	ldr	r3, [r7, #4]
 80045a2:	68db      	ldr	r3, [r3, #12]
 80045a4:	2b05      	cmp	r3, #5
 80045a6:	d10c      	bne.n	80045c2 <HAL_RCC_OscConfig+0x356>
 80045a8:	4b61      	ldr	r3, [pc, #388]	@ (8004730 <HAL_RCC_OscConfig+0x4c4>)
 80045aa:	6a1b      	ldr	r3, [r3, #32]
 80045ac:	4a60      	ldr	r2, [pc, #384]	@ (8004730 <HAL_RCC_OscConfig+0x4c4>)
 80045ae:	f043 0304 	orr.w	r3, r3, #4
 80045b2:	6213      	str	r3, [r2, #32]
 80045b4:	4b5e      	ldr	r3, [pc, #376]	@ (8004730 <HAL_RCC_OscConfig+0x4c4>)
 80045b6:	6a1b      	ldr	r3, [r3, #32]
 80045b8:	4a5d      	ldr	r2, [pc, #372]	@ (8004730 <HAL_RCC_OscConfig+0x4c4>)
 80045ba:	f043 0301 	orr.w	r3, r3, #1
 80045be:	6213      	str	r3, [r2, #32]
 80045c0:	e00b      	b.n	80045da <HAL_RCC_OscConfig+0x36e>
 80045c2:	4b5b      	ldr	r3, [pc, #364]	@ (8004730 <HAL_RCC_OscConfig+0x4c4>)
 80045c4:	6a1b      	ldr	r3, [r3, #32]
 80045c6:	4a5a      	ldr	r2, [pc, #360]	@ (8004730 <HAL_RCC_OscConfig+0x4c4>)
 80045c8:	f023 0301 	bic.w	r3, r3, #1
 80045cc:	6213      	str	r3, [r2, #32]
 80045ce:	4b58      	ldr	r3, [pc, #352]	@ (8004730 <HAL_RCC_OscConfig+0x4c4>)
 80045d0:	6a1b      	ldr	r3, [r3, #32]
 80045d2:	4a57      	ldr	r2, [pc, #348]	@ (8004730 <HAL_RCC_OscConfig+0x4c4>)
 80045d4:	f023 0304 	bic.w	r3, r3, #4
 80045d8:	6213      	str	r3, [r2, #32]
    /* Check the LSE State */
    if (RCC_OscInitStruct->LSEState != RCC_LSE_OFF)
 80045da:	687b      	ldr	r3, [r7, #4]
 80045dc:	68db      	ldr	r3, [r3, #12]
 80045de:	2b00      	cmp	r3, #0
 80045e0:	d015      	beq.n	800460e <HAL_RCC_OscConfig+0x3a2>
    {
      /* Get Start Tick */
      tickstart = HAL_GetTick();
 80045e2:	f7fe fb35 	bl	8002c50 <HAL_GetTick>
 80045e6:	6138      	str	r0, [r7, #16]

      /* Wait till LSE is ready */
      while (__HAL_RCC_GET_FLAG(RCC_FLAG_LSERDY) == RESET)
 80045e8:	e00a      	b.n	8004600 <HAL_RCC_OscConfig+0x394>
      {
        if ((HAL_GetTick() - tickstart) > RCC_LSE_TIMEOUT_VALUE)
 80045ea:	f7fe fb31 	bl	8002c50 <HAL_GetTick>
 80045ee:	4602      	mov	r2, r0
 80045f0:	693b      	ldr	r3, [r7, #16]
 80045f2:	1ad3      	subs	r3, r2, r3
 80045f4:	f241 3288 	movw	r2, #5000	@ 0x1388
 80045f8:	4293      	cmp	r3, r2
 80045fa:	d901      	bls.n	8004600 <HAL_RCC_OscConfig+0x394>
        {
          return HAL_TIMEOUT;
 80045fc:	2303      	movs	r3, #3
 80045fe:	e0b1      	b.n	8004764 <HAL_RCC_OscConfig+0x4f8>
      while (__HAL_RCC_GET_FLAG(RCC_FLAG_LSERDY) == RESET)
 8004600:	4b4b      	ldr	r3, [pc, #300]	@ (8004730 <HAL_RCC_OscConfig+0x4c4>)
 8004602:	6a1b      	ldr	r3, [r3, #32]
 8004604:	f003 0302 	and.w	r3, r3, #2
 8004608:	2b00      	cmp	r3, #0
 800460a:	d0ee      	beq.n	80045ea <HAL_RCC_OscConfig+0x37e>
 800460c:	e014      	b.n	8004638 <HAL_RCC_OscConfig+0x3cc>
      }
    }
    else
    {
      /* Get Start Tick */
      tickstart = HAL_GetTick();
 800460e:	f7fe fb1f 	bl	8002c50 <HAL_GetTick>
 8004612:	6138      	str	r0, [r7, #16]

      /* Wait till LSE is disabled */
      while (__HAL_RCC_GET_FLAG(RCC_FLAG_LSERDY) != RESET)
 8004614:	e00a      	b.n	800462c <HAL_RCC_OscConfig+0x3c0>
      {
        if ((HAL_GetTick() - tickstart) > RCC_LSE_TIMEOUT_VALUE)
 8004616:	f7fe fb1b 	bl	8002c50 <HAL_GetTick>
 800461a:	4602      	mov	r2, r0
 800461c:	693b      	ldr	r3, [r7, #16]
 800461e:	1ad3      	subs	r3, r2, r3
 8004620:	f241 3288 	movw	r2, #5000	@ 0x1388
 8004624:	4293      	cmp	r3, r2
 8004626:	d901      	bls.n	800462c <HAL_RCC_OscConfig+0x3c0>
        {
          return HAL_TIMEOUT;
 8004628:	2303      	movs	r3, #3
 800462a:	e09b      	b.n	8004764 <HAL_RCC_OscConfig+0x4f8>
      while (__HAL_RCC_GET_FLAG(RCC_FLAG_LSERDY) != RESET)
 800462c:	4b40      	ldr	r3, [pc, #256]	@ (8004730 <HAL_RCC_OscConfig+0x4c4>)
 800462e:	6a1b      	ldr	r3, [r3, #32]
 8004630:	f003 0302 	and.w	r3, r3, #2
 8004634:	2b00      	cmp	r3, #0
 8004636:	d1ee      	bne.n	8004616 <HAL_RCC_OscConfig+0x3aa>
        }
      }
    }

    /* Require to disable power clock if necessary */
    if (pwrclkchanged == SET)
 8004638:	7dfb      	ldrb	r3, [r7, #23]
 800463a:	2b01      	cmp	r3, #1
 800463c:	d105      	bne.n	800464a <HAL_RCC_OscConfig+0x3de>
    {
      __HAL_RCC_PWR_CLK_DISABLE();
 800463e:	4b3c      	ldr	r3, [pc, #240]	@ (8004730 <HAL_RCC_OscConfig+0x4c4>)
 8004640:	69db      	ldr	r3, [r3, #28]
 8004642:	4a3b      	ldr	r2, [pc, #236]	@ (8004730 <HAL_RCC_OscConfig+0x4c4>)
 8004644:	f023 5380 	bic.w	r3, r3, #268435456	@ 0x10000000
 8004648:	61d3      	str	r3, [r2, #28]

#endif /* RCC_CR_PLL2ON */
  /*-------------------------------- PLL Configuration -----------------------*/
  /* Check the parameters */
  assert_param(IS_RCC_PLL(RCC_OscInitStruct->PLL.PLLState));
  if ((RCC_OscInitStruct->PLL.PLLState) != RCC_PLL_NONE)
 800464a:	687b      	ldr	r3, [r7, #4]
 800464c:	69db      	ldr	r3, [r3, #28]
 800464e:	2b00      	cmp	r3, #0
 8004650:	f000 8087 	beq.w	8004762 <HAL_RCC_OscConfig+0x4f6>
  {
    /* Check if the PLL is used as system clock or not */
    if (__HAL_RCC_GET_SYSCLK_SOURCE() != RCC_SYSCLKSOURCE_STATUS_PLLCLK)
 8004654:	4b36      	ldr	r3, [pc, #216]	@ (8004730 <HAL_RCC_OscConfig+0x4c4>)
 8004656:	685b      	ldr	r3, [r3, #4]
 8004658:	f003 030c 	and.w	r3, r3, #12
 800465c:	2b08      	cmp	r3, #8
 800465e:	d061      	beq.n	8004724 <HAL_RCC_OscConfig+0x4b8>
    {
      if ((RCC_OscInitStruct->PLL.PLLState) == RCC_PLL_ON)
 8004660:	687b      	ldr	r3, [r7, #4]
 8004662:	69db      	ldr	r3, [r3, #28]
 8004664:	2b02      	cmp	r3, #2
 8004666:	d146      	bne.n	80046f6 <HAL_RCC_OscConfig+0x48a>
        /* Check the parameters */
        assert_param(IS_RCC_PLLSOURCE(RCC_OscInitStruct->PLL.PLLSource));
        assert_param(IS_RCC_PLL_MUL(RCC_OscInitStruct->PLL.PLLMUL));

        /* Disable the main PLL. */
        __HAL_RCC_PLL_DISABLE();
 8004668:	4b33      	ldr	r3, [pc, #204]	@ (8004738 <HAL_RCC_OscConfig+0x4cc>)
 800466a:	2200      	movs	r2, #0
 800466c:	601a      	str	r2, [r3, #0]

        /* Get Start Tick */
        tickstart = HAL_GetTick();
 800466e:	f7fe faef 	bl	8002c50 <HAL_GetTick>
 8004672:	6138      	str	r0, [r7, #16]

        /* Wait till PLL is disabled */
        while (__HAL_RCC_GET_FLAG(RCC_FLAG_PLLRDY)  != RESET)
 8004674:	e008      	b.n	8004688 <HAL_RCC_OscConfig+0x41c>
        {
          if ((HAL_GetTick() - tickstart) > PLL_TIMEOUT_VALUE)
 8004676:	f7fe faeb 	bl	8002c50 <HAL_GetTick>
 800467a:	4602      	mov	r2, r0
 800467c:	693b      	ldr	r3, [r7, #16]
 800467e:	1ad3      	subs	r3, r2, r3
 8004680:	2b02      	cmp	r3, #2
 8004682:	d901      	bls.n	8004688 <HAL_RCC_OscConfig+0x41c>
          {
            return HAL_TIMEOUT;
 8004684:	2303      	movs	r3, #3
 8004686:	e06d      	b.n	8004764 <HAL_RCC_OscConfig+0x4f8>
        while (__HAL_RCC_GET_FLAG(RCC_FLAG_PLLRDY)  != RESET)
 8004688:	4b29      	ldr	r3, [pc, #164]	@ (8004730 <HAL_RCC_OscConfig+0x4c4>)
 800468a:	681b      	ldr	r3, [r3, #0]
 800468c:	f003 7300 	and.w	r3, r3, #33554432	@ 0x2000000
 8004690:	2b00      	cmp	r3, #0
 8004692:	d1f0      	bne.n	8004676 <HAL_RCC_OscConfig+0x40a>
          }
        }

        /* Configure the HSE prediv factor --------------------------------*/
        /* It can be written only when the PLL is disabled. Not used in PLL source is different than HSE */
        if (RCC_OscInitStruct->PLL.PLLSource == RCC_PLLSOURCE_HSE)
 8004694:	687b      	ldr	r3, [r7, #4]
 8004696:	6a1b      	ldr	r3, [r3, #32]
 8004698:	f5b3 3f80 	cmp.w	r3, #65536	@ 0x10000
 800469c:	d108      	bne.n	80046b0 <HAL_RCC_OscConfig+0x444>
          /* Set PREDIV1 source */
          SET_BIT(RCC->CFGR2, RCC_OscInitStruct->Prediv1Source);
#endif /* RCC_CFGR2_PREDIV1SRC */

          /* Set PREDIV1 Value */
          __HAL_RCC_HSE_PREDIV_CONFIG(RCC_OscInitStruct->HSEPredivValue);
 800469e:	4b24      	ldr	r3, [pc, #144]	@ (8004730 <HAL_RCC_OscConfig+0x4c4>)
 80046a0:	685b      	ldr	r3, [r3, #4]
 80046a2:	f423 3200 	bic.w	r2, r3, #131072	@ 0x20000
 80046a6:	687b      	ldr	r3, [r7, #4]
 80046a8:	689b      	ldr	r3, [r3, #8]
 80046aa:	4921      	ldr	r1, [pc, #132]	@ (8004730 <HAL_RCC_OscConfig+0x4c4>)
 80046ac:	4313      	orrs	r3, r2
 80046ae:	604b      	str	r3, [r1, #4]
        }

        /* Configure the main PLL clock source and multiplication factors. */
        __HAL_RCC_PLL_CONFIG(RCC_OscInitStruct->PLL.PLLSource,
 80046b0:	4b1f      	ldr	r3, [pc, #124]	@ (8004730 <HAL_RCC_OscConfig+0x4c4>)
 80046b2:	685b      	ldr	r3, [r3, #4]
 80046b4:	f423 1274 	bic.w	r2, r3, #3997696	@ 0x3d0000
 80046b8:	687b      	ldr	r3, [r7, #4]
 80046ba:	6a19      	ldr	r1, [r3, #32]
 80046bc:	687b      	ldr	r3, [r7, #4]
 80046be:	6a5b      	ldr	r3, [r3, #36]	@ 0x24
 80046c0:	430b      	orrs	r3, r1
 80046c2:	491b      	ldr	r1, [pc, #108]	@ (8004730 <HAL_RCC_OscConfig+0x4c4>)
 80046c4:	4313      	orrs	r3, r2
 80046c6:	604b      	str	r3, [r1, #4]
                             RCC_OscInitStruct->PLL.PLLMUL);
        /* Enable the main PLL. */
        __HAL_RCC_PLL_ENABLE();
 80046c8:	4b1b      	ldr	r3, [pc, #108]	@ (8004738 <HAL_RCC_OscConfig+0x4cc>)
 80046ca:	2201      	movs	r2, #1
 80046cc:	601a      	str	r2, [r3, #0]

        /* Get Start Tick */
        tickstart = HAL_GetTick();
 80046ce:	f7fe fabf 	bl	8002c50 <HAL_GetTick>
 80046d2:	6138      	str	r0, [r7, #16]

        /* Wait till PLL is ready */
        while (__HAL_RCC_GET_FLAG(RCC_FLAG_PLLRDY)  == RESET)
 80046d4:	e008      	b.n	80046e8 <HAL_RCC_OscConfig+0x47c>
        {
          if ((HAL_GetTick() - tickstart) > PLL_TIMEOUT_VALUE)
 80046d6:	f7fe fabb 	bl	8002c50 <HAL_GetTick>
 80046da:	4602      	mov	r2, r0
 80046dc:	693b      	ldr	r3, [r7, #16]
 80046de:	1ad3      	subs	r3, r2, r3
 80046e0:	2b02      	cmp	r3, #2
 80046e2:	d901      	bls.n	80046e8 <HAL_RCC_OscConfig+0x47c>
          {
            return HAL_TIMEOUT;
 80046e4:	2303      	movs	r3, #3
 80046e6:	e03d      	b.n	8004764 <HAL_RCC_OscConfig+0x4f8>
        while (__HAL_RCC_GET_FLAG(RCC_FLAG_PLLRDY)  == RESET)
 80046e8:	4b11      	ldr	r3, [pc, #68]	@ (8004730 <HAL_RCC_OscConfig+0x4c4>)
 80046ea:	681b      	ldr	r3, [r3, #0]
 80046ec:	f003 7300 	and.w	r3, r3, #33554432	@ 0x2000000
 80046f0:	2b00      	cmp	r3, #0
 80046f2:	d0f0      	beq.n	80046d6 <HAL_RCC_OscConfig+0x46a>
 80046f4:	e035      	b.n	8004762 <HAL_RCC_OscConfig+0x4f6>
        }
      }
      else
      {
        /* Disable the main PLL. */
        __HAL_RCC_PLL_DISABLE();
 80046f6:	4b10      	ldr	r3, [pc, #64]	@ (8004738 <HAL_RCC_OscConfig+0x4cc>)
 80046f8:	2200      	movs	r2, #0
 80046fa:	601a      	str	r2, [r3, #0]

        /* Get Start Tick */
        tickstart = HAL_GetTick();
 80046fc:	f7fe faa8 	bl	8002c50 <HAL_GetTick>
 8004700:	6138      	str	r0, [r7, #16]

        /* Wait till PLL is disabled */
        while (__HAL_RCC_GET_FLAG(RCC_FLAG_PLLRDY)  != RESET)
 8004702:	e008      	b.n	8004716 <HAL_RCC_OscConfig+0x4aa>
        {
          if ((HAL_GetTick() - tickstart) > PLL_TIMEOUT_VALUE)
 8004704:	f7fe faa4 	bl	8002c50 <HAL_GetTick>
 8004708:	4602      	mov	r2, r0
 800470a:	693b      	ldr	r3, [r7, #16]
 800470c:	1ad3      	subs	r3, r2, r3
 800470e:	2b02      	cmp	r3, #2
 8004710:	d901      	bls.n	8004716 <HAL_RCC_OscConfig+0x4aa>
          {
            return HAL_TIMEOUT;
 8004712:	2303      	movs	r3, #3
 8004714:	e026      	b.n	8004764 <HAL_RCC_OscConfig+0x4f8>
        while (__HAL_RCC_GET_FLAG(RCC_FLAG_PLLRDY)  != RESET)
 8004716:	4b06      	ldr	r3, [pc, #24]	@ (8004730 <HAL_RCC_OscConfig+0x4c4>)
 8004718:	681b      	ldr	r3, [r3, #0]
 800471a:	f003 7300 	and.w	r3, r3, #33554432	@ 0x2000000
 800471e:	2b00      	cmp	r3, #0
 8004720:	d1f0      	bne.n	8004704 <HAL_RCC_OscConfig+0x498>
 8004722:	e01e      	b.n	8004762 <HAL_RCC_OscConfig+0x4f6>
      }
    }
    else
    {
      /* Check if there is a request to disable the PLL used as System clock source */
      if ((RCC_OscInitStruct->PLL.PLLState) == RCC_PLL_OFF)
 8004724:	687b      	ldr	r3, [r7, #4]
 8004726:	69db      	ldr	r3, [r3, #28]
 8004728:	2b01      	cmp	r3, #1
 800472a:	d107      	bne.n	800473c <HAL_RCC_OscConfig+0x4d0>
      {
        return HAL_ERROR;
 800472c:	2301      	movs	r3, #1
 800472e:	e019      	b.n	8004764 <HAL_RCC_OscConfig+0x4f8>
 8004730:	40021000 	.word	0x40021000
 8004734:	40007000 	.word	0x40007000
 8004738:	42420060 	.word	0x42420060
      }
      else
      {
        /* Do not return HAL_ERROR if request repeats the current configuration */
        pll_config = RCC->CFGR;
 800473c:	4b0b      	ldr	r3, [pc, #44]	@ (800476c <HAL_RCC_OscConfig+0x500>)
 800473e:	685b      	ldr	r3, [r3, #4]
 8004740:	60fb      	str	r3, [r7, #12]
        if ((READ_BIT(pll_config, RCC_CFGR_PLLSRC) != RCC_OscInitStruct->PLL.PLLSource) ||
 8004742:	68fb      	ldr	r3, [r7, #12]
 8004744:	f403 3280 	and.w	r2, r3, #65536	@ 0x10000
 8004748:	687b      	ldr	r3, [r7, #4]
 800474a:	6a1b      	ldr	r3, [r3, #32]
 800474c:	429a      	cmp	r2, r3
 800474e:	d106      	bne.n	800475e <HAL_RCC_OscConfig+0x4f2>
            (READ_BIT(pll_config, RCC_CFGR_PLLMULL) != RCC_OscInitStruct->PLL.PLLMUL))
 8004750:	68fb      	ldr	r3, [r7, #12]
 8004752:	f403 1270 	and.w	r2, r3, #3932160	@ 0x3c0000
 8004756:	687b      	ldr	r3, [r7, #4]
 8004758:	6a5b      	ldr	r3, [r3, #36]	@ 0x24
        if ((READ_BIT(pll_config, RCC_CFGR_PLLSRC) != RCC_OscInitStruct->PLL.PLLSource) ||
 800475a:	429a      	cmp	r2, r3
 800475c:	d001      	beq.n	8004762 <HAL_RCC_OscConfig+0x4f6>
        {
          return HAL_ERROR;
 800475e:	2301      	movs	r3, #1
 8004760:	e000      	b.n	8004764 <HAL_RCC_OscConfig+0x4f8>
        }
      }
    }
  }

  return HAL_OK;
 8004762:	2300      	movs	r3, #0
}
 8004764:	4618      	mov	r0, r3
 8004766:	3718      	adds	r7, #24
 8004768:	46bd      	mov	sp, r7
 800476a:	bd80      	pop	{r7, pc}
 800476c:	40021000 	.word	0x40021000

08004770 <HAL_RCC_ClockConfig>:
  *         You can use @ref HAL_RCC_GetClockConfig() function to know which clock is
  *         currently used as system clock source.
  * @retval HAL status
  */
HAL_StatusTypeDef HAL_RCC_ClockConfig(RCC_ClkInitTypeDef  *RCC_ClkInitStruct, uint32_t FLatency)
{
 8004770:	b580      	push	{r7, lr}
 8004772:	b084      	sub	sp, #16
 8004774:	af00      	add	r7, sp, #0
 8004776:	6078      	str	r0, [r7, #4]
 8004778:	6039      	str	r1, [r7, #0]
  uint32_t tickstart;

  /* Check Null pointer */
  if (RCC_ClkInitStruct == NULL)
 800477a:	687b      	ldr	r3, [r7, #4]
 800477c:	2b00      	cmp	r3, #0
 800477e:	d101      	bne.n	8004784 <HAL_RCC_ClockConfig+0x14>
  {
    return HAL_ERROR;
 8004780:	2301      	movs	r3, #1
 8004782:	e0d0      	b.n	8004926 <HAL_RCC_ClockConfig+0x1b6>
  must be correctly programmed according to the frequency of the CPU clock
    (HCLK) of the device. */

#if defined(FLASH_ACR_LATENCY)
  /* Increasing the number of wait states because of higher CPU frequency */
  if (FLatency > __HAL_FLASH_GET_LATENCY())
 8004784:	4b6a      	ldr	r3, [pc, #424]	@ (8004930 <HAL_RCC_ClockConfig+0x1c0>)
 8004786:	681b      	ldr	r3, [r3, #0]
 8004788:	f003 0307 	and.w	r3, r3, #7
 800478c:	683a      	ldr	r2, [r7, #0]
 800478e:	429a      	cmp	r2, r3
 8004790:	d910      	bls.n	80047b4 <HAL_RCC_ClockConfig+0x44>
  {
    /* Program the new number of wait states to the LATENCY bits in the FLASH_ACR register */
    __HAL_FLASH_SET_LATENCY(FLatency);
 8004792:	4b67      	ldr	r3, [pc, #412]	@ (8004930 <HAL_RCC_ClockConfig+0x1c0>)
 8004794:	681b      	ldr	r3, [r3, #0]
 8004796:	f023 0207 	bic.w	r2, r3, #7
 800479a:	4965      	ldr	r1, [pc, #404]	@ (8004930 <HAL_RCC_ClockConfig+0x1c0>)
 800479c:	683b      	ldr	r3, [r7, #0]
 800479e:	4313      	orrs	r3, r2
 80047a0:	600b      	str	r3, [r1, #0]

    /* Check that the new number of wait states is taken into account to access the Flash
    memory by reading the FLASH_ACR register */
    if (__HAL_FLASH_GET_LATENCY() != FLatency)
 80047a2:	4b63      	ldr	r3, [pc, #396]	@ (8004930 <HAL_RCC_ClockConfig+0x1c0>)
 80047a4:	681b      	ldr	r3, [r3, #0]
 80047a6:	f003 0307 	and.w	r3, r3, #7
 80047aa:	683a      	ldr	r2, [r7, #0]
 80047ac:	429a      	cmp	r2, r3
 80047ae:	d001      	beq.n	80047b4 <HAL_RCC_ClockConfig+0x44>
  {
    return HAL_ERROR;
 80047b0:	2301      	movs	r3, #1
 80047b2:	e0b8      	b.n	8004926 <HAL_RCC_ClockConfig+0x1b6>
  }
}

#endif /* FLASH_ACR_LATENCY */
/*-------------------------- HCLK Configuration --------------------------*/
if (((RCC_ClkInitStruct->ClockType) & RCC_CLOCKTYPE_HCLK) == RCC_CLOCKTYPE_HCLK)
 80047b4:	687b      	ldr	r3, [r7, #4]
 80047b6:	681b      	ldr	r3, [r3, #0]
 80047b8:	f003 0302 	and.w	r3, r3, #2
 80047bc:	2b00      	cmp	r3, #0
 80047be:	d020      	beq.n	8004802 <HAL_RCC_ClockConfig+0x92>
  {
    /* Set the highest APBx dividers in order to ensure that we do not go through
    a non-spec phase whatever we decrease or increase HCLK. */
    if (((RCC_ClkInitStruct->ClockType) & RCC_CLOCKTYPE_PCLK1) == RCC_CLOCKTYPE_PCLK1)
 80047c0:	687b      	ldr	r3, [r7, #4]
 80047c2:	681b      	ldr	r3, [r3, #0]
 80047c4:	f003 0304 	and.w	r3, r3, #4
 80047c8:	2b00      	cmp	r3, #0
 80047ca:	d005      	beq.n	80047d8 <HAL_RCC_ClockConfig+0x68>
    {
      MODIFY_REG(RCC->CFGR, RCC_CFGR_PPRE1, RCC_HCLK_DIV16);
 80047cc:	4b59      	ldr	r3, [pc, #356]	@ (8004934 <HAL_RCC_ClockConfig+0x1c4>)
 80047ce:	685b      	ldr	r3, [r3, #4]
 80047d0:	4a58      	ldr	r2, [pc, #352]	@ (8004934 <HAL_RCC_ClockConfig+0x1c4>)
 80047d2:	f443 63e0 	orr.w	r3, r3, #1792	@ 0x700
 80047d6:	6053      	str	r3, [r2, #4]
    }

    if (((RCC_ClkInitStruct->ClockType) & RCC_CLOCKTYPE_PCLK2) == RCC_CLOCKTYPE_PCLK2)
 80047d8:	687b      	ldr	r3, [r7, #4]
 80047da:	681b      	ldr	r3, [r3, #0]
 80047dc:	f003 0308 	and.w	r3, r3, #8
 80047e0:	2b00      	cmp	r3, #0
 80047e2:	d005      	beq.n	80047f0 <HAL_RCC_ClockConfig+0x80>
    {
      MODIFY_REG(RCC->CFGR, RCC_CFGR_PPRE2, (RCC_HCLK_DIV16 << 3));
 80047e4:	4b53      	ldr	r3, [pc, #332]	@ (8004934 <HAL_RCC_ClockConfig+0x1c4>)
 80047e6:	685b      	ldr	r3, [r3, #4]
 80047e8:	4a52      	ldr	r2, [pc, #328]	@ (8004934 <HAL_RCC_ClockConfig+0x1c4>)
 80047ea:	f443 5360 	orr.w	r3, r3, #14336	@ 0x3800
 80047ee:	6053      	str	r3, [r2, #4]
    }

    /* Set the new HCLK clock divider */
    assert_param(IS_RCC_HCLK(RCC_ClkInitStruct->AHBCLKDivider));
    MODIFY_REG(RCC->CFGR, RCC_CFGR_HPRE, RCC_ClkInitStruct->AHBCLKDivider);
 80047f0:	4b50      	ldr	r3, [pc, #320]	@ (8004934 <HAL_RCC_ClockConfig+0x1c4>)
 80047f2:	685b      	ldr	r3, [r3, #4]
 80047f4:	f023 02f0 	bic.w	r2, r3, #240	@ 0xf0
 80047f8:	687b      	ldr	r3, [r7, #4]
 80047fa:	689b      	ldr	r3, [r3, #8]
 80047fc:	494d      	ldr	r1, [pc, #308]	@ (8004934 <HAL_RCC_ClockConfig+0x1c4>)
 80047fe:	4313      	orrs	r3, r2
 8004800:	604b      	str	r3, [r1, #4]
  }

  /*------------------------- SYSCLK Configuration ---------------------------*/
  if (((RCC_ClkInitStruct->ClockType) & RCC_CLOCKTYPE_SYSCLK) == RCC_CLOCKTYPE_SYSCLK)
 8004802:	687b      	ldr	r3, [r7, #4]
 8004804:	681b      	ldr	r3, [r3, #0]
 8004806:	f003 0301 	and.w	r3, r3, #1
 800480a:	2b00      	cmp	r3, #0
 800480c:	d040      	beq.n	8004890 <HAL_RCC_ClockConfig+0x120>
  {
    assert_param(IS_RCC_SYSCLKSOURCE(RCC_ClkInitStruct->SYSCLKSource));

    /* HSE is selected as System Clock Source */
    if (RCC_ClkInitStruct->SYSCLKSource == RCC_SYSCLKSOURCE_HSE)
 800480e:	687b      	ldr	r3, [r7, #4]
 8004810:	685b      	ldr	r3, [r3, #4]
 8004812:	2b01      	cmp	r3, #1
 8004814:	d107      	bne.n	8004826 <HAL_RCC_ClockConfig+0xb6>
    {
      /* Check the HSE ready flag */
      if (__HAL_RCC_GET_FLAG(RCC_FLAG_HSERDY) == RESET)
 8004816:	4b47      	ldr	r3, [pc, #284]	@ (8004934 <HAL_RCC_ClockConfig+0x1c4>)
 8004818:	681b      	ldr	r3, [r3, #0]
 800481a:	f403 3300 	and.w	r3, r3, #131072	@ 0x20000
 800481e:	2b00      	cmp	r3, #0
 8004820:	d115      	bne.n	800484e <HAL_RCC_ClockConfig+0xde>
      {
        return HAL_ERROR;
 8004822:	2301      	movs	r3, #1
 8004824:	e07f      	b.n	8004926 <HAL_RCC_ClockConfig+0x1b6>
      }
    }
    /* PLL is selected as System Clock Source */
    else if (RCC_ClkInitStruct->SYSCLKSource == RCC_SYSCLKSOURCE_PLLCLK)
 8004826:	687b      	ldr	r3, [r7, #4]
 8004828:	685b      	ldr	r3, [r3, #4]
 800482a:	2b02      	cmp	r3, #2
 800482c:	d107      	bne.n	800483e <HAL_RCC_ClockConfig+0xce>
    {
      /* Check the PLL ready flag */
      if (__HAL_RCC_GET_FLAG(RCC_FLAG_PLLRDY) == RESET)
 800482e:	4b41      	ldr	r3, [pc, #260]	@ (8004934 <HAL_RCC_ClockConfig+0x1c4>)
 8004830:	681b      	ldr	r3, [r3, #0]
 8004832:	f003 7300 	and.w	r3, r3, #33554432	@ 0x2000000
 8004836:	2b00      	cmp	r3, #0
 8004838:	d109      	bne.n	800484e <HAL_RCC_ClockConfig+0xde>
      {
        return HAL_ERROR;
 800483a:	2301      	movs	r3, #1
 800483c:	e073      	b.n	8004926 <HAL_RCC_ClockConfig+0x1b6>
    }
    /* HSI is selected as System Clock Source */
    else
    {
      /* Check the HSI ready flag */
      if (__HAL_RCC_GET_FLAG(RCC_FLAG_HSIRDY) == RESET)
 800483e:	4b3d      	ldr	r3, [pc, #244]	@ (8004934 <HAL_RCC_ClockConfig+0x1c4>)
 8004840:	681b      	ldr	r3, [r3, #0]
 8004842:	f003 0302 	and.w	r3, r3, #2
 8004846:	2b00      	cmp	r3, #0
 8004848:	d101      	bne.n	800484e <HAL_RCC_ClockConfig+0xde>
      {
        return HAL_ERROR;
 800484a:	2301      	movs	r3, #1
 800484c:	e06b      	b.n	8004926 <HAL_RCC_ClockConfig+0x1b6>
      }
    }
    __HAL_RCC_SYSCLK_CONFIG(RCC_ClkInitStruct->SYSCLKSource);
 800484e:	4b39      	ldr	r3, [pc, #228]	@ (8004934 <HAL_RCC_ClockConfig+0x1c4>)
 8004850:	685b      	ldr	r3, [r3, #4]
 8004852:	f023 0203 	bic.w	r2, r3, #3
 8004856:	687b      	ldr	r3, [r7, #4]
 8004858:	685b      	ldr	r3, [r3, #4]
 800485a:	4936      	ldr	r1, [pc, #216]	@ (8004934 <HAL_RCC_ClockConfig+0x1c4>)
 800485c:	4313      	orrs	r3, r2
 800485e:	604b      	str	r3, [r1, #4]

    /* Get Start Tick */
    tickstart = HAL_GetTick();
 8004860:	f7fe f9f6 	bl	8002c50 <HAL_GetTick>
 8004864:	60f8      	str	r0, [r7, #12]

    while (__HAL_RCC_GET_SYSCLK_SOURCE() != (RCC_ClkInitStruct->SYSCLKSource << RCC_CFGR_SWS_Pos))
 8004866:	e00a      	b.n	800487e <HAL_RCC_ClockConfig+0x10e>
    {
      if ((HAL_GetTick() - tickstart) > CLOCKSWITCH_TIMEOUT_VALUE)
 8004868:	f7fe f9f2 	bl	8002c50 <HAL_GetTick>
 800486c:	4602      	mov	r2, r0
 800486e:	68fb      	ldr	r3, [r7, #12]
 8004870:	1ad3      	subs	r3, r2, r3
 8004872:	f241 3288 	movw	r2, #5000	@ 0x1388
 8004876:	4293      	cmp	r3, r2
 8004878:	d901      	bls.n	800487e <HAL_RCC_ClockConfig+0x10e>
      {
        return HAL_TIMEOUT;
 800487a:	2303      	movs	r3, #3
 800487c:	e053      	b.n	8004926 <HAL_RCC_ClockConfig+0x1b6>
    while (__HAL_RCC_GET_SYSCLK_SOURCE() != (RCC_ClkInitStruct->SYSCLKSource << RCC_CFGR_SWS_Pos))
 800487e:	4b2d      	ldr	r3, [pc, #180]	@ (8004934 <HAL_RCC_ClockConfig+0x1c4>)
 8004880:	685b      	ldr	r3, [r3, #4]
 8004882:	f003 020c 	and.w	r2, r3, #12
 8004886:	687b      	ldr	r3, [r7, #4]
 8004888:	685b      	ldr	r3, [r3, #4]
 800488a:	009b      	lsls	r3, r3, #2
 800488c:	429a      	cmp	r2, r3
 800488e:	d1eb      	bne.n	8004868 <HAL_RCC_ClockConfig+0xf8>
    }
  }

#if defined(FLASH_ACR_LATENCY)
  /* Decreasing the number of wait states because of lower CPU frequency */
  if (FLatency < __HAL_FLASH_GET_LATENCY())
 8004890:	4b27      	ldr	r3, [pc, #156]	@ (8004930 <HAL_RCC_ClockConfig+0x1c0>)
 8004892:	681b      	ldr	r3, [r3, #0]
 8004894:	f003 0307 	and.w	r3, r3, #7
 8004898:	683a      	ldr	r2, [r7, #0]
 800489a:	429a      	cmp	r2, r3
 800489c:	d210      	bcs.n	80048c0 <HAL_RCC_ClockConfig+0x150>
  {
    /* Program the new number of wait states to the LATENCY bits in the FLASH_ACR register */
    __HAL_FLASH_SET_LATENCY(FLatency);
 800489e:	4b24      	ldr	r3, [pc, #144]	@ (8004930 <HAL_RCC_ClockConfig+0x1c0>)
 80048a0:	681b      	ldr	r3, [r3, #0]
 80048a2:	f023 0207 	bic.w	r2, r3, #7
 80048a6:	4922      	ldr	r1, [pc, #136]	@ (8004930 <HAL_RCC_ClockConfig+0x1c0>)
 80048a8:	683b      	ldr	r3, [r7, #0]
 80048aa:	4313      	orrs	r3, r2
 80048ac:	600b      	str	r3, [r1, #0]

    /* Check that the new number of wait states is taken into account to access the Flash
    memory by reading the FLASH_ACR register */
    if (__HAL_FLASH_GET_LATENCY() != FLatency)
 80048ae:	4b20      	ldr	r3, [pc, #128]	@ (8004930 <HAL_RCC_ClockConfig+0x1c0>)
 80048b0:	681b      	ldr	r3, [r3, #0]
 80048b2:	f003 0307 	and.w	r3, r3, #7
 80048b6:	683a      	ldr	r2, [r7, #0]
 80048b8:	429a      	cmp	r2, r3
 80048ba:	d001      	beq.n	80048c0 <HAL_RCC_ClockConfig+0x150>
  {
    return HAL_ERROR;
 80048bc:	2301      	movs	r3, #1
 80048be:	e032      	b.n	8004926 <HAL_RCC_ClockConfig+0x1b6>
  }
}
#endif /* FLASH_ACR_LATENCY */

/*-------------------------- PCLK1 Configuration ---------------------------*/
if (((RCC_ClkInitStruct->ClockType) & RCC_CLOCKTYPE_PCLK1) == RCC_CLOCKTYPE_PCLK1)
 80048c0:	687b      	ldr	r3, [r7, #4]
 80048c2:	681b      	ldr	r3, [r3, #0]
 80048c4:	f003 0304 	and.w	r3, r3, #4
 80048c8:	2b00      	cmp	r3, #0
 80048ca:	d008      	beq.n	80048de <HAL_RCC_ClockConfig+0x16e>
  {
    assert_param(IS_RCC_PCLK(RCC_ClkInitStruct->APB1CLKDivider));
    MODIFY_REG(RCC->CFGR, RCC_CFGR_PPRE1, RCC_ClkInitStruct->APB1CLKDivider);
 80048cc:	4b19      	ldr	r3, [pc, #100]	@ (8004934 <HAL_RCC_ClockConfig+0x1c4>)
 80048ce:	685b      	ldr	r3, [r3, #4]
 80048d0:	f423 62e0 	bic.w	r2, r3, #1792	@ 0x700
 80048d4:	687b      	ldr	r3, [r7, #4]
 80048d6:	68db      	ldr	r3, [r3, #12]
 80048d8:	4916      	ldr	r1, [pc, #88]	@ (8004934 <HAL_RCC_ClockConfig+0x1c4>)
 80048da:	4313      	orrs	r3, r2
 80048dc:	604b      	str	r3, [r1, #4]
  }

  /*-------------------------- PCLK2 Configuration ---------------------------*/
  if (((RCC_ClkInitStruct->ClockType) & RCC_CLOCKTYPE_PCLK2) == RCC_CLOCKTYPE_PCLK2)
 80048de:	687b      	ldr	r3, [r7, #4]
 80048e0:	681b      	ldr	r3, [r3, #0]
 80048e2:	f003 0308 	and.w	r3, r3, #8
 80048e6:	2b00      	cmp	r3, #0
 80048e8:	d009      	beq.n	80048fe <HAL_RCC_ClockConfig+0x18e>
  {
    assert_param(IS_RCC_PCLK(RCC_ClkInitStruct->APB2CLKDivider));
    MODIFY_REG(RCC->CFGR, RCC_CFGR_PPRE2, ((RCC_ClkInitStruct->APB2CLKDivider) << 3));
 80048ea:	4b12      	ldr	r3, [pc, #72]	@ (8004934 <HAL_RCC_ClockConfig+0x1c4>)
 80048ec:	685b      	ldr	r3, [r3, #4]
 80048ee:	f423 5260 	bic.w	r2, r3, #14336	@ 0x3800
 80048f2:	687b      	ldr	r3, [r7, #4]
 80048f4:	691b      	ldr	r3, [r3, #16]
 80048f6:	00db      	lsls	r3, r3, #3
 80048f8:	490e      	ldr	r1, [pc, #56]	@ (8004934 <HAL_RCC_ClockConfig+0x1c4>)
 80048fa:	4313      	orrs	r3, r2
 80048fc:	604b      	str	r3, [r1, #4]
  }

  /* Update the SystemCoreClock global variable */
  SystemCoreClock = HAL_RCC_GetSysClockFreq() >> AHBPrescTable[(RCC->CFGR & RCC_CFGR_HPRE) >> RCC_CFGR_HPRE_Pos];
 80048fe:	f000 f821 	bl	8004944 <HAL_RCC_GetSysClockFreq>
 8004902:	4602      	mov	r2, r0
 8004904:	4b0b      	ldr	r3, [pc, #44]	@ (8004934 <HAL_RCC_ClockConfig+0x1c4>)
 8004906:	685b      	ldr	r3, [r3, #4]
 8004908:	091b      	lsrs	r3, r3, #4
 800490a:	f003 030f 	and.w	r3, r3, #15
 800490e:	490a      	ldr	r1, [pc, #40]	@ (8004938 <HAL_RCC_ClockConfig+0x1c8>)
 8004910:	5ccb      	ldrb	r3, [r1, r3]
 8004912:	fa22 f303 	lsr.w	r3, r2, r3
 8004916:	4a09      	ldr	r2, [pc, #36]	@ (800493c <HAL_RCC_ClockConfig+0x1cc>)
 8004918:	6013      	str	r3, [r2, #0]

  /* Configure the source of time base considering new system clocks settings*/
  HAL_InitTick(uwTickPrio);
 800491a:	4b09      	ldr	r3, [pc, #36]	@ (8004940 <HAL_RCC_ClockConfig+0x1d0>)
 800491c:	681b      	ldr	r3, [r3, #0]
 800491e:	4618      	mov	r0, r3
 8004920:	f7fe f954 	bl	8002bcc <HAL_InitTick>

  return HAL_OK;
 8004924:	2300      	movs	r3, #0
}
 8004926:	4618      	mov	r0, r3
 8004928:	3710      	adds	r7, #16
 800492a:	46bd      	mov	sp, r7
 800492c:	bd80      	pop	{r7, pc}
 800492e:	bf00      	nop
 8004930:	40022000 	.word	0x40022000
 8004934:	40021000 	.word	0x40021000
 8004938:	08006250 	.word	0x08006250
 800493c:	20000090 	.word	0x20000090
 8004940:	20000094 	.word	0x20000094

08004944 <HAL_RCC_GetSysClockFreq>:
  *         right SYSCLK value. Otherwise, any configuration based on this function will be incorrect.
  *
  * @retval SYSCLK frequency
  */
uint32_t HAL_RCC_GetSysClockFreq(void)
{
 8004944:	b480      	push	{r7}
 8004946:	b087      	sub	sp, #28
 8004948:	af00      	add	r7, sp, #0
#else
  static const uint8_t aPredivFactorTable[2U] = {1, 2};
#endif /*RCC_CFGR2_PREDIV1*/

#endif
  uint32_t tmpreg = 0U, prediv = 0U, pllclk = 0U, pllmul = 0U;
 800494a:	2300      	movs	r3, #0
 800494c:	60fb      	str	r3, [r7, #12]
 800494e:	2300      	movs	r3, #0
 8004950:	60bb      	str	r3, [r7, #8]
 8004952:	2300      	movs	r3, #0
 8004954:	617b      	str	r3, [r7, #20]
 8004956:	2300      	movs	r3, #0
 8004958:	607b      	str	r3, [r7, #4]
  uint32_t sysclockfreq = 0U;
 800495a:	2300      	movs	r3, #0
 800495c:	613b      	str	r3, [r7, #16]
#if defined(RCC_CFGR2_PREDIV1SRC)
  uint32_t prediv2 = 0U, pll2mul = 0U;
#endif /*RCC_CFGR2_PREDIV1SRC*/

  tmpreg = RCC->CFGR;
 800495e:	4b1e      	ldr	r3, [pc, #120]	@ (80049d8 <HAL_RCC_GetSysClockFreq+0x94>)
 8004960:	685b      	ldr	r3, [r3, #4]
 8004962:	60fb      	str	r3, [r7, #12]

  /* Get SYSCLK source -------------------------------------------------------*/
  switch (tmpreg & RCC_CFGR_SWS)
 8004964:	68fb      	ldr	r3, [r7, #12]
 8004966:	f003 030c 	and.w	r3, r3, #12
 800496a:	2b04      	cmp	r3, #4
 800496c:	d002      	beq.n	8004974 <HAL_RCC_GetSysClockFreq+0x30>
 800496e:	2b08      	cmp	r3, #8
 8004970:	d003      	beq.n	800497a <HAL_RCC_GetSysClockFreq+0x36>
 8004972:	e027      	b.n	80049c4 <HAL_RCC_GetSysClockFreq+0x80>
  {
    case RCC_SYSCLKSOURCE_STATUS_HSE:  /* HSE used as system clock */
    {
      sysclockfreq = HSE_VALUE;
 8004974:	4b19      	ldr	r3, [pc, #100]	@ (80049dc <HAL_RCC_GetSysClockFreq+0x98>)
 8004976:	613b      	str	r3, [r7, #16]
      break;
 8004978:	e027      	b.n	80049ca <HAL_RCC_GetSysClockFreq+0x86>
    }
    case RCC_SYSCLKSOURCE_STATUS_PLLCLK:  /* PLL used as system clock */
    {
      pllmul = aPLLMULFactorTable[(uint32_t)(tmpreg & RCC_CFGR_PLLMULL) >> RCC_CFGR_PLLMULL_Pos];
 800497a:	68fb      	ldr	r3, [r7, #12]
 800497c:	0c9b      	lsrs	r3, r3, #18
 800497e:	f003 030f 	and.w	r3, r3, #15
 8004982:	4a17      	ldr	r2, [pc, #92]	@ (80049e0 <HAL_RCC_GetSysClockFreq+0x9c>)
 8004984:	5cd3      	ldrb	r3, [r2, r3]
 8004986:	607b      	str	r3, [r7, #4]
      if ((tmpreg & RCC_CFGR_PLLSRC) != RCC_PLLSOURCE_HSI_DIV2)
 8004988:	68fb      	ldr	r3, [r7, #12]
 800498a:	f403 3380 	and.w	r3, r3, #65536	@ 0x10000
 800498e:	2b00      	cmp	r3, #0
 8004990:	d010      	beq.n	80049b4 <HAL_RCC_GetSysClockFreq+0x70>
      {
#if defined(RCC_CFGR2_PREDIV1)
        prediv = aPredivFactorTable[(uint32_t)(RCC->CFGR2 & RCC_CFGR2_PREDIV1) >> RCC_CFGR2_PREDIV1_Pos];
#else
        prediv = aPredivFactorTable[(uint32_t)(RCC->CFGR & RCC_CFGR_PLLXTPRE) >> RCC_CFGR_PLLXTPRE_Pos];
 8004992:	4b11      	ldr	r3, [pc, #68]	@ (80049d8 <HAL_RCC_GetSysClockFreq+0x94>)
 8004994:	685b      	ldr	r3, [r3, #4]
 8004996:	0c5b      	lsrs	r3, r3, #17
 8004998:	f003 0301 	and.w	r3, r3, #1
 800499c:	4a11      	ldr	r2, [pc, #68]	@ (80049e4 <HAL_RCC_GetSysClockFreq+0xa0>)
 800499e:	5cd3      	ldrb	r3, [r2, r3]
 80049a0:	60bb      	str	r3, [r7, #8]
        {
          pllclk = pllclk / 2;
        }
#else
        /* HSE used as PLL clock source : PLLCLK = HSE/PREDIV1 * PLLMUL */
        pllclk = (uint32_t)((HSE_VALUE  * pllmul) / prediv);
 80049a2:	687b      	ldr	r3, [r7, #4]
 80049a4:	4a0d      	ldr	r2, [pc, #52]	@ (80049dc <HAL_RCC_GetSysClockFreq+0x98>)
 80049a6:	fb03 f202 	mul.w	r2, r3, r2
 80049aa:	68bb      	ldr	r3, [r7, #8]
 80049ac:	fbb2 f3f3 	udiv	r3, r2, r3
 80049b0:	617b      	str	r3, [r7, #20]
 80049b2:	e004      	b.n	80049be <HAL_RCC_GetSysClockFreq+0x7a>
#endif /*RCC_CFGR2_PREDIV1SRC*/
      }
      else
      {
        /* HSI used as PLL clock source : PLLCLK = HSI/2 * PLLMUL */
        pllclk = (uint32_t)((HSI_VALUE >> 1) * pllmul);
 80049b4:	687b      	ldr	r3, [r7, #4]
 80049b6:	4a0c      	ldr	r2, [pc, #48]	@ (80049e8 <HAL_RCC_GetSysClockFreq+0xa4>)
 80049b8:	fb02 f303 	mul.w	r3, r2, r3
 80049bc:	617b      	str	r3, [r7, #20]
      }
      sysclockfreq = pllclk;
 80049be:	697b      	ldr	r3, [r7, #20]
 80049c0:	613b      	str	r3, [r7, #16]
      break;
 80049c2:	e002      	b.n	80049ca <HAL_RCC_GetSysClockFreq+0x86>
    }
    case RCC_SYSCLKSOURCE_STATUS_HSI:  /* HSI used as system clock source */
    default: /* HSI used as system clock */
    {
      sysclockfreq = HSI_VALUE;
 80049c4:	4b05      	ldr	r3, [pc, #20]	@ (80049dc <HAL_RCC_GetSysClockFreq+0x98>)
 80049c6:	613b      	str	r3, [r7, #16]
      break;
 80049c8:	bf00      	nop
    }
  }
  return sysclockfreq;
 80049ca:	693b      	ldr	r3, [r7, #16]
}
 80049cc:	4618      	mov	r0, r3
 80049ce:	371c      	adds	r7, #28
 80049d0:	46bd      	mov	sp, r7
 80049d2:	bc80      	pop	{r7}
 80049d4:	4770      	bx	lr
 80049d6:	bf00      	nop
 80049d8:	40021000 	.word	0x40021000
 80049dc:	007a1200 	.word	0x007a1200
 80049e0:	08006268 	.word	0x08006268
 80049e4:	08006278 	.word	0x08006278
 80049e8:	003d0900 	.word	0x003d0900

080049ec <HAL_RCC_GetHCLKFreq>:
  * @note   The SystemCoreClock CMSIS variable is used to store System Clock Frequency
  *         and updated within this function
  * @retval HCLK frequency
  */
uint32_t HAL_RCC_GetHCLKFreq(void)
{
 80049ec:	b480      	push	{r7}
 80049ee:	af00      	add	r7, sp, #0
  return SystemCoreClock;
 80049f0:	4b02      	ldr	r3, [pc, #8]	@ (80049fc <HAL_RCC_GetHCLKFreq+0x10>)
 80049f2:	681b      	ldr	r3, [r3, #0]
}
 80049f4:	4618      	mov	r0, r3
 80049f6:	46bd      	mov	sp, r7
 80049f8:	bc80      	pop	{r7}
 80049fa:	4770      	bx	lr
 80049fc:	20000090 	.word	0x20000090

08004a00 <HAL_RCC_GetPCLK1Freq>:
  * @note   Each time PCLK1 changes, this function must be called to update the
  *         right PCLK1 value. Otherwise, any configuration based on this function will be incorrect.
  * @retval PCLK1 frequency
  */
uint32_t HAL_RCC_GetPCLK1Freq(void)
{
 8004a00:	b580      	push	{r7, lr}
 8004a02:	af00      	add	r7, sp, #0
  /* Get HCLK source and Compute PCLK1 frequency ---------------------------*/
  return (HAL_RCC_GetHCLKFreq() >> APBPrescTable[(RCC->CFGR & RCC_CFGR_PPRE1) >> RCC_CFGR_PPRE1_Pos]);
 8004a04:	f7ff fff2 	bl	80049ec <HAL_RCC_GetHCLKFreq>
 8004a08:	4602      	mov	r2, r0
 8004a0a:	4b05      	ldr	r3, [pc, #20]	@ (8004a20 <HAL_RCC_GetPCLK1Freq+0x20>)
 8004a0c:	685b      	ldr	r3, [r3, #4]
 8004a0e:	0a1b      	lsrs	r3, r3, #8
 8004a10:	f003 0307 	and.w	r3, r3, #7
 8004a14:	4903      	ldr	r1, [pc, #12]	@ (8004a24 <HAL_RCC_GetPCLK1Freq+0x24>)
 8004a16:	5ccb      	ldrb	r3, [r1, r3]
 8004a18:	fa22 f303 	lsr.w	r3, r2, r3
}
 8004a1c:	4618      	mov	r0, r3
 8004a1e:	bd80      	pop	{r7, pc}
 8004a20:	40021000 	.word	0x40021000
 8004a24:	08006260 	.word	0x08006260

08004a28 <HAL_RCC_GetPCLK2Freq>:
  * @note   Each time PCLK2 changes, this function must be called to update the
  *         right PCLK2 value. Otherwise, any configuration based on this function will be incorrect.
  * @retval PCLK2 frequency
  */
uint32_t HAL_RCC_GetPCLK2Freq(void)
{
 8004a28:	b580      	push	{r7, lr}
 8004a2a:	af00      	add	r7, sp, #0
  /* Get HCLK source and Compute PCLK2 frequency ---------------------------*/
  return (HAL_RCC_GetHCLKFreq() >> APBPrescTable[(RCC->CFGR & RCC_CFGR_PPRE2) >> RCC_CFGR_PPRE2_Pos]);
 8004a2c:	f7ff ffde 	bl	80049ec <HAL_RCC_GetHCLKFreq>
 8004a30:	4602      	mov	r2, r0
 8004a32:	4b05      	ldr	r3, [pc, #20]	@ (8004a48 <HAL_RCC_GetPCLK2Freq+0x20>)
 8004a34:	685b      	ldr	r3, [r3, #4]
 8004a36:	0adb      	lsrs	r3, r3, #11
 8004a38:	f003 0307 	and.w	r3, r3, #7
 8004a3c:	4903      	ldr	r1, [pc, #12]	@ (8004a4c <HAL_RCC_GetPCLK2Freq+0x24>)
 8004a3e:	5ccb      	ldrb	r3, [r1, r3]
 8004a40:	fa22 f303 	lsr.w	r3, r2, r3
}
 8004a44:	4618      	mov	r0, r3
 8004a46:	bd80      	pop	{r7, pc}
 8004a48:	40021000 	.word	0x40021000
 8004a4c:	08006260 	.word	0x08006260

08004a50 <RCC_Delay>:
  * @brief  This function provides delay (in milliseconds) based on CPU cycles method.
  * @param  mdelay: specifies the delay time length, in milliseconds.
  * @retval None
  */
static void RCC_Delay(uint32_t mdelay)
{
 8004a50:	b480      	push	{r7}
 8004a52:	b085      	sub	sp, #20
 8004a54:	af00      	add	r7, sp, #0
 8004a56:	6078      	str	r0, [r7, #4]
  __IO uint32_t Delay = mdelay * (SystemCoreClock / 8U / 1000U);
 8004a58:	4b0a      	ldr	r3, [pc, #40]	@ (8004a84 <RCC_Delay+0x34>)
 8004a5a:	681b      	ldr	r3, [r3, #0]
 8004a5c:	4a0a      	ldr	r2, [pc, #40]	@ (8004a88 <RCC_Delay+0x38>)
 8004a5e:	fba2 2303 	umull	r2, r3, r2, r3
 8004a62:	0a5b      	lsrs	r3, r3, #9
 8004a64:	687a      	ldr	r2, [r7, #4]
 8004a66:	fb02 f303 	mul.w	r3, r2, r3
 8004a6a:	60fb      	str	r3, [r7, #12]
  do
  {
    __NOP();
 8004a6c:	bf00      	nop
  }
  while (Delay --);
 8004a6e:	68fb      	ldr	r3, [r7, #12]
 8004a70:	1e5a      	subs	r2, r3, #1
 8004a72:	60fa      	str	r2, [r7, #12]
 8004a74:	2b00      	cmp	r3, #0
 8004a76:	d1f9      	bne.n	8004a6c <RCC_Delay+0x1c>
}
 8004a78:	bf00      	nop
 8004a7a:	bf00      	nop
 8004a7c:	3714      	adds	r7, #20
 8004a7e:	46bd      	mov	sp, r7
 8004a80:	bc80      	pop	{r7}
 8004a82:	4770      	bx	lr
 8004a84:	20000090 	.word	0x20000090
 8004a88:	10624dd3 	.word	0x10624dd3

08004a8c <HAL_TIM_Base_Init>:
  *         Ex: call @ref HAL_TIM_Base_DeInit() before HAL_TIM_Base_Init()
  * @param  htim TIM Base handle
  * @retval HAL status
  */
HAL_StatusTypeDef HAL_TIM_Base_Init(TIM_HandleTypeDef *htim)
{
 8004a8c:	b580      	push	{r7, lr}
 8004a8e:	b082      	sub	sp, #8
 8004a90:	af00      	add	r7, sp, #0
 8004a92:	6078      	str	r0, [r7, #4]
  /* Check the TIM handle allocation */
  if (htim == NULL)
 8004a94:	687b      	ldr	r3, [r7, #4]
 8004a96:	2b00      	cmp	r3, #0
 8004a98:	d101      	bne.n	8004a9e <HAL_TIM_Base_Init+0x12>
  {
    return HAL_ERROR;
 8004a9a:	2301      	movs	r3, #1
 8004a9c:	e041      	b.n	8004b22 <HAL_TIM_Base_Init+0x96>
  assert_param(IS_TIM_COUNTER_MODE(htim->Init.CounterMode));
  assert_param(IS_TIM_CLOCKDIVISION_DIV(htim->Init.ClockDivision));
  assert_param(IS_TIM_PERIOD(htim->Init.Period));
  assert_param(IS_TIM_AUTORELOAD_PRELOAD(htim->Init.AutoReloadPreload));

  if (htim->State == HAL_TIM_STATE_RESET)
 8004a9e:	687b      	ldr	r3, [r7, #4]
 8004aa0:	f893 303d 	ldrb.w	r3, [r3, #61]	@ 0x3d
 8004aa4:	b2db      	uxtb	r3, r3
 8004aa6:	2b00      	cmp	r3, #0
 8004aa8:	d106      	bne.n	8004ab8 <HAL_TIM_Base_Init+0x2c>
  {
    /* Allocate lock resource and initialize it */
    htim->Lock = HAL_UNLOCKED;
 8004aaa:	687b      	ldr	r3, [r7, #4]
 8004aac:	2200      	movs	r2, #0
 8004aae:	f883 203c 	strb.w	r2, [r3, #60]	@ 0x3c
    }
    /* Init the low level hardware : GPIO, CLOCK, NVIC */
    htim->Base_MspInitCallback(htim);
#else
    /* Init the low level hardware : GPIO, CLOCK, NVIC */
    HAL_TIM_Base_MspInit(htim);
 8004ab2:	6878      	ldr	r0, [r7, #4]
 8004ab4:	f7fd ff08 	bl	80028c8 <HAL_TIM_Base_MspInit>
#endif /* USE_HAL_TIM_REGISTER_CALLBACKS */
  }

  /* Set the TIM state */
  htim->State = HAL_TIM_STATE_BUSY;
 8004ab8:	687b      	ldr	r3, [r7, #4]
 8004aba:	2202      	movs	r2, #2
 8004abc:	f883 203d 	strb.w	r2, [r3, #61]	@ 0x3d

  /* Set the Time Base configuration */
  TIM_Base_SetConfig(htim->Instance, &htim->Init);
 8004ac0:	687b      	ldr	r3, [r7, #4]
 8004ac2:	681a      	ldr	r2, [r3, #0]
 8004ac4:	687b      	ldr	r3, [r7, #4]
 8004ac6:	3304      	adds	r3, #4
 8004ac8:	4619      	mov	r1, r3
 8004aca:	4610      	mov	r0, r2
 8004acc:	f000 fc28 	bl	8005320 <TIM_Base_SetConfig>

  /* Initialize the DMA burst operation state */
  htim->DMABurstState = HAL_DMA_BURST_STATE_READY;
 8004ad0:	687b      	ldr	r3, [r7, #4]
 8004ad2:	2201      	movs	r2, #1
 8004ad4:	f883 2046 	strb.w	r2, [r3, #70]	@ 0x46

  /* Initialize the TIM channels state */
  TIM_CHANNEL_STATE_SET_ALL(htim, HAL_TIM_CHANNEL_STATE_READY);
 8004ad8:	687b      	ldr	r3, [r7, #4]
 8004ada:	2201      	movs	r2, #1
 8004adc:	f883 203e 	strb.w	r2, [r3, #62]	@ 0x3e
 8004ae0:	687b      	ldr	r3, [r7, #4]
 8004ae2:	2201      	movs	r2, #1
 8004ae4:	f883 203f 	strb.w	r2, [r3, #63]	@ 0x3f
 8004ae8:	687b      	ldr	r3, [r7, #4]
 8004aea:	2201      	movs	r2, #1
 8004aec:	f883 2040 	strb.w	r2, [r3, #64]	@ 0x40
 8004af0:	687b      	ldr	r3, [r7, #4]
 8004af2:	2201      	movs	r2, #1
 8004af4:	f883 2041 	strb.w	r2, [r3, #65]	@ 0x41
  TIM_CHANNEL_N_STATE_SET_ALL(htim, HAL_TIM_CHANNEL_STATE_READY);
 8004af8:	687b      	ldr	r3, [r7, #4]
 8004afa:	2201      	movs	r2, #1
 8004afc:	f883 2042 	strb.w	r2, [r3, #66]	@ 0x42
 8004b00:	687b      	ldr	r3, [r7, #4]
 8004b02:	2201      	movs	r2, #1
 8004b04:	f883 2043 	strb.w	r2, [r3, #67]	@ 0x43
 8004b08:	687b      	ldr	r3, [r7, #4]
 8004b0a:	2201      	movs	r2, #1
 8004b0c:	f883 2044 	strb.w	r2, [r3, #68]	@ 0x44
 8004b10:	687b      	ldr	r3, [r7, #4]
 8004b12:	2201      	movs	r2, #1
 8004b14:	f883 2045 	strb.w	r2, [r3, #69]	@ 0x45

  /* Initialize the TIM state*/
  htim->State = HAL_TIM_STATE_READY;
 8004b18:	687b      	ldr	r3, [r7, #4]
 8004b1a:	2201      	movs	r2, #1
 8004b1c:	f883 203d 	strb.w	r2, [r3, #61]	@ 0x3d

  return HAL_OK;
 8004b20:	2300      	movs	r3, #0
}
 8004b22:	4618      	mov	r0, r3
 8004b24:	3708      	adds	r7, #8
 8004b26:	46bd      	mov	sp, r7
 8004b28:	bd80      	pop	{r7, pc}
	...

08004b2c <HAL_TIM_Base_Start_IT>:
  * @brief  Starts the TIM Base generation in interrupt mode.
  * @param  htim TIM Base handle
  * @retval HAL status
  */
HAL_StatusTypeDef HAL_TIM_Base_Start_IT(TIM_HandleTypeDef *htim)
{
 8004b2c:	b480      	push	{r7}
 8004b2e:	b085      	sub	sp, #20
 8004b30:	af00      	add	r7, sp, #0
 8004b32:	6078      	str	r0, [r7, #4]

  /* Check the parameters */
  assert_param(IS_TIM_INSTANCE(htim->Instance));

  /* Check the TIM state */
  if (htim->State != HAL_TIM_STATE_READY)
 8004b34:	687b      	ldr	r3, [r7, #4]
 8004b36:	f893 303d 	ldrb.w	r3, [r3, #61]	@ 0x3d
 8004b3a:	b2db      	uxtb	r3, r3
 8004b3c:	2b01      	cmp	r3, #1
 8004b3e:	d001      	beq.n	8004b44 <HAL_TIM_Base_Start_IT+0x18>
  {
    return HAL_ERROR;
 8004b40:	2301      	movs	r3, #1
 8004b42:	e03a      	b.n	8004bba <HAL_TIM_Base_Start_IT+0x8e>
  }

  /* Set the TIM state */
  htim->State = HAL_TIM_STATE_BUSY;
 8004b44:	687b      	ldr	r3, [r7, #4]
 8004b46:	2202      	movs	r2, #2
 8004b48:	f883 203d 	strb.w	r2, [r3, #61]	@ 0x3d

  /* Enable the TIM Update interrupt */
  __HAL_TIM_ENABLE_IT(htim, TIM_IT_UPDATE);
 8004b4c:	687b      	ldr	r3, [r7, #4]
 8004b4e:	681b      	ldr	r3, [r3, #0]
 8004b50:	68da      	ldr	r2, [r3, #12]
 8004b52:	687b      	ldr	r3, [r7, #4]
 8004b54:	681b      	ldr	r3, [r3, #0]
 8004b56:	f042 0201 	orr.w	r2, r2, #1
 8004b5a:	60da      	str	r2, [r3, #12]

  /* Enable the Peripheral, except in trigger mode where enable is automatically done with trigger */
  if (IS_TIM_SLAVE_INSTANCE(htim->Instance))
 8004b5c:	687b      	ldr	r3, [r7, #4]
 8004b5e:	681b      	ldr	r3, [r3, #0]
 8004b60:	4a18      	ldr	r2, [pc, #96]	@ (8004bc4 <HAL_TIM_Base_Start_IT+0x98>)
 8004b62:	4293      	cmp	r3, r2
 8004b64:	d00e      	beq.n	8004b84 <HAL_TIM_Base_Start_IT+0x58>
 8004b66:	687b      	ldr	r3, [r7, #4]
 8004b68:	681b      	ldr	r3, [r3, #0]
 8004b6a:	f1b3 4f80 	cmp.w	r3, #1073741824	@ 0x40000000
 8004b6e:	d009      	beq.n	8004b84 <HAL_TIM_Base_Start_IT+0x58>
 8004b70:	687b      	ldr	r3, [r7, #4]
 8004b72:	681b      	ldr	r3, [r3, #0]
 8004b74:	4a14      	ldr	r2, [pc, #80]	@ (8004bc8 <HAL_TIM_Base_Start_IT+0x9c>)
 8004b76:	4293      	cmp	r3, r2
 8004b78:	d004      	beq.n	8004b84 <HAL_TIM_Base_Start_IT+0x58>
 8004b7a:	687b      	ldr	r3, [r7, #4]
 8004b7c:	681b      	ldr	r3, [r3, #0]
 8004b7e:	4a13      	ldr	r2, [pc, #76]	@ (8004bcc <HAL_TIM_Base_Start_IT+0xa0>)
 8004b80:	4293      	cmp	r3, r2
 8004b82:	d111      	bne.n	8004ba8 <HAL_TIM_Base_Start_IT+0x7c>
  {
    tmpsmcr = htim->Instance->SMCR & TIM_SMCR_SMS;
 8004b84:	687b      	ldr	r3, [r7, #4]
 8004b86:	681b      	ldr	r3, [r3, #0]
 8004b88:	689b      	ldr	r3, [r3, #8]
 8004b8a:	f003 0307 	and.w	r3, r3, #7
 8004b8e:	60fb      	str	r3, [r7, #12]
    if (!IS_TIM_SLAVEMODE_TRIGGER_ENABLED(tmpsmcr))
 8004b90:	68fb      	ldr	r3, [r7, #12]
 8004b92:	2b06      	cmp	r3, #6
 8004b94:	d010      	beq.n	8004bb8 <HAL_TIM_Base_Start_IT+0x8c>
    {
      __HAL_TIM_ENABLE(htim);
 8004b96:	687b      	ldr	r3, [r7, #4]
 8004b98:	681b      	ldr	r3, [r3, #0]
 8004b9a:	681a      	ldr	r2, [r3, #0]
 8004b9c:	687b      	ldr	r3, [r7, #4]
 8004b9e:	681b      	ldr	r3, [r3, #0]
 8004ba0:	f042 0201 	orr.w	r2, r2, #1
 8004ba4:	601a      	str	r2, [r3, #0]
    if (!IS_TIM_SLAVEMODE_TRIGGER_ENABLED(tmpsmcr))
 8004ba6:	e007      	b.n	8004bb8 <HAL_TIM_Base_Start_IT+0x8c>
    }
  }
  else
  {
    __HAL_TIM_ENABLE(htim);
 8004ba8:	687b      	ldr	r3, [r7, #4]
 8004baa:	681b      	ldr	r3, [r3, #0]
 8004bac:	681a      	ldr	r2, [r3, #0]
 8004bae:	687b      	ldr	r3, [r7, #4]
 8004bb0:	681b      	ldr	r3, [r3, #0]
 8004bb2:	f042 0201 	orr.w	r2, r2, #1
 8004bb6:	601a      	str	r2, [r3, #0]
  }

  /* Return function status */
  return HAL_OK;
 8004bb8:	2300      	movs	r3, #0
}
 8004bba:	4618      	mov	r0, r3
 8004bbc:	3714      	adds	r7, #20
 8004bbe:	46bd      	mov	sp, r7
 8004bc0:	bc80      	pop	{r7}
 8004bc2:	4770      	bx	lr
 8004bc4:	40012c00 	.word	0x40012c00
 8004bc8:	40000400 	.word	0x40000400
 8004bcc:	40000800 	.word	0x40000800

08004bd0 <HAL_TIM_PWM_Init>:
  *         Ex: call @ref HAL_TIM_PWM_DeInit() before HAL_TIM_PWM_Init()
  * @param  htim TIM PWM handle
  * @retval HAL status
  */
HAL_StatusTypeDef HAL_TIM_PWM_Init(TIM_HandleTypeDef *htim)
{
 8004bd0:	b580      	push	{r7, lr}
 8004bd2:	b082      	sub	sp, #8
 8004bd4:	af00      	add	r7, sp, #0
 8004bd6:	6078      	str	r0, [r7, #4]
  /* Check the TIM handle allocation */
  if (htim == NULL)
 8004bd8:	687b      	ldr	r3, [r7, #4]
 8004bda:	2b00      	cmp	r3, #0
 8004bdc:	d101      	bne.n	8004be2 <HAL_TIM_PWM_Init+0x12>
  {
    return HAL_ERROR;
 8004bde:	2301      	movs	r3, #1
 8004be0:	e041      	b.n	8004c66 <HAL_TIM_PWM_Init+0x96>
  assert_param(IS_TIM_COUNTER_MODE(htim->Init.CounterMode));
  assert_param(IS_TIM_CLOCKDIVISION_DIV(htim->Init.ClockDivision));
  assert_param(IS_TIM_PERIOD(htim->Init.Period));
  assert_param(IS_TIM_AUTORELOAD_PRELOAD(htim->Init.AutoReloadPreload));

  if (htim->State == HAL_TIM_STATE_RESET)
 8004be2:	687b      	ldr	r3, [r7, #4]
 8004be4:	f893 303d 	ldrb.w	r3, [r3, #61]	@ 0x3d
 8004be8:	b2db      	uxtb	r3, r3
 8004bea:	2b00      	cmp	r3, #0
 8004bec:	d106      	bne.n	8004bfc <HAL_TIM_PWM_Init+0x2c>
  {
    /* Allocate lock resource and initialize it */
    htim->Lock = HAL_UNLOCKED;
 8004bee:	687b      	ldr	r3, [r7, #4]
 8004bf0:	2200      	movs	r2, #0
 8004bf2:	f883 203c 	strb.w	r2, [r3, #60]	@ 0x3c
    }
    /* Init the low level hardware : GPIO, CLOCK, NVIC */
    htim->PWM_MspInitCallback(htim);
#else
    /* Init the low level hardware : GPIO, CLOCK, NVIC and DMA */
    HAL_TIM_PWM_MspInit(htim);
 8004bf6:	6878      	ldr	r0, [r7, #4]
 8004bf8:	f7fd fe8c 	bl	8002914 <HAL_TIM_PWM_MspInit>
#endif /* USE_HAL_TIM_REGISTER_CALLBACKS */
  }

  /* Set the TIM state */
  htim->State = HAL_TIM_STATE_BUSY;
 8004bfc:	687b      	ldr	r3, [r7, #4]
 8004bfe:	2202      	movs	r2, #2
 8004c00:	f883 203d 	strb.w	r2, [r3, #61]	@ 0x3d

  /* Init the base time for the PWM */
  TIM_Base_SetConfig(htim->Instance, &htim->Init);
 8004c04:	687b      	ldr	r3, [r7, #4]
 8004c06:	681a      	ldr	r2, [r3, #0]
 8004c08:	687b      	ldr	r3, [r7, #4]
 8004c0a:	3304      	adds	r3, #4
 8004c0c:	4619      	mov	r1, r3
 8004c0e:	4610      	mov	r0, r2
 8004c10:	f000 fb86 	bl	8005320 <TIM_Base_SetConfig>

  /* Initialize the DMA burst operation state */
  htim->DMABurstState = HAL_DMA_BURST_STATE_READY;
 8004c14:	687b      	ldr	r3, [r7, #4]
 8004c16:	2201      	movs	r2, #1
 8004c18:	f883 2046 	strb.w	r2, [r3, #70]	@ 0x46

  /* Initialize the TIM channels state */
  TIM_CHANNEL_STATE_SET_ALL(htim, HAL_TIM_CHANNEL_STATE_READY);
 8004c1c:	687b      	ldr	r3, [r7, #4]
 8004c1e:	2201      	movs	r2, #1
 8004c20:	f883 203e 	strb.w	r2, [r3, #62]	@ 0x3e
 8004c24:	687b      	ldr	r3, [r7, #4]
 8004c26:	2201      	movs	r2, #1
 8004c28:	f883 203f 	strb.w	r2, [r3, #63]	@ 0x3f
 8004c2c:	687b      	ldr	r3, [r7, #4]
 8004c2e:	2201      	movs	r2, #1
 8004c30:	f883 2040 	strb.w	r2, [r3, #64]	@ 0x40
 8004c34:	687b      	ldr	r3, [r7, #4]
 8004c36:	2201      	movs	r2, #1
 8004c38:	f883 2041 	strb.w	r2, [r3, #65]	@ 0x41
  TIM_CHANNEL_N_STATE_SET_ALL(htim, HAL_TIM_CHANNEL_STATE_READY);
 8004c3c:	687b      	ldr	r3, [r7, #4]
 8004c3e:	2201      	movs	r2, #1
 8004c40:	f883 2042 	strb.w	r2, [r3, #66]	@ 0x42
 8004c44:	687b      	ldr	r3, [r7, #4]
 8004c46:	2201      	movs	r2, #1
 8004c48:	f883 2043 	strb.w	r2, [r3, #67]	@ 0x43
 8004c4c:	687b      	ldr	r3, [r7, #4]
 8004c4e:	2201      	movs	r2, #1
 8004c50:	f883 2044 	strb.w	r2, [r3, #68]	@ 0x44
 8004c54:	687b      	ldr	r3, [r7, #4]
 8004c56:	2201      	movs	r2, #1
 8004c58:	f883 2045 	strb.w	r2, [r3, #69]	@ 0x45

  /* Initialize the TIM state*/
  htim->State = HAL_TIM_STATE_READY;
 8004c5c:	687b      	ldr	r3, [r7, #4]
 8004c5e:	2201      	movs	r2, #1
 8004c60:	f883 203d 	strb.w	r2, [r3, #61]	@ 0x3d

  return HAL_OK;
 8004c64:	2300      	movs	r3, #0
}
 8004c66:	4618      	mov	r0, r3
 8004c68:	3708      	adds	r7, #8
 8004c6a:	46bd      	mov	sp, r7
 8004c6c:	bd80      	pop	{r7, pc}
	...

08004c70 <HAL_TIM_PWM_Start>:
  *            @arg TIM_CHANNEL_3: TIM Channel 3 selected
  *            @arg TIM_CHANNEL_4: TIM Channel 4 selected
  * @retval HAL status
  */
HAL_StatusTypeDef HAL_TIM_PWM_Start(TIM_HandleTypeDef *htim, uint32_t Channel)
{
 8004c70:	b580      	push	{r7, lr}
 8004c72:	b084      	sub	sp, #16
 8004c74:	af00      	add	r7, sp, #0
 8004c76:	6078      	str	r0, [r7, #4]
 8004c78:	6039      	str	r1, [r7, #0]

  /* Check the parameters */
  assert_param(IS_TIM_CCX_INSTANCE(htim->Instance, Channel));

  /* Check the TIM channel state */
  if (TIM_CHANNEL_STATE_GET(htim, Channel) != HAL_TIM_CHANNEL_STATE_READY)
 8004c7a:	683b      	ldr	r3, [r7, #0]
 8004c7c:	2b00      	cmp	r3, #0
 8004c7e:	d109      	bne.n	8004c94 <HAL_TIM_PWM_Start+0x24>
 8004c80:	687b      	ldr	r3, [r7, #4]
 8004c82:	f893 303e 	ldrb.w	r3, [r3, #62]	@ 0x3e
 8004c86:	b2db      	uxtb	r3, r3
 8004c88:	2b01      	cmp	r3, #1
 8004c8a:	bf14      	ite	ne
 8004c8c:	2301      	movne	r3, #1
 8004c8e:	2300      	moveq	r3, #0
 8004c90:	b2db      	uxtb	r3, r3
 8004c92:	e022      	b.n	8004cda <HAL_TIM_PWM_Start+0x6a>
 8004c94:	683b      	ldr	r3, [r7, #0]
 8004c96:	2b04      	cmp	r3, #4
 8004c98:	d109      	bne.n	8004cae <HAL_TIM_PWM_Start+0x3e>
 8004c9a:	687b      	ldr	r3, [r7, #4]
 8004c9c:	f893 303f 	ldrb.w	r3, [r3, #63]	@ 0x3f
 8004ca0:	b2db      	uxtb	r3, r3
 8004ca2:	2b01      	cmp	r3, #1
 8004ca4:	bf14      	ite	ne
 8004ca6:	2301      	movne	r3, #1
 8004ca8:	2300      	moveq	r3, #0
 8004caa:	b2db      	uxtb	r3, r3
 8004cac:	e015      	b.n	8004cda <HAL_TIM_PWM_Start+0x6a>
 8004cae:	683b      	ldr	r3, [r7, #0]
 8004cb0:	2b08      	cmp	r3, #8
 8004cb2:	d109      	bne.n	8004cc8 <HAL_TIM_PWM_Start+0x58>
 8004cb4:	687b      	ldr	r3, [r7, #4]
 8004cb6:	f893 3040 	ldrb.w	r3, [r3, #64]	@ 0x40
 8004cba:	b2db      	uxtb	r3, r3
 8004cbc:	2b01      	cmp	r3, #1
 8004cbe:	bf14      	ite	ne
 8004cc0:	2301      	movne	r3, #1
 8004cc2:	2300      	moveq	r3, #0
 8004cc4:	b2db      	uxtb	r3, r3
 8004cc6:	e008      	b.n	8004cda <HAL_TIM_PWM_Start+0x6a>
 8004cc8:	687b      	ldr	r3, [r7, #4]
 8004cca:	f893 3041 	ldrb.w	r3, [r3, #65]	@ 0x41
 8004cce:	b2db      	uxtb	r3, r3
 8004cd0:	2b01      	cmp	r3, #1
 8004cd2:	bf14      	ite	ne
 8004cd4:	2301      	movne	r3, #1
 8004cd6:	2300      	moveq	r3, #0
 8004cd8:	b2db      	uxtb	r3, r3
 8004cda:	2b00      	cmp	r3, #0
 8004cdc:	d001      	beq.n	8004ce2 <HAL_TIM_PWM_Start+0x72>
  {
    return HAL_ERROR;
 8004cde:	2301      	movs	r3, #1
 8004ce0:	e05e      	b.n	8004da0 <HAL_TIM_PWM_Start+0x130>
  }

  /* Set the TIM channel state */
  TIM_CHANNEL_STATE_SET(htim, Channel, HAL_TIM_CHANNEL_STATE_BUSY);
 8004ce2:	683b      	ldr	r3, [r7, #0]
 8004ce4:	2b00      	cmp	r3, #0
 8004ce6:	d104      	bne.n	8004cf2 <HAL_TIM_PWM_Start+0x82>
 8004ce8:	687b      	ldr	r3, [r7, #4]
 8004cea:	2202      	movs	r2, #2
 8004cec:	f883 203e 	strb.w	r2, [r3, #62]	@ 0x3e
 8004cf0:	e013      	b.n	8004d1a <HAL_TIM_PWM_Start+0xaa>
 8004cf2:	683b      	ldr	r3, [r7, #0]
 8004cf4:	2b04      	cmp	r3, #4
 8004cf6:	d104      	bne.n	8004d02 <HAL_TIM_PWM_Start+0x92>
 8004cf8:	687b      	ldr	r3, [r7, #4]
 8004cfa:	2202      	movs	r2, #2
 8004cfc:	f883 203f 	strb.w	r2, [r3, #63]	@ 0x3f
 8004d00:	e00b      	b.n	8004d1a <HAL_TIM_PWM_Start+0xaa>
 8004d02:	683b      	ldr	r3, [r7, #0]
 8004d04:	2b08      	cmp	r3, #8
 8004d06:	d104      	bne.n	8004d12 <HAL_TIM_PWM_Start+0xa2>
 8004d08:	687b      	ldr	r3, [r7, #4]
 8004d0a:	2202      	movs	r2, #2
 8004d0c:	f883 2040 	strb.w	r2, [r3, #64]	@ 0x40
 8004d10:	e003      	b.n	8004d1a <HAL_TIM_PWM_Start+0xaa>
 8004d12:	687b      	ldr	r3, [r7, #4]
 8004d14:	2202      	movs	r2, #2
 8004d16:	f883 2041 	strb.w	r2, [r3, #65]	@ 0x41

  /* Enable the Capture compare channel */
  TIM_CCxChannelCmd(htim->Instance, Channel, TIM_CCx_ENABLE);
 8004d1a:	687b      	ldr	r3, [r7, #4]
 8004d1c:	681b      	ldr	r3, [r3, #0]
 8004d1e:	2201      	movs	r2, #1
 8004d20:	6839      	ldr	r1, [r7, #0]
 8004d22:	4618      	mov	r0, r3
 8004d24:	f000 fd7c 	bl	8005820 <TIM_CCxChannelCmd>

  if (IS_TIM_BREAK_INSTANCE(htim->Instance) != RESET)
 8004d28:	687b      	ldr	r3, [r7, #4]
 8004d2a:	681b      	ldr	r3, [r3, #0]
 8004d2c:	4a1e      	ldr	r2, [pc, #120]	@ (8004da8 <HAL_TIM_PWM_Start+0x138>)
 8004d2e:	4293      	cmp	r3, r2
 8004d30:	d107      	bne.n	8004d42 <HAL_TIM_PWM_Start+0xd2>
  {
    /* Enable the main output */
    __HAL_TIM_MOE_ENABLE(htim);
 8004d32:	687b      	ldr	r3, [r7, #4]
 8004d34:	681b      	ldr	r3, [r3, #0]
 8004d36:	6c5a      	ldr	r2, [r3, #68]	@ 0x44
 8004d38:	687b      	ldr	r3, [r7, #4]
 8004d3a:	681b      	ldr	r3, [r3, #0]
 8004d3c:	f442 4200 	orr.w	r2, r2, #32768	@ 0x8000
 8004d40:	645a      	str	r2, [r3, #68]	@ 0x44
  }

  /* Enable the Peripheral, except in trigger mode where enable is automatically done with trigger */
  if (IS_TIM_SLAVE_INSTANCE(htim->Instance))
 8004d42:	687b      	ldr	r3, [r7, #4]
 8004d44:	681b      	ldr	r3, [r3, #0]
 8004d46:	4a18      	ldr	r2, [pc, #96]	@ (8004da8 <HAL_TIM_PWM_Start+0x138>)
 8004d48:	4293      	cmp	r3, r2
 8004d4a:	d00e      	beq.n	8004d6a <HAL_TIM_PWM_Start+0xfa>
 8004d4c:	687b      	ldr	r3, [r7, #4]
 8004d4e:	681b      	ldr	r3, [r3, #0]
 8004d50:	f1b3 4f80 	cmp.w	r3, #1073741824	@ 0x40000000
 8004d54:	d009      	beq.n	8004d6a <HAL_TIM_PWM_Start+0xfa>
 8004d56:	687b      	ldr	r3, [r7, #4]
 8004d58:	681b      	ldr	r3, [r3, #0]
 8004d5a:	4a14      	ldr	r2, [pc, #80]	@ (8004dac <HAL_TIM_PWM_Start+0x13c>)
 8004d5c:	4293      	cmp	r3, r2
 8004d5e:	d004      	beq.n	8004d6a <HAL_TIM_PWM_Start+0xfa>
 8004d60:	687b      	ldr	r3, [r7, #4]
 8004d62:	681b      	ldr	r3, [r3, #0]
 8004d64:	4a12      	ldr	r2, [pc, #72]	@ (8004db0 <HAL_TIM_PWM_Start+0x140>)
 8004d66:	4293      	cmp	r3, r2
 8004d68:	d111      	bne.n	8004d8e <HAL_TIM_PWM_Start+0x11e>
  {
    tmpsmcr = htim->Instance->SMCR & TIM_SMCR_SMS;
 8004d6a:	687b      	ldr	r3, [r7, #4]
 8004d6c:	681b      	ldr	r3, [r3, #0]
 8004d6e:	689b      	ldr	r3, [r3, #8]
 8004d70:	f003 0307 	and.w	r3, r3, #7
 8004d74:	60fb      	str	r3, [r7, #12]
    if (!IS_TIM_SLAVEMODE_TRIGGER_ENABLED(tmpsmcr))
 8004d76:	68fb      	ldr	r3, [r7, #12]
 8004d78:	2b06      	cmp	r3, #6
 8004d7a:	d010      	beq.n	8004d9e <HAL_TIM_PWM_Start+0x12e>
    {
      __HAL_TIM_ENABLE(htim);
 8004d7c:	687b      	ldr	r3, [r7, #4]
 8004d7e:	681b      	ldr	r3, [r3, #0]
 8004d80:	681a      	ldr	r2, [r3, #0]
 8004d82:	687b      	ldr	r3, [r7, #4]
 8004d84:	681b      	ldr	r3, [r3, #0]
 8004d86:	f042 0201 	orr.w	r2, r2, #1
 8004d8a:	601a      	str	r2, [r3, #0]
    if (!IS_TIM_SLAVEMODE_TRIGGER_ENABLED(tmpsmcr))
 8004d8c:	e007      	b.n	8004d9e <HAL_TIM_PWM_Start+0x12e>
    }
  }
  else
  {
    __HAL_TIM_ENABLE(htim);
 8004d8e:	687b      	ldr	r3, [r7, #4]
 8004d90:	681b      	ldr	r3, [r3, #0]
 8004d92:	681a      	ldr	r2, [r3, #0]
 8004d94:	687b      	ldr	r3, [r7, #4]
 8004d96:	681b      	ldr	r3, [r3, #0]
 8004d98:	f042 0201 	orr.w	r2, r2, #1
 8004d9c:	601a      	str	r2, [r3, #0]
  }

  /* Return function status */
  return HAL_OK;
 8004d9e:	2300      	movs	r3, #0
}
 8004da0:	4618      	mov	r0, r3
 8004da2:	3710      	adds	r7, #16
 8004da4:	46bd      	mov	sp, r7
 8004da6:	bd80      	pop	{r7, pc}
 8004da8:	40012c00 	.word	0x40012c00
 8004dac:	40000400 	.word	0x40000400
 8004db0:	40000800 	.word	0x40000800

08004db4 <HAL_TIM_IRQHandler>:
  * @brief  This function handles TIM interrupts requests.
  * @param  htim TIM  handle
  * @retval None
  */
void HAL_TIM_IRQHandler(TIM_HandleTypeDef *htim)
{
 8004db4:	b580      	push	{r7, lr}
 8004db6:	b082      	sub	sp, #8
 8004db8:	af00      	add	r7, sp, #0
 8004dba:	6078      	str	r0, [r7, #4]
  /* Capture compare 1 event */
  if (__HAL_TIM_GET_FLAG(htim, TIM_FLAG_CC1) != RESET)
 8004dbc:	687b      	ldr	r3, [r7, #4]
 8004dbe:	681b      	ldr	r3, [r3, #0]
 8004dc0:	691b      	ldr	r3, [r3, #16]
 8004dc2:	f003 0302 	and.w	r3, r3, #2
 8004dc6:	2b02      	cmp	r3, #2
 8004dc8:	d122      	bne.n	8004e10 <HAL_TIM_IRQHandler+0x5c>
  {
    if (__HAL_TIM_GET_IT_SOURCE(htim, TIM_IT_CC1) != RESET)
 8004dca:	687b      	ldr	r3, [r7, #4]
 8004dcc:	681b      	ldr	r3, [r3, #0]
 8004dce:	68db      	ldr	r3, [r3, #12]
 8004dd0:	f003 0302 	and.w	r3, r3, #2
 8004dd4:	2b02      	cmp	r3, #2
 8004dd6:	d11b      	bne.n	8004e10 <HAL_TIM_IRQHandler+0x5c>
    {
      {
        __HAL_TIM_CLEAR_IT(htim, TIM_IT_CC1);
 8004dd8:	687b      	ldr	r3, [r7, #4]
 8004dda:	681b      	ldr	r3, [r3, #0]
 8004ddc:	f06f 0202 	mvn.w	r2, #2
 8004de0:	611a      	str	r2, [r3, #16]
        htim->Channel = HAL_TIM_ACTIVE_CHANNEL_1;
 8004de2:	687b      	ldr	r3, [r7, #4]
 8004de4:	2201      	movs	r2, #1
 8004de6:	771a      	strb	r2, [r3, #28]

        /* Input capture event */
        if ((htim->Instance->CCMR1 & TIM_CCMR1_CC1S) != 0x00U)
 8004de8:	687b      	ldr	r3, [r7, #4]
 8004dea:	681b      	ldr	r3, [r3, #0]
 8004dec:	699b      	ldr	r3, [r3, #24]
 8004dee:	f003 0303 	and.w	r3, r3, #3
 8004df2:	2b00      	cmp	r3, #0
 8004df4:	d003      	beq.n	8004dfe <HAL_TIM_IRQHandler+0x4a>
        {
#if (USE_HAL_TIM_REGISTER_CALLBACKS == 1)
          htim->IC_CaptureCallback(htim);
#else
          HAL_TIM_IC_CaptureCallback(htim);
 8004df6:	6878      	ldr	r0, [r7, #4]
 8004df8:	f000 fa76 	bl	80052e8 <HAL_TIM_IC_CaptureCallback>
 8004dfc:	e005      	b.n	8004e0a <HAL_TIM_IRQHandler+0x56>
        {
#if (USE_HAL_TIM_REGISTER_CALLBACKS == 1)
          htim->OC_DelayElapsedCallback(htim);
          htim->PWM_PulseFinishedCallback(htim);
#else
          HAL_TIM_OC_DelayElapsedCallback(htim);
 8004dfe:	6878      	ldr	r0, [r7, #4]
 8004e00:	f000 fa69 	bl	80052d6 <HAL_TIM_OC_DelayElapsedCallback>
          HAL_TIM_PWM_PulseFinishedCallback(htim);
 8004e04:	6878      	ldr	r0, [r7, #4]
 8004e06:	f000 fa78 	bl	80052fa <HAL_TIM_PWM_PulseFinishedCallback>
#endif /* USE_HAL_TIM_REGISTER_CALLBACKS */
        }
        htim->Channel = HAL_TIM_ACTIVE_CHANNEL_CLEARED;
 8004e0a:	687b      	ldr	r3, [r7, #4]
 8004e0c:	2200      	movs	r2, #0
 8004e0e:	771a      	strb	r2, [r3, #28]
      }
    }
  }
  /* Capture compare 2 event */
  if (__HAL_TIM_GET_FLAG(htim, TIM_FLAG_CC2) != RESET)
 8004e10:	687b      	ldr	r3, [r7, #4]
 8004e12:	681b      	ldr	r3, [r3, #0]
 8004e14:	691b      	ldr	r3, [r3, #16]
 8004e16:	f003 0304 	and.w	r3, r3, #4
 8004e1a:	2b04      	cmp	r3, #4
 8004e1c:	d122      	bne.n	8004e64 <HAL_TIM_IRQHandler+0xb0>
  {
    if (__HAL_TIM_GET_IT_SOURCE(htim, TIM_IT_CC2) != RESET)
 8004e1e:	687b      	ldr	r3, [r7, #4]
 8004e20:	681b      	ldr	r3, [r3, #0]
 8004e22:	68db      	ldr	r3, [r3, #12]
 8004e24:	f003 0304 	and.w	r3, r3, #4
 8004e28:	2b04      	cmp	r3, #4
 8004e2a:	d11b      	bne.n	8004e64 <HAL_TIM_IRQHandler+0xb0>
    {
      __HAL_TIM_CLEAR_IT(htim, TIM_IT_CC2);
 8004e2c:	687b      	ldr	r3, [r7, #4]
 8004e2e:	681b      	ldr	r3, [r3, #0]
 8004e30:	f06f 0204 	mvn.w	r2, #4
 8004e34:	611a      	str	r2, [r3, #16]
      htim->Channel = HAL_TIM_ACTIVE_CHANNEL_2;
 8004e36:	687b      	ldr	r3, [r7, #4]
 8004e38:	2202      	movs	r2, #2
 8004e3a:	771a      	strb	r2, [r3, #28]
      /* Input capture event */
      if ((htim->Instance->CCMR1 & TIM_CCMR1_CC2S) != 0x00U)
 8004e3c:	687b      	ldr	r3, [r7, #4]
 8004e3e:	681b      	ldr	r3, [r3, #0]
 8004e40:	699b      	ldr	r3, [r3, #24]
 8004e42:	f403 7340 	and.w	r3, r3, #768	@ 0x300
 8004e46:	2b00      	cmp	r3, #0
 8004e48:	d003      	beq.n	8004e52 <HAL_TIM_IRQHandler+0x9e>
      {
#if (USE_HAL_TIM_REGISTER_CALLBACKS == 1)
        htim->IC_CaptureCallback(htim);
#else
        HAL_TIM_IC_CaptureCallback(htim);
 8004e4a:	6878      	ldr	r0, [r7, #4]
 8004e4c:	f000 fa4c 	bl	80052e8 <HAL_TIM_IC_CaptureCallback>
 8004e50:	e005      	b.n	8004e5e <HAL_TIM_IRQHandler+0xaa>
      {
#if (USE_HAL_TIM_REGISTER_CALLBACKS == 1)
        htim->OC_DelayElapsedCallback(htim);
        htim->PWM_PulseFinishedCallback(htim);
#else
        HAL_TIM_OC_DelayElapsedCallback(htim);
 8004e52:	6878      	ldr	r0, [r7, #4]
 8004e54:	f000 fa3f 	bl	80052d6 <HAL_TIM_OC_DelayElapsedCallback>
        HAL_TIM_PWM_PulseFinishedCallback(htim);
 8004e58:	6878      	ldr	r0, [r7, #4]
 8004e5a:	f000 fa4e 	bl	80052fa <HAL_TIM_PWM_PulseFinishedCallback>
#endif /* USE_HAL_TIM_REGISTER_CALLBACKS */
      }
      htim->Channel = HAL_TIM_ACTIVE_CHANNEL_CLEARED;
 8004e5e:	687b      	ldr	r3, [r7, #4]
 8004e60:	2200      	movs	r2, #0
 8004e62:	771a      	strb	r2, [r3, #28]
    }
  }
  /* Capture compare 3 event */
  if (__HAL_TIM_GET_FLAG(htim, TIM_FLAG_CC3) != RESET)
 8004e64:	687b      	ldr	r3, [r7, #4]
 8004e66:	681b      	ldr	r3, [r3, #0]
 8004e68:	691b      	ldr	r3, [r3, #16]
 8004e6a:	f003 0308 	and.w	r3, r3, #8
 8004e6e:	2b08      	cmp	r3, #8
 8004e70:	d122      	bne.n	8004eb8 <HAL_TIM_IRQHandler+0x104>
  {
    if (__HAL_TIM_GET_IT_SOURCE(htim, TIM_IT_CC3) != RESET)
 8004e72:	687b      	ldr	r3, [r7, #4]
 8004e74:	681b      	ldr	r3, [r3, #0]
 8004e76:	68db      	ldr	r3, [r3, #12]
 8004e78:	f003 0308 	and.w	r3, r3, #8
 8004e7c:	2b08      	cmp	r3, #8
 8004e7e:	d11b      	bne.n	8004eb8 <HAL_TIM_IRQHandler+0x104>
    {
      __HAL_TIM_CLEAR_IT(htim, TIM_IT_CC3);
 8004e80:	687b      	ldr	r3, [r7, #4]
 8004e82:	681b      	ldr	r3, [r3, #0]
 8004e84:	f06f 0208 	mvn.w	r2, #8
 8004e88:	611a      	str	r2, [r3, #16]
      htim->Channel = HAL_TIM_ACTIVE_CHANNEL_3;
 8004e8a:	687b      	ldr	r3, [r7, #4]
 8004e8c:	2204      	movs	r2, #4
 8004e8e:	771a      	strb	r2, [r3, #28]
      /* Input capture event */
      if ((htim->Instance->CCMR2 & TIM_CCMR2_CC3S) != 0x00U)
 8004e90:	687b      	ldr	r3, [r7, #4]
 8004e92:	681b      	ldr	r3, [r3, #0]
 8004e94:	69db      	ldr	r3, [r3, #28]
 8004e96:	f003 0303 	and.w	r3, r3, #3
 8004e9a:	2b00      	cmp	r3, #0
 8004e9c:	d003      	beq.n	8004ea6 <HAL_TIM_IRQHandler+0xf2>
      {
#if (USE_HAL_TIM_REGISTER_CALLBACKS == 1)
        htim->IC_CaptureCallback(htim);
#else
        HAL_TIM_IC_CaptureCallback(htim);
 8004e9e:	6878      	ldr	r0, [r7, #4]
 8004ea0:	f000 fa22 	bl	80052e8 <HAL_TIM_IC_CaptureCallback>
 8004ea4:	e005      	b.n	8004eb2 <HAL_TIM_IRQHandler+0xfe>
      {
#if (USE_HAL_TIM_REGISTER_CALLBACKS == 1)
        htim->OC_DelayElapsedCallback(htim);
        htim->PWM_PulseFinishedCallback(htim);
#else
        HAL_TIM_OC_DelayElapsedCallback(htim);
 8004ea6:	6878      	ldr	r0, [r7, #4]
 8004ea8:	f000 fa15 	bl	80052d6 <HAL_TIM_OC_DelayElapsedCallback>
        HAL_TIM_PWM_PulseFinishedCallback(htim);
 8004eac:	6878      	ldr	r0, [r7, #4]
 8004eae:	f000 fa24 	bl	80052fa <HAL_TIM_PWM_PulseFinishedCallback>
#endif /* USE_HAL_TIM_REGISTER_CALLBACKS */
      }
      htim->Channel = HAL_TIM_ACTIVE_CHANNEL_CLEARED;
 8004eb2:	687b      	ldr	r3, [r7, #4]
 8004eb4:	2200      	movs	r2, #0
 8004eb6:	771a      	strb	r2, [r3, #28]
    }
  }
  /* Capture compare 4 event */
  if (__HAL_TIM_GET_FLAG(htim, TIM_FLAG_CC4) != RESET)
 8004eb8:	687b      	ldr	r3, [r7, #4]
 8004eba:	681b      	ldr	r3, [r3, #0]
 8004ebc:	691b      	ldr	r3, [r3, #16]
 8004ebe:	f003 0310 	and.w	r3, r3, #16
 8004ec2:	2b10      	cmp	r3, #16
 8004ec4:	d122      	bne.n	8004f0c <HAL_TIM_IRQHandler+0x158>
  {
    if (__HAL_TIM_GET_IT_SOURCE(htim, TIM_IT_CC4) != RESET)
 8004ec6:	687b      	ldr	r3, [r7, #4]
 8004ec8:	681b      	ldr	r3, [r3, #0]
 8004eca:	68db      	ldr	r3, [r3, #12]
 8004ecc:	f003 0310 	and.w	r3, r3, #16
 8004ed0:	2b10      	cmp	r3, #16
 8004ed2:	d11b      	bne.n	8004f0c <HAL_TIM_IRQHandler+0x158>
    {
      __HAL_TIM_CLEAR_IT(htim, TIM_IT_CC4);
 8004ed4:	687b      	ldr	r3, [r7, #4]
 8004ed6:	681b      	ldr	r3, [r3, #0]
 8004ed8:	f06f 0210 	mvn.w	r2, #16
 8004edc:	611a      	str	r2, [r3, #16]
      htim->Channel = HAL_TIM_ACTIVE_CHANNEL_4;
 8004ede:	687b      	ldr	r3, [r7, #4]
 8004ee0:	2208      	movs	r2, #8
 8004ee2:	771a      	strb	r2, [r3, #28]
      /* Input capture event */
      if ((htim->Instance->CCMR2 & TIM_CCMR2_CC4S) != 0x00U)
 8004ee4:	687b      	ldr	r3, [r7, #4]
 8004ee6:	681b      	ldr	r3, [r3, #0]
 8004ee8:	69db      	ldr	r3, [r3, #28]
 8004eea:	f403 7340 	and.w	r3, r3, #768	@ 0x300
 8004eee:	2b00      	cmp	r3, #0
 8004ef0:	d003      	beq.n	8004efa <HAL_TIM_IRQHandler+0x146>
      {
#if (USE_HAL_TIM_REGISTER_CALLBACKS == 1)
        htim->IC_CaptureCallback(htim);
#else
        HAL_TIM_IC_CaptureCallback(htim);
 8004ef2:	6878      	ldr	r0, [r7, #4]
 8004ef4:	f000 f9f8 	bl	80052e8 <HAL_TIM_IC_CaptureCallback>
 8004ef8:	e005      	b.n	8004f06 <HAL_TIM_IRQHandler+0x152>
      {
#if (USE_HAL_TIM_REGISTER_CALLBACKS == 1)
        htim->OC_DelayElapsedCallback(htim);
        htim->PWM_PulseFinishedCallback(htim);
#else
        HAL_TIM_OC_DelayElapsedCallback(htim);
 8004efa:	6878      	ldr	r0, [r7, #4]
 8004efc:	f000 f9eb 	bl	80052d6 <HAL_TIM_OC_DelayElapsedCallback>
        HAL_TIM_PWM_PulseFinishedCallback(htim);
 8004f00:	6878      	ldr	r0, [r7, #4]
 8004f02:	f000 f9fa 	bl	80052fa <HAL_TIM_PWM_PulseFinishedCallback>
#endif /* USE_HAL_TIM_REGISTER_CALLBACKS */
      }
      htim->Channel = HAL_TIM_ACTIVE_CHANNEL_CLEARED;
 8004f06:	687b      	ldr	r3, [r7, #4]
 8004f08:	2200      	movs	r2, #0
 8004f0a:	771a      	strb	r2, [r3, #28]
    }
  }
  /* TIM Update event */
  if (__HAL_TIM_GET_FLAG(htim, TIM_FLAG_UPDATE) != RESET)
 8004f0c:	687b      	ldr	r3, [r7, #4]
 8004f0e:	681b      	ldr	r3, [r3, #0]
 8004f10:	691b      	ldr	r3, [r3, #16]
 8004f12:	f003 0301 	and.w	r3, r3, #1
 8004f16:	2b01      	cmp	r3, #1
 8004f18:	d10e      	bne.n	8004f38 <HAL_TIM_IRQHandler+0x184>
  {
    if (__HAL_TIM_GET_IT_SOURCE(htim, TIM_IT_UPDATE) != RESET)
 8004f1a:	687b      	ldr	r3, [r7, #4]
 8004f1c:	681b      	ldr	r3, [r3, #0]
 8004f1e:	68db      	ldr	r3, [r3, #12]
 8004f20:	f003 0301 	and.w	r3, r3, #1
 8004f24:	2b01      	cmp	r3, #1
 8004f26:	d107      	bne.n	8004f38 <HAL_TIM_IRQHandler+0x184>
    {
      __HAL_TIM_CLEAR_IT(htim, TIM_IT_UPDATE);
 8004f28:	687b      	ldr	r3, [r7, #4]
 8004f2a:	681b      	ldr	r3, [r3, #0]
 8004f2c:	f06f 0201 	mvn.w	r2, #1
 8004f30:	611a      	str	r2, [r3, #16]
#if (USE_HAL_TIM_REGISTER_CALLBACKS == 1)
      htim->PeriodElapsedCallback(htim);
#else
      HAL_TIM_PeriodElapsedCallback(htim);
 8004f32:	6878      	ldr	r0, [r7, #4]
 8004f34:	f7fc ff32 	bl	8001d9c <HAL_TIM_PeriodElapsedCallback>
#endif /* USE_HAL_TIM_REGISTER_CALLBACKS */
    }
  }
  /* TIM Break input event */
  if (__HAL_TIM_GET_FLAG(htim, TIM_FLAG_BREAK) != RESET)
 8004f38:	687b      	ldr	r3, [r7, #4]
 8004f3a:	681b      	ldr	r3, [r3, #0]
 8004f3c:	691b      	ldr	r3, [r3, #16]
 8004f3e:	f003 0380 	and.w	r3, r3, #128	@ 0x80
 8004f42:	2b80      	cmp	r3, #128	@ 0x80
 8004f44:	d10e      	bne.n	8004f64 <HAL_TIM_IRQHandler+0x1b0>
  {
    if (__HAL_TIM_GET_IT_SOURCE(htim, TIM_IT_BREAK) != RESET)
 8004f46:	687b      	ldr	r3, [r7, #4]
 8004f48:	681b      	ldr	r3, [r3, #0]
 8004f4a:	68db      	ldr	r3, [r3, #12]
 8004f4c:	f003 0380 	and.w	r3, r3, #128	@ 0x80
 8004f50:	2b80      	cmp	r3, #128	@ 0x80
 8004f52:	d107      	bne.n	8004f64 <HAL_TIM_IRQHandler+0x1b0>
    {
      __HAL_TIM_CLEAR_IT(htim, TIM_IT_BREAK);
 8004f54:	687b      	ldr	r3, [r7, #4]
 8004f56:	681b      	ldr	r3, [r3, #0]
 8004f58:	f06f 0280 	mvn.w	r2, #128	@ 0x80
 8004f5c:	611a      	str	r2, [r3, #16]
#if (USE_HAL_TIM_REGISTER_CALLBACKS == 1)
      htim->BreakCallback(htim);
#else
      HAL_TIMEx_BreakCallback(htim);
 8004f5e:	6878      	ldr	r0, [r7, #4]
 8004f60:	f000 fce9 	bl	8005936 <HAL_TIMEx_BreakCallback>
#endif /* USE_HAL_TIM_REGISTER_CALLBACKS */
    }
  }
  /* TIM Trigger detection event */
  if (__HAL_TIM_GET_FLAG(htim, TIM_FLAG_TRIGGER) != RESET)
 8004f64:	687b      	ldr	r3, [r7, #4]
 8004f66:	681b      	ldr	r3, [r3, #0]
 8004f68:	691b      	ldr	r3, [r3, #16]
 8004f6a:	f003 0340 	and.w	r3, r3, #64	@ 0x40
 8004f6e:	2b40      	cmp	r3, #64	@ 0x40
 8004f70:	d10e      	bne.n	8004f90 <HAL_TIM_IRQHandler+0x1dc>
  {
    if (__HAL_TIM_GET_IT_SOURCE(htim, TIM_IT_TRIGGER) != RESET)
 8004f72:	687b      	ldr	r3, [r7, #4]
 8004f74:	681b      	ldr	r3, [r3, #0]
 8004f76:	68db      	ldr	r3, [r3, #12]
 8004f78:	f003 0340 	and.w	r3, r3, #64	@ 0x40
 8004f7c:	2b40      	cmp	r3, #64	@ 0x40
 8004f7e:	d107      	bne.n	8004f90 <HAL_TIM_IRQHandler+0x1dc>
    {
      __HAL_TIM_CLEAR_IT(htim, TIM_IT_TRIGGER);
 8004f80:	687b      	ldr	r3, [r7, #4]
 8004f82:	681b      	ldr	r3, [r3, #0]
 8004f84:	f06f 0240 	mvn.w	r2, #64	@ 0x40
 8004f88:	611a      	str	r2, [r3, #16]
#if (USE_HAL_TIM_REGISTER_CALLBACKS == 1)
      htim->TriggerCallback(htim);
#else
      HAL_TIM_TriggerCallback(htim);
 8004f8a:	6878      	ldr	r0, [r7, #4]
 8004f8c:	f000 f9be 	bl	800530c <HAL_TIM_TriggerCallback>
#endif /* USE_HAL_TIM_REGISTER_CALLBACKS */
    }
  }
  /* TIM commutation event */
  if (__HAL_TIM_GET_FLAG(htim, TIM_FLAG_COM) != RESET)
 8004f90:	687b      	ldr	r3, [r7, #4]
 8004f92:	681b      	ldr	r3, [r3, #0]
 8004f94:	691b      	ldr	r3, [r3, #16]
 8004f96:	f003 0320 	and.w	r3, r3, #32
 8004f9a:	2b20      	cmp	r3, #32
 8004f9c:	d10e      	bne.n	8004fbc <HAL_TIM_IRQHandler+0x208>
  {
    if (__HAL_TIM_GET_IT_SOURCE(htim, TIM_IT_COM) != RESET)
 8004f9e:	687b      	ldr	r3, [r7, #4]
 8004fa0:	681b      	ldr	r3, [r3, #0]
 8004fa2:	68db      	ldr	r3, [r3, #12]
 8004fa4:	f003 0320 	and.w	r3, r3, #32
 8004fa8:	2b20      	cmp	r3, #32
 8004faa:	d107      	bne.n	8004fbc <HAL_TIM_IRQHandler+0x208>
    {
      __HAL_TIM_CLEAR_IT(htim, TIM_FLAG_COM);
 8004fac:	687b      	ldr	r3, [r7, #4]
 8004fae:	681b      	ldr	r3, [r3, #0]
 8004fb0:	f06f 0220 	mvn.w	r2, #32
 8004fb4:	611a      	str	r2, [r3, #16]
#if (USE_HAL_TIM_REGISTER_CALLBACKS == 1)
      htim->CommutationCallback(htim);
#else
      HAL_TIMEx_CommutCallback(htim);
 8004fb6:	6878      	ldr	r0, [r7, #4]
 8004fb8:	f000 fcb4 	bl	8005924 <HAL_TIMEx_CommutCallback>
#endif /* USE_HAL_TIM_REGISTER_CALLBACKS */
    }
  }
}
 8004fbc:	bf00      	nop
 8004fbe:	3708      	adds	r7, #8
 8004fc0:	46bd      	mov	sp, r7
 8004fc2:	bd80      	pop	{r7, pc}

08004fc4 <HAL_TIM_PWM_ConfigChannel>:
  * @retval HAL status
  */
HAL_StatusTypeDef HAL_TIM_PWM_ConfigChannel(TIM_HandleTypeDef *htim,
                                            const TIM_OC_InitTypeDef *sConfig,
                                            uint32_t Channel)
{
 8004fc4:	b580      	push	{r7, lr}
 8004fc6:	b086      	sub	sp, #24
 8004fc8:	af00      	add	r7, sp, #0
 8004fca:	60f8      	str	r0, [r7, #12]
 8004fcc:	60b9      	str	r1, [r7, #8]
 8004fce:	607a      	str	r2, [r7, #4]
  HAL_StatusTypeDef status = HAL_OK;
 8004fd0:	2300      	movs	r3, #0
 8004fd2:	75fb      	strb	r3, [r7, #23]
  assert_param(IS_TIM_PWM_MODE(sConfig->OCMode));
  assert_param(IS_TIM_OC_POLARITY(sConfig->OCPolarity));
  assert_param(IS_TIM_FAST_STATE(sConfig->OCFastMode));

  /* Process Locked */
  __HAL_LOCK(htim);
 8004fd4:	68fb      	ldr	r3, [r7, #12]
 8004fd6:	f893 303c 	ldrb.w	r3, [r3, #60]	@ 0x3c
 8004fda:	2b01      	cmp	r3, #1
 8004fdc:	d101      	bne.n	8004fe2 <HAL_TIM_PWM_ConfigChannel+0x1e>
 8004fde:	2302      	movs	r3, #2
 8004fe0:	e0ae      	b.n	8005140 <HAL_TIM_PWM_ConfigChannel+0x17c>
 8004fe2:	68fb      	ldr	r3, [r7, #12]
 8004fe4:	2201      	movs	r2, #1
 8004fe6:	f883 203c 	strb.w	r2, [r3, #60]	@ 0x3c

  switch (Channel)
 8004fea:	687b      	ldr	r3, [r7, #4]
 8004fec:	2b0c      	cmp	r3, #12
 8004fee:	f200 809f 	bhi.w	8005130 <HAL_TIM_PWM_ConfigChannel+0x16c>
 8004ff2:	a201      	add	r2, pc, #4	@ (adr r2, 8004ff8 <HAL_TIM_PWM_ConfigChannel+0x34>)
 8004ff4:	f852 f023 	ldr.w	pc, [r2, r3, lsl #2]
 8004ff8:	0800502d 	.word	0x0800502d
 8004ffc:	08005131 	.word	0x08005131
 8005000:	08005131 	.word	0x08005131
 8005004:	08005131 	.word	0x08005131
 8005008:	0800506d 	.word	0x0800506d
 800500c:	08005131 	.word	0x08005131
 8005010:	08005131 	.word	0x08005131
 8005014:	08005131 	.word	0x08005131
 8005018:	080050af 	.word	0x080050af
 800501c:	08005131 	.word	0x08005131
 8005020:	08005131 	.word	0x08005131
 8005024:	08005131 	.word	0x08005131
 8005028:	080050ef 	.word	0x080050ef
    {
      /* Check the parameters */
      assert_param(IS_TIM_CC1_INSTANCE(htim->Instance));

      /* Configure the Channel 1 in PWM mode */
      TIM_OC1_SetConfig(htim->Instance, sConfig);
 800502c:	68fb      	ldr	r3, [r7, #12]
 800502e:	681b      	ldr	r3, [r3, #0]
 8005030:	68b9      	ldr	r1, [r7, #8]
 8005032:	4618      	mov	r0, r3
 8005034:	f000 f9d6 	bl	80053e4 <TIM_OC1_SetConfig>

      /* Set the Preload enable bit for channel1 */
      htim->Instance->CCMR1 |= TIM_CCMR1_OC1PE;
 8005038:	68fb      	ldr	r3, [r7, #12]
 800503a:	681b      	ldr	r3, [r3, #0]
 800503c:	699a      	ldr	r2, [r3, #24]
 800503e:	68fb      	ldr	r3, [r7, #12]
 8005040:	681b      	ldr	r3, [r3, #0]
 8005042:	f042 0208 	orr.w	r2, r2, #8
 8005046:	619a      	str	r2, [r3, #24]

      /* Configure the Output Fast mode */
      htim->Instance->CCMR1 &= ~TIM_CCMR1_OC1FE;
 8005048:	68fb      	ldr	r3, [r7, #12]
 800504a:	681b      	ldr	r3, [r3, #0]
 800504c:	699a      	ldr	r2, [r3, #24]
 800504e:	68fb      	ldr	r3, [r7, #12]
 8005050:	681b      	ldr	r3, [r3, #0]
 8005052:	f022 0204 	bic.w	r2, r2, #4
 8005056:	619a      	str	r2, [r3, #24]
      htim->Instance->CCMR1 |= sConfig->OCFastMode;
 8005058:	68fb      	ldr	r3, [r7, #12]
 800505a:	681b      	ldr	r3, [r3, #0]
 800505c:	6999      	ldr	r1, [r3, #24]
 800505e:	68bb      	ldr	r3, [r7, #8]
 8005060:	691a      	ldr	r2, [r3, #16]
 8005062:	68fb      	ldr	r3, [r7, #12]
 8005064:	681b      	ldr	r3, [r3, #0]
 8005066:	430a      	orrs	r2, r1
 8005068:	619a      	str	r2, [r3, #24]
      break;
 800506a:	e064      	b.n	8005136 <HAL_TIM_PWM_ConfigChannel+0x172>
    {
      /* Check the parameters */
      assert_param(IS_TIM_CC2_INSTANCE(htim->Instance));

      /* Configure the Channel 2 in PWM mode */
      TIM_OC2_SetConfig(htim->Instance, sConfig);
 800506c:	68fb      	ldr	r3, [r7, #12]
 800506e:	681b      	ldr	r3, [r3, #0]
 8005070:	68b9      	ldr	r1, [r7, #8]
 8005072:	4618      	mov	r0, r3
 8005074:	f000 fa1c 	bl	80054b0 <TIM_OC2_SetConfig>

      /* Set the Preload enable bit for channel2 */
      htim->Instance->CCMR1 |= TIM_CCMR1_OC2PE;
 8005078:	68fb      	ldr	r3, [r7, #12]
 800507a:	681b      	ldr	r3, [r3, #0]
 800507c:	699a      	ldr	r2, [r3, #24]
 800507e:	68fb      	ldr	r3, [r7, #12]
 8005080:	681b      	ldr	r3, [r3, #0]
 8005082:	f442 6200 	orr.w	r2, r2, #2048	@ 0x800
 8005086:	619a      	str	r2, [r3, #24]

      /* Configure the Output Fast mode */
      htim->Instance->CCMR1 &= ~TIM_CCMR1_OC2FE;
 8005088:	68fb      	ldr	r3, [r7, #12]
 800508a:	681b      	ldr	r3, [r3, #0]
 800508c:	699a      	ldr	r2, [r3, #24]
 800508e:	68fb      	ldr	r3, [r7, #12]
 8005090:	681b      	ldr	r3, [r3, #0]
 8005092:	f422 6280 	bic.w	r2, r2, #1024	@ 0x400
 8005096:	619a      	str	r2, [r3, #24]
      htim->Instance->CCMR1 |= sConfig->OCFastMode << 8U;
 8005098:	68fb      	ldr	r3, [r7, #12]
 800509a:	681b      	ldr	r3, [r3, #0]
 800509c:	6999      	ldr	r1, [r3, #24]
 800509e:	68bb      	ldr	r3, [r7, #8]
 80050a0:	691b      	ldr	r3, [r3, #16]
 80050a2:	021a      	lsls	r2, r3, #8
 80050a4:	68fb      	ldr	r3, [r7, #12]
 80050a6:	681b      	ldr	r3, [r3, #0]
 80050a8:	430a      	orrs	r2, r1
 80050aa:	619a      	str	r2, [r3, #24]
      break;
 80050ac:	e043      	b.n	8005136 <HAL_TIM_PWM_ConfigChannel+0x172>
    {
      /* Check the parameters */
      assert_param(IS_TIM_CC3_INSTANCE(htim->Instance));

      /* Configure the Channel 3 in PWM mode */
      TIM_OC3_SetConfig(htim->Instance, sConfig);
 80050ae:	68fb      	ldr	r3, [r7, #12]
 80050b0:	681b      	ldr	r3, [r3, #0]
 80050b2:	68b9      	ldr	r1, [r7, #8]
 80050b4:	4618      	mov	r0, r3
 80050b6:	f000 fa65 	bl	8005584 <TIM_OC3_SetConfig>

      /* Set the Preload enable bit for channel3 */
      htim->Instance->CCMR2 |= TIM_CCMR2_OC3PE;
 80050ba:	68fb      	ldr	r3, [r7, #12]
 80050bc:	681b      	ldr	r3, [r3, #0]
 80050be:	69da      	ldr	r2, [r3, #28]
 80050c0:	68fb      	ldr	r3, [r7, #12]
 80050c2:	681b      	ldr	r3, [r3, #0]
 80050c4:	f042 0208 	orr.w	r2, r2, #8
 80050c8:	61da      	str	r2, [r3, #28]

      /* Configure the Output Fast mode */
      htim->Instance->CCMR2 &= ~TIM_CCMR2_OC3FE;
 80050ca:	68fb      	ldr	r3, [r7, #12]
 80050cc:	681b      	ldr	r3, [r3, #0]
 80050ce:	69da      	ldr	r2, [r3, #28]
 80050d0:	68fb      	ldr	r3, [r7, #12]
 80050d2:	681b      	ldr	r3, [r3, #0]
 80050d4:	f022 0204 	bic.w	r2, r2, #4
 80050d8:	61da      	str	r2, [r3, #28]
      htim->Instance->CCMR2 |= sConfig->OCFastMode;
 80050da:	68fb      	ldr	r3, [r7, #12]
 80050dc:	681b      	ldr	r3, [r3, #0]
 80050de:	69d9      	ldr	r1, [r3, #28]
 80050e0:	68bb      	ldr	r3, [r7, #8]
 80050e2:	691a      	ldr	r2, [r3, #16]
 80050e4:	68fb      	ldr	r3, [r7, #12]
 80050e6:	681b      	ldr	r3, [r3, #0]
 80050e8:	430a      	orrs	r2, r1
 80050ea:	61da      	str	r2, [r3, #28]
      break;
 80050ec:	e023      	b.n	8005136 <HAL_TIM_PWM_ConfigChannel+0x172>
    {
      /* Check the parameters */
      assert_param(IS_TIM_CC4_INSTANCE(htim->Instance));

      /* Configure the Channel 4 in PWM mode */
      TIM_OC4_SetConfig(htim->Instance, sConfig);
 80050ee:	68fb      	ldr	r3, [r7, #12]
 80050f0:	681b      	ldr	r3, [r3, #0]
 80050f2:	68b9      	ldr	r1, [r7, #8]
 80050f4:	4618      	mov	r0, r3
 80050f6:	f000 faaf 	bl	8005658 <TIM_OC4_SetConfig>

      /* Set the Preload enable bit for channel4 */
      htim->Instance->CCMR2 |= TIM_CCMR2_OC4PE;
 80050fa:	68fb      	ldr	r3, [r7, #12]
 80050fc:	681b      	ldr	r3, [r3, #0]
 80050fe:	69da      	ldr	r2, [r3, #28]
 8005100:	68fb      	ldr	r3, [r7, #12]
 8005102:	681b      	ldr	r3, [r3, #0]
 8005104:	f442 6200 	orr.w	r2, r2, #2048	@ 0x800
 8005108:	61da      	str	r2, [r3, #28]

      /* Configure the Output Fast mode */
      htim->Instance->CCMR2 &= ~TIM_CCMR2_OC4FE;
 800510a:	68fb      	ldr	r3, [r7, #12]
 800510c:	681b      	ldr	r3, [r3, #0]
 800510e:	69da      	ldr	r2, [r3, #28]
 8005110:	68fb      	ldr	r3, [r7, #12]
 8005112:	681b      	ldr	r3, [r3, #0]
 8005114:	f422 6280 	bic.w	r2, r2, #1024	@ 0x400
 8005118:	61da      	str	r2, [r3, #28]
      htim->Instance->CCMR2 |= sConfig->OCFastMode << 8U;
 800511a:	68fb      	ldr	r3, [r7, #12]
 800511c:	681b      	ldr	r3, [r3, #0]
 800511e:	69d9      	ldr	r1, [r3, #28]
 8005120:	68bb      	ldr	r3, [r7, #8]
 8005122:	691b      	ldr	r3, [r3, #16]
 8005124:	021a      	lsls	r2, r3, #8
 8005126:	68fb      	ldr	r3, [r7, #12]
 8005128:	681b      	ldr	r3, [r3, #0]
 800512a:	430a      	orrs	r2, r1
 800512c:	61da      	str	r2, [r3, #28]
      break;
 800512e:	e002      	b.n	8005136 <HAL_TIM_PWM_ConfigChannel+0x172>
    }

    default:
      status = HAL_ERROR;
 8005130:	2301      	movs	r3, #1
 8005132:	75fb      	strb	r3, [r7, #23]
      break;
 8005134:	bf00      	nop
  }

  __HAL_UNLOCK(htim);
 8005136:	68fb      	ldr	r3, [r7, #12]
 8005138:	2200      	movs	r2, #0
 800513a:	f883 203c 	strb.w	r2, [r3, #60]	@ 0x3c

  return status;
 800513e:	7dfb      	ldrb	r3, [r7, #23]
}
 8005140:	4618      	mov	r0, r3
 8005142:	3718      	adds	r7, #24
 8005144:	46bd      	mov	sp, r7
 8005146:	bd80      	pop	{r7, pc}

08005148 <HAL_TIM_ConfigClockSource>:
  * @param  sClockSourceConfig pointer to a TIM_ClockConfigTypeDef structure that
  *         contains the clock source information for the TIM peripheral.
  * @retval HAL status
  */
HAL_StatusTypeDef HAL_TIM_ConfigClockSource(TIM_HandleTypeDef *htim, const TIM_ClockConfigTypeDef *sClockSourceConfig)
{
 8005148:	b580      	push	{r7, lr}
 800514a:	b084      	sub	sp, #16
 800514c:	af00      	add	r7, sp, #0
 800514e:	6078      	str	r0, [r7, #4]
 8005150:	6039      	str	r1, [r7, #0]
  HAL_StatusTypeDef status = HAL_OK;
 8005152:	2300      	movs	r3, #0
 8005154:	73fb      	strb	r3, [r7, #15]
  uint32_t tmpsmcr;

  /* Process Locked */
  __HAL_LOCK(htim);
 8005156:	687b      	ldr	r3, [r7, #4]
 8005158:	f893 303c 	ldrb.w	r3, [r3, #60]	@ 0x3c
 800515c:	2b01      	cmp	r3, #1
 800515e:	d101      	bne.n	8005164 <HAL_TIM_ConfigClockSource+0x1c>
 8005160:	2302      	movs	r3, #2
 8005162:	e0b4      	b.n	80052ce <HAL_TIM_ConfigClockSource+0x186>
 8005164:	687b      	ldr	r3, [r7, #4]
 8005166:	2201      	movs	r2, #1
 8005168:	f883 203c 	strb.w	r2, [r3, #60]	@ 0x3c

  htim->State = HAL_TIM_STATE_BUSY;
 800516c:	687b      	ldr	r3, [r7, #4]
 800516e:	2202      	movs	r2, #2
 8005170:	f883 203d 	strb.w	r2, [r3, #61]	@ 0x3d

  /* Check the parameters */
  assert_param(IS_TIM_CLOCKSOURCE(sClockSourceConfig->ClockSource));

  /* Reset the SMS, TS, ECE, ETPS and ETRF bits */
  tmpsmcr = htim->Instance->SMCR;
 8005174:	687b      	ldr	r3, [r7, #4]
 8005176:	681b      	ldr	r3, [r3, #0]
 8005178:	689b      	ldr	r3, [r3, #8]
 800517a:	60bb      	str	r3, [r7, #8]
  tmpsmcr &= ~(TIM_SMCR_SMS | TIM_SMCR_TS);
 800517c:	68bb      	ldr	r3, [r7, #8]
 800517e:	f023 0377 	bic.w	r3, r3, #119	@ 0x77
 8005182:	60bb      	str	r3, [r7, #8]
  tmpsmcr &= ~(TIM_SMCR_ETF | TIM_SMCR_ETPS | TIM_SMCR_ECE | TIM_SMCR_ETP);
 8005184:	68bb      	ldr	r3, [r7, #8]
 8005186:	f423 437f 	bic.w	r3, r3, #65280	@ 0xff00
 800518a:	60bb      	str	r3, [r7, #8]
  htim->Instance->SMCR = tmpsmcr;
 800518c:	687b      	ldr	r3, [r7, #4]
 800518e:	681b      	ldr	r3, [r3, #0]
 8005190:	68ba      	ldr	r2, [r7, #8]
 8005192:	609a      	str	r2, [r3, #8]

  switch (sClockSourceConfig->ClockSource)
 8005194:	683b      	ldr	r3, [r7, #0]
 8005196:	681b      	ldr	r3, [r3, #0]
 8005198:	f5b3 5f00 	cmp.w	r3, #8192	@ 0x2000
 800519c:	d03e      	beq.n	800521c <HAL_TIM_ConfigClockSource+0xd4>
 800519e:	f5b3 5f00 	cmp.w	r3, #8192	@ 0x2000
 80051a2:	f200 8087 	bhi.w	80052b4 <HAL_TIM_ConfigClockSource+0x16c>
 80051a6:	f5b3 5f80 	cmp.w	r3, #4096	@ 0x1000
 80051aa:	f000 8086 	beq.w	80052ba <HAL_TIM_ConfigClockSource+0x172>
 80051ae:	f5b3 5f80 	cmp.w	r3, #4096	@ 0x1000
 80051b2:	d87f      	bhi.n	80052b4 <HAL_TIM_ConfigClockSource+0x16c>
 80051b4:	2b70      	cmp	r3, #112	@ 0x70
 80051b6:	d01a      	beq.n	80051ee <HAL_TIM_ConfigClockSource+0xa6>
 80051b8:	2b70      	cmp	r3, #112	@ 0x70
 80051ba:	d87b      	bhi.n	80052b4 <HAL_TIM_ConfigClockSource+0x16c>
 80051bc:	2b60      	cmp	r3, #96	@ 0x60
 80051be:	d050      	beq.n	8005262 <HAL_TIM_ConfigClockSource+0x11a>
 80051c0:	2b60      	cmp	r3, #96	@ 0x60
 80051c2:	d877      	bhi.n	80052b4 <HAL_TIM_ConfigClockSource+0x16c>
 80051c4:	2b50      	cmp	r3, #80	@ 0x50
 80051c6:	d03c      	beq.n	8005242 <HAL_TIM_ConfigClockSource+0xfa>
 80051c8:	2b50      	cmp	r3, #80	@ 0x50
 80051ca:	d873      	bhi.n	80052b4 <HAL_TIM_ConfigClockSource+0x16c>
 80051cc:	2b40      	cmp	r3, #64	@ 0x40
 80051ce:	d058      	beq.n	8005282 <HAL_TIM_ConfigClockSource+0x13a>
 80051d0:	2b40      	cmp	r3, #64	@ 0x40
 80051d2:	d86f      	bhi.n	80052b4 <HAL_TIM_ConfigClockSource+0x16c>
 80051d4:	2b30      	cmp	r3, #48	@ 0x30
 80051d6:	d064      	beq.n	80052a2 <HAL_TIM_ConfigClockSource+0x15a>
 80051d8:	2b30      	cmp	r3, #48	@ 0x30
 80051da:	d86b      	bhi.n	80052b4 <HAL_TIM_ConfigClockSource+0x16c>
 80051dc:	2b20      	cmp	r3, #32
 80051de:	d060      	beq.n	80052a2 <HAL_TIM_ConfigClockSource+0x15a>
 80051e0:	2b20      	cmp	r3, #32
 80051e2:	d867      	bhi.n	80052b4 <HAL_TIM_ConfigClockSource+0x16c>
 80051e4:	2b00      	cmp	r3, #0
 80051e6:	d05c      	beq.n	80052a2 <HAL_TIM_ConfigClockSource+0x15a>
 80051e8:	2b10      	cmp	r3, #16
 80051ea:	d05a      	beq.n	80052a2 <HAL_TIM_ConfigClockSource+0x15a>
 80051ec:	e062      	b.n	80052b4 <HAL_TIM_ConfigClockSource+0x16c>
      assert_param(IS_TIM_CLOCKPRESCALER(sClockSourceConfig->ClockPrescaler));
      assert_param(IS_TIM_CLOCKPOLARITY(sClockSourceConfig->ClockPolarity));
      assert_param(IS_TIM_CLOCKFILTER(sClockSourceConfig->ClockFilter));

      /* Configure the ETR Clock source */
      TIM_ETR_SetConfig(htim->Instance,
 80051ee:	687b      	ldr	r3, [r7, #4]
 80051f0:	6818      	ldr	r0, [r3, #0]
                        sClockSourceConfig->ClockPrescaler,
 80051f2:	683b      	ldr	r3, [r7, #0]
 80051f4:	6899      	ldr	r1, [r3, #8]
                        sClockSourceConfig->ClockPolarity,
 80051f6:	683b      	ldr	r3, [r7, #0]
 80051f8:	685a      	ldr	r2, [r3, #4]
                        sClockSourceConfig->ClockFilter);
 80051fa:	683b      	ldr	r3, [r7, #0]
 80051fc:	68db      	ldr	r3, [r3, #12]
      TIM_ETR_SetConfig(htim->Instance,
 80051fe:	f000 faf0 	bl	80057e2 <TIM_ETR_SetConfig>

      /* Select the External clock mode1 and the ETRF trigger */
      tmpsmcr = htim->Instance->SMCR;
 8005202:	687b      	ldr	r3, [r7, #4]
 8005204:	681b      	ldr	r3, [r3, #0]
 8005206:	689b      	ldr	r3, [r3, #8]
 8005208:	60bb      	str	r3, [r7, #8]
      tmpsmcr |= (TIM_SLAVEMODE_EXTERNAL1 | TIM_CLOCKSOURCE_ETRMODE1);
 800520a:	68bb      	ldr	r3, [r7, #8]
 800520c:	f043 0377 	orr.w	r3, r3, #119	@ 0x77
 8005210:	60bb      	str	r3, [r7, #8]
      /* Write to TIMx SMCR */
      htim->Instance->SMCR = tmpsmcr;
 8005212:	687b      	ldr	r3, [r7, #4]
 8005214:	681b      	ldr	r3, [r3, #0]
 8005216:	68ba      	ldr	r2, [r7, #8]
 8005218:	609a      	str	r2, [r3, #8]
      break;
 800521a:	e04f      	b.n	80052bc <HAL_TIM_ConfigClockSource+0x174>
      assert_param(IS_TIM_CLOCKPRESCALER(sClockSourceConfig->ClockPrescaler));
      assert_param(IS_TIM_CLOCKPOLARITY(sClockSourceConfig->ClockPolarity));
      assert_param(IS_TIM_CLOCKFILTER(sClockSourceConfig->ClockFilter));

      /* Configure the ETR Clock source */
      TIM_ETR_SetConfig(htim->Instance,
 800521c:	687b      	ldr	r3, [r7, #4]
 800521e:	6818      	ldr	r0, [r3, #0]
                        sClockSourceConfig->ClockPrescaler,
 8005220:	683b      	ldr	r3, [r7, #0]
 8005222:	6899      	ldr	r1, [r3, #8]
                        sClockSourceConfig->ClockPolarity,
 8005224:	683b      	ldr	r3, [r7, #0]
 8005226:	685a      	ldr	r2, [r3, #4]
                        sClockSourceConfig->ClockFilter);
 8005228:	683b      	ldr	r3, [r7, #0]
 800522a:	68db      	ldr	r3, [r3, #12]
      TIM_ETR_SetConfig(htim->Instance,
 800522c:	f000 fad9 	bl	80057e2 <TIM_ETR_SetConfig>
      /* Enable the External clock mode2 */
      htim->Instance->SMCR |= TIM_SMCR_ECE;
 8005230:	687b      	ldr	r3, [r7, #4]
 8005232:	681b      	ldr	r3, [r3, #0]
 8005234:	689a      	ldr	r2, [r3, #8]
 8005236:	687b      	ldr	r3, [r7, #4]
 8005238:	681b      	ldr	r3, [r3, #0]
 800523a:	f442 4280 	orr.w	r2, r2, #16384	@ 0x4000
 800523e:	609a      	str	r2, [r3, #8]
      break;
 8005240:	e03c      	b.n	80052bc <HAL_TIM_ConfigClockSource+0x174>

      /* Check TI1 input conditioning related parameters */
      assert_param(IS_TIM_CLOCKPOLARITY(sClockSourceConfig->ClockPolarity));
      assert_param(IS_TIM_CLOCKFILTER(sClockSourceConfig->ClockFilter));

      TIM_TI1_ConfigInputStage(htim->Instance,
 8005242:	687b      	ldr	r3, [r7, #4]
 8005244:	6818      	ldr	r0, [r3, #0]
                               sClockSourceConfig->ClockPolarity,
 8005246:	683b      	ldr	r3, [r7, #0]
 8005248:	6859      	ldr	r1, [r3, #4]
                               sClockSourceConfig->ClockFilter);
 800524a:	683b      	ldr	r3, [r7, #0]
 800524c:	68db      	ldr	r3, [r3, #12]
      TIM_TI1_ConfigInputStage(htim->Instance,
 800524e:	461a      	mov	r2, r3
 8005250:	f000 fa50 	bl	80056f4 <TIM_TI1_ConfigInputStage>
      TIM_ITRx_SetConfig(htim->Instance, TIM_CLOCKSOURCE_TI1);
 8005254:	687b      	ldr	r3, [r7, #4]
 8005256:	681b      	ldr	r3, [r3, #0]
 8005258:	2150      	movs	r1, #80	@ 0x50
 800525a:	4618      	mov	r0, r3
 800525c:	f000 faa7 	bl	80057ae <TIM_ITRx_SetConfig>
      break;
 8005260:	e02c      	b.n	80052bc <HAL_TIM_ConfigClockSource+0x174>

      /* Check TI2 input conditioning related parameters */
      assert_param(IS_TIM_CLOCKPOLARITY(sClockSourceConfig->ClockPolarity));
      assert_param(IS_TIM_CLOCKFILTER(sClockSourceConfig->ClockFilter));

      TIM_TI2_ConfigInputStage(htim->Instance,
 8005262:	687b      	ldr	r3, [r7, #4]
 8005264:	6818      	ldr	r0, [r3, #0]
                               sClockSourceConfig->ClockPolarity,
 8005266:	683b      	ldr	r3, [r7, #0]
 8005268:	6859      	ldr	r1, [r3, #4]
                               sClockSourceConfig->ClockFilter);
 800526a:	683b      	ldr	r3, [r7, #0]
 800526c:	68db      	ldr	r3, [r3, #12]
      TIM_TI2_ConfigInputStage(htim->Instance,
 800526e:	461a      	mov	r2, r3
 8005270:	f000 fa6e 	bl	8005750 <TIM_TI2_ConfigInputStage>
      TIM_ITRx_SetConfig(htim->Instance, TIM_CLOCKSOURCE_TI2);
 8005274:	687b      	ldr	r3, [r7, #4]
 8005276:	681b      	ldr	r3, [r3, #0]
 8005278:	2160      	movs	r1, #96	@ 0x60
 800527a:	4618      	mov	r0, r3
 800527c:	f000 fa97 	bl	80057ae <TIM_ITRx_SetConfig>
      break;
 8005280:	e01c      	b.n	80052bc <HAL_TIM_ConfigClockSource+0x174>

      /* Check TI1 input conditioning related parameters */
      assert_param(IS_TIM_CLOCKPOLARITY(sClockSourceConfig->ClockPolarity));
      assert_param(IS_TIM_CLOCKFILTER(sClockSourceConfig->ClockFilter));

      TIM_TI1_ConfigInputStage(htim->Instance,
 8005282:	687b      	ldr	r3, [r7, #4]
 8005284:	6818      	ldr	r0, [r3, #0]
                               sClockSourceConfig->ClockPolarity,
 8005286:	683b      	ldr	r3, [r7, #0]
 8005288:	6859      	ldr	r1, [r3, #4]
                               sClockSourceConfig->ClockFilter);
 800528a:	683b      	ldr	r3, [r7, #0]
 800528c:	68db      	ldr	r3, [r3, #12]
      TIM_TI1_ConfigInputStage(htim->Instance,
 800528e:	461a      	mov	r2, r3
 8005290:	f000 fa30 	bl	80056f4 <TIM_TI1_ConfigInputStage>
      TIM_ITRx_SetConfig(htim->Instance, TIM_CLOCKSOURCE_TI1ED);
 8005294:	687b      	ldr	r3, [r7, #4]
 8005296:	681b      	ldr	r3, [r3, #0]
 8005298:	2140      	movs	r1, #64	@ 0x40
 800529a:	4618      	mov	r0, r3
 800529c:	f000 fa87 	bl	80057ae <TIM_ITRx_SetConfig>
      break;
 80052a0:	e00c      	b.n	80052bc <HAL_TIM_ConfigClockSource+0x174>
    case TIM_CLOCKSOURCE_ITR3:
    {
      /* Check whether or not the timer instance supports internal trigger input */
      assert_param(IS_TIM_CLOCKSOURCE_ITRX_INSTANCE(htim->Instance));

      TIM_ITRx_SetConfig(htim->Instance, sClockSourceConfig->ClockSource);
 80052a2:	687b      	ldr	r3, [r7, #4]
 80052a4:	681a      	ldr	r2, [r3, #0]
 80052a6:	683b      	ldr	r3, [r7, #0]
 80052a8:	681b      	ldr	r3, [r3, #0]
 80052aa:	4619      	mov	r1, r3
 80052ac:	4610      	mov	r0, r2
 80052ae:	f000 fa7e 	bl	80057ae <TIM_ITRx_SetConfig>
      break;
 80052b2:	e003      	b.n	80052bc <HAL_TIM_ConfigClockSource+0x174>
    }

    default:
      status = HAL_ERROR;
 80052b4:	2301      	movs	r3, #1
 80052b6:	73fb      	strb	r3, [r7, #15]
      break;
 80052b8:	e000      	b.n	80052bc <HAL_TIM_ConfigClockSource+0x174>
      break;
 80052ba:	bf00      	nop
  }
  htim->State = HAL_TIM_STATE_READY;
 80052bc:	687b      	ldr	r3, [r7, #4]
 80052be:	2201      	movs	r2, #1
 80052c0:	f883 203d 	strb.w	r2, [r3, #61]	@ 0x3d

  __HAL_UNLOCK(htim);
 80052c4:	687b      	ldr	r3, [r7, #4]
 80052c6:	2200      	movs	r2, #0
 80052c8:	f883 203c 	strb.w	r2, [r3, #60]	@ 0x3c

  return status;
 80052cc:	7bfb      	ldrb	r3, [r7, #15]
}
 80052ce:	4618      	mov	r0, r3
 80052d0:	3710      	adds	r7, #16
 80052d2:	46bd      	mov	sp, r7
 80052d4:	bd80      	pop	{r7, pc}

080052d6 <HAL_TIM_OC_DelayElapsedCallback>:
  * @brief  Output Compare callback in non-blocking mode
  * @param  htim TIM OC handle
  * @retval None
  */
__weak void HAL_TIM_OC_DelayElapsedCallback(TIM_HandleTypeDef *htim)
{
 80052d6:	b480      	push	{r7}
 80052d8:	b083      	sub	sp, #12
 80052da:	af00      	add	r7, sp, #0
 80052dc:	6078      	str	r0, [r7, #4]
  UNUSED(htim);

  /* NOTE : This function should not be modified, when the callback is needed,
            the HAL_TIM_OC_DelayElapsedCallback could be implemented in the user file
   */
}
 80052de:	bf00      	nop
 80052e0:	370c      	adds	r7, #12
 80052e2:	46bd      	mov	sp, r7
 80052e4:	bc80      	pop	{r7}
 80052e6:	4770      	bx	lr

080052e8 <HAL_TIM_IC_CaptureCallback>:
  * @brief  Input Capture callback in non-blocking mode
  * @param  htim TIM IC handle
  * @retval None
  */
__weak void HAL_TIM_IC_CaptureCallback(TIM_HandleTypeDef *htim)
{
 80052e8:	b480      	push	{r7}
 80052ea:	b083      	sub	sp, #12
 80052ec:	af00      	add	r7, sp, #0
 80052ee:	6078      	str	r0, [r7, #4]
  UNUSED(htim);

  /* NOTE : This function should not be modified, when the callback is needed,
            the HAL_TIM_IC_CaptureCallback could be implemented in the user file
   */
}
 80052f0:	bf00      	nop
 80052f2:	370c      	adds	r7, #12
 80052f4:	46bd      	mov	sp, r7
 80052f6:	bc80      	pop	{r7}
 80052f8:	4770      	bx	lr

080052fa <HAL_TIM_PWM_PulseFinishedCallback>:
  * @brief  PWM Pulse finished callback in non-blocking mode
  * @param  htim TIM handle
  * @retval None
  */
__weak void HAL_TIM_PWM_PulseFinishedCallback(TIM_HandleTypeDef *htim)
{
 80052fa:	b480      	push	{r7}
 80052fc:	b083      	sub	sp, #12
 80052fe:	af00      	add	r7, sp, #0
 8005300:	6078      	str	r0, [r7, #4]
  UNUSED(htim);

  /* NOTE : This function should not be modified, when the callback is needed,
            the HAL_TIM_PWM_PulseFinishedCallback could be implemented in the user file
   */
}
 8005302:	bf00      	nop
 8005304:	370c      	adds	r7, #12
 8005306:	46bd      	mov	sp, r7
 8005308:	bc80      	pop	{r7}
 800530a:	4770      	bx	lr

0800530c <HAL_TIM_TriggerCallback>:
  * @brief  Hall Trigger detection callback in non-blocking mode
  * @param  htim TIM handle
  * @retval None
  */
__weak void HAL_TIM_TriggerCallback(TIM_HandleTypeDef *htim)
{
 800530c:	b480      	push	{r7}
 800530e:	b083      	sub	sp, #12
 8005310:	af00      	add	r7, sp, #0
 8005312:	6078      	str	r0, [r7, #4]
  UNUSED(htim);

  /* NOTE : This function should not be modified, when the callback is needed,
            the HAL_TIM_TriggerCallback could be implemented in the user file
   */
}
 8005314:	bf00      	nop
 8005316:	370c      	adds	r7, #12
 8005318:	46bd      	mov	sp, r7
 800531a:	bc80      	pop	{r7}
 800531c:	4770      	bx	lr
	...

08005320 <TIM_Base_SetConfig>:
  * @param  TIMx TIM peripheral
  * @param  Structure TIM Base configuration structure
  * @retval None
  */
void TIM_Base_SetConfig(TIM_TypeDef *TIMx, const TIM_Base_InitTypeDef *Structure)
{
 8005320:	b480      	push	{r7}
 8005322:	b085      	sub	sp, #20
 8005324:	af00      	add	r7, sp, #0
 8005326:	6078      	str	r0, [r7, #4]
 8005328:	6039      	str	r1, [r7, #0]
  uint32_t tmpcr1;
  tmpcr1 = TIMx->CR1;
 800532a:	687b      	ldr	r3, [r7, #4]
 800532c:	681b      	ldr	r3, [r3, #0]
 800532e:	60fb      	str	r3, [r7, #12]

  /* Set TIM Time Base Unit parameters ---------------------------------------*/
  if (IS_TIM_COUNTER_MODE_SELECT_INSTANCE(TIMx))
 8005330:	687b      	ldr	r3, [r7, #4]
 8005332:	4a29      	ldr	r2, [pc, #164]	@ (80053d8 <TIM_Base_SetConfig+0xb8>)
 8005334:	4293      	cmp	r3, r2
 8005336:	d00b      	beq.n	8005350 <TIM_Base_SetConfig+0x30>
 8005338:	687b      	ldr	r3, [r7, #4]
 800533a:	f1b3 4f80 	cmp.w	r3, #1073741824	@ 0x40000000
 800533e:	d007      	beq.n	8005350 <TIM_Base_SetConfig+0x30>
 8005340:	687b      	ldr	r3, [r7, #4]
 8005342:	4a26      	ldr	r2, [pc, #152]	@ (80053dc <TIM_Base_SetConfig+0xbc>)
 8005344:	4293      	cmp	r3, r2
 8005346:	d003      	beq.n	8005350 <TIM_Base_SetConfig+0x30>
 8005348:	687b      	ldr	r3, [r7, #4]
 800534a:	4a25      	ldr	r2, [pc, #148]	@ (80053e0 <TIM_Base_SetConfig+0xc0>)
 800534c:	4293      	cmp	r3, r2
 800534e:	d108      	bne.n	8005362 <TIM_Base_SetConfig+0x42>
  {
    /* Select the Counter Mode */
    tmpcr1 &= ~(TIM_CR1_DIR | TIM_CR1_CMS);
 8005350:	68fb      	ldr	r3, [r7, #12]
 8005352:	f023 0370 	bic.w	r3, r3, #112	@ 0x70
 8005356:	60fb      	str	r3, [r7, #12]
    tmpcr1 |= Structure->CounterMode;
 8005358:	683b      	ldr	r3, [r7, #0]
 800535a:	685b      	ldr	r3, [r3, #4]
 800535c:	68fa      	ldr	r2, [r7, #12]
 800535e:	4313      	orrs	r3, r2
 8005360:	60fb      	str	r3, [r7, #12]
  }

  if (IS_TIM_CLOCK_DIVISION_INSTANCE(TIMx))
 8005362:	687b      	ldr	r3, [r7, #4]
 8005364:	4a1c      	ldr	r2, [pc, #112]	@ (80053d8 <TIM_Base_SetConfig+0xb8>)
 8005366:	4293      	cmp	r3, r2
 8005368:	d00b      	beq.n	8005382 <TIM_Base_SetConfig+0x62>
 800536a:	687b      	ldr	r3, [r7, #4]
 800536c:	f1b3 4f80 	cmp.w	r3, #1073741824	@ 0x40000000
 8005370:	d007      	beq.n	8005382 <TIM_Base_SetConfig+0x62>
 8005372:	687b      	ldr	r3, [r7, #4]
 8005374:	4a19      	ldr	r2, [pc, #100]	@ (80053dc <TIM_Base_SetConfig+0xbc>)
 8005376:	4293      	cmp	r3, r2
 8005378:	d003      	beq.n	8005382 <TIM_Base_SetConfig+0x62>
 800537a:	687b      	ldr	r3, [r7, #4]
 800537c:	4a18      	ldr	r2, [pc, #96]	@ (80053e0 <TIM_Base_SetConfig+0xc0>)
 800537e:	4293      	cmp	r3, r2
 8005380:	d108      	bne.n	8005394 <TIM_Base_SetConfig+0x74>
  {
    /* Set the clock division */
    tmpcr1 &= ~TIM_CR1_CKD;
 8005382:	68fb      	ldr	r3, [r7, #12]
 8005384:	f423 7340 	bic.w	r3, r3, #768	@ 0x300
 8005388:	60fb      	str	r3, [r7, #12]
    tmpcr1 |= (uint32_t)Structure->ClockDivision;
 800538a:	683b      	ldr	r3, [r7, #0]
 800538c:	68db      	ldr	r3, [r3, #12]
 800538e:	68fa      	ldr	r2, [r7, #12]
 8005390:	4313      	orrs	r3, r2
 8005392:	60fb      	str	r3, [r7, #12]
  }

  /* Set the auto-reload preload */
  MODIFY_REG(tmpcr1, TIM_CR1_ARPE, Structure->AutoReloadPreload);
 8005394:	68fb      	ldr	r3, [r7, #12]
 8005396:	f023 0280 	bic.w	r2, r3, #128	@ 0x80
 800539a:	683b      	ldr	r3, [r7, #0]
 800539c:	695b      	ldr	r3, [r3, #20]
 800539e:	4313      	orrs	r3, r2
 80053a0:	60fb      	str	r3, [r7, #12]

  TIMx->CR1 = tmpcr1;
 80053a2:	687b      	ldr	r3, [r7, #4]
 80053a4:	68fa      	ldr	r2, [r7, #12]
 80053a6:	601a      	str	r2, [r3, #0]

  /* Set the Autoreload value */
  TIMx->ARR = (uint32_t)Structure->Period ;
 80053a8:	683b      	ldr	r3, [r7, #0]
 80053aa:	689a      	ldr	r2, [r3, #8]
 80053ac:	687b      	ldr	r3, [r7, #4]
 80053ae:	62da      	str	r2, [r3, #44]	@ 0x2c

  /* Set the Prescaler value */
  TIMx->PSC = Structure->Prescaler;
 80053b0:	683b      	ldr	r3, [r7, #0]
 80053b2:	681a      	ldr	r2, [r3, #0]
 80053b4:	687b      	ldr	r3, [r7, #4]
 80053b6:	629a      	str	r2, [r3, #40]	@ 0x28

  if (IS_TIM_REPETITION_COUNTER_INSTANCE(TIMx))
 80053b8:	687b      	ldr	r3, [r7, #4]
 80053ba:	4a07      	ldr	r2, [pc, #28]	@ (80053d8 <TIM_Base_SetConfig+0xb8>)
 80053bc:	4293      	cmp	r3, r2
 80053be:	d103      	bne.n	80053c8 <TIM_Base_SetConfig+0xa8>
  {
    /* Set the Repetition Counter value */
    TIMx->RCR = Structure->RepetitionCounter;
 80053c0:	683b      	ldr	r3, [r7, #0]
 80053c2:	691a      	ldr	r2, [r3, #16]
 80053c4:	687b      	ldr	r3, [r7, #4]
 80053c6:	631a      	str	r2, [r3, #48]	@ 0x30
  }

  /* Generate an update event to reload the Prescaler
     and the repetition counter (only for advanced timer) value immediately */
  TIMx->EGR = TIM_EGR_UG;
 80053c8:	687b      	ldr	r3, [r7, #4]
 80053ca:	2201      	movs	r2, #1
 80053cc:	615a      	str	r2, [r3, #20]
}
 80053ce:	bf00      	nop
 80053d0:	3714      	adds	r7, #20
 80053d2:	46bd      	mov	sp, r7
 80053d4:	bc80      	pop	{r7}
 80053d6:	4770      	bx	lr
 80053d8:	40012c00 	.word	0x40012c00
 80053dc:	40000400 	.word	0x40000400
 80053e0:	40000800 	.word	0x40000800

080053e4 <TIM_OC1_SetConfig>:
  * @param  TIMx to select the TIM peripheral
  * @param  OC_Config The output configuration structure
  * @retval None
  */
static void TIM_OC1_SetConfig(TIM_TypeDef *TIMx, const TIM_OC_InitTypeDef *OC_Config)
{
 80053e4:	b480      	push	{r7}
 80053e6:	b087      	sub	sp, #28
 80053e8:	af00      	add	r7, sp, #0
 80053ea:	6078      	str	r0, [r7, #4]
 80053ec:	6039      	str	r1, [r7, #0]
  uint32_t tmpccmrx;
  uint32_t tmpccer;
  uint32_t tmpcr2;

  /* Get the TIMx CCER register value */
  tmpccer = TIMx->CCER;
 80053ee:	687b      	ldr	r3, [r7, #4]
 80053f0:	6a1b      	ldr	r3, [r3, #32]
 80053f2:	617b      	str	r3, [r7, #20]

  /* Disable the Channel 1: Reset the CC1E Bit */
  TIMx->CCER &= ~TIM_CCER_CC1E;
 80053f4:	687b      	ldr	r3, [r7, #4]
 80053f6:	6a1b      	ldr	r3, [r3, #32]
 80053f8:	f023 0201 	bic.w	r2, r3, #1
 80053fc:	687b      	ldr	r3, [r7, #4]
 80053fe:	621a      	str	r2, [r3, #32]

  /* Get the TIMx CR2 register value */
  tmpcr2 =  TIMx->CR2;
 8005400:	687b      	ldr	r3, [r7, #4]
 8005402:	685b      	ldr	r3, [r3, #4]
 8005404:	613b      	str	r3, [r7, #16]

  /* Get the TIMx CCMR1 register value */
  tmpccmrx = TIMx->CCMR1;
 8005406:	687b      	ldr	r3, [r7, #4]
 8005408:	699b      	ldr	r3, [r3, #24]
 800540a:	60fb      	str	r3, [r7, #12]

  /* Reset the Output Compare Mode Bits */
  tmpccmrx &= ~TIM_CCMR1_OC1M;
 800540c:	68fb      	ldr	r3, [r7, #12]
 800540e:	f023 0370 	bic.w	r3, r3, #112	@ 0x70
 8005412:	60fb      	str	r3, [r7, #12]
  tmpccmrx &= ~TIM_CCMR1_CC1S;
 8005414:	68fb      	ldr	r3, [r7, #12]
 8005416:	f023 0303 	bic.w	r3, r3, #3
 800541a:	60fb      	str	r3, [r7, #12]
  /* Select the Output Compare Mode */
  tmpccmrx |= OC_Config->OCMode;
 800541c:	683b      	ldr	r3, [r7, #0]
 800541e:	681b      	ldr	r3, [r3, #0]
 8005420:	68fa      	ldr	r2, [r7, #12]
 8005422:	4313      	orrs	r3, r2
 8005424:	60fb      	str	r3, [r7, #12]

  /* Reset the Output Polarity level */
  tmpccer &= ~TIM_CCER_CC1P;
 8005426:	697b      	ldr	r3, [r7, #20]
 8005428:	f023 0302 	bic.w	r3, r3, #2
 800542c:	617b      	str	r3, [r7, #20]
  /* Set the Output Compare Polarity */
  tmpccer |= OC_Config->OCPolarity;
 800542e:	683b      	ldr	r3, [r7, #0]
 8005430:	689b      	ldr	r3, [r3, #8]
 8005432:	697a      	ldr	r2, [r7, #20]
 8005434:	4313      	orrs	r3, r2
 8005436:	617b      	str	r3, [r7, #20]

  if (IS_TIM_CCXN_INSTANCE(TIMx, TIM_CHANNEL_1))
 8005438:	687b      	ldr	r3, [r7, #4]
 800543a:	4a1c      	ldr	r2, [pc, #112]	@ (80054ac <TIM_OC1_SetConfig+0xc8>)
 800543c:	4293      	cmp	r3, r2
 800543e:	d10c      	bne.n	800545a <TIM_OC1_SetConfig+0x76>
  {
    /* Check parameters */
    assert_param(IS_TIM_OCN_POLARITY(OC_Config->OCNPolarity));

    /* Reset the Output N Polarity level */
    tmpccer &= ~TIM_CCER_CC1NP;
 8005440:	697b      	ldr	r3, [r7, #20]
 8005442:	f023 0308 	bic.w	r3, r3, #8
 8005446:	617b      	str	r3, [r7, #20]
    /* Set the Output N Polarity */
    tmpccer |= OC_Config->OCNPolarity;
 8005448:	683b      	ldr	r3, [r7, #0]
 800544a:	68db      	ldr	r3, [r3, #12]
 800544c:	697a      	ldr	r2, [r7, #20]
 800544e:	4313      	orrs	r3, r2
 8005450:	617b      	str	r3, [r7, #20]
    /* Reset the Output N State */
    tmpccer &= ~TIM_CCER_CC1NE;
 8005452:	697b      	ldr	r3, [r7, #20]
 8005454:	f023 0304 	bic.w	r3, r3, #4
 8005458:	617b      	str	r3, [r7, #20]
  }

  if (IS_TIM_BREAK_INSTANCE(TIMx))
 800545a:	687b      	ldr	r3, [r7, #4]
 800545c:	4a13      	ldr	r2, [pc, #76]	@ (80054ac <TIM_OC1_SetConfig+0xc8>)
 800545e:	4293      	cmp	r3, r2
 8005460:	d111      	bne.n	8005486 <TIM_OC1_SetConfig+0xa2>
    /* Check parameters */
    assert_param(IS_TIM_OCNIDLE_STATE(OC_Config->OCNIdleState));
    assert_param(IS_TIM_OCIDLE_STATE(OC_Config->OCIdleState));

    /* Reset the Output Compare and Output Compare N IDLE State */
    tmpcr2 &= ~TIM_CR2_OIS1;
 8005462:	693b      	ldr	r3, [r7, #16]
 8005464:	f423 7380 	bic.w	r3, r3, #256	@ 0x100
 8005468:	613b      	str	r3, [r7, #16]
    tmpcr2 &= ~TIM_CR2_OIS1N;
 800546a:	693b      	ldr	r3, [r7, #16]
 800546c:	f423 7300 	bic.w	r3, r3, #512	@ 0x200
 8005470:	613b      	str	r3, [r7, #16]
    /* Set the Output Idle state */
    tmpcr2 |= OC_Config->OCIdleState;
 8005472:	683b      	ldr	r3, [r7, #0]
 8005474:	695b      	ldr	r3, [r3, #20]
 8005476:	693a      	ldr	r2, [r7, #16]
 8005478:	4313      	orrs	r3, r2
 800547a:	613b      	str	r3, [r7, #16]
    /* Set the Output N Idle state */
    tmpcr2 |= OC_Config->OCNIdleState;
 800547c:	683b      	ldr	r3, [r7, #0]
 800547e:	699b      	ldr	r3, [r3, #24]
 8005480:	693a      	ldr	r2, [r7, #16]
 8005482:	4313      	orrs	r3, r2
 8005484:	613b      	str	r3, [r7, #16]
  }

  /* Write to TIMx CR2 */
  TIMx->CR2 = tmpcr2;
 8005486:	687b      	ldr	r3, [r7, #4]
 8005488:	693a      	ldr	r2, [r7, #16]
 800548a:	605a      	str	r2, [r3, #4]

  /* Write to TIMx CCMR1 */
  TIMx->CCMR1 = tmpccmrx;
 800548c:	687b      	ldr	r3, [r7, #4]
 800548e:	68fa      	ldr	r2, [r7, #12]
 8005490:	619a      	str	r2, [r3, #24]

  /* Set the Capture Compare Register value */
  TIMx->CCR1 = OC_Config->Pulse;
 8005492:	683b      	ldr	r3, [r7, #0]
 8005494:	685a      	ldr	r2, [r3, #4]
 8005496:	687b      	ldr	r3, [r7, #4]
 8005498:	635a      	str	r2, [r3, #52]	@ 0x34

  /* Write to TIMx CCER */
  TIMx->CCER = tmpccer;
 800549a:	687b      	ldr	r3, [r7, #4]
 800549c:	697a      	ldr	r2, [r7, #20]
 800549e:	621a      	str	r2, [r3, #32]
}
 80054a0:	bf00      	nop
 80054a2:	371c      	adds	r7, #28
 80054a4:	46bd      	mov	sp, r7
 80054a6:	bc80      	pop	{r7}
 80054a8:	4770      	bx	lr
 80054aa:	bf00      	nop
 80054ac:	40012c00 	.word	0x40012c00

080054b0 <TIM_OC2_SetConfig>:
  * @param  TIMx to select the TIM peripheral
  * @param  OC_Config The output configuration structure
  * @retval None
  */
void TIM_OC2_SetConfig(TIM_TypeDef *TIMx, const TIM_OC_InitTypeDef *OC_Config)
{
 80054b0:	b480      	push	{r7}
 80054b2:	b087      	sub	sp, #28
 80054b4:	af00      	add	r7, sp, #0
 80054b6:	6078      	str	r0, [r7, #4]
 80054b8:	6039      	str	r1, [r7, #0]
  uint32_t tmpccmrx;
  uint32_t tmpccer;
  uint32_t tmpcr2;

  /* Get the TIMx CCER register value */
  tmpccer = TIMx->CCER;
 80054ba:	687b      	ldr	r3, [r7, #4]
 80054bc:	6a1b      	ldr	r3, [r3, #32]
 80054be:	617b      	str	r3, [r7, #20]

  /* Disable the Channel 2: Reset the CC2E Bit */
  TIMx->CCER &= ~TIM_CCER_CC2E;
 80054c0:	687b      	ldr	r3, [r7, #4]
 80054c2:	6a1b      	ldr	r3, [r3, #32]
 80054c4:	f023 0210 	bic.w	r2, r3, #16
 80054c8:	687b      	ldr	r3, [r7, #4]
 80054ca:	621a      	str	r2, [r3, #32]

  /* Get the TIMx CR2 register value */
  tmpcr2 =  TIMx->CR2;
 80054cc:	687b      	ldr	r3, [r7, #4]
 80054ce:	685b      	ldr	r3, [r3, #4]
 80054d0:	613b      	str	r3, [r7, #16]

  /* Get the TIMx CCMR1 register value */
  tmpccmrx = TIMx->CCMR1;
 80054d2:	687b      	ldr	r3, [r7, #4]
 80054d4:	699b      	ldr	r3, [r3, #24]
 80054d6:	60fb      	str	r3, [r7, #12]

  /* Reset the Output Compare mode and Capture/Compare selection Bits */
  tmpccmrx &= ~TIM_CCMR1_OC2M;
 80054d8:	68fb      	ldr	r3, [r7, #12]
 80054da:	f423 43e0 	bic.w	r3, r3, #28672	@ 0x7000
 80054de:	60fb      	str	r3, [r7, #12]
  tmpccmrx &= ~TIM_CCMR1_CC2S;
 80054e0:	68fb      	ldr	r3, [r7, #12]
 80054e2:	f423 7340 	bic.w	r3, r3, #768	@ 0x300
 80054e6:	60fb      	str	r3, [r7, #12]

  /* Select the Output Compare Mode */
  tmpccmrx |= (OC_Config->OCMode << 8U);
 80054e8:	683b      	ldr	r3, [r7, #0]
 80054ea:	681b      	ldr	r3, [r3, #0]
 80054ec:	021b      	lsls	r3, r3, #8
 80054ee:	68fa      	ldr	r2, [r7, #12]
 80054f0:	4313      	orrs	r3, r2
 80054f2:	60fb      	str	r3, [r7, #12]

  /* Reset the Output Polarity level */
  tmpccer &= ~TIM_CCER_CC2P;
 80054f4:	697b      	ldr	r3, [r7, #20]
 80054f6:	f023 0320 	bic.w	r3, r3, #32
 80054fa:	617b      	str	r3, [r7, #20]
  /* Set the Output Compare Polarity */
  tmpccer |= (OC_Config->OCPolarity << 4U);
 80054fc:	683b      	ldr	r3, [r7, #0]
 80054fe:	689b      	ldr	r3, [r3, #8]
 8005500:	011b      	lsls	r3, r3, #4
 8005502:	697a      	ldr	r2, [r7, #20]
 8005504:	4313      	orrs	r3, r2
 8005506:	617b      	str	r3, [r7, #20]

  if (IS_TIM_CCXN_INSTANCE(TIMx, TIM_CHANNEL_2))
 8005508:	687b      	ldr	r3, [r7, #4]
 800550a:	4a1d      	ldr	r2, [pc, #116]	@ (8005580 <TIM_OC2_SetConfig+0xd0>)
 800550c:	4293      	cmp	r3, r2
 800550e:	d10d      	bne.n	800552c <TIM_OC2_SetConfig+0x7c>
  {
    assert_param(IS_TIM_OCN_POLARITY(OC_Config->OCNPolarity));

    /* Reset the Output N Polarity level */
    tmpccer &= ~TIM_CCER_CC2NP;
 8005510:	697b      	ldr	r3, [r7, #20]
 8005512:	f023 0380 	bic.w	r3, r3, #128	@ 0x80
 8005516:	617b      	str	r3, [r7, #20]
    /* Set the Output N Polarity */
    tmpccer |= (OC_Config->OCNPolarity << 4U);
 8005518:	683b      	ldr	r3, [r7, #0]
 800551a:	68db      	ldr	r3, [r3, #12]
 800551c:	011b      	lsls	r3, r3, #4
 800551e:	697a      	ldr	r2, [r7, #20]
 8005520:	4313      	orrs	r3, r2
 8005522:	617b      	str	r3, [r7, #20]
    /* Reset the Output N State */
    tmpccer &= ~TIM_CCER_CC2NE;
 8005524:	697b      	ldr	r3, [r7, #20]
 8005526:	f023 0340 	bic.w	r3, r3, #64	@ 0x40
 800552a:	617b      	str	r3, [r7, #20]

  }

  if (IS_TIM_BREAK_INSTANCE(TIMx))
 800552c:	687b      	ldr	r3, [r7, #4]
 800552e:	4a14      	ldr	r2, [pc, #80]	@ (8005580 <TIM_OC2_SetConfig+0xd0>)
 8005530:	4293      	cmp	r3, r2
 8005532:	d113      	bne.n	800555c <TIM_OC2_SetConfig+0xac>
    /* Check parameters */
    assert_param(IS_TIM_OCNIDLE_STATE(OC_Config->OCNIdleState));
    assert_param(IS_TIM_OCIDLE_STATE(OC_Config->OCIdleState));

    /* Reset the Output Compare and Output Compare N IDLE State */
    tmpcr2 &= ~TIM_CR2_OIS2;
 8005534:	693b      	ldr	r3, [r7, #16]
 8005536:	f423 6380 	bic.w	r3, r3, #1024	@ 0x400
 800553a:	613b      	str	r3, [r7, #16]
    tmpcr2 &= ~TIM_CR2_OIS2N;
 800553c:	693b      	ldr	r3, [r7, #16]
 800553e:	f423 6300 	bic.w	r3, r3, #2048	@ 0x800
 8005542:	613b      	str	r3, [r7, #16]
    /* Set the Output Idle state */
    tmpcr2 |= (OC_Config->OCIdleState << 2U);
 8005544:	683b      	ldr	r3, [r7, #0]
 8005546:	695b      	ldr	r3, [r3, #20]
 8005548:	009b      	lsls	r3, r3, #2
 800554a:	693a      	ldr	r2, [r7, #16]
 800554c:	4313      	orrs	r3, r2
 800554e:	613b      	str	r3, [r7, #16]
    /* Set the Output N Idle state */
    tmpcr2 |= (OC_Config->OCNIdleState << 2U);
 8005550:	683b      	ldr	r3, [r7, #0]
 8005552:	699b      	ldr	r3, [r3, #24]
 8005554:	009b      	lsls	r3, r3, #2
 8005556:	693a      	ldr	r2, [r7, #16]
 8005558:	4313      	orrs	r3, r2
 800555a:	613b      	str	r3, [r7, #16]
  }

  /* Write to TIMx CR2 */
  TIMx->CR2 = tmpcr2;
 800555c:	687b      	ldr	r3, [r7, #4]
 800555e:	693a      	ldr	r2, [r7, #16]
 8005560:	605a      	str	r2, [r3, #4]

  /* Write to TIMx CCMR1 */
  TIMx->CCMR1 = tmpccmrx;
 8005562:	687b      	ldr	r3, [r7, #4]
 8005564:	68fa      	ldr	r2, [r7, #12]
 8005566:	619a      	str	r2, [r3, #24]

  /* Set the Capture Compare Register value */
  TIMx->CCR2 = OC_Config->Pulse;
 8005568:	683b      	ldr	r3, [r7, #0]
 800556a:	685a      	ldr	r2, [r3, #4]
 800556c:	687b      	ldr	r3, [r7, #4]
 800556e:	639a      	str	r2, [r3, #56]	@ 0x38

  /* Write to TIMx CCER */
  TIMx->CCER = tmpccer;
 8005570:	687b      	ldr	r3, [r7, #4]
 8005572:	697a      	ldr	r2, [r7, #20]
 8005574:	621a      	str	r2, [r3, #32]
}
 8005576:	bf00      	nop
 8005578:	371c      	adds	r7, #28
 800557a:	46bd      	mov	sp, r7
 800557c:	bc80      	pop	{r7}
 800557e:	4770      	bx	lr
 8005580:	40012c00 	.word	0x40012c00

08005584 <TIM_OC3_SetConfig>:
  * @param  TIMx to select the TIM peripheral
  * @param  OC_Config The output configuration structure
  * @retval None
  */
static void TIM_OC3_SetConfig(TIM_TypeDef *TIMx, const TIM_OC_InitTypeDef *OC_Config)
{
 8005584:	b480      	push	{r7}
 8005586:	b087      	sub	sp, #28
 8005588:	af00      	add	r7, sp, #0
 800558a:	6078      	str	r0, [r7, #4]
 800558c:	6039      	str	r1, [r7, #0]
  uint32_t tmpccmrx;
  uint32_t tmpccer;
  uint32_t tmpcr2;

  /* Get the TIMx CCER register value */
  tmpccer = TIMx->CCER;
 800558e:	687b      	ldr	r3, [r7, #4]
 8005590:	6a1b      	ldr	r3, [r3, #32]
 8005592:	617b      	str	r3, [r7, #20]

  /* Disable the Channel 3: Reset the CC2E Bit */
  TIMx->CCER &= ~TIM_CCER_CC3E;
 8005594:	687b      	ldr	r3, [r7, #4]
 8005596:	6a1b      	ldr	r3, [r3, #32]
 8005598:	f423 7280 	bic.w	r2, r3, #256	@ 0x100
 800559c:	687b      	ldr	r3, [r7, #4]
 800559e:	621a      	str	r2, [r3, #32]

  /* Get the TIMx CR2 register value */
  tmpcr2 =  TIMx->CR2;
 80055a0:	687b      	ldr	r3, [r7, #4]
 80055a2:	685b      	ldr	r3, [r3, #4]
 80055a4:	613b      	str	r3, [r7, #16]

  /* Get the TIMx CCMR2 register value */
  tmpccmrx = TIMx->CCMR2;
 80055a6:	687b      	ldr	r3, [r7, #4]
 80055a8:	69db      	ldr	r3, [r3, #28]
 80055aa:	60fb      	str	r3, [r7, #12]

  /* Reset the Output Compare mode and Capture/Compare selection Bits */
  tmpccmrx &= ~TIM_CCMR2_OC3M;
 80055ac:	68fb      	ldr	r3, [r7, #12]
 80055ae:	f023 0370 	bic.w	r3, r3, #112	@ 0x70
 80055b2:	60fb      	str	r3, [r7, #12]
  tmpccmrx &= ~TIM_CCMR2_CC3S;
 80055b4:	68fb      	ldr	r3, [r7, #12]
 80055b6:	f023 0303 	bic.w	r3, r3, #3
 80055ba:	60fb      	str	r3, [r7, #12]
  /* Select the Output Compare Mode */
  tmpccmrx |= OC_Config->OCMode;
 80055bc:	683b      	ldr	r3, [r7, #0]
 80055be:	681b      	ldr	r3, [r3, #0]
 80055c0:	68fa      	ldr	r2, [r7, #12]
 80055c2:	4313      	orrs	r3, r2
 80055c4:	60fb      	str	r3, [r7, #12]

  /* Reset the Output Polarity level */
  tmpccer &= ~TIM_CCER_CC3P;
 80055c6:	697b      	ldr	r3, [r7, #20]
 80055c8:	f423 7300 	bic.w	r3, r3, #512	@ 0x200
 80055cc:	617b      	str	r3, [r7, #20]
  /* Set the Output Compare Polarity */
  tmpccer |= (OC_Config->OCPolarity << 8U);
 80055ce:	683b      	ldr	r3, [r7, #0]
 80055d0:	689b      	ldr	r3, [r3, #8]
 80055d2:	021b      	lsls	r3, r3, #8
 80055d4:	697a      	ldr	r2, [r7, #20]
 80055d6:	4313      	orrs	r3, r2
 80055d8:	617b      	str	r3, [r7, #20]

  if (IS_TIM_CCXN_INSTANCE(TIMx, TIM_CHANNEL_3))
 80055da:	687b      	ldr	r3, [r7, #4]
 80055dc:	4a1d      	ldr	r2, [pc, #116]	@ (8005654 <TIM_OC3_SetConfig+0xd0>)
 80055de:	4293      	cmp	r3, r2
 80055e0:	d10d      	bne.n	80055fe <TIM_OC3_SetConfig+0x7a>
  {
    assert_param(IS_TIM_OCN_POLARITY(OC_Config->OCNPolarity));

    /* Reset the Output N Polarity level */
    tmpccer &= ~TIM_CCER_CC3NP;
 80055e2:	697b      	ldr	r3, [r7, #20]
 80055e4:	f423 6300 	bic.w	r3, r3, #2048	@ 0x800
 80055e8:	617b      	str	r3, [r7, #20]
    /* Set the Output N Polarity */
    tmpccer |= (OC_Config->OCNPolarity << 8U);
 80055ea:	683b      	ldr	r3, [r7, #0]
 80055ec:	68db      	ldr	r3, [r3, #12]
 80055ee:	021b      	lsls	r3, r3, #8
 80055f0:	697a      	ldr	r2, [r7, #20]
 80055f2:	4313      	orrs	r3, r2
 80055f4:	617b      	str	r3, [r7, #20]
    /* Reset the Output N State */
    tmpccer &= ~TIM_CCER_CC3NE;
 80055f6:	697b      	ldr	r3, [r7, #20]
 80055f8:	f423 6380 	bic.w	r3, r3, #1024	@ 0x400
 80055fc:	617b      	str	r3, [r7, #20]
  }

  if (IS_TIM_BREAK_INSTANCE(TIMx))
 80055fe:	687b      	ldr	r3, [r7, #4]
 8005600:	4a14      	ldr	r2, [pc, #80]	@ (8005654 <TIM_OC3_SetConfig+0xd0>)
 8005602:	4293      	cmp	r3, r2
 8005604:	d113      	bne.n	800562e <TIM_OC3_SetConfig+0xaa>
    /* Check parameters */
    assert_param(IS_TIM_OCNIDLE_STATE(OC_Config->OCNIdleState));
    assert_param(IS_TIM_OCIDLE_STATE(OC_Config->OCIdleState));

    /* Reset the Output Compare and Output Compare N IDLE State */
    tmpcr2 &= ~TIM_CR2_OIS3;
 8005606:	693b      	ldr	r3, [r7, #16]
 8005608:	f423 5380 	bic.w	r3, r3, #4096	@ 0x1000
 800560c:	613b      	str	r3, [r7, #16]
    tmpcr2 &= ~TIM_CR2_OIS3N;
 800560e:	693b      	ldr	r3, [r7, #16]
 8005610:	f423 5300 	bic.w	r3, r3, #8192	@ 0x2000
 8005614:	613b      	str	r3, [r7, #16]
    /* Set the Output Idle state */
    tmpcr2 |= (OC_Config->OCIdleState << 4U);
 8005616:	683b      	ldr	r3, [r7, #0]
 8005618:	695b      	ldr	r3, [r3, #20]
 800561a:	011b      	lsls	r3, r3, #4
 800561c:	693a      	ldr	r2, [r7, #16]
 800561e:	4313      	orrs	r3, r2
 8005620:	613b      	str	r3, [r7, #16]
    /* Set the Output N Idle state */
    tmpcr2 |= (OC_Config->OCNIdleState << 4U);
 8005622:	683b      	ldr	r3, [r7, #0]
 8005624:	699b      	ldr	r3, [r3, #24]
 8005626:	011b      	lsls	r3, r3, #4
 8005628:	693a      	ldr	r2, [r7, #16]
 800562a:	4313      	orrs	r3, r2
 800562c:	613b      	str	r3, [r7, #16]
  }

  /* Write to TIMx CR2 */
  TIMx->CR2 = tmpcr2;
 800562e:	687b      	ldr	r3, [r7, #4]
 8005630:	693a      	ldr	r2, [r7, #16]
 8005632:	605a      	str	r2, [r3, #4]

  /* Write to TIMx CCMR2 */
  TIMx->CCMR2 = tmpccmrx;
 8005634:	687b      	ldr	r3, [r7, #4]
 8005636:	68fa      	ldr	r2, [r7, #12]
 8005638:	61da      	str	r2, [r3, #28]

  /* Set the Capture Compare Register value */
  TIMx->CCR3 = OC_Config->Pulse;
 800563a:	683b      	ldr	r3, [r7, #0]
 800563c:	685a      	ldr	r2, [r3, #4]
 800563e:	687b      	ldr	r3, [r7, #4]
 8005640:	63da      	str	r2, [r3, #60]	@ 0x3c

  /* Write to TIMx CCER */
  TIMx->CCER = tmpccer;
 8005642:	687b      	ldr	r3, [r7, #4]
 8005644:	697a      	ldr	r2, [r7, #20]
 8005646:	621a      	str	r2, [r3, #32]
}
 8005648:	bf00      	nop
 800564a:	371c      	adds	r7, #28
 800564c:	46bd      	mov	sp, r7
 800564e:	bc80      	pop	{r7}
 8005650:	4770      	bx	lr
 8005652:	bf00      	nop
 8005654:	40012c00 	.word	0x40012c00

08005658 <TIM_OC4_SetConfig>:
  * @param  TIMx to select the TIM peripheral
  * @param  OC_Config The output configuration structure
  * @retval None
  */
static void TIM_OC4_SetConfig(TIM_TypeDef *TIMx, const TIM_OC_InitTypeDef *OC_Config)
{
 8005658:	b480      	push	{r7}
 800565a:	b087      	sub	sp, #28
 800565c:	af00      	add	r7, sp, #0
 800565e:	6078      	str	r0, [r7, #4]
 8005660:	6039      	str	r1, [r7, #0]
  uint32_t tmpccmrx;
  uint32_t tmpccer;
  uint32_t tmpcr2;

  /* Get the TIMx CCER register value */
  tmpccer = TIMx->CCER;
 8005662:	687b      	ldr	r3, [r7, #4]
 8005664:	6a1b      	ldr	r3, [r3, #32]
 8005666:	613b      	str	r3, [r7, #16]

  /* Disable the Channel 4: Reset the CC4E Bit */
  TIMx->CCER &= ~TIM_CCER_CC4E;
 8005668:	687b      	ldr	r3, [r7, #4]
 800566a:	6a1b      	ldr	r3, [r3, #32]
 800566c:	f423 5280 	bic.w	r2, r3, #4096	@ 0x1000
 8005670:	687b      	ldr	r3, [r7, #4]
 8005672:	621a      	str	r2, [r3, #32]

  /* Get the TIMx CR2 register value */
  tmpcr2 =  TIMx->CR2;
 8005674:	687b      	ldr	r3, [r7, #4]
 8005676:	685b      	ldr	r3, [r3, #4]
 8005678:	617b      	str	r3, [r7, #20]

  /* Get the TIMx CCMR2 register value */
  tmpccmrx = TIMx->CCMR2;
 800567a:	687b      	ldr	r3, [r7, #4]
 800567c:	69db      	ldr	r3, [r3, #28]
 800567e:	60fb      	str	r3, [r7, #12]

  /* Reset the Output Compare mode and Capture/Compare selection Bits */
  tmpccmrx &= ~TIM_CCMR2_OC4M;
 8005680:	68fb      	ldr	r3, [r7, #12]
 8005682:	f423 43e0 	bic.w	r3, r3, #28672	@ 0x7000
 8005686:	60fb      	str	r3, [r7, #12]
  tmpccmrx &= ~TIM_CCMR2_CC4S;
 8005688:	68fb      	ldr	r3, [r7, #12]
 800568a:	f423 7340 	bic.w	r3, r3, #768	@ 0x300
 800568e:	60fb      	str	r3, [r7, #12]

  /* Select the Output Compare Mode */
  tmpccmrx |= (OC_Config->OCMode << 8U);
 8005690:	683b      	ldr	r3, [r7, #0]
 8005692:	681b      	ldr	r3, [r3, #0]
 8005694:	021b      	lsls	r3, r3, #8
 8005696:	68fa      	ldr	r2, [r7, #12]
 8005698:	4313      	orrs	r3, r2
 800569a:	60fb      	str	r3, [r7, #12]

  /* Reset the Output Polarity level */
  tmpccer &= ~TIM_CCER_CC4P;
 800569c:	693b      	ldr	r3, [r7, #16]
 800569e:	f423 5300 	bic.w	r3, r3, #8192	@ 0x2000
 80056a2:	613b      	str	r3, [r7, #16]
  /* Set the Output Compare Polarity */
  tmpccer |= (OC_Config->OCPolarity << 12U);
 80056a4:	683b      	ldr	r3, [r7, #0]
 80056a6:	689b      	ldr	r3, [r3, #8]
 80056a8:	031b      	lsls	r3, r3, #12
 80056aa:	693a      	ldr	r2, [r7, #16]
 80056ac:	4313      	orrs	r3, r2
 80056ae:	613b      	str	r3, [r7, #16]

  if (IS_TIM_BREAK_INSTANCE(TIMx))
 80056b0:	687b      	ldr	r3, [r7, #4]
 80056b2:	4a0f      	ldr	r2, [pc, #60]	@ (80056f0 <TIM_OC4_SetConfig+0x98>)
 80056b4:	4293      	cmp	r3, r2
 80056b6:	d109      	bne.n	80056cc <TIM_OC4_SetConfig+0x74>
  {
    /* Check parameters */
    assert_param(IS_TIM_OCIDLE_STATE(OC_Config->OCIdleState));

    /* Reset the Output Compare IDLE State */
    tmpcr2 &= ~TIM_CR2_OIS4;
 80056b8:	697b      	ldr	r3, [r7, #20]
 80056ba:	f423 4380 	bic.w	r3, r3, #16384	@ 0x4000
 80056be:	617b      	str	r3, [r7, #20]

    /* Set the Output Idle state */
    tmpcr2 |= (OC_Config->OCIdleState << 6U);
 80056c0:	683b      	ldr	r3, [r7, #0]
 80056c2:	695b      	ldr	r3, [r3, #20]
 80056c4:	019b      	lsls	r3, r3, #6
 80056c6:	697a      	ldr	r2, [r7, #20]
 80056c8:	4313      	orrs	r3, r2
 80056ca:	617b      	str	r3, [r7, #20]
  }

  /* Write to TIMx CR2 */
  TIMx->CR2 = tmpcr2;
 80056cc:	687b      	ldr	r3, [r7, #4]
 80056ce:	697a      	ldr	r2, [r7, #20]
 80056d0:	605a      	str	r2, [r3, #4]

  /* Write to TIMx CCMR2 */
  TIMx->CCMR2 = tmpccmrx;
 80056d2:	687b      	ldr	r3, [r7, #4]
 80056d4:	68fa      	ldr	r2, [r7, #12]
 80056d6:	61da      	str	r2, [r3, #28]

  /* Set the Capture Compare Register value */
  TIMx->CCR4 = OC_Config->Pulse;
 80056d8:	683b      	ldr	r3, [r7, #0]
 80056da:	685a      	ldr	r2, [r3, #4]
 80056dc:	687b      	ldr	r3, [r7, #4]
 80056de:	641a      	str	r2, [r3, #64]	@ 0x40

  /* Write to TIMx CCER */
  TIMx->CCER = tmpccer;
 80056e0:	687b      	ldr	r3, [r7, #4]
 80056e2:	693a      	ldr	r2, [r7, #16]
 80056e4:	621a      	str	r2, [r3, #32]
}
 80056e6:	bf00      	nop
 80056e8:	371c      	adds	r7, #28
 80056ea:	46bd      	mov	sp, r7
 80056ec:	bc80      	pop	{r7}
 80056ee:	4770      	bx	lr
 80056f0:	40012c00 	.word	0x40012c00

080056f4 <TIM_TI1_ConfigInputStage>:
  * @param  TIM_ICFilter Specifies the Input Capture Filter.
  *          This parameter must be a value between 0x00 and 0x0F.
  * @retval None
  */
static void TIM_TI1_ConfigInputStage(TIM_TypeDef *TIMx, uint32_t TIM_ICPolarity, uint32_t TIM_ICFilter)
{
 80056f4:	b480      	push	{r7}
 80056f6:	b087      	sub	sp, #28
 80056f8:	af00      	add	r7, sp, #0
 80056fa:	60f8      	str	r0, [r7, #12]
 80056fc:	60b9      	str	r1, [r7, #8]
 80056fe:	607a      	str	r2, [r7, #4]
  uint32_t tmpccmr1;
  uint32_t tmpccer;

  /* Disable the Channel 1: Reset the CC1E Bit */
  tmpccer = TIMx->CCER;
 8005700:	68fb      	ldr	r3, [r7, #12]
 8005702:	6a1b      	ldr	r3, [r3, #32]
 8005704:	617b      	str	r3, [r7, #20]
  TIMx->CCER &= ~TIM_CCER_CC1E;
 8005706:	68fb      	ldr	r3, [r7, #12]
 8005708:	6a1b      	ldr	r3, [r3, #32]
 800570a:	f023 0201 	bic.w	r2, r3, #1
 800570e:	68fb      	ldr	r3, [r7, #12]
 8005710:	621a      	str	r2, [r3, #32]
  tmpccmr1 = TIMx->CCMR1;
 8005712:	68fb      	ldr	r3, [r7, #12]
 8005714:	699b      	ldr	r3, [r3, #24]
 8005716:	613b      	str	r3, [r7, #16]

  /* Set the filter */
  tmpccmr1 &= ~TIM_CCMR1_IC1F;
 8005718:	693b      	ldr	r3, [r7, #16]
 800571a:	f023 03f0 	bic.w	r3, r3, #240	@ 0xf0
 800571e:	613b      	str	r3, [r7, #16]
  tmpccmr1 |= (TIM_ICFilter << 4U);
 8005720:	687b      	ldr	r3, [r7, #4]
 8005722:	011b      	lsls	r3, r3, #4
 8005724:	693a      	ldr	r2, [r7, #16]
 8005726:	4313      	orrs	r3, r2
 8005728:	613b      	str	r3, [r7, #16]

  /* Select the Polarity and set the CC1E Bit */
  tmpccer &= ~(TIM_CCER_CC1P | TIM_CCER_CC1NP);
 800572a:	697b      	ldr	r3, [r7, #20]
 800572c:	f023 030a 	bic.w	r3, r3, #10
 8005730:	617b      	str	r3, [r7, #20]
  tmpccer |= TIM_ICPolarity;
 8005732:	697a      	ldr	r2, [r7, #20]
 8005734:	68bb      	ldr	r3, [r7, #8]
 8005736:	4313      	orrs	r3, r2
 8005738:	617b      	str	r3, [r7, #20]

  /* Write to TIMx CCMR1 and CCER registers */
  TIMx->CCMR1 = tmpccmr1;
 800573a:	68fb      	ldr	r3, [r7, #12]
 800573c:	693a      	ldr	r2, [r7, #16]
 800573e:	619a      	str	r2, [r3, #24]
  TIMx->CCER = tmpccer;
 8005740:	68fb      	ldr	r3, [r7, #12]
 8005742:	697a      	ldr	r2, [r7, #20]
 8005744:	621a      	str	r2, [r3, #32]
}
 8005746:	bf00      	nop
 8005748:	371c      	adds	r7, #28
 800574a:	46bd      	mov	sp, r7
 800574c:	bc80      	pop	{r7}
 800574e:	4770      	bx	lr

08005750 <TIM_TI2_ConfigInputStage>:
  * @param  TIM_ICFilter Specifies the Input Capture Filter.
  *          This parameter must be a value between 0x00 and 0x0F.
  * @retval None
  */
static void TIM_TI2_ConfigInputStage(TIM_TypeDef *TIMx, uint32_t TIM_ICPolarity, uint32_t TIM_ICFilter)
{
 8005750:	b480      	push	{r7}
 8005752:	b087      	sub	sp, #28
 8005754:	af00      	add	r7, sp, #0
 8005756:	60f8      	str	r0, [r7, #12]
 8005758:	60b9      	str	r1, [r7, #8]
 800575a:	607a      	str	r2, [r7, #4]
  uint32_t tmpccmr1;
  uint32_t tmpccer;

  /* Disable the Channel 2: Reset the CC2E Bit */
  tmpccer = TIMx->CCER;
 800575c:	68fb      	ldr	r3, [r7, #12]
 800575e:	6a1b      	ldr	r3, [r3, #32]
 8005760:	617b      	str	r3, [r7, #20]
  TIMx->CCER &= ~TIM_CCER_CC2E;
 8005762:	68fb      	ldr	r3, [r7, #12]
 8005764:	6a1b      	ldr	r3, [r3, #32]
 8005766:	f023 0210 	bic.w	r2, r3, #16
 800576a:	68fb      	ldr	r3, [r7, #12]
 800576c:	621a      	str	r2, [r3, #32]
  tmpccmr1 = TIMx->CCMR1;
 800576e:	68fb      	ldr	r3, [r7, #12]
 8005770:	699b      	ldr	r3, [r3, #24]
 8005772:	613b      	str	r3, [r7, #16]

  /* Set the filter */
  tmpccmr1 &= ~TIM_CCMR1_IC2F;
 8005774:	693b      	ldr	r3, [r7, #16]
 8005776:	f423 4370 	bic.w	r3, r3, #61440	@ 0xf000
 800577a:	613b      	str	r3, [r7, #16]
  tmpccmr1 |= (TIM_ICFilter << 12U);
 800577c:	687b      	ldr	r3, [r7, #4]
 800577e:	031b      	lsls	r3, r3, #12
 8005780:	693a      	ldr	r2, [r7, #16]
 8005782:	4313      	orrs	r3, r2
 8005784:	613b      	str	r3, [r7, #16]

  /* Select the Polarity and set the CC2E Bit */
  tmpccer &= ~(TIM_CCER_CC2P | TIM_CCER_CC2NP);
 8005786:	697b      	ldr	r3, [r7, #20]
 8005788:	f023 03a0 	bic.w	r3, r3, #160	@ 0xa0
 800578c:	617b      	str	r3, [r7, #20]
  tmpccer |= (TIM_ICPolarity << 4U);
 800578e:	68bb      	ldr	r3, [r7, #8]
 8005790:	011b      	lsls	r3, r3, #4
 8005792:	697a      	ldr	r2, [r7, #20]
 8005794:	4313      	orrs	r3, r2
 8005796:	617b      	str	r3, [r7, #20]

  /* Write to TIMx CCMR1 and CCER registers */
  TIMx->CCMR1 = tmpccmr1 ;
 8005798:	68fb      	ldr	r3, [r7, #12]
 800579a:	693a      	ldr	r2, [r7, #16]
 800579c:	619a      	str	r2, [r3, #24]
  TIMx->CCER = tmpccer;
 800579e:	68fb      	ldr	r3, [r7, #12]
 80057a0:	697a      	ldr	r2, [r7, #20]
 80057a2:	621a      	str	r2, [r3, #32]
}
 80057a4:	bf00      	nop
 80057a6:	371c      	adds	r7, #28
 80057a8:	46bd      	mov	sp, r7
 80057aa:	bc80      	pop	{r7}
 80057ac:	4770      	bx	lr

080057ae <TIM_ITRx_SetConfig>:
  *            @arg TIM_TS_TI2FP2: Filtered Timer Input 2
  *            @arg TIM_TS_ETRF: External Trigger input
  * @retval None
  */
static void TIM_ITRx_SetConfig(TIM_TypeDef *TIMx, uint32_t InputTriggerSource)
{
 80057ae:	b480      	push	{r7}
 80057b0:	b085      	sub	sp, #20
 80057b2:	af00      	add	r7, sp, #0
 80057b4:	6078      	str	r0, [r7, #4]
 80057b6:	6039      	str	r1, [r7, #0]
  uint32_t tmpsmcr;

  /* Get the TIMx SMCR register value */
  tmpsmcr = TIMx->SMCR;
 80057b8:	687b      	ldr	r3, [r7, #4]
 80057ba:	689b      	ldr	r3, [r3, #8]
 80057bc:	60fb      	str	r3, [r7, #12]
  /* Reset the TS Bits */
  tmpsmcr &= ~TIM_SMCR_TS;
 80057be:	68fb      	ldr	r3, [r7, #12]
 80057c0:	f023 0370 	bic.w	r3, r3, #112	@ 0x70
 80057c4:	60fb      	str	r3, [r7, #12]
  /* Set the Input Trigger source and the slave mode*/
  tmpsmcr |= (InputTriggerSource | TIM_SLAVEMODE_EXTERNAL1);
 80057c6:	683a      	ldr	r2, [r7, #0]
 80057c8:	68fb      	ldr	r3, [r7, #12]
 80057ca:	4313      	orrs	r3, r2
 80057cc:	f043 0307 	orr.w	r3, r3, #7
 80057d0:	60fb      	str	r3, [r7, #12]
  /* Write to TIMx SMCR */
  TIMx->SMCR = tmpsmcr;
 80057d2:	687b      	ldr	r3, [r7, #4]
 80057d4:	68fa      	ldr	r2, [r7, #12]
 80057d6:	609a      	str	r2, [r3, #8]
}
 80057d8:	bf00      	nop
 80057da:	3714      	adds	r7, #20
 80057dc:	46bd      	mov	sp, r7
 80057de:	bc80      	pop	{r7}
 80057e0:	4770      	bx	lr

080057e2 <TIM_ETR_SetConfig>:
  *          This parameter must be a value between 0x00 and 0x0F
  * @retval None
  */
void TIM_ETR_SetConfig(TIM_TypeDef *TIMx, uint32_t TIM_ExtTRGPrescaler,
                       uint32_t TIM_ExtTRGPolarity, uint32_t ExtTRGFilter)
{
 80057e2:	b480      	push	{r7}
 80057e4:	b087      	sub	sp, #28
 80057e6:	af00      	add	r7, sp, #0
 80057e8:	60f8      	str	r0, [r7, #12]
 80057ea:	60b9      	str	r1, [r7, #8]
 80057ec:	607a      	str	r2, [r7, #4]
 80057ee:	603b      	str	r3, [r7, #0]
  uint32_t tmpsmcr;

  tmpsmcr = TIMx->SMCR;
 80057f0:	68fb      	ldr	r3, [r7, #12]
 80057f2:	689b      	ldr	r3, [r3, #8]
 80057f4:	617b      	str	r3, [r7, #20]

  /* Reset the ETR Bits */
  tmpsmcr &= ~(TIM_SMCR_ETF | TIM_SMCR_ETPS | TIM_SMCR_ECE | TIM_SMCR_ETP);
 80057f6:	697b      	ldr	r3, [r7, #20]
 80057f8:	f423 437f 	bic.w	r3, r3, #65280	@ 0xff00
 80057fc:	617b      	str	r3, [r7, #20]

  /* Set the Prescaler, the Filter value and the Polarity */
  tmpsmcr |= (uint32_t)(TIM_ExtTRGPrescaler | (TIM_ExtTRGPolarity | (ExtTRGFilter << 8U)));
 80057fe:	683b      	ldr	r3, [r7, #0]
 8005800:	021a      	lsls	r2, r3, #8
 8005802:	687b      	ldr	r3, [r7, #4]
 8005804:	431a      	orrs	r2, r3
 8005806:	68bb      	ldr	r3, [r7, #8]
 8005808:	4313      	orrs	r3, r2
 800580a:	697a      	ldr	r2, [r7, #20]
 800580c:	4313      	orrs	r3, r2
 800580e:	617b      	str	r3, [r7, #20]

  /* Write to TIMx SMCR */
  TIMx->SMCR = tmpsmcr;
 8005810:	68fb      	ldr	r3, [r7, #12]
 8005812:	697a      	ldr	r2, [r7, #20]
 8005814:	609a      	str	r2, [r3, #8]
}
 8005816:	bf00      	nop
 8005818:	371c      	adds	r7, #28
 800581a:	46bd      	mov	sp, r7
 800581c:	bc80      	pop	{r7}
 800581e:	4770      	bx	lr

08005820 <TIM_CCxChannelCmd>:
  * @param  ChannelState specifies the TIM Channel CCxE bit new state.
  *          This parameter can be: TIM_CCx_ENABLE or TIM_CCx_DISABLE.
  * @retval None
  */
void TIM_CCxChannelCmd(TIM_TypeDef *TIMx, uint32_t Channel, uint32_t ChannelState)
{
 8005820:	b480      	push	{r7}
 8005822:	b087      	sub	sp, #28
 8005824:	af00      	add	r7, sp, #0
 8005826:	60f8      	str	r0, [r7, #12]
 8005828:	60b9      	str	r1, [r7, #8]
 800582a:	607a      	str	r2, [r7, #4]

  /* Check the parameters */
  assert_param(IS_TIM_CC1_INSTANCE(TIMx));
  assert_param(IS_TIM_CHANNELS(Channel));

  tmp = TIM_CCER_CC1E << (Channel & 0x1FU); /* 0x1FU = 31 bits max shift */
 800582c:	68bb      	ldr	r3, [r7, #8]
 800582e:	f003 031f 	and.w	r3, r3, #31
 8005832:	2201      	movs	r2, #1
 8005834:	fa02 f303 	lsl.w	r3, r2, r3
 8005838:	617b      	str	r3, [r7, #20]

  /* Reset the CCxE Bit */
  TIMx->CCER &= ~tmp;
 800583a:	68fb      	ldr	r3, [r7, #12]
 800583c:	6a1a      	ldr	r2, [r3, #32]
 800583e:	697b      	ldr	r3, [r7, #20]
 8005840:	43db      	mvns	r3, r3
 8005842:	401a      	ands	r2, r3
 8005844:	68fb      	ldr	r3, [r7, #12]
 8005846:	621a      	str	r2, [r3, #32]

  /* Set or reset the CCxE Bit */
  TIMx->CCER |= (uint32_t)(ChannelState << (Channel & 0x1FU)); /* 0x1FU = 31 bits max shift */
 8005848:	68fb      	ldr	r3, [r7, #12]
 800584a:	6a1a      	ldr	r2, [r3, #32]
 800584c:	68bb      	ldr	r3, [r7, #8]
 800584e:	f003 031f 	and.w	r3, r3, #31
 8005852:	6879      	ldr	r1, [r7, #4]
 8005854:	fa01 f303 	lsl.w	r3, r1, r3
 8005858:	431a      	orrs	r2, r3
 800585a:	68fb      	ldr	r3, [r7, #12]
 800585c:	621a      	str	r2, [r3, #32]
}
 800585e:	bf00      	nop
 8005860:	371c      	adds	r7, #28
 8005862:	46bd      	mov	sp, r7
 8005864:	bc80      	pop	{r7}
 8005866:	4770      	bx	lr

08005868 <HAL_TIMEx_MasterConfigSynchronization>:
  *         mode.
  * @retval HAL status
  */
HAL_StatusTypeDef HAL_TIMEx_MasterConfigSynchronization(TIM_HandleTypeDef *htim,
                                                        const TIM_MasterConfigTypeDef *sMasterConfig)
{
 8005868:	b480      	push	{r7}
 800586a:	b085      	sub	sp, #20
 800586c:	af00      	add	r7, sp, #0
 800586e:	6078      	str	r0, [r7, #4]
 8005870:	6039      	str	r1, [r7, #0]
  assert_param(IS_TIM_MASTER_INSTANCE(htim->Instance));
  assert_param(IS_TIM_TRGO_SOURCE(sMasterConfig->MasterOutputTrigger));
  assert_param(IS_TIM_MSM_STATE(sMasterConfig->MasterSlaveMode));

  /* Check input state */
  __HAL_LOCK(htim);
 8005872:	687b      	ldr	r3, [r7, #4]
 8005874:	f893 303c 	ldrb.w	r3, [r3, #60]	@ 0x3c
 8005878:	2b01      	cmp	r3, #1
 800587a:	d101      	bne.n	8005880 <HAL_TIMEx_MasterConfigSynchronization+0x18>
 800587c:	2302      	movs	r3, #2
 800587e:	e046      	b.n	800590e <HAL_TIMEx_MasterConfigSynchronization+0xa6>
 8005880:	687b      	ldr	r3, [r7, #4]
 8005882:	2201      	movs	r2, #1
 8005884:	f883 203c 	strb.w	r2, [r3, #60]	@ 0x3c

  /* Change the handler state */
  htim->State = HAL_TIM_STATE_BUSY;
 8005888:	687b      	ldr	r3, [r7, #4]
 800588a:	2202      	movs	r2, #2
 800588c:	f883 203d 	strb.w	r2, [r3, #61]	@ 0x3d

  /* Get the TIMx CR2 register value */
  tmpcr2 = htim->Instance->CR2;
 8005890:	687b      	ldr	r3, [r7, #4]
 8005892:	681b      	ldr	r3, [r3, #0]
 8005894:	685b      	ldr	r3, [r3, #4]
 8005896:	60fb      	str	r3, [r7, #12]

  /* Get the TIMx SMCR register value */
  tmpsmcr = htim->Instance->SMCR;
 8005898:	687b      	ldr	r3, [r7, #4]
 800589a:	681b      	ldr	r3, [r3, #0]
 800589c:	689b      	ldr	r3, [r3, #8]
 800589e:	60bb      	str	r3, [r7, #8]

  /* Reset the MMS Bits */
  tmpcr2 &= ~TIM_CR2_MMS;
 80058a0:	68fb      	ldr	r3, [r7, #12]
 80058a2:	f023 0370 	bic.w	r3, r3, #112	@ 0x70
 80058a6:	60fb      	str	r3, [r7, #12]
  /* Select the TRGO source */
  tmpcr2 |=  sMasterConfig->MasterOutputTrigger;
 80058a8:	683b      	ldr	r3, [r7, #0]
 80058aa:	681b      	ldr	r3, [r3, #0]
 80058ac:	68fa      	ldr	r2, [r7, #12]
 80058ae:	4313      	orrs	r3, r2
 80058b0:	60fb      	str	r3, [r7, #12]

  /* Update TIMx CR2 */
  htim->Instance->CR2 = tmpcr2;
 80058b2:	687b      	ldr	r3, [r7, #4]
 80058b4:	681b      	ldr	r3, [r3, #0]
 80058b6:	68fa      	ldr	r2, [r7, #12]
 80058b8:	605a      	str	r2, [r3, #4]

  if (IS_TIM_SLAVE_INSTANCE(htim->Instance))
 80058ba:	687b      	ldr	r3, [r7, #4]
 80058bc:	681b      	ldr	r3, [r3, #0]
 80058be:	4a16      	ldr	r2, [pc, #88]	@ (8005918 <HAL_TIMEx_MasterConfigSynchronization+0xb0>)
 80058c0:	4293      	cmp	r3, r2
 80058c2:	d00e      	beq.n	80058e2 <HAL_TIMEx_MasterConfigSynchronization+0x7a>
 80058c4:	687b      	ldr	r3, [r7, #4]
 80058c6:	681b      	ldr	r3, [r3, #0]
 80058c8:	f1b3 4f80 	cmp.w	r3, #1073741824	@ 0x40000000
 80058cc:	d009      	beq.n	80058e2 <HAL_TIMEx_MasterConfigSynchronization+0x7a>
 80058ce:	687b      	ldr	r3, [r7, #4]
 80058d0:	681b      	ldr	r3, [r3, #0]
 80058d2:	4a12      	ldr	r2, [pc, #72]	@ (800591c <HAL_TIMEx_MasterConfigSynchronization+0xb4>)
 80058d4:	4293      	cmp	r3, r2
 80058d6:	d004      	beq.n	80058e2 <HAL_TIMEx_MasterConfigSynchronization+0x7a>
 80058d8:	687b      	ldr	r3, [r7, #4]
 80058da:	681b      	ldr	r3, [r3, #0]
 80058dc:	4a10      	ldr	r2, [pc, #64]	@ (8005920 <HAL_TIMEx_MasterConfigSynchronization+0xb8>)
 80058de:	4293      	cmp	r3, r2
 80058e0:	d10c      	bne.n	80058fc <HAL_TIMEx_MasterConfigSynchronization+0x94>
  {
    /* Reset the MSM Bit */
    tmpsmcr &= ~TIM_SMCR_MSM;
 80058e2:	68bb      	ldr	r3, [r7, #8]
 80058e4:	f023 0380 	bic.w	r3, r3, #128	@ 0x80
 80058e8:	60bb      	str	r3, [r7, #8]
    /* Set master mode */
    tmpsmcr |= sMasterConfig->MasterSlaveMode;
 80058ea:	683b      	ldr	r3, [r7, #0]
 80058ec:	685b      	ldr	r3, [r3, #4]
 80058ee:	68ba      	ldr	r2, [r7, #8]
 80058f0:	4313      	orrs	r3, r2
 80058f2:	60bb      	str	r3, [r7, #8]

    /* Update TIMx SMCR */
    htim->Instance->SMCR = tmpsmcr;
 80058f4:	687b      	ldr	r3, [r7, #4]
 80058f6:	681b      	ldr	r3, [r3, #0]
 80058f8:	68ba      	ldr	r2, [r7, #8]
 80058fa:	609a      	str	r2, [r3, #8]
  }

  /* Change the htim state */
  htim->State = HAL_TIM_STATE_READY;
 80058fc:	687b      	ldr	r3, [r7, #4]
 80058fe:	2201      	movs	r2, #1
 8005900:	f883 203d 	strb.w	r2, [r3, #61]	@ 0x3d

  __HAL_UNLOCK(htim);
 8005904:	687b      	ldr	r3, [r7, #4]
 8005906:	2200      	movs	r2, #0
 8005908:	f883 203c 	strb.w	r2, [r3, #60]	@ 0x3c

  return HAL_OK;
 800590c:	2300      	movs	r3, #0
}
 800590e:	4618      	mov	r0, r3
 8005910:	3714      	adds	r7, #20
 8005912:	46bd      	mov	sp, r7
 8005914:	bc80      	pop	{r7}
 8005916:	4770      	bx	lr
 8005918:	40012c00 	.word	0x40012c00
 800591c:	40000400 	.word	0x40000400
 8005920:	40000800 	.word	0x40000800

08005924 <HAL_TIMEx_CommutCallback>:
  * @brief  Hall commutation changed callback in non-blocking mode
  * @param  htim TIM handle
  * @retval None
  */
__weak void HAL_TIMEx_CommutCallback(TIM_HandleTypeDef *htim)
{
 8005924:	b480      	push	{r7}
 8005926:	b083      	sub	sp, #12
 8005928:	af00      	add	r7, sp, #0
 800592a:	6078      	str	r0, [r7, #4]
  UNUSED(htim);

  /* NOTE : This function should not be modified, when the callback is needed,
            the HAL_TIMEx_CommutCallback could be implemented in the user file
   */
}
 800592c:	bf00      	nop
 800592e:	370c      	adds	r7, #12
 8005930:	46bd      	mov	sp, r7
 8005932:	bc80      	pop	{r7}
 8005934:	4770      	bx	lr

08005936 <HAL_TIMEx_BreakCallback>:
  * @brief  Hall Break detection callback in non-blocking mode
  * @param  htim TIM handle
  * @retval None
  */
__weak void HAL_TIMEx_BreakCallback(TIM_HandleTypeDef *htim)
{
 8005936:	b480      	push	{r7}
 8005938:	b083      	sub	sp, #12
 800593a:	af00      	add	r7, sp, #0
 800593c:	6078      	str	r0, [r7, #4]
  UNUSED(htim);

  /* NOTE : This function should not be modified, when the callback is needed,
            the HAL_TIMEx_BreakCallback could be implemented in the user file
   */
}
 800593e:	bf00      	nop
 8005940:	370c      	adds	r7, #12
 8005942:	46bd      	mov	sp, r7
 8005944:	bc80      	pop	{r7}
 8005946:	4770      	bx	lr

08005948 <HAL_UART_Init>:
  * @param  huart  Pointer to a UART_HandleTypeDef structure that contains
  *                the configuration information for the specified UART module.
  * @retval HAL status
  */
HAL_StatusTypeDef HAL_UART_Init(UART_HandleTypeDef *huart)
{
 8005948:	b580      	push	{r7, lr}
 800594a:	b082      	sub	sp, #8
 800594c:	af00      	add	r7, sp, #0
 800594e:	6078      	str	r0, [r7, #4]
  /* Check the UART handle allocation */
  if (huart == NULL)
 8005950:	687b      	ldr	r3, [r7, #4]
 8005952:	2b00      	cmp	r3, #0
 8005954:	d101      	bne.n	800595a <HAL_UART_Init+0x12>
  {
    return HAL_ERROR;
 8005956:	2301      	movs	r3, #1
 8005958:	e042      	b.n	80059e0 <HAL_UART_Init+0x98>
  assert_param(IS_UART_WORD_LENGTH(huart->Init.WordLength));
#if defined(USART_CR1_OVER8)
  assert_param(IS_UART_OVERSAMPLING(huart->Init.OverSampling));
#endif /* USART_CR1_OVER8 */

  if (huart->gState == HAL_UART_STATE_RESET)
 800595a:	687b      	ldr	r3, [r7, #4]
 800595c:	f893 3041 	ldrb.w	r3, [r3, #65]	@ 0x41
 8005960:	b2db      	uxtb	r3, r3
 8005962:	2b00      	cmp	r3, #0
 8005964:	d106      	bne.n	8005974 <HAL_UART_Init+0x2c>
  {
    /* Allocate lock resource and initialize it */
    huart->Lock = HAL_UNLOCKED;
 8005966:	687b      	ldr	r3, [r7, #4]
 8005968:	2200      	movs	r2, #0
 800596a:	f883 2040 	strb.w	r2, [r3, #64]	@ 0x40

    /* Init the low level hardware */
    huart->MspInitCallback(huart);
#else
    /* Init the low level hardware : GPIO, CLOCK */
    HAL_UART_MspInit(huart);
 800596e:	6878      	ldr	r0, [r7, #4]
 8005970:	f7fd f868 	bl	8002a44 <HAL_UART_MspInit>
#endif /* (USE_HAL_UART_REGISTER_CALLBACKS) */
  }

  huart->gState = HAL_UART_STATE_BUSY;
 8005974:	687b      	ldr	r3, [r7, #4]
 8005976:	2224      	movs	r2, #36	@ 0x24
 8005978:	f883 2041 	strb.w	r2, [r3, #65]	@ 0x41

  /* Disable the peripheral */
  __HAL_UART_DISABLE(huart);
 800597c:	687b      	ldr	r3, [r7, #4]
 800597e:	681b      	ldr	r3, [r3, #0]
 8005980:	68da      	ldr	r2, [r3, #12]
 8005982:	687b      	ldr	r3, [r7, #4]
 8005984:	681b      	ldr	r3, [r3, #0]
 8005986:	f422 5200 	bic.w	r2, r2, #8192	@ 0x2000
 800598a:	60da      	str	r2, [r3, #12]

  /* Set the UART Communication parameters */
  UART_SetConfig(huart);
 800598c:	6878      	ldr	r0, [r7, #4]
 800598e:	f000 f82b 	bl	80059e8 <UART_SetConfig>

  /* In asynchronous mode, the following bits must be kept cleared:
     - LINEN and CLKEN bits in the USART_CR2 register,
     - SCEN, HDSEL and IREN  bits in the USART_CR3 register.*/
  CLEAR_BIT(huart->Instance->CR2, (USART_CR2_LINEN | USART_CR2_CLKEN));
 8005992:	687b      	ldr	r3, [r7, #4]
 8005994:	681b      	ldr	r3, [r3, #0]
 8005996:	691a      	ldr	r2, [r3, #16]
 8005998:	687b      	ldr	r3, [r7, #4]
 800599a:	681b      	ldr	r3, [r3, #0]
 800599c:	f422 4290 	bic.w	r2, r2, #18432	@ 0x4800
 80059a0:	611a      	str	r2, [r3, #16]
  CLEAR_BIT(huart->Instance->CR3, (USART_CR3_SCEN | USART_CR3_HDSEL | USART_CR3_IREN));
 80059a2:	687b      	ldr	r3, [r7, #4]
 80059a4:	681b      	ldr	r3, [r3, #0]
 80059a6:	695a      	ldr	r2, [r3, #20]
 80059a8:	687b      	ldr	r3, [r7, #4]
 80059aa:	681b      	ldr	r3, [r3, #0]
 80059ac:	f022 022a 	bic.w	r2, r2, #42	@ 0x2a
 80059b0:	615a      	str	r2, [r3, #20]

  /* Enable the peripheral */
  __HAL_UART_ENABLE(huart);
 80059b2:	687b      	ldr	r3, [r7, #4]
 80059b4:	681b      	ldr	r3, [r3, #0]
 80059b6:	68da      	ldr	r2, [r3, #12]
 80059b8:	687b      	ldr	r3, [r7, #4]
 80059ba:	681b      	ldr	r3, [r3, #0]
 80059bc:	f442 5200 	orr.w	r2, r2, #8192	@ 0x2000
 80059c0:	60da      	str	r2, [r3, #12]

  /* Initialize the UART state */
  huart->ErrorCode = HAL_UART_ERROR_NONE;
 80059c2:	687b      	ldr	r3, [r7, #4]
 80059c4:	2200      	movs	r2, #0
 80059c6:	645a      	str	r2, [r3, #68]	@ 0x44
  huart->gState = HAL_UART_STATE_READY;
 80059c8:	687b      	ldr	r3, [r7, #4]
 80059ca:	2220      	movs	r2, #32
 80059cc:	f883 2041 	strb.w	r2, [r3, #65]	@ 0x41
  huart->RxState = HAL_UART_STATE_READY;
 80059d0:	687b      	ldr	r3, [r7, #4]
 80059d2:	2220      	movs	r2, #32
 80059d4:	f883 2042 	strb.w	r2, [r3, #66]	@ 0x42
  huart->RxEventType = HAL_UART_RXEVENT_TC;
 80059d8:	687b      	ldr	r3, [r7, #4]
 80059da:	2200      	movs	r2, #0
 80059dc:	635a      	str	r2, [r3, #52]	@ 0x34

  return HAL_OK;
 80059de:	2300      	movs	r3, #0
}
 80059e0:	4618      	mov	r0, r3
 80059e2:	3708      	adds	r7, #8
 80059e4:	46bd      	mov	sp, r7
 80059e6:	bd80      	pop	{r7, pc}

080059e8 <UART_SetConfig>:
  * @param  huart  Pointer to a UART_HandleTypeDef structure that contains
  *                the configuration information for the specified UART module.
  * @retval None
  */
static void UART_SetConfig(UART_HandleTypeDef *huart)
{
 80059e8:	b580      	push	{r7, lr}
 80059ea:	b084      	sub	sp, #16
 80059ec:	af00      	add	r7, sp, #0
 80059ee:	6078      	str	r0, [r7, #4]
  assert_param(IS_UART_MODE(huart->Init.Mode));

  /*-------------------------- USART CR2 Configuration -----------------------*/
  /* Configure the UART Stop Bits: Set STOP[13:12] bits
     according to huart->Init.StopBits value */
  MODIFY_REG(huart->Instance->CR2, USART_CR2_STOP, huart->Init.StopBits);
 80059f0:	687b      	ldr	r3, [r7, #4]
 80059f2:	681b      	ldr	r3, [r3, #0]
 80059f4:	691b      	ldr	r3, [r3, #16]
 80059f6:	f423 5140 	bic.w	r1, r3, #12288	@ 0x3000
 80059fa:	687b      	ldr	r3, [r7, #4]
 80059fc:	68da      	ldr	r2, [r3, #12]
 80059fe:	687b      	ldr	r3, [r7, #4]
 8005a00:	681b      	ldr	r3, [r3, #0]
 8005a02:	430a      	orrs	r2, r1
 8005a04:	611a      	str	r2, [r3, #16]
  tmpreg = (uint32_t)huart->Init.WordLength | huart->Init.Parity | huart->Init.Mode | huart->Init.OverSampling;
  MODIFY_REG(huart->Instance->CR1,
             (uint32_t)(USART_CR1_M | USART_CR1_PCE | USART_CR1_PS | USART_CR1_TE | USART_CR1_RE | USART_CR1_OVER8),
             tmpreg);
#else
  tmpreg = (uint32_t)huart->Init.WordLength | huart->Init.Parity | huart->Init.Mode;
 8005a06:	687b      	ldr	r3, [r7, #4]
 8005a08:	689a      	ldr	r2, [r3, #8]
 8005a0a:	687b      	ldr	r3, [r7, #4]
 8005a0c:	691b      	ldr	r3, [r3, #16]
 8005a0e:	431a      	orrs	r2, r3
 8005a10:	687b      	ldr	r3, [r7, #4]
 8005a12:	695b      	ldr	r3, [r3, #20]
 8005a14:	4313      	orrs	r3, r2
 8005a16:	60bb      	str	r3, [r7, #8]
  MODIFY_REG(huart->Instance->CR1,
 8005a18:	687b      	ldr	r3, [r7, #4]
 8005a1a:	681b      	ldr	r3, [r3, #0]
 8005a1c:	68db      	ldr	r3, [r3, #12]
 8005a1e:	f423 53b0 	bic.w	r3, r3, #5632	@ 0x1600
 8005a22:	f023 030c 	bic.w	r3, r3, #12
 8005a26:	687a      	ldr	r2, [r7, #4]
 8005a28:	6812      	ldr	r2, [r2, #0]
 8005a2a:	68b9      	ldr	r1, [r7, #8]
 8005a2c:	430b      	orrs	r3, r1
 8005a2e:	60d3      	str	r3, [r2, #12]
             tmpreg);
#endif /* USART_CR1_OVER8 */

  /*-------------------------- USART CR3 Configuration -----------------------*/
  /* Configure the UART HFC: Set CTSE and RTSE bits according to huart->Init.HwFlowCtl value */
  MODIFY_REG(huart->Instance->CR3, (USART_CR3_RTSE | USART_CR3_CTSE), huart->Init.HwFlowCtl);
 8005a30:	687b      	ldr	r3, [r7, #4]
 8005a32:	681b      	ldr	r3, [r3, #0]
 8005a34:	695b      	ldr	r3, [r3, #20]
 8005a36:	f423 7140 	bic.w	r1, r3, #768	@ 0x300
 8005a3a:	687b      	ldr	r3, [r7, #4]
 8005a3c:	699a      	ldr	r2, [r3, #24]
 8005a3e:	687b      	ldr	r3, [r7, #4]
 8005a40:	681b      	ldr	r3, [r3, #0]
 8005a42:	430a      	orrs	r2, r1
 8005a44:	615a      	str	r2, [r3, #20]


  if(huart->Instance == USART1)
 8005a46:	687b      	ldr	r3, [r7, #4]
 8005a48:	681b      	ldr	r3, [r3, #0]
 8005a4a:	4a2c      	ldr	r2, [pc, #176]	@ (8005afc <UART_SetConfig+0x114>)
 8005a4c:	4293      	cmp	r3, r2
 8005a4e:	d103      	bne.n	8005a58 <UART_SetConfig+0x70>
  {
    pclk = HAL_RCC_GetPCLK2Freq();
 8005a50:	f7fe ffea 	bl	8004a28 <HAL_RCC_GetPCLK2Freq>
 8005a54:	60f8      	str	r0, [r7, #12]
 8005a56:	e002      	b.n	8005a5e <UART_SetConfig+0x76>
  }
  else
  {
    pclk = HAL_RCC_GetPCLK1Freq();
 8005a58:	f7fe ffd2 	bl	8004a00 <HAL_RCC_GetPCLK1Freq>
 8005a5c:	60f8      	str	r0, [r7, #12]
  else
  {
    huart->Instance->BRR = UART_BRR_SAMPLING16(pclk, huart->Init.BaudRate);
  }
#else
  huart->Instance->BRR = UART_BRR_SAMPLING16(pclk, huart->Init.BaudRate);
 8005a5e:	68fa      	ldr	r2, [r7, #12]
 8005a60:	4613      	mov	r3, r2
 8005a62:	009b      	lsls	r3, r3, #2
 8005a64:	4413      	add	r3, r2
 8005a66:	009a      	lsls	r2, r3, #2
 8005a68:	441a      	add	r2, r3
 8005a6a:	687b      	ldr	r3, [r7, #4]
 8005a6c:	685b      	ldr	r3, [r3, #4]
 8005a6e:	009b      	lsls	r3, r3, #2
 8005a70:	fbb2 f3f3 	udiv	r3, r2, r3
 8005a74:	4a22      	ldr	r2, [pc, #136]	@ (8005b00 <UART_SetConfig+0x118>)
 8005a76:	fba2 2303 	umull	r2, r3, r2, r3
 8005a7a:	095b      	lsrs	r3, r3, #5
 8005a7c:	0119      	lsls	r1, r3, #4
 8005a7e:	68fa      	ldr	r2, [r7, #12]
 8005a80:	4613      	mov	r3, r2
 8005a82:	009b      	lsls	r3, r3, #2
 8005a84:	4413      	add	r3, r2
 8005a86:	009a      	lsls	r2, r3, #2
 8005a88:	441a      	add	r2, r3
 8005a8a:	687b      	ldr	r3, [r7, #4]
 8005a8c:	685b      	ldr	r3, [r3, #4]
 8005a8e:	009b      	lsls	r3, r3, #2
 8005a90:	fbb2 f2f3 	udiv	r2, r2, r3
 8005a94:	4b1a      	ldr	r3, [pc, #104]	@ (8005b00 <UART_SetConfig+0x118>)
 8005a96:	fba3 0302 	umull	r0, r3, r3, r2
 8005a9a:	095b      	lsrs	r3, r3, #5
 8005a9c:	2064      	movs	r0, #100	@ 0x64
 8005a9e:	fb00 f303 	mul.w	r3, r0, r3
 8005aa2:	1ad3      	subs	r3, r2, r3
 8005aa4:	011b      	lsls	r3, r3, #4
 8005aa6:	3332      	adds	r3, #50	@ 0x32
 8005aa8:	4a15      	ldr	r2, [pc, #84]	@ (8005b00 <UART_SetConfig+0x118>)
 8005aaa:	fba2 2303 	umull	r2, r3, r2, r3
 8005aae:	095b      	lsrs	r3, r3, #5
 8005ab0:	f003 03f0 	and.w	r3, r3, #240	@ 0xf0
 8005ab4:	4419      	add	r1, r3
 8005ab6:	68fa      	ldr	r2, [r7, #12]
 8005ab8:	4613      	mov	r3, r2
 8005aba:	009b      	lsls	r3, r3, #2
 8005abc:	4413      	add	r3, r2
 8005abe:	009a      	lsls	r2, r3, #2
 8005ac0:	441a      	add	r2, r3
 8005ac2:	687b      	ldr	r3, [r7, #4]
 8005ac4:	685b      	ldr	r3, [r3, #4]
 8005ac6:	009b      	lsls	r3, r3, #2
 8005ac8:	fbb2 f2f3 	udiv	r2, r2, r3
 8005acc:	4b0c      	ldr	r3, [pc, #48]	@ (8005b00 <UART_SetConfig+0x118>)
 8005ace:	fba3 0302 	umull	r0, r3, r3, r2
 8005ad2:	095b      	lsrs	r3, r3, #5
 8005ad4:	2064      	movs	r0, #100	@ 0x64
 8005ad6:	fb00 f303 	mul.w	r3, r0, r3
 8005ada:	1ad3      	subs	r3, r2, r3
 8005adc:	011b      	lsls	r3, r3, #4
 8005ade:	3332      	adds	r3, #50	@ 0x32
 8005ae0:	4a07      	ldr	r2, [pc, #28]	@ (8005b00 <UART_SetConfig+0x118>)
 8005ae2:	fba2 2303 	umull	r2, r3, r2, r3
 8005ae6:	095b      	lsrs	r3, r3, #5
 8005ae8:	f003 020f 	and.w	r2, r3, #15
 8005aec:	687b      	ldr	r3, [r7, #4]
 8005aee:	681b      	ldr	r3, [r3, #0]
 8005af0:	440a      	add	r2, r1
 8005af2:	609a      	str	r2, [r3, #8]
#endif /* USART_CR1_OVER8 */
}
 8005af4:	bf00      	nop
 8005af6:	3710      	adds	r7, #16
 8005af8:	46bd      	mov	sp, r7
 8005afa:	bd80      	pop	{r7, pc}
 8005afc:	40013800 	.word	0x40013800
 8005b00:	51eb851f 	.word	0x51eb851f

08005b04 <memset>:
 8005b04:	4603      	mov	r3, r0
 8005b06:	4402      	add	r2, r0
 8005b08:	4293      	cmp	r3, r2
 8005b0a:	d100      	bne.n	8005b0e <memset+0xa>
 8005b0c:	4770      	bx	lr
 8005b0e:	f803 1b01 	strb.w	r1, [r3], #1
 8005b12:	e7f9      	b.n	8005b08 <memset+0x4>

08005b14 <__errno>:
 8005b14:	4b01      	ldr	r3, [pc, #4]	@ (8005b1c <__errno+0x8>)
 8005b16:	6818      	ldr	r0, [r3, #0]
 8005b18:	4770      	bx	lr
 8005b1a:	bf00      	nop
 8005b1c:	2000009c 	.word	0x2000009c

08005b20 <__libc_init_array>:
 8005b20:	b570      	push	{r4, r5, r6, lr}
 8005b22:	2600      	movs	r6, #0
 8005b24:	4d0c      	ldr	r5, [pc, #48]	@ (8005b58 <__libc_init_array+0x38>)
 8005b26:	4c0d      	ldr	r4, [pc, #52]	@ (8005b5c <__libc_init_array+0x3c>)
 8005b28:	1b64      	subs	r4, r4, r5
 8005b2a:	10a4      	asrs	r4, r4, #2
 8005b2c:	42a6      	cmp	r6, r4
 8005b2e:	d109      	bne.n	8005b44 <__libc_init_array+0x24>
 8005b30:	f000 fb80 	bl	8006234 <_init>
 8005b34:	2600      	movs	r6, #0
 8005b36:	4d0a      	ldr	r5, [pc, #40]	@ (8005b60 <__libc_init_array+0x40>)
 8005b38:	4c0a      	ldr	r4, [pc, #40]	@ (8005b64 <__libc_init_array+0x44>)
 8005b3a:	1b64      	subs	r4, r4, r5
 8005b3c:	10a4      	asrs	r4, r4, #2
 8005b3e:	42a6      	cmp	r6, r4
 8005b40:	d105      	bne.n	8005b4e <__libc_init_array+0x2e>
 8005b42:	bd70      	pop	{r4, r5, r6, pc}
 8005b44:	f855 3b04 	ldr.w	r3, [r5], #4
 8005b48:	4798      	blx	r3
 8005b4a:	3601      	adds	r6, #1
 8005b4c:	e7ee      	b.n	8005b2c <__libc_init_array+0xc>
 8005b4e:	f855 3b04 	ldr.w	r3, [r5], #4
 8005b52:	4798      	blx	r3
 8005b54:	3601      	adds	r6, #1
 8005b56:	e7f2      	b.n	8005b3e <__libc_init_array+0x1e>
 8005b58:	080062f0 	.word	0x080062f0
 8005b5c:	080062f0 	.word	0x080062f0
 8005b60:	080062f0 	.word	0x080062f0
 8005b64:	080062f4 	.word	0x080062f4

08005b68 <atan2>:
 8005b68:	f000 ba92 	b.w	8006090 <__ieee754_atan2>

08005b6c <sqrt>:
 8005b6c:	b5f8      	push	{r3, r4, r5, r6, r7, lr}
 8005b6e:	4606      	mov	r6, r0
 8005b70:	460f      	mov	r7, r1
 8005b72:	f000 f9b5 	bl	8005ee0 <__ieee754_sqrt>
 8005b76:	4632      	mov	r2, r6
 8005b78:	4604      	mov	r4, r0
 8005b7a:	460d      	mov	r5, r1
 8005b7c:	463b      	mov	r3, r7
 8005b7e:	4630      	mov	r0, r6
 8005b80:	4639      	mov	r1, r7
 8005b82:	f7fa ff3b 	bl	80009fc <__aeabi_dcmpun>
 8005b86:	b990      	cbnz	r0, 8005bae <sqrt+0x42>
 8005b88:	2200      	movs	r2, #0
 8005b8a:	2300      	movs	r3, #0
 8005b8c:	4630      	mov	r0, r6
 8005b8e:	4639      	mov	r1, r7
 8005b90:	f7fa ff0c 	bl	80009ac <__aeabi_dcmplt>
 8005b94:	b158      	cbz	r0, 8005bae <sqrt+0x42>
 8005b96:	f7ff ffbd 	bl	8005b14 <__errno>
 8005b9a:	2321      	movs	r3, #33	@ 0x21
 8005b9c:	2200      	movs	r2, #0
 8005b9e:	6003      	str	r3, [r0, #0]
 8005ba0:	2300      	movs	r3, #0
 8005ba2:	4610      	mov	r0, r2
 8005ba4:	4619      	mov	r1, r3
 8005ba6:	f7fa fdb9 	bl	800071c <__aeabi_ddiv>
 8005baa:	4604      	mov	r4, r0
 8005bac:	460d      	mov	r5, r1
 8005bae:	4620      	mov	r0, r4
 8005bb0:	4629      	mov	r1, r5
 8005bb2:	bdf8      	pop	{r3, r4, r5, r6, r7, pc}
 8005bb4:	0000      	movs	r0, r0
	...

08005bb8 <atan>:
 8005bb8:	e92d 4ff8 	stmdb	sp!, {r3, r4, r5, r6, r7, r8, r9, sl, fp, lr}
 8005bbc:	4bbc      	ldr	r3, [pc, #752]	@ (8005eb0 <atan+0x2f8>)
 8005bbe:	f021 4600 	bic.w	r6, r1, #2147483648	@ 0x80000000
 8005bc2:	429e      	cmp	r6, r3
 8005bc4:	4604      	mov	r4, r0
 8005bc6:	460d      	mov	r5, r1
 8005bc8:	468b      	mov	fp, r1
 8005bca:	d918      	bls.n	8005bfe <atan+0x46>
 8005bcc:	4bb9      	ldr	r3, [pc, #740]	@ (8005eb4 <atan+0x2fc>)
 8005bce:	429e      	cmp	r6, r3
 8005bd0:	d801      	bhi.n	8005bd6 <atan+0x1e>
 8005bd2:	d109      	bne.n	8005be8 <atan+0x30>
 8005bd4:	b140      	cbz	r0, 8005be8 <atan+0x30>
 8005bd6:	4622      	mov	r2, r4
 8005bd8:	462b      	mov	r3, r5
 8005bda:	4620      	mov	r0, r4
 8005bdc:	4629      	mov	r1, r5
 8005bde:	f7fa fabd 	bl	800015c <__adddf3>
 8005be2:	4604      	mov	r4, r0
 8005be4:	460d      	mov	r5, r1
 8005be6:	e006      	b.n	8005bf6 <atan+0x3e>
 8005be8:	f1bb 0f00 	cmp.w	fp, #0
 8005bec:	f340 8123 	ble.w	8005e36 <atan+0x27e>
 8005bf0:	a593      	add	r5, pc, #588	@ (adr r5, 8005e40 <atan+0x288>)
 8005bf2:	e9d5 4500 	ldrd	r4, r5, [r5]
 8005bf6:	4620      	mov	r0, r4
 8005bf8:	4629      	mov	r1, r5
 8005bfa:	e8bd 8ff8 	ldmia.w	sp!, {r3, r4, r5, r6, r7, r8, r9, sl, fp, pc}
 8005bfe:	4bae      	ldr	r3, [pc, #696]	@ (8005eb8 <atan+0x300>)
 8005c00:	429e      	cmp	r6, r3
 8005c02:	d811      	bhi.n	8005c28 <atan+0x70>
 8005c04:	f1a3 73de 	sub.w	r3, r3, #29097984	@ 0x1bc0000
 8005c08:	429e      	cmp	r6, r3
 8005c0a:	d80a      	bhi.n	8005c22 <atan+0x6a>
 8005c0c:	a38e      	add	r3, pc, #568	@ (adr r3, 8005e48 <atan+0x290>)
 8005c0e:	e9d3 2300 	ldrd	r2, r3, [r3]
 8005c12:	f7fa faa3 	bl	800015c <__adddf3>
 8005c16:	2200      	movs	r2, #0
 8005c18:	4ba8      	ldr	r3, [pc, #672]	@ (8005ebc <atan+0x304>)
 8005c1a:	f7fa fee5 	bl	80009e8 <__aeabi_dcmpgt>
 8005c1e:	2800      	cmp	r0, #0
 8005c20:	d1e9      	bne.n	8005bf6 <atan+0x3e>
 8005c22:	f04f 3aff 	mov.w	sl, #4294967295
 8005c26:	e027      	b.n	8005c78 <atan+0xc0>
 8005c28:	f000 f956 	bl	8005ed8 <fabs>
 8005c2c:	4ba4      	ldr	r3, [pc, #656]	@ (8005ec0 <atan+0x308>)
 8005c2e:	4604      	mov	r4, r0
 8005c30:	429e      	cmp	r6, r3
 8005c32:	460d      	mov	r5, r1
 8005c34:	f200 80b8 	bhi.w	8005da8 <atan+0x1f0>
 8005c38:	f5a3 2350 	sub.w	r3, r3, #851968	@ 0xd0000
 8005c3c:	429e      	cmp	r6, r3
 8005c3e:	f200 809c 	bhi.w	8005d7a <atan+0x1c2>
 8005c42:	4602      	mov	r2, r0
 8005c44:	460b      	mov	r3, r1
 8005c46:	f7fa fa89 	bl	800015c <__adddf3>
 8005c4a:	2200      	movs	r2, #0
 8005c4c:	4b9b      	ldr	r3, [pc, #620]	@ (8005ebc <atan+0x304>)
 8005c4e:	f7fa fa83 	bl	8000158 <__aeabi_dsub>
 8005c52:	2200      	movs	r2, #0
 8005c54:	4606      	mov	r6, r0
 8005c56:	460f      	mov	r7, r1
 8005c58:	f04f 4380 	mov.w	r3, #1073741824	@ 0x40000000
 8005c5c:	4620      	mov	r0, r4
 8005c5e:	4629      	mov	r1, r5
 8005c60:	f7fa fa7c 	bl	800015c <__adddf3>
 8005c64:	4602      	mov	r2, r0
 8005c66:	460b      	mov	r3, r1
 8005c68:	4630      	mov	r0, r6
 8005c6a:	4639      	mov	r1, r7
 8005c6c:	f7fa fd56 	bl	800071c <__aeabi_ddiv>
 8005c70:	f04f 0a00 	mov.w	sl, #0
 8005c74:	4604      	mov	r4, r0
 8005c76:	460d      	mov	r5, r1
 8005c78:	4622      	mov	r2, r4
 8005c7a:	462b      	mov	r3, r5
 8005c7c:	4620      	mov	r0, r4
 8005c7e:	4629      	mov	r1, r5
 8005c80:	f7fa fc22 	bl	80004c8 <__aeabi_dmul>
 8005c84:	4602      	mov	r2, r0
 8005c86:	460b      	mov	r3, r1
 8005c88:	4680      	mov	r8, r0
 8005c8a:	4689      	mov	r9, r1
 8005c8c:	f7fa fc1c 	bl	80004c8 <__aeabi_dmul>
 8005c90:	a36f      	add	r3, pc, #444	@ (adr r3, 8005e50 <atan+0x298>)
 8005c92:	e9d3 2300 	ldrd	r2, r3, [r3]
 8005c96:	4606      	mov	r6, r0
 8005c98:	460f      	mov	r7, r1
 8005c9a:	f7fa fc15 	bl	80004c8 <__aeabi_dmul>
 8005c9e:	a36e      	add	r3, pc, #440	@ (adr r3, 8005e58 <atan+0x2a0>)
 8005ca0:	e9d3 2300 	ldrd	r2, r3, [r3]
 8005ca4:	f7fa fa5a 	bl	800015c <__adddf3>
 8005ca8:	4632      	mov	r2, r6
 8005caa:	463b      	mov	r3, r7
 8005cac:	f7fa fc0c 	bl	80004c8 <__aeabi_dmul>
 8005cb0:	a36b      	add	r3, pc, #428	@ (adr r3, 8005e60 <atan+0x2a8>)
 8005cb2:	e9d3 2300 	ldrd	r2, r3, [r3]
 8005cb6:	f7fa fa51 	bl	800015c <__adddf3>
 8005cba:	4632      	mov	r2, r6
 8005cbc:	463b      	mov	r3, r7
 8005cbe:	f7fa fc03 	bl	80004c8 <__aeabi_dmul>
 8005cc2:	a369      	add	r3, pc, #420	@ (adr r3, 8005e68 <atan+0x2b0>)
 8005cc4:	e9d3 2300 	ldrd	r2, r3, [r3]
 8005cc8:	f7fa fa48 	bl	800015c <__adddf3>
 8005ccc:	4632      	mov	r2, r6
 8005cce:	463b      	mov	r3, r7
 8005cd0:	f7fa fbfa 	bl	80004c8 <__aeabi_dmul>
 8005cd4:	a366      	add	r3, pc, #408	@ (adr r3, 8005e70 <atan+0x2b8>)
 8005cd6:	e9d3 2300 	ldrd	r2, r3, [r3]
 8005cda:	f7fa fa3f 	bl	800015c <__adddf3>
 8005cde:	4632      	mov	r2, r6
 8005ce0:	463b      	mov	r3, r7
 8005ce2:	f7fa fbf1 	bl	80004c8 <__aeabi_dmul>
 8005ce6:	a364      	add	r3, pc, #400	@ (adr r3, 8005e78 <atan+0x2c0>)
 8005ce8:	e9d3 2300 	ldrd	r2, r3, [r3]
 8005cec:	f7fa fa36 	bl	800015c <__adddf3>
 8005cf0:	4642      	mov	r2, r8
 8005cf2:	464b      	mov	r3, r9
 8005cf4:	f7fa fbe8 	bl	80004c8 <__aeabi_dmul>
 8005cf8:	a361      	add	r3, pc, #388	@ (adr r3, 8005e80 <atan+0x2c8>)
 8005cfa:	e9d3 2300 	ldrd	r2, r3, [r3]
 8005cfe:	4680      	mov	r8, r0
 8005d00:	4689      	mov	r9, r1
 8005d02:	4630      	mov	r0, r6
 8005d04:	4639      	mov	r1, r7
 8005d06:	f7fa fbdf 	bl	80004c8 <__aeabi_dmul>
 8005d0a:	a35f      	add	r3, pc, #380	@ (adr r3, 8005e88 <atan+0x2d0>)
 8005d0c:	e9d3 2300 	ldrd	r2, r3, [r3]
 8005d10:	f7fa fa22 	bl	8000158 <__aeabi_dsub>
 8005d14:	4632      	mov	r2, r6
 8005d16:	463b      	mov	r3, r7
 8005d18:	f7fa fbd6 	bl	80004c8 <__aeabi_dmul>
 8005d1c:	a35c      	add	r3, pc, #368	@ (adr r3, 8005e90 <atan+0x2d8>)
 8005d1e:	e9d3 2300 	ldrd	r2, r3, [r3]
 8005d22:	f7fa fa19 	bl	8000158 <__aeabi_dsub>
 8005d26:	4632      	mov	r2, r6
 8005d28:	463b      	mov	r3, r7
 8005d2a:	f7fa fbcd 	bl	80004c8 <__aeabi_dmul>
 8005d2e:	a35a      	add	r3, pc, #360	@ (adr r3, 8005e98 <atan+0x2e0>)
 8005d30:	e9d3 2300 	ldrd	r2, r3, [r3]
 8005d34:	f7fa fa10 	bl	8000158 <__aeabi_dsub>
 8005d38:	4632      	mov	r2, r6
 8005d3a:	463b      	mov	r3, r7
 8005d3c:	f7fa fbc4 	bl	80004c8 <__aeabi_dmul>
 8005d40:	a357      	add	r3, pc, #348	@ (adr r3, 8005ea0 <atan+0x2e8>)
 8005d42:	e9d3 2300 	ldrd	r2, r3, [r3]
 8005d46:	f7fa fa07 	bl	8000158 <__aeabi_dsub>
 8005d4a:	4632      	mov	r2, r6
 8005d4c:	463b      	mov	r3, r7
 8005d4e:	f7fa fbbb 	bl	80004c8 <__aeabi_dmul>
 8005d52:	4602      	mov	r2, r0
 8005d54:	460b      	mov	r3, r1
 8005d56:	4640      	mov	r0, r8
 8005d58:	4649      	mov	r1, r9
 8005d5a:	f7fa f9ff 	bl	800015c <__adddf3>
 8005d5e:	4622      	mov	r2, r4
 8005d60:	462b      	mov	r3, r5
 8005d62:	f7fa fbb1 	bl	80004c8 <__aeabi_dmul>
 8005d66:	f1ba 3fff 	cmp.w	sl, #4294967295
 8005d6a:	4602      	mov	r2, r0
 8005d6c:	460b      	mov	r3, r1
 8005d6e:	d144      	bne.n	8005dfa <atan+0x242>
 8005d70:	4620      	mov	r0, r4
 8005d72:	4629      	mov	r1, r5
 8005d74:	f7fa f9f0 	bl	8000158 <__aeabi_dsub>
 8005d78:	e733      	b.n	8005be2 <atan+0x2a>
 8005d7a:	2200      	movs	r2, #0
 8005d7c:	4b4f      	ldr	r3, [pc, #316]	@ (8005ebc <atan+0x304>)
 8005d7e:	f7fa f9eb 	bl	8000158 <__aeabi_dsub>
 8005d82:	2200      	movs	r2, #0
 8005d84:	4606      	mov	r6, r0
 8005d86:	460f      	mov	r7, r1
 8005d88:	4620      	mov	r0, r4
 8005d8a:	4629      	mov	r1, r5
 8005d8c:	4b4b      	ldr	r3, [pc, #300]	@ (8005ebc <atan+0x304>)
 8005d8e:	f7fa f9e5 	bl	800015c <__adddf3>
 8005d92:	4602      	mov	r2, r0
 8005d94:	460b      	mov	r3, r1
 8005d96:	4630      	mov	r0, r6
 8005d98:	4639      	mov	r1, r7
 8005d9a:	f7fa fcbf 	bl	800071c <__aeabi_ddiv>
 8005d9e:	f04f 0a01 	mov.w	sl, #1
 8005da2:	4604      	mov	r4, r0
 8005da4:	460d      	mov	r5, r1
 8005da6:	e767      	b.n	8005c78 <atan+0xc0>
 8005da8:	4b46      	ldr	r3, [pc, #280]	@ (8005ec4 <atan+0x30c>)
 8005daa:	429e      	cmp	r6, r3
 8005dac:	d21a      	bcs.n	8005de4 <atan+0x22c>
 8005dae:	2200      	movs	r2, #0
 8005db0:	4b45      	ldr	r3, [pc, #276]	@ (8005ec8 <atan+0x310>)
 8005db2:	f7fa f9d1 	bl	8000158 <__aeabi_dsub>
 8005db6:	2200      	movs	r2, #0
 8005db8:	4606      	mov	r6, r0
 8005dba:	460f      	mov	r7, r1
 8005dbc:	4620      	mov	r0, r4
 8005dbe:	4629      	mov	r1, r5
 8005dc0:	4b41      	ldr	r3, [pc, #260]	@ (8005ec8 <atan+0x310>)
 8005dc2:	f7fa fb81 	bl	80004c8 <__aeabi_dmul>
 8005dc6:	2200      	movs	r2, #0
 8005dc8:	4b3c      	ldr	r3, [pc, #240]	@ (8005ebc <atan+0x304>)
 8005dca:	f7fa f9c7 	bl	800015c <__adddf3>
 8005dce:	4602      	mov	r2, r0
 8005dd0:	460b      	mov	r3, r1
 8005dd2:	4630      	mov	r0, r6
 8005dd4:	4639      	mov	r1, r7
 8005dd6:	f7fa fca1 	bl	800071c <__aeabi_ddiv>
 8005dda:	f04f 0a02 	mov.w	sl, #2
 8005dde:	4604      	mov	r4, r0
 8005de0:	460d      	mov	r5, r1
 8005de2:	e749      	b.n	8005c78 <atan+0xc0>
 8005de4:	4602      	mov	r2, r0
 8005de6:	460b      	mov	r3, r1
 8005de8:	2000      	movs	r0, #0
 8005dea:	4938      	ldr	r1, [pc, #224]	@ (8005ecc <atan+0x314>)
 8005dec:	f7fa fc96 	bl	800071c <__aeabi_ddiv>
 8005df0:	f04f 0a03 	mov.w	sl, #3
 8005df4:	4604      	mov	r4, r0
 8005df6:	460d      	mov	r5, r1
 8005df8:	e73e      	b.n	8005c78 <atan+0xc0>
 8005dfa:	4b35      	ldr	r3, [pc, #212]	@ (8005ed0 <atan+0x318>)
 8005dfc:	4e35      	ldr	r6, [pc, #212]	@ (8005ed4 <atan+0x31c>)
 8005dfe:	eb03 03ca 	add.w	r3, r3, sl, lsl #3
 8005e02:	e9d3 2300 	ldrd	r2, r3, [r3]
 8005e06:	f7fa f9a7 	bl	8000158 <__aeabi_dsub>
 8005e0a:	4622      	mov	r2, r4
 8005e0c:	462b      	mov	r3, r5
 8005e0e:	f7fa f9a3 	bl	8000158 <__aeabi_dsub>
 8005e12:	eb06 06ca 	add.w	r6, r6, sl, lsl #3
 8005e16:	4602      	mov	r2, r0
 8005e18:	460b      	mov	r3, r1
 8005e1a:	e9d6 0100 	ldrd	r0, r1, [r6]
 8005e1e:	f7fa f99b 	bl	8000158 <__aeabi_dsub>
 8005e22:	f1bb 0f00 	cmp.w	fp, #0
 8005e26:	4604      	mov	r4, r0
 8005e28:	460d      	mov	r5, r1
 8005e2a:	f6bf aee4 	bge.w	8005bf6 <atan+0x3e>
 8005e2e:	f101 4300 	add.w	r3, r1, #2147483648	@ 0x80000000
 8005e32:	461d      	mov	r5, r3
 8005e34:	e6df      	b.n	8005bf6 <atan+0x3e>
 8005e36:	a51c      	add	r5, pc, #112	@ (adr r5, 8005ea8 <atan+0x2f0>)
 8005e38:	e9d5 4500 	ldrd	r4, r5, [r5]
 8005e3c:	e6db      	b.n	8005bf6 <atan+0x3e>
 8005e3e:	bf00      	nop
 8005e40:	54442d18 	.word	0x54442d18
 8005e44:	3ff921fb 	.word	0x3ff921fb
 8005e48:	8800759c 	.word	0x8800759c
 8005e4c:	7e37e43c 	.word	0x7e37e43c
 8005e50:	e322da11 	.word	0xe322da11
 8005e54:	3f90ad3a 	.word	0x3f90ad3a
 8005e58:	24760deb 	.word	0x24760deb
 8005e5c:	3fa97b4b 	.word	0x3fa97b4b
 8005e60:	a0d03d51 	.word	0xa0d03d51
 8005e64:	3fb10d66 	.word	0x3fb10d66
 8005e68:	c54c206e 	.word	0xc54c206e
 8005e6c:	3fb745cd 	.word	0x3fb745cd
 8005e70:	920083ff 	.word	0x920083ff
 8005e74:	3fc24924 	.word	0x3fc24924
 8005e78:	5555550d 	.word	0x5555550d
 8005e7c:	3fd55555 	.word	0x3fd55555
 8005e80:	2c6a6c2f 	.word	0x2c6a6c2f
 8005e84:	bfa2b444 	.word	0xbfa2b444
 8005e88:	52defd9a 	.word	0x52defd9a
 8005e8c:	3fadde2d 	.word	0x3fadde2d
 8005e90:	af749a6d 	.word	0xaf749a6d
 8005e94:	3fb3b0f2 	.word	0x3fb3b0f2
 8005e98:	fe231671 	.word	0xfe231671
 8005e9c:	3fbc71c6 	.word	0x3fbc71c6
 8005ea0:	9998ebc4 	.word	0x9998ebc4
 8005ea4:	3fc99999 	.word	0x3fc99999
 8005ea8:	54442d18 	.word	0x54442d18
 8005eac:	bff921fb 	.word	0xbff921fb
 8005eb0:	440fffff 	.word	0x440fffff
 8005eb4:	7ff00000 	.word	0x7ff00000
 8005eb8:	3fdbffff 	.word	0x3fdbffff
 8005ebc:	3ff00000 	.word	0x3ff00000
 8005ec0:	3ff2ffff 	.word	0x3ff2ffff
 8005ec4:	40038000 	.word	0x40038000
 8005ec8:	3ff80000 	.word	0x3ff80000
 8005ecc:	bff00000 	.word	0xbff00000
 8005ed0:	08006280 	.word	0x08006280
 8005ed4:	080062a0 	.word	0x080062a0

08005ed8 <fabs>:
 8005ed8:	f021 4300 	bic.w	r3, r1, #2147483648	@ 0x80000000
 8005edc:	4619      	mov	r1, r3
 8005ede:	4770      	bx	lr

08005ee0 <__ieee754_sqrt>:
 8005ee0:	4a67      	ldr	r2, [pc, #412]	@ (8006080 <__ieee754_sqrt+0x1a0>)
 8005ee2:	e92d 4ff8 	stmdb	sp!, {r3, r4, r5, r6, r7, r8, r9, sl, fp, lr}
 8005ee6:	438a      	bics	r2, r1
 8005ee8:	4606      	mov	r6, r0
 8005eea:	460f      	mov	r7, r1
 8005eec:	460b      	mov	r3, r1
 8005eee:	4604      	mov	r4, r0
 8005ef0:	d10e      	bne.n	8005f10 <__ieee754_sqrt+0x30>
 8005ef2:	4602      	mov	r2, r0
 8005ef4:	f7fa fae8 	bl	80004c8 <__aeabi_dmul>
 8005ef8:	4602      	mov	r2, r0
 8005efa:	460b      	mov	r3, r1
 8005efc:	4630      	mov	r0, r6
 8005efe:	4639      	mov	r1, r7
 8005f00:	f7fa f92c 	bl	800015c <__adddf3>
 8005f04:	4606      	mov	r6, r0
 8005f06:	460f      	mov	r7, r1
 8005f08:	4630      	mov	r0, r6
 8005f0a:	4639      	mov	r1, r7
 8005f0c:	e8bd 8ff8 	ldmia.w	sp!, {r3, r4, r5, r6, r7, r8, r9, sl, fp, pc}
 8005f10:	2900      	cmp	r1, #0
 8005f12:	dc0c      	bgt.n	8005f2e <__ieee754_sqrt+0x4e>
 8005f14:	f021 4200 	bic.w	r2, r1, #2147483648	@ 0x80000000
 8005f18:	4302      	orrs	r2, r0
 8005f1a:	d0f5      	beq.n	8005f08 <__ieee754_sqrt+0x28>
 8005f1c:	b189      	cbz	r1, 8005f42 <__ieee754_sqrt+0x62>
 8005f1e:	4602      	mov	r2, r0
 8005f20:	f7fa f91a 	bl	8000158 <__aeabi_dsub>
 8005f24:	4602      	mov	r2, r0
 8005f26:	460b      	mov	r3, r1
 8005f28:	f7fa fbf8 	bl	800071c <__aeabi_ddiv>
 8005f2c:	e7ea      	b.n	8005f04 <__ieee754_sqrt+0x24>
 8005f2e:	150a      	asrs	r2, r1, #20
 8005f30:	d115      	bne.n	8005f5e <__ieee754_sqrt+0x7e>
 8005f32:	2100      	movs	r1, #0
 8005f34:	e009      	b.n	8005f4a <__ieee754_sqrt+0x6a>
 8005f36:	0ae3      	lsrs	r3, r4, #11
 8005f38:	3a15      	subs	r2, #21
 8005f3a:	0564      	lsls	r4, r4, #21
 8005f3c:	2b00      	cmp	r3, #0
 8005f3e:	d0fa      	beq.n	8005f36 <__ieee754_sqrt+0x56>
 8005f40:	e7f7      	b.n	8005f32 <__ieee754_sqrt+0x52>
 8005f42:	460a      	mov	r2, r1
 8005f44:	e7fa      	b.n	8005f3c <__ieee754_sqrt+0x5c>
 8005f46:	005b      	lsls	r3, r3, #1
 8005f48:	3101      	adds	r1, #1
 8005f4a:	02d8      	lsls	r0, r3, #11
 8005f4c:	d5fb      	bpl.n	8005f46 <__ieee754_sqrt+0x66>
 8005f4e:	1e48      	subs	r0, r1, #1
 8005f50:	1a12      	subs	r2, r2, r0
 8005f52:	f1c1 0020 	rsb	r0, r1, #32
 8005f56:	fa24 f000 	lsr.w	r0, r4, r0
 8005f5a:	4303      	orrs	r3, r0
 8005f5c:	408c      	lsls	r4, r1
 8005f5e:	2600      	movs	r6, #0
 8005f60:	f2a2 37ff 	subw	r7, r2, #1023	@ 0x3ff
 8005f64:	2116      	movs	r1, #22
 8005f66:	07d2      	lsls	r2, r2, #31
 8005f68:	f44f 1000 	mov.w	r0, #2097152	@ 0x200000
 8005f6c:	4632      	mov	r2, r6
 8005f6e:	f3c3 0313 	ubfx	r3, r3, #0, #20
 8005f72:	f443 1380 	orr.w	r3, r3, #1048576	@ 0x100000
 8005f76:	bf5c      	itt	pl
 8005f78:	005b      	lslpl	r3, r3, #1
 8005f7a:	eb03 73d4 	addpl.w	r3, r3, r4, lsr #31
 8005f7e:	ea4f 0343 	mov.w	r3, r3, lsl #1
 8005f82:	bf58      	it	pl
 8005f84:	0064      	lslpl	r4, r4, #1
 8005f86:	eb03 73d4 	add.w	r3, r3, r4, lsr #31
 8005f8a:	107f      	asrs	r7, r7, #1
 8005f8c:	0064      	lsls	r4, r4, #1
 8005f8e:	1815      	adds	r5, r2, r0
 8005f90:	429d      	cmp	r5, r3
 8005f92:	bfde      	ittt	le
 8005f94:	182a      	addle	r2, r5, r0
 8005f96:	1b5b      	suble	r3, r3, r5
 8005f98:	1836      	addle	r6, r6, r0
 8005f9a:	0fe5      	lsrs	r5, r4, #31
 8005f9c:	3901      	subs	r1, #1
 8005f9e:	eb05 0343 	add.w	r3, r5, r3, lsl #1
 8005fa2:	ea4f 0444 	mov.w	r4, r4, lsl #1
 8005fa6:	ea4f 0050 	mov.w	r0, r0, lsr #1
 8005faa:	d1f0      	bne.n	8005f8e <__ieee754_sqrt+0xae>
 8005fac:	460d      	mov	r5, r1
 8005fae:	f04f 0a20 	mov.w	sl, #32
 8005fb2:	f04f 4000 	mov.w	r0, #2147483648	@ 0x80000000
 8005fb6:	429a      	cmp	r2, r3
 8005fb8:	eb01 0c00 	add.w	ip, r1, r0
 8005fbc:	db02      	blt.n	8005fc4 <__ieee754_sqrt+0xe4>
 8005fbe:	d113      	bne.n	8005fe8 <__ieee754_sqrt+0x108>
 8005fc0:	45a4      	cmp	ip, r4
 8005fc2:	d811      	bhi.n	8005fe8 <__ieee754_sqrt+0x108>
 8005fc4:	f1bc 0f00 	cmp.w	ip, #0
 8005fc8:	eb0c 0100 	add.w	r1, ip, r0
 8005fcc:	da42      	bge.n	8006054 <__ieee754_sqrt+0x174>
 8005fce:	2900      	cmp	r1, #0
 8005fd0:	db40      	blt.n	8006054 <__ieee754_sqrt+0x174>
 8005fd2:	f102 0e01 	add.w	lr, r2, #1
 8005fd6:	1a9b      	subs	r3, r3, r2
 8005fd8:	4672      	mov	r2, lr
 8005fda:	45a4      	cmp	ip, r4
 8005fdc:	bf88      	it	hi
 8005fde:	f103 33ff 	addhi.w	r3, r3, #4294967295
 8005fe2:	eba4 040c 	sub.w	r4, r4, ip
 8005fe6:	4405      	add	r5, r0
 8005fe8:	ea4f 7cd4 	mov.w	ip, r4, lsr #31
 8005fec:	f1ba 0a01 	subs.w	sl, sl, #1
 8005ff0:	eb0c 0343 	add.w	r3, ip, r3, lsl #1
 8005ff4:	ea4f 0444 	mov.w	r4, r4, lsl #1
 8005ff8:	ea4f 0050 	mov.w	r0, r0, lsr #1
 8005ffc:	d1db      	bne.n	8005fb6 <__ieee754_sqrt+0xd6>
 8005ffe:	431c      	orrs	r4, r3
 8006000:	d01a      	beq.n	8006038 <__ieee754_sqrt+0x158>
 8006002:	4c20      	ldr	r4, [pc, #128]	@ (8006084 <__ieee754_sqrt+0x1a4>)
 8006004:	f8df b080 	ldr.w	fp, [pc, #128]	@ 8006088 <__ieee754_sqrt+0x1a8>
 8006008:	e9d4 0100 	ldrd	r0, r1, [r4]
 800600c:	e9db 2300 	ldrd	r2, r3, [fp]
 8006010:	f7fa f8a2 	bl	8000158 <__aeabi_dsub>
 8006014:	e9d4 8900 	ldrd	r8, r9, [r4]
 8006018:	4602      	mov	r2, r0
 800601a:	460b      	mov	r3, r1
 800601c:	4640      	mov	r0, r8
 800601e:	4649      	mov	r1, r9
 8006020:	f7fa fcce 	bl	80009c0 <__aeabi_dcmple>
 8006024:	b140      	cbz	r0, 8006038 <__ieee754_sqrt+0x158>
 8006026:	e9d4 0100 	ldrd	r0, r1, [r4]
 800602a:	e9db 2300 	ldrd	r2, r3, [fp]
 800602e:	f1b5 3fff 	cmp.w	r5, #4294967295
 8006032:	d111      	bne.n	8006058 <__ieee754_sqrt+0x178>
 8006034:	4655      	mov	r5, sl
 8006036:	3601      	adds	r6, #1
 8006038:	1072      	asrs	r2, r6, #1
 800603a:	086b      	lsrs	r3, r5, #1
 800603c:	07f1      	lsls	r1, r6, #31
 800603e:	f102 527f 	add.w	r2, r2, #1069547520	@ 0x3fc00000
 8006042:	f502 1200 	add.w	r2, r2, #2097152	@ 0x200000
 8006046:	bf48      	it	mi
 8006048:	f043 4300 	orrmi.w	r3, r3, #2147483648	@ 0x80000000
 800604c:	4618      	mov	r0, r3
 800604e:	eb02 5107 	add.w	r1, r2, r7, lsl #20
 8006052:	e757      	b.n	8005f04 <__ieee754_sqrt+0x24>
 8006054:	4696      	mov	lr, r2
 8006056:	e7be      	b.n	8005fd6 <__ieee754_sqrt+0xf6>
 8006058:	f7fa f880 	bl	800015c <__adddf3>
 800605c:	e9d4 8900 	ldrd	r8, r9, [r4]
 8006060:	4602      	mov	r2, r0
 8006062:	460b      	mov	r3, r1
 8006064:	4640      	mov	r0, r8
 8006066:	4649      	mov	r1, r9
 8006068:	f7fa fca0 	bl	80009ac <__aeabi_dcmplt>
 800606c:	b120      	cbz	r0, 8006078 <__ieee754_sqrt+0x198>
 800606e:	1ca8      	adds	r0, r5, #2
 8006070:	bf08      	it	eq
 8006072:	3601      	addeq	r6, #1
 8006074:	3502      	adds	r5, #2
 8006076:	e7df      	b.n	8006038 <__ieee754_sqrt+0x158>
 8006078:	1c6b      	adds	r3, r5, #1
 800607a:	f023 0501 	bic.w	r5, r3, #1
 800607e:	e7db      	b.n	8006038 <__ieee754_sqrt+0x158>
 8006080:	7ff00000 	.word	0x7ff00000
 8006084:	200000f8 	.word	0x200000f8
 8006088:	200000f0 	.word	0x200000f0
 800608c:	00000000 	.word	0x00000000

08006090 <__ieee754_atan2>:
 8006090:	e92d 4ff8 	stmdb	sp!, {r3, r4, r5, r6, r7, r8, r9, sl, fp, lr}
 8006094:	4617      	mov	r7, r2
 8006096:	4690      	mov	r8, r2
 8006098:	4699      	mov	r9, r3
 800609a:	f023 4200 	bic.w	r2, r3, #2147483648	@ 0x80000000
 800609e:	427b      	negs	r3, r7
 80060a0:	f8df a184 	ldr.w	sl, [pc, #388]	@ 8006228 <__ieee754_atan2+0x198>
 80060a4:	433b      	orrs	r3, r7
 80060a6:	ea42 73d3 	orr.w	r3, r2, r3, lsr #31
 80060aa:	4553      	cmp	r3, sl
 80060ac:	4604      	mov	r4, r0
 80060ae:	460d      	mov	r5, r1
 80060b0:	d809      	bhi.n	80060c6 <__ieee754_atan2+0x36>
 80060b2:	4246      	negs	r6, r0
 80060b4:	f021 4300 	bic.w	r3, r1, #2147483648	@ 0x80000000
 80060b8:	4306      	orrs	r6, r0
 80060ba:	ea43 76d6 	orr.w	r6, r3, r6, lsr #31
 80060be:	4556      	cmp	r6, sl
 80060c0:	468e      	mov	lr, r1
 80060c2:	4683      	mov	fp, r0
 80060c4:	d908      	bls.n	80060d8 <__ieee754_atan2+0x48>
 80060c6:	4642      	mov	r2, r8
 80060c8:	464b      	mov	r3, r9
 80060ca:	4620      	mov	r0, r4
 80060cc:	4629      	mov	r1, r5
 80060ce:	f7fa f845 	bl	800015c <__adddf3>
 80060d2:	4604      	mov	r4, r0
 80060d4:	460d      	mov	r5, r1
 80060d6:	e016      	b.n	8006106 <__ieee754_atan2+0x76>
 80060d8:	f109 4640 	add.w	r6, r9, #3221225472	@ 0xc0000000
 80060dc:	f506 1680 	add.w	r6, r6, #1048576	@ 0x100000
 80060e0:	433e      	orrs	r6, r7
 80060e2:	d103      	bne.n	80060ec <__ieee754_atan2+0x5c>
 80060e4:	e8bd 4ff8 	ldmia.w	sp!, {r3, r4, r5, r6, r7, r8, r9, sl, fp, lr}
 80060e8:	f7ff bd66 	b.w	8005bb8 <atan>
 80060ec:	ea4f 76a9 	mov.w	r6, r9, asr #30
 80060f0:	f006 0602 	and.w	r6, r6, #2
 80060f4:	ea53 0b0b 	orrs.w	fp, r3, fp
 80060f8:	ea46 76d1 	orr.w	r6, r6, r1, lsr #31
 80060fc:	d107      	bne.n	800610e <__ieee754_atan2+0x7e>
 80060fe:	2e02      	cmp	r6, #2
 8006100:	d064      	beq.n	80061cc <__ieee754_atan2+0x13c>
 8006102:	2e03      	cmp	r6, #3
 8006104:	d066      	beq.n	80061d4 <__ieee754_atan2+0x144>
 8006106:	4620      	mov	r0, r4
 8006108:	4629      	mov	r1, r5
 800610a:	e8bd 8ff8 	ldmia.w	sp!, {r3, r4, r5, r6, r7, r8, r9, sl, fp, pc}
 800610e:	4317      	orrs	r7, r2
 8006110:	d106      	bne.n	8006120 <__ieee754_atan2+0x90>
 8006112:	f1be 0f00 	cmp.w	lr, #0
 8006116:	da68      	bge.n	80061ea <__ieee754_atan2+0x15a>
 8006118:	a537      	add	r5, pc, #220	@ (adr r5, 80061f8 <__ieee754_atan2+0x168>)
 800611a:	e9d5 4500 	ldrd	r4, r5, [r5]
 800611e:	e7f2      	b.n	8006106 <__ieee754_atan2+0x76>
 8006120:	4552      	cmp	r2, sl
 8006122:	d10f      	bne.n	8006144 <__ieee754_atan2+0xb4>
 8006124:	4293      	cmp	r3, r2
 8006126:	f106 36ff 	add.w	r6, r6, #4294967295
 800612a:	d107      	bne.n	800613c <__ieee754_atan2+0xac>
 800612c:	2e02      	cmp	r6, #2
 800612e:	d855      	bhi.n	80061dc <__ieee754_atan2+0x14c>
 8006130:	4b3e      	ldr	r3, [pc, #248]	@ (800622c <__ieee754_atan2+0x19c>)
 8006132:	eb03 03c6 	add.w	r3, r3, r6, lsl #3
 8006136:	e9d3 4500 	ldrd	r4, r5, [r3]
 800613a:	e7e4      	b.n	8006106 <__ieee754_atan2+0x76>
 800613c:	2e02      	cmp	r6, #2
 800613e:	d851      	bhi.n	80061e4 <__ieee754_atan2+0x154>
 8006140:	4b3b      	ldr	r3, [pc, #236]	@ (8006230 <__ieee754_atan2+0x1a0>)
 8006142:	e7f6      	b.n	8006132 <__ieee754_atan2+0xa2>
 8006144:	4553      	cmp	r3, sl
 8006146:	d0e4      	beq.n	8006112 <__ieee754_atan2+0x82>
 8006148:	1a9b      	subs	r3, r3, r2
 800614a:	f1b3 7f74 	cmp.w	r3, #63963136	@ 0x3d00000
 800614e:	ea4f 5223 	mov.w	r2, r3, asr #20
 8006152:	da21      	bge.n	8006198 <__ieee754_atan2+0x108>
 8006154:	f1b9 0f00 	cmp.w	r9, #0
 8006158:	da01      	bge.n	800615e <__ieee754_atan2+0xce>
 800615a:	323c      	adds	r2, #60	@ 0x3c
 800615c:	db20      	blt.n	80061a0 <__ieee754_atan2+0x110>
 800615e:	4642      	mov	r2, r8
 8006160:	464b      	mov	r3, r9
 8006162:	4620      	mov	r0, r4
 8006164:	4629      	mov	r1, r5
 8006166:	f7fa fad9 	bl	800071c <__aeabi_ddiv>
 800616a:	f7ff feb5 	bl	8005ed8 <fabs>
 800616e:	f7ff fd23 	bl	8005bb8 <atan>
 8006172:	4604      	mov	r4, r0
 8006174:	460d      	mov	r5, r1
 8006176:	2e01      	cmp	r6, #1
 8006178:	d015      	beq.n	80061a6 <__ieee754_atan2+0x116>
 800617a:	2e02      	cmp	r6, #2
 800617c:	d017      	beq.n	80061ae <__ieee754_atan2+0x11e>
 800617e:	2e00      	cmp	r6, #0
 8006180:	d0c1      	beq.n	8006106 <__ieee754_atan2+0x76>
 8006182:	a31f      	add	r3, pc, #124	@ (adr r3, 8006200 <__ieee754_atan2+0x170>)
 8006184:	e9d3 2300 	ldrd	r2, r3, [r3]
 8006188:	4620      	mov	r0, r4
 800618a:	4629      	mov	r1, r5
 800618c:	f7f9 ffe4 	bl	8000158 <__aeabi_dsub>
 8006190:	a31d      	add	r3, pc, #116	@ (adr r3, 8006208 <__ieee754_atan2+0x178>)
 8006192:	e9d3 2300 	ldrd	r2, r3, [r3]
 8006196:	e016      	b.n	80061c6 <__ieee754_atan2+0x136>
 8006198:	a51d      	add	r5, pc, #116	@ (adr r5, 8006210 <__ieee754_atan2+0x180>)
 800619a:	e9d5 4500 	ldrd	r4, r5, [r5]
 800619e:	e7ea      	b.n	8006176 <__ieee754_atan2+0xe6>
 80061a0:	2400      	movs	r4, #0
 80061a2:	2500      	movs	r5, #0
 80061a4:	e7e7      	b.n	8006176 <__ieee754_atan2+0xe6>
 80061a6:	f105 4300 	add.w	r3, r5, #2147483648	@ 0x80000000
 80061aa:	461d      	mov	r5, r3
 80061ac:	e7ab      	b.n	8006106 <__ieee754_atan2+0x76>
 80061ae:	a314      	add	r3, pc, #80	@ (adr r3, 8006200 <__ieee754_atan2+0x170>)
 80061b0:	e9d3 2300 	ldrd	r2, r3, [r3]
 80061b4:	4620      	mov	r0, r4
 80061b6:	4629      	mov	r1, r5
 80061b8:	f7f9 ffce 	bl	8000158 <__aeabi_dsub>
 80061bc:	4602      	mov	r2, r0
 80061be:	460b      	mov	r3, r1
 80061c0:	a111      	add	r1, pc, #68	@ (adr r1, 8006208 <__ieee754_atan2+0x178>)
 80061c2:	e9d1 0100 	ldrd	r0, r1, [r1]
 80061c6:	f7f9 ffc7 	bl	8000158 <__aeabi_dsub>
 80061ca:	e782      	b.n	80060d2 <__ieee754_atan2+0x42>
 80061cc:	a50e      	add	r5, pc, #56	@ (adr r5, 8006208 <__ieee754_atan2+0x178>)
 80061ce:	e9d5 4500 	ldrd	r4, r5, [r5]
 80061d2:	e798      	b.n	8006106 <__ieee754_atan2+0x76>
 80061d4:	a510      	add	r5, pc, #64	@ (adr r5, 8006218 <__ieee754_atan2+0x188>)
 80061d6:	e9d5 4500 	ldrd	r4, r5, [r5]
 80061da:	e794      	b.n	8006106 <__ieee754_atan2+0x76>
 80061dc:	a510      	add	r5, pc, #64	@ (adr r5, 8006220 <__ieee754_atan2+0x190>)
 80061de:	e9d5 4500 	ldrd	r4, r5, [r5]
 80061e2:	e790      	b.n	8006106 <__ieee754_atan2+0x76>
 80061e4:	2400      	movs	r4, #0
 80061e6:	2500      	movs	r5, #0
 80061e8:	e78d      	b.n	8006106 <__ieee754_atan2+0x76>
 80061ea:	a509      	add	r5, pc, #36	@ (adr r5, 8006210 <__ieee754_atan2+0x180>)
 80061ec:	e9d5 4500 	ldrd	r4, r5, [r5]
 80061f0:	e789      	b.n	8006106 <__ieee754_atan2+0x76>
 80061f2:	bf00      	nop
 80061f4:	f3af 8000 	nop.w
 80061f8:	54442d18 	.word	0x54442d18
 80061fc:	bff921fb 	.word	0xbff921fb
 8006200:	33145c07 	.word	0x33145c07
 8006204:	3ca1a626 	.word	0x3ca1a626
 8006208:	54442d18 	.word	0x54442d18
 800620c:	400921fb 	.word	0x400921fb
 8006210:	54442d18 	.word	0x54442d18
 8006214:	3ff921fb 	.word	0x3ff921fb
 8006218:	54442d18 	.word	0x54442d18
 800621c:	c00921fb 	.word	0xc00921fb
 8006220:	54442d18 	.word	0x54442d18
 8006224:	3fe921fb 	.word	0x3fe921fb
 8006228:	7ff00000 	.word	0x7ff00000
 800622c:	080062d8 	.word	0x080062d8
 8006230:	080062c0 	.word	0x080062c0

08006234 <_init>:
 8006234:	b5f8      	push	{r3, r4, r5, r6, r7, lr}
 8006236:	bf00      	nop
 8006238:	bcf8      	pop	{r3, r4, r5, r6, r7}
 800623a:	bc08      	pop	{r3}
 800623c:	469e      	mov	lr, r3
 800623e:	4770      	bx	lr

08006240 <_fini>:
 8006240:	b5f8      	push	{r3, r4, r5, r6, r7, lr}
 8006242:	bf00      	nop
 8006244:	bcf8      	pop	{r3, r4, r5, r6, r7}
 8006246:	bc08      	pop	{r3}
 8006248:	469e      	mov	lr, r3
 800624a:	4770      	bx	lr
