
Fuzzy_Balancing_Robot.elf:     file format elf32-littlearm

Sections:
Idx Name          Size      VMA       LMA       File off  Algn
  0 .isr_vector   0000010c  08000000  08000000  00001000  2**0
                  CONTENTS, ALLOC, LOAD, READONLY, DATA
  1 .text         00006334  08000110  08000110  00001110  2**3
                  CONTENTS, ALLOC, LOAD, READONLY, CODE
  2 .rodata       000000a0  08006448  08006448  00007448  2**3
                  CONTENTS, ALLOC, LOAD, READONLY, DATA
  3 .ARM.extab    00000000  080064e8  080064e8  00008100  2**0
                  CONTENTS
  4 .ARM          00000000  080064e8  080064e8  00008100  2**0
                  CONTENTS
  5 .preinit_array 00000000  080064e8  080064e8  00008100  2**0
                  CONTENTS, ALLOC, LOAD, DATA
  6 .init_array   00000004  080064e8  080064e8  000074e8  2**2
                  CONTENTS, ALLOC, LOAD, READONLY, DATA
  7 .fini_array   00000004  080064ec  080064ec  000074ec  2**2
                  CONTENTS, ALLOC, LOAD, READONLY, DATA
  8 .data         00000100  20000000  080064f0  00008000  2**3
                  CONTENTS, ALLOC, LOAD, DATA
  9 .bss          00000368  20000100  080065f0  00008100  2**3
                  ALLOC
 10 ._user_heap_stack 00000600  20000468  080065f0  00008468  2**0
                  ALLOC
 11 .ARM.attributes 00000029  00000000  00000000  00008100  2**0
                  CONTENTS, READONLY
 12 .debug_info   0000efa1  00000000  00000000  00008129  2**0
                  CONTENTS, READONLY, DEBUGGING, OCTETS
 13 .debug_abbrev 00001fcc  00000000  00000000  000170ca  2**0
                  CONTENTS, READONLY, DEBUGGING, OCTETS
 14 .debug_aranges 00000ef8  00000000  00000000  00019098  2**3
                  CONTENTS, READONLY, DEBUGGING, OCTETS
 15 .debug_rnglists 00000be7  00000000  00000000  00019f90  2**0
                  CONTENTS, READONLY, DEBUGGING, OCTETS
 16 .debug_macro  00017d5f  00000000  00000000  0001ab77  2**0
                  CONTENTS, READONLY, DEBUGGING, OCTETS
 17 .debug_line   00011445  00000000  00000000  000328d6  2**0
                  CONTENTS, READONLY, DEBUGGING, OCTETS
 18 .debug_str    0008cade  00000000  00000000  00043d1b  2**0
                  CONTENTS, READONLY, DEBUGGING, OCTETS
 19 .comment      00000043  00000000  00000000  000d07f9  2**0
                  CONTENTS, READONLY
 20 .debug_frame  000045f4  00000000  00000000  000d083c  2**2
                  CONTENTS, READONLY, DEBUGGING, OCTETS
 21 .debug_line_str 00000056  00000000  00000000  000d4e30  2**0
                  CONTENTS, READONLY, DEBUGGING, OCTETS

Disassembly of section .text:

08000110 <__do_global_dtors_aux>:
 8000110:	b510      	push	{r4, lr}
 8000112:	4c05      	ldr	r4, [pc, #20]	@ (8000128 <__do_global_dtors_aux+0x18>)
 8000114:	7823      	ldrb	r3, [r4, #0]
 8000116:	b933      	cbnz	r3, 8000126 <__do_global_dtors_aux+0x16>
 8000118:	4b04      	ldr	r3, [pc, #16]	@ (800012c <__do_global_dtors_aux+0x1c>)
 800011a:	b113      	cbz	r3, 8000122 <__do_global_dtors_aux+0x12>
 800011c:	4804      	ldr	r0, [pc, #16]	@ (8000130 <__do_global_dtors_aux+0x20>)
 800011e:	f3af 8000 	nop.w
 8000122:	2301      	movs	r3, #1
 8000124:	7023      	strb	r3, [r4, #0]
 8000126:	bd10      	pop	{r4, pc}
 8000128:	20000100 	.word	0x20000100
 800012c:	00000000 	.word	0x00000000
 8000130:	0800642c 	.word	0x0800642c

08000134 <frame_dummy>:
 8000134:	b508      	push	{r3, lr}
 8000136:	4b03      	ldr	r3, [pc, #12]	@ (8000144 <frame_dummy+0x10>)
 8000138:	b11b      	cbz	r3, 8000142 <frame_dummy+0xe>
 800013a:	4903      	ldr	r1, [pc, #12]	@ (8000148 <frame_dummy+0x14>)
 800013c:	4803      	ldr	r0, [pc, #12]	@ (800014c <frame_dummy+0x18>)
 800013e:	f3af 8000 	nop.w
 8000142:	bd08      	pop	{r3, pc}
 8000144:	00000000 	.word	0x00000000
 8000148:	20000104 	.word	0x20000104
 800014c:	0800642c 	.word	0x0800642c

08000150 <__aeabi_drsub>:
 8000150:	f081 4100 	eor.w	r1, r1, #2147483648	@ 0x80000000
 8000154:	e002      	b.n	800015c <__adddf3>
 8000156:	bf00      	nop

08000158 <__aeabi_dsub>:
 8000158:	f083 4300 	eor.w	r3, r3, #2147483648	@ 0x80000000

0800015c <__adddf3>:
 800015c:	b530      	push	{r4, r5, lr}
 800015e:	ea4f 0441 	mov.w	r4, r1, lsl #1
 8000162:	ea4f 0543 	mov.w	r5, r3, lsl #1
 8000166:	ea94 0f05 	teq	r4, r5
 800016a:	bf08      	it	eq
 800016c:	ea90 0f02 	teqeq	r0, r2
 8000170:	bf1f      	itttt	ne
 8000172:	ea54 0c00 	orrsne.w	ip, r4, r0
 8000176:	ea55 0c02 	orrsne.w	ip, r5, r2
 800017a:	ea7f 5c64 	mvnsne.w	ip, r4, asr #21
 800017e:	ea7f 5c65 	mvnsne.w	ip, r5, asr #21
 8000182:	f000 80e2 	beq.w	800034a <__adddf3+0x1ee>
 8000186:	ea4f 5454 	mov.w	r4, r4, lsr #21
 800018a:	ebd4 5555 	rsbs	r5, r4, r5, lsr #21
 800018e:	bfb8      	it	lt
 8000190:	426d      	neglt	r5, r5
 8000192:	dd0c      	ble.n	80001ae <__adddf3+0x52>
 8000194:	442c      	add	r4, r5
 8000196:	ea80 0202 	eor.w	r2, r0, r2
 800019a:	ea81 0303 	eor.w	r3, r1, r3
 800019e:	ea82 0000 	eor.w	r0, r2, r0
 80001a2:	ea83 0101 	eor.w	r1, r3, r1
 80001a6:	ea80 0202 	eor.w	r2, r0, r2
 80001aa:	ea81 0303 	eor.w	r3, r1, r3
 80001ae:	2d36      	cmp	r5, #54	@ 0x36
 80001b0:	bf88      	it	hi
 80001b2:	bd30      	pophi	{r4, r5, pc}
 80001b4:	f011 4f00 	tst.w	r1, #2147483648	@ 0x80000000
 80001b8:	ea4f 3101 	mov.w	r1, r1, lsl #12
 80001bc:	f44f 1c80 	mov.w	ip, #1048576	@ 0x100000
 80001c0:	ea4c 3111 	orr.w	r1, ip, r1, lsr #12
 80001c4:	d002      	beq.n	80001cc <__adddf3+0x70>
 80001c6:	4240      	negs	r0, r0
 80001c8:	eb61 0141 	sbc.w	r1, r1, r1, lsl #1
 80001cc:	f013 4f00 	tst.w	r3, #2147483648	@ 0x80000000
 80001d0:	ea4f 3303 	mov.w	r3, r3, lsl #12
 80001d4:	ea4c 3313 	orr.w	r3, ip, r3, lsr #12
 80001d8:	d002      	beq.n	80001e0 <__adddf3+0x84>
 80001da:	4252      	negs	r2, r2
 80001dc:	eb63 0343 	sbc.w	r3, r3, r3, lsl #1
 80001e0:	ea94 0f05 	teq	r4, r5
 80001e4:	f000 80a7 	beq.w	8000336 <__adddf3+0x1da>
 80001e8:	f1a4 0401 	sub.w	r4, r4, #1
 80001ec:	f1d5 0e20 	rsbs	lr, r5, #32
 80001f0:	db0d      	blt.n	800020e <__adddf3+0xb2>
 80001f2:	fa02 fc0e 	lsl.w	ip, r2, lr
 80001f6:	fa22 f205 	lsr.w	r2, r2, r5
 80001fa:	1880      	adds	r0, r0, r2
 80001fc:	f141 0100 	adc.w	r1, r1, #0
 8000200:	fa03 f20e 	lsl.w	r2, r3, lr
 8000204:	1880      	adds	r0, r0, r2
 8000206:	fa43 f305 	asr.w	r3, r3, r5
 800020a:	4159      	adcs	r1, r3
 800020c:	e00e      	b.n	800022c <__adddf3+0xd0>
 800020e:	f1a5 0520 	sub.w	r5, r5, #32
 8000212:	f10e 0e20 	add.w	lr, lr, #32
 8000216:	2a01      	cmp	r2, #1
 8000218:	fa03 fc0e 	lsl.w	ip, r3, lr
 800021c:	bf28      	it	cs
 800021e:	f04c 0c02 	orrcs.w	ip, ip, #2
 8000222:	fa43 f305 	asr.w	r3, r3, r5
 8000226:	18c0      	adds	r0, r0, r3
 8000228:	eb51 71e3 	adcs.w	r1, r1, r3, asr #31
 800022c:	f001 4500 	and.w	r5, r1, #2147483648	@ 0x80000000
 8000230:	d507      	bpl.n	8000242 <__adddf3+0xe6>
 8000232:	f04f 0e00 	mov.w	lr, #0
 8000236:	f1dc 0c00 	rsbs	ip, ip, #0
 800023a:	eb7e 0000 	sbcs.w	r0, lr, r0
 800023e:	eb6e 0101 	sbc.w	r1, lr, r1
 8000242:	f5b1 1f80 	cmp.w	r1, #1048576	@ 0x100000
 8000246:	d31b      	bcc.n	8000280 <__adddf3+0x124>
 8000248:	f5b1 1f00 	cmp.w	r1, #2097152	@ 0x200000
 800024c:	d30c      	bcc.n	8000268 <__adddf3+0x10c>
 800024e:	0849      	lsrs	r1, r1, #1
 8000250:	ea5f 0030 	movs.w	r0, r0, rrx
 8000254:	ea4f 0c3c 	mov.w	ip, ip, rrx
 8000258:	f104 0401 	add.w	r4, r4, #1
 800025c:	ea4f 5244 	mov.w	r2, r4, lsl #21
 8000260:	f512 0f80 	cmn.w	r2, #4194304	@ 0x400000
 8000264:	f080 809a 	bcs.w	800039c <__adddf3+0x240>
 8000268:	f1bc 4f00 	cmp.w	ip, #2147483648	@ 0x80000000
 800026c:	bf08      	it	eq
 800026e:	ea5f 0c50 	movseq.w	ip, r0, lsr #1
 8000272:	f150 0000 	adcs.w	r0, r0, #0
 8000276:	eb41 5104 	adc.w	r1, r1, r4, lsl #20
 800027a:	ea41 0105 	orr.w	r1, r1, r5
 800027e:	bd30      	pop	{r4, r5, pc}
 8000280:	ea5f 0c4c 	movs.w	ip, ip, lsl #1
 8000284:	4140      	adcs	r0, r0
 8000286:	eb41 0101 	adc.w	r1, r1, r1
 800028a:	3c01      	subs	r4, #1
 800028c:	bf28      	it	cs
 800028e:	f5b1 1f80 	cmpcs.w	r1, #1048576	@ 0x100000
 8000292:	d2e9      	bcs.n	8000268 <__adddf3+0x10c>
 8000294:	f091 0f00 	teq	r1, #0
 8000298:	bf04      	itt	eq
 800029a:	4601      	moveq	r1, r0
 800029c:	2000      	moveq	r0, #0
 800029e:	fab1 f381 	clz	r3, r1
 80002a2:	bf08      	it	eq
 80002a4:	3320      	addeq	r3, #32
 80002a6:	f1a3 030b 	sub.w	r3, r3, #11
 80002aa:	f1b3 0220 	subs.w	r2, r3, #32
 80002ae:	da0c      	bge.n	80002ca <__adddf3+0x16e>
 80002b0:	320c      	adds	r2, #12
 80002b2:	dd08      	ble.n	80002c6 <__adddf3+0x16a>
 80002b4:	f102 0c14 	add.w	ip, r2, #20
 80002b8:	f1c2 020c 	rsb	r2, r2, #12
 80002bc:	fa01 f00c 	lsl.w	r0, r1, ip
 80002c0:	fa21 f102 	lsr.w	r1, r1, r2
 80002c4:	e00c      	b.n	80002e0 <__adddf3+0x184>
 80002c6:	f102 0214 	add.w	r2, r2, #20
 80002ca:	bfd8      	it	le
 80002cc:	f1c2 0c20 	rsble	ip, r2, #32
 80002d0:	fa01 f102 	lsl.w	r1, r1, r2
 80002d4:	fa20 fc0c 	lsr.w	ip, r0, ip
 80002d8:	bfdc      	itt	le
 80002da:	ea41 010c 	orrle.w	r1, r1, ip
 80002de:	4090      	lslle	r0, r2
 80002e0:	1ae4      	subs	r4, r4, r3
 80002e2:	bfa2      	ittt	ge
 80002e4:	eb01 5104 	addge.w	r1, r1, r4, lsl #20
 80002e8:	4329      	orrge	r1, r5
 80002ea:	bd30      	popge	{r4, r5, pc}
 80002ec:	ea6f 0404 	mvn.w	r4, r4
 80002f0:	3c1f      	subs	r4, #31
 80002f2:	da1c      	bge.n	800032e <__adddf3+0x1d2>
 80002f4:	340c      	adds	r4, #12
 80002f6:	dc0e      	bgt.n	8000316 <__adddf3+0x1ba>
 80002f8:	f104 0414 	add.w	r4, r4, #20
 80002fc:	f1c4 0220 	rsb	r2, r4, #32
 8000300:	fa20 f004 	lsr.w	r0, r0, r4
 8000304:	fa01 f302 	lsl.w	r3, r1, r2
 8000308:	ea40 0003 	orr.w	r0, r0, r3
 800030c:	fa21 f304 	lsr.w	r3, r1, r4
 8000310:	ea45 0103 	orr.w	r1, r5, r3
 8000314:	bd30      	pop	{r4, r5, pc}
 8000316:	f1c4 040c 	rsb	r4, r4, #12
 800031a:	f1c4 0220 	rsb	r2, r4, #32
 800031e:	fa20 f002 	lsr.w	r0, r0, r2
 8000322:	fa01 f304 	lsl.w	r3, r1, r4
 8000326:	ea40 0003 	orr.w	r0, r0, r3
 800032a:	4629      	mov	r1, r5
 800032c:	bd30      	pop	{r4, r5, pc}
 800032e:	fa21 f004 	lsr.w	r0, r1, r4
 8000332:	4629      	mov	r1, r5
 8000334:	bd30      	pop	{r4, r5, pc}
 8000336:	f094 0f00 	teq	r4, #0
 800033a:	f483 1380 	eor.w	r3, r3, #1048576	@ 0x100000
 800033e:	bf06      	itte	eq
 8000340:	f481 1180 	eoreq.w	r1, r1, #1048576	@ 0x100000
 8000344:	3401      	addeq	r4, #1
 8000346:	3d01      	subne	r5, #1
 8000348:	e74e      	b.n	80001e8 <__adddf3+0x8c>
 800034a:	ea7f 5c64 	mvns.w	ip, r4, asr #21
 800034e:	bf18      	it	ne
 8000350:	ea7f 5c65 	mvnsne.w	ip, r5, asr #21
 8000354:	d029      	beq.n	80003aa <__adddf3+0x24e>
 8000356:	ea94 0f05 	teq	r4, r5
 800035a:	bf08      	it	eq
 800035c:	ea90 0f02 	teqeq	r0, r2
 8000360:	d005      	beq.n	800036e <__adddf3+0x212>
 8000362:	ea54 0c00 	orrs.w	ip, r4, r0
 8000366:	bf04      	itt	eq
 8000368:	4619      	moveq	r1, r3
 800036a:	4610      	moveq	r0, r2
 800036c:	bd30      	pop	{r4, r5, pc}
 800036e:	ea91 0f03 	teq	r1, r3
 8000372:	bf1e      	ittt	ne
 8000374:	2100      	movne	r1, #0
 8000376:	2000      	movne	r0, #0
 8000378:	bd30      	popne	{r4, r5, pc}
 800037a:	ea5f 5c54 	movs.w	ip, r4, lsr #21
 800037e:	d105      	bne.n	800038c <__adddf3+0x230>
 8000380:	0040      	lsls	r0, r0, #1
 8000382:	4149      	adcs	r1, r1
 8000384:	bf28      	it	cs
 8000386:	f041 4100 	orrcs.w	r1, r1, #2147483648	@ 0x80000000
 800038a:	bd30      	pop	{r4, r5, pc}
 800038c:	f514 0480 	adds.w	r4, r4, #4194304	@ 0x400000
 8000390:	bf3c      	itt	cc
 8000392:	f501 1180 	addcc.w	r1, r1, #1048576	@ 0x100000
 8000396:	bd30      	popcc	{r4, r5, pc}
 8000398:	f001 4500 	and.w	r5, r1, #2147483648	@ 0x80000000
 800039c:	f045 41fe 	orr.w	r1, r5, #2130706432	@ 0x7f000000
 80003a0:	f441 0170 	orr.w	r1, r1, #15728640	@ 0xf00000
 80003a4:	f04f 0000 	mov.w	r0, #0
 80003a8:	bd30      	pop	{r4, r5, pc}
 80003aa:	ea7f 5c64 	mvns.w	ip, r4, asr #21
 80003ae:	bf1a      	itte	ne
 80003b0:	4619      	movne	r1, r3
 80003b2:	4610      	movne	r0, r2
 80003b4:	ea7f 5c65 	mvnseq.w	ip, r5, asr #21
 80003b8:	bf1c      	itt	ne
 80003ba:	460b      	movne	r3, r1
 80003bc:	4602      	movne	r2, r0
 80003be:	ea50 3401 	orrs.w	r4, r0, r1, lsl #12
 80003c2:	bf06      	itte	eq
 80003c4:	ea52 3503 	orrseq.w	r5, r2, r3, lsl #12
 80003c8:	ea91 0f03 	teqeq	r1, r3
 80003cc:	f441 2100 	orrne.w	r1, r1, #524288	@ 0x80000
 80003d0:	bd30      	pop	{r4, r5, pc}
 80003d2:	bf00      	nop

080003d4 <__aeabi_ui2d>:
 80003d4:	f090 0f00 	teq	r0, #0
 80003d8:	bf04      	itt	eq
 80003da:	2100      	moveq	r1, #0
 80003dc:	4770      	bxeq	lr
 80003de:	b530      	push	{r4, r5, lr}
 80003e0:	f44f 6480 	mov.w	r4, #1024	@ 0x400
 80003e4:	f104 0432 	add.w	r4, r4, #50	@ 0x32
 80003e8:	f04f 0500 	mov.w	r5, #0
 80003ec:	f04f 0100 	mov.w	r1, #0
 80003f0:	e750      	b.n	8000294 <__adddf3+0x138>
 80003f2:	bf00      	nop

080003f4 <__aeabi_i2d>:
 80003f4:	f090 0f00 	teq	r0, #0
 80003f8:	bf04      	itt	eq
 80003fa:	2100      	moveq	r1, #0
 80003fc:	4770      	bxeq	lr
 80003fe:	b530      	push	{r4, r5, lr}
 8000400:	f44f 6480 	mov.w	r4, #1024	@ 0x400
 8000404:	f104 0432 	add.w	r4, r4, #50	@ 0x32
 8000408:	f010 4500 	ands.w	r5, r0, #2147483648	@ 0x80000000
 800040c:	bf48      	it	mi
 800040e:	4240      	negmi	r0, r0
 8000410:	f04f 0100 	mov.w	r1, #0
 8000414:	e73e      	b.n	8000294 <__adddf3+0x138>
 8000416:	bf00      	nop

08000418 <__aeabi_f2d>:
 8000418:	0042      	lsls	r2, r0, #1
 800041a:	ea4f 01e2 	mov.w	r1, r2, asr #3
 800041e:	ea4f 0131 	mov.w	r1, r1, rrx
 8000422:	ea4f 7002 	mov.w	r0, r2, lsl #28
 8000426:	bf1f      	itttt	ne
 8000428:	f012 437f 	andsne.w	r3, r2, #4278190080	@ 0xff000000
 800042c:	f093 4f7f 	teqne	r3, #4278190080	@ 0xff000000
 8000430:	f081 5160 	eorne.w	r1, r1, #939524096	@ 0x38000000
 8000434:	4770      	bxne	lr
 8000436:	f032 427f 	bics.w	r2, r2, #4278190080	@ 0xff000000
 800043a:	bf08      	it	eq
 800043c:	4770      	bxeq	lr
 800043e:	f093 4f7f 	teq	r3, #4278190080	@ 0xff000000
 8000442:	bf04      	itt	eq
 8000444:	f441 2100 	orreq.w	r1, r1, #524288	@ 0x80000
 8000448:	4770      	bxeq	lr
 800044a:	b530      	push	{r4, r5, lr}
 800044c:	f44f 7460 	mov.w	r4, #896	@ 0x380
 8000450:	f001 4500 	and.w	r5, r1, #2147483648	@ 0x80000000
 8000454:	f021 4100 	bic.w	r1, r1, #2147483648	@ 0x80000000
 8000458:	e71c      	b.n	8000294 <__adddf3+0x138>
 800045a:	bf00      	nop

0800045c <__aeabi_ul2d>:
 800045c:	ea50 0201 	orrs.w	r2, r0, r1
 8000460:	bf08      	it	eq
 8000462:	4770      	bxeq	lr
 8000464:	b530      	push	{r4, r5, lr}
 8000466:	f04f 0500 	mov.w	r5, #0
 800046a:	e00a      	b.n	8000482 <__aeabi_l2d+0x16>

0800046c <__aeabi_l2d>:
 800046c:	ea50 0201 	orrs.w	r2, r0, r1
 8000470:	bf08      	it	eq
 8000472:	4770      	bxeq	lr
 8000474:	b530      	push	{r4, r5, lr}
 8000476:	f011 4500 	ands.w	r5, r1, #2147483648	@ 0x80000000
 800047a:	d502      	bpl.n	8000482 <__aeabi_l2d+0x16>
 800047c:	4240      	negs	r0, r0
 800047e:	eb61 0141 	sbc.w	r1, r1, r1, lsl #1
 8000482:	f44f 6480 	mov.w	r4, #1024	@ 0x400
 8000486:	f104 0432 	add.w	r4, r4, #50	@ 0x32
 800048a:	ea5f 5c91 	movs.w	ip, r1, lsr #22
 800048e:	f43f aed8 	beq.w	8000242 <__adddf3+0xe6>
 8000492:	f04f 0203 	mov.w	r2, #3
 8000496:	ea5f 0cdc 	movs.w	ip, ip, lsr #3
 800049a:	bf18      	it	ne
 800049c:	3203      	addne	r2, #3
 800049e:	ea5f 0cdc 	movs.w	ip, ip, lsr #3
 80004a2:	bf18      	it	ne
 80004a4:	3203      	addne	r2, #3
 80004a6:	eb02 02dc 	add.w	r2, r2, ip, lsr #3
 80004aa:	f1c2 0320 	rsb	r3, r2, #32
 80004ae:	fa00 fc03 	lsl.w	ip, r0, r3
 80004b2:	fa20 f002 	lsr.w	r0, r0, r2
 80004b6:	fa01 fe03 	lsl.w	lr, r1, r3
 80004ba:	ea40 000e 	orr.w	r0, r0, lr
 80004be:	fa21 f102 	lsr.w	r1, r1, r2
 80004c2:	4414      	add	r4, r2
 80004c4:	e6bd      	b.n	8000242 <__adddf3+0xe6>
 80004c6:	bf00      	nop

080004c8 <__aeabi_dmul>:
 80004c8:	b570      	push	{r4, r5, r6, lr}
 80004ca:	f04f 0cff 	mov.w	ip, #255	@ 0xff
 80004ce:	f44c 6ce0 	orr.w	ip, ip, #1792	@ 0x700
 80004d2:	ea1c 5411 	ands.w	r4, ip, r1, lsr #20
 80004d6:	bf1d      	ittte	ne
 80004d8:	ea1c 5513 	andsne.w	r5, ip, r3, lsr #20
 80004dc:	ea94 0f0c 	teqne	r4, ip
 80004e0:	ea95 0f0c 	teqne	r5, ip
 80004e4:	f000 f8de 	bleq	80006a4 <__aeabi_dmul+0x1dc>
 80004e8:	442c      	add	r4, r5
 80004ea:	ea81 0603 	eor.w	r6, r1, r3
 80004ee:	ea21 514c 	bic.w	r1, r1, ip, lsl #21
 80004f2:	ea23 534c 	bic.w	r3, r3, ip, lsl #21
 80004f6:	ea50 3501 	orrs.w	r5, r0, r1, lsl #12
 80004fa:	bf18      	it	ne
 80004fc:	ea52 3503 	orrsne.w	r5, r2, r3, lsl #12
 8000500:	f441 1180 	orr.w	r1, r1, #1048576	@ 0x100000
 8000504:	f443 1380 	orr.w	r3, r3, #1048576	@ 0x100000
 8000508:	d038      	beq.n	800057c <__aeabi_dmul+0xb4>
 800050a:	fba0 ce02 	umull	ip, lr, r0, r2
 800050e:	f04f 0500 	mov.w	r5, #0
 8000512:	fbe1 e502 	umlal	lr, r5, r1, r2
 8000516:	f006 4200 	and.w	r2, r6, #2147483648	@ 0x80000000
 800051a:	fbe0 e503 	umlal	lr, r5, r0, r3
 800051e:	f04f 0600 	mov.w	r6, #0
 8000522:	fbe1 5603 	umlal	r5, r6, r1, r3
 8000526:	f09c 0f00 	teq	ip, #0
 800052a:	bf18      	it	ne
 800052c:	f04e 0e01 	orrne.w	lr, lr, #1
 8000530:	f1a4 04ff 	sub.w	r4, r4, #255	@ 0xff
 8000534:	f5b6 7f00 	cmp.w	r6, #512	@ 0x200
 8000538:	f564 7440 	sbc.w	r4, r4, #768	@ 0x300
 800053c:	d204      	bcs.n	8000548 <__aeabi_dmul+0x80>
 800053e:	ea5f 0e4e 	movs.w	lr, lr, lsl #1
 8000542:	416d      	adcs	r5, r5
 8000544:	eb46 0606 	adc.w	r6, r6, r6
 8000548:	ea42 21c6 	orr.w	r1, r2, r6, lsl #11
 800054c:	ea41 5155 	orr.w	r1, r1, r5, lsr #21
 8000550:	ea4f 20c5 	mov.w	r0, r5, lsl #11
 8000554:	ea40 505e 	orr.w	r0, r0, lr, lsr #21
 8000558:	ea4f 2ece 	mov.w	lr, lr, lsl #11
 800055c:	f1b4 0cfd 	subs.w	ip, r4, #253	@ 0xfd
 8000560:	bf88      	it	hi
 8000562:	f5bc 6fe0 	cmphi.w	ip, #1792	@ 0x700
 8000566:	d81e      	bhi.n	80005a6 <__aeabi_dmul+0xde>
 8000568:	f1be 4f00 	cmp.w	lr, #2147483648	@ 0x80000000
 800056c:	bf08      	it	eq
 800056e:	ea5f 0e50 	movseq.w	lr, r0, lsr #1
 8000572:	f150 0000 	adcs.w	r0, r0, #0
 8000576:	eb41 5104 	adc.w	r1, r1, r4, lsl #20
 800057a:	bd70      	pop	{r4, r5, r6, pc}
 800057c:	f006 4600 	and.w	r6, r6, #2147483648	@ 0x80000000
 8000580:	ea46 0101 	orr.w	r1, r6, r1
 8000584:	ea40 0002 	orr.w	r0, r0, r2
 8000588:	ea81 0103 	eor.w	r1, r1, r3
 800058c:	ebb4 045c 	subs.w	r4, r4, ip, lsr #1
 8000590:	bfc2      	ittt	gt
 8000592:	ebd4 050c 	rsbsgt	r5, r4, ip
 8000596:	ea41 5104 	orrgt.w	r1, r1, r4, lsl #20
 800059a:	bd70      	popgt	{r4, r5, r6, pc}
 800059c:	f441 1180 	orr.w	r1, r1, #1048576	@ 0x100000
 80005a0:	f04f 0e00 	mov.w	lr, #0
 80005a4:	3c01      	subs	r4, #1
 80005a6:	f300 80ab 	bgt.w	8000700 <__aeabi_dmul+0x238>
 80005aa:	f114 0f36 	cmn.w	r4, #54	@ 0x36
 80005ae:	bfde      	ittt	le
 80005b0:	2000      	movle	r0, #0
 80005b2:	f001 4100 	andle.w	r1, r1, #2147483648	@ 0x80000000
 80005b6:	bd70      	pople	{r4, r5, r6, pc}
 80005b8:	f1c4 0400 	rsb	r4, r4, #0
 80005bc:	3c20      	subs	r4, #32
 80005be:	da35      	bge.n	800062c <__aeabi_dmul+0x164>
 80005c0:	340c      	adds	r4, #12
 80005c2:	dc1b      	bgt.n	80005fc <__aeabi_dmul+0x134>
 80005c4:	f104 0414 	add.w	r4, r4, #20
 80005c8:	f1c4 0520 	rsb	r5, r4, #32
 80005cc:	fa00 f305 	lsl.w	r3, r0, r5
 80005d0:	fa20 f004 	lsr.w	r0, r0, r4
 80005d4:	fa01 f205 	lsl.w	r2, r1, r5
 80005d8:	ea40 0002 	orr.w	r0, r0, r2
 80005dc:	f001 4200 	and.w	r2, r1, #2147483648	@ 0x80000000
 80005e0:	f021 4100 	bic.w	r1, r1, #2147483648	@ 0x80000000
 80005e4:	eb10 70d3 	adds.w	r0, r0, r3, lsr #31
 80005e8:	fa21 f604 	lsr.w	r6, r1, r4
 80005ec:	eb42 0106 	adc.w	r1, r2, r6
 80005f0:	ea5e 0e43 	orrs.w	lr, lr, r3, lsl #1
 80005f4:	bf08      	it	eq
 80005f6:	ea20 70d3 	biceq.w	r0, r0, r3, lsr #31
 80005fa:	bd70      	pop	{r4, r5, r6, pc}
 80005fc:	f1c4 040c 	rsb	r4, r4, #12
 8000600:	f1c4 0520 	rsb	r5, r4, #32
 8000604:	fa00 f304 	lsl.w	r3, r0, r4
 8000608:	fa20 f005 	lsr.w	r0, r0, r5
 800060c:	fa01 f204 	lsl.w	r2, r1, r4
 8000610:	ea40 0002 	orr.w	r0, r0, r2
 8000614:	f001 4100 	and.w	r1, r1, #2147483648	@ 0x80000000
 8000618:	eb10 70d3 	adds.w	r0, r0, r3, lsr #31
 800061c:	f141 0100 	adc.w	r1, r1, #0
 8000620:	ea5e 0e43 	orrs.w	lr, lr, r3, lsl #1
 8000624:	bf08      	it	eq
 8000626:	ea20 70d3 	biceq.w	r0, r0, r3, lsr #31
 800062a:	bd70      	pop	{r4, r5, r6, pc}
 800062c:	f1c4 0520 	rsb	r5, r4, #32
 8000630:	fa00 f205 	lsl.w	r2, r0, r5
 8000634:	ea4e 0e02 	orr.w	lr, lr, r2
 8000638:	fa20 f304 	lsr.w	r3, r0, r4
 800063c:	fa01 f205 	lsl.w	r2, r1, r5
 8000640:	ea43 0302 	orr.w	r3, r3, r2
 8000644:	fa21 f004 	lsr.w	r0, r1, r4
 8000648:	f001 4100 	and.w	r1, r1, #2147483648	@ 0x80000000
 800064c:	fa21 f204 	lsr.w	r2, r1, r4
 8000650:	ea20 0002 	bic.w	r0, r0, r2
 8000654:	eb00 70d3 	add.w	r0, r0, r3, lsr #31
 8000658:	ea5e 0e43 	orrs.w	lr, lr, r3, lsl #1
 800065c:	bf08      	it	eq
 800065e:	ea20 70d3 	biceq.w	r0, r0, r3, lsr #31
 8000662:	bd70      	pop	{r4, r5, r6, pc}
 8000664:	f094 0f00 	teq	r4, #0
 8000668:	d10f      	bne.n	800068a <__aeabi_dmul+0x1c2>
 800066a:	f001 4600 	and.w	r6, r1, #2147483648	@ 0x80000000
 800066e:	0040      	lsls	r0, r0, #1
 8000670:	eb41 0101 	adc.w	r1, r1, r1
 8000674:	f411 1f80 	tst.w	r1, #1048576	@ 0x100000
 8000678:	bf08      	it	eq
 800067a:	3c01      	subeq	r4, #1
 800067c:	d0f7      	beq.n	800066e <__aeabi_dmul+0x1a6>
 800067e:	ea41 0106 	orr.w	r1, r1, r6
 8000682:	f095 0f00 	teq	r5, #0
 8000686:	bf18      	it	ne
 8000688:	4770      	bxne	lr
 800068a:	f003 4600 	and.w	r6, r3, #2147483648	@ 0x80000000
 800068e:	0052      	lsls	r2, r2, #1
 8000690:	eb43 0303 	adc.w	r3, r3, r3
 8000694:	f413 1f80 	tst.w	r3, #1048576	@ 0x100000
 8000698:	bf08      	it	eq
 800069a:	3d01      	subeq	r5, #1
 800069c:	d0f7      	beq.n	800068e <__aeabi_dmul+0x1c6>
 800069e:	ea43 0306 	orr.w	r3, r3, r6
 80006a2:	4770      	bx	lr
 80006a4:	ea94 0f0c 	teq	r4, ip
 80006a8:	ea0c 5513 	and.w	r5, ip, r3, lsr #20
 80006ac:	bf18      	it	ne
 80006ae:	ea95 0f0c 	teqne	r5, ip
 80006b2:	d00c      	beq.n	80006ce <__aeabi_dmul+0x206>
 80006b4:	ea50 0641 	orrs.w	r6, r0, r1, lsl #1
 80006b8:	bf18      	it	ne
 80006ba:	ea52 0643 	orrsne.w	r6, r2, r3, lsl #1
 80006be:	d1d1      	bne.n	8000664 <__aeabi_dmul+0x19c>
 80006c0:	ea81 0103 	eor.w	r1, r1, r3
 80006c4:	f001 4100 	and.w	r1, r1, #2147483648	@ 0x80000000
 80006c8:	f04f 0000 	mov.w	r0, #0
 80006cc:	bd70      	pop	{r4, r5, r6, pc}
 80006ce:	ea50 0641 	orrs.w	r6, r0, r1, lsl #1
 80006d2:	bf06      	itte	eq
 80006d4:	4610      	moveq	r0, r2
 80006d6:	4619      	moveq	r1, r3
 80006d8:	ea52 0643 	orrsne.w	r6, r2, r3, lsl #1
 80006dc:	d019      	beq.n	8000712 <__aeabi_dmul+0x24a>
 80006de:	ea94 0f0c 	teq	r4, ip
 80006e2:	d102      	bne.n	80006ea <__aeabi_dmul+0x222>
 80006e4:	ea50 3601 	orrs.w	r6, r0, r1, lsl #12
 80006e8:	d113      	bne.n	8000712 <__aeabi_dmul+0x24a>
 80006ea:	ea95 0f0c 	teq	r5, ip
 80006ee:	d105      	bne.n	80006fc <__aeabi_dmul+0x234>
 80006f0:	ea52 3603 	orrs.w	r6, r2, r3, lsl #12
 80006f4:	bf1c      	itt	ne
 80006f6:	4610      	movne	r0, r2
 80006f8:	4619      	movne	r1, r3
 80006fa:	d10a      	bne.n	8000712 <__aeabi_dmul+0x24a>
 80006fc:	ea81 0103 	eor.w	r1, r1, r3
 8000700:	f001 4100 	and.w	r1, r1, #2147483648	@ 0x80000000
 8000704:	f041 41fe 	orr.w	r1, r1, #2130706432	@ 0x7f000000
 8000708:	f441 0170 	orr.w	r1, r1, #15728640	@ 0xf00000
 800070c:	f04f 0000 	mov.w	r0, #0
 8000710:	bd70      	pop	{r4, r5, r6, pc}
 8000712:	f041 41fe 	orr.w	r1, r1, #2130706432	@ 0x7f000000
 8000716:	f441 0178 	orr.w	r1, r1, #16252928	@ 0xf80000
 800071a:	bd70      	pop	{r4, r5, r6, pc}

0800071c <__aeabi_ddiv>:
 800071c:	b570      	push	{r4, r5, r6, lr}
 800071e:	f04f 0cff 	mov.w	ip, #255	@ 0xff
 8000722:	f44c 6ce0 	orr.w	ip, ip, #1792	@ 0x700
 8000726:	ea1c 5411 	ands.w	r4, ip, r1, lsr #20
 800072a:	bf1d      	ittte	ne
 800072c:	ea1c 5513 	andsne.w	r5, ip, r3, lsr #20
 8000730:	ea94 0f0c 	teqne	r4, ip
 8000734:	ea95 0f0c 	teqne	r5, ip
 8000738:	f000 f8a7 	bleq	800088a <__aeabi_ddiv+0x16e>
 800073c:	eba4 0405 	sub.w	r4, r4, r5
 8000740:	ea81 0e03 	eor.w	lr, r1, r3
 8000744:	ea52 3503 	orrs.w	r5, r2, r3, lsl #12
 8000748:	ea4f 3101 	mov.w	r1, r1, lsl #12
 800074c:	f000 8088 	beq.w	8000860 <__aeabi_ddiv+0x144>
 8000750:	ea4f 3303 	mov.w	r3, r3, lsl #12
 8000754:	f04f 5580 	mov.w	r5, #268435456	@ 0x10000000
 8000758:	ea45 1313 	orr.w	r3, r5, r3, lsr #4
 800075c:	ea43 6312 	orr.w	r3, r3, r2, lsr #24
 8000760:	ea4f 2202 	mov.w	r2, r2, lsl #8
 8000764:	ea45 1511 	orr.w	r5, r5, r1, lsr #4
 8000768:	ea45 6510 	orr.w	r5, r5, r0, lsr #24
 800076c:	ea4f 2600 	mov.w	r6, r0, lsl #8
 8000770:	f00e 4100 	and.w	r1, lr, #2147483648	@ 0x80000000
 8000774:	429d      	cmp	r5, r3
 8000776:	bf08      	it	eq
 8000778:	4296      	cmpeq	r6, r2
 800077a:	f144 04fd 	adc.w	r4, r4, #253	@ 0xfd
 800077e:	f504 7440 	add.w	r4, r4, #768	@ 0x300
 8000782:	d202      	bcs.n	800078a <__aeabi_ddiv+0x6e>
 8000784:	085b      	lsrs	r3, r3, #1
 8000786:	ea4f 0232 	mov.w	r2, r2, rrx
 800078a:	1ab6      	subs	r6, r6, r2
 800078c:	eb65 0503 	sbc.w	r5, r5, r3
 8000790:	085b      	lsrs	r3, r3, #1
 8000792:	ea4f 0232 	mov.w	r2, r2, rrx
 8000796:	f44f 1080 	mov.w	r0, #1048576	@ 0x100000
 800079a:	f44f 2c00 	mov.w	ip, #524288	@ 0x80000
 800079e:	ebb6 0e02 	subs.w	lr, r6, r2
 80007a2:	eb75 0e03 	sbcs.w	lr, r5, r3
 80007a6:	bf22      	ittt	cs
 80007a8:	1ab6      	subcs	r6, r6, r2
 80007aa:	4675      	movcs	r5, lr
 80007ac:	ea40 000c 	orrcs.w	r0, r0, ip
 80007b0:	085b      	lsrs	r3, r3, #1
 80007b2:	ea4f 0232 	mov.w	r2, r2, rrx
 80007b6:	ebb6 0e02 	subs.w	lr, r6, r2
 80007ba:	eb75 0e03 	sbcs.w	lr, r5, r3
 80007be:	bf22      	ittt	cs
 80007c0:	1ab6      	subcs	r6, r6, r2
 80007c2:	4675      	movcs	r5, lr
 80007c4:	ea40 005c 	orrcs.w	r0, r0, ip, lsr #1
 80007c8:	085b      	lsrs	r3, r3, #1
 80007ca:	ea4f 0232 	mov.w	r2, r2, rrx
 80007ce:	ebb6 0e02 	subs.w	lr, r6, r2
 80007d2:	eb75 0e03 	sbcs.w	lr, r5, r3
 80007d6:	bf22      	ittt	cs
 80007d8:	1ab6      	subcs	r6, r6, r2
 80007da:	4675      	movcs	r5, lr
 80007dc:	ea40 009c 	orrcs.w	r0, r0, ip, lsr #2
 80007e0:	085b      	lsrs	r3, r3, #1
 80007e2:	ea4f 0232 	mov.w	r2, r2, rrx
 80007e6:	ebb6 0e02 	subs.w	lr, r6, r2
 80007ea:	eb75 0e03 	sbcs.w	lr, r5, r3
 80007ee:	bf22      	ittt	cs
 80007f0:	1ab6      	subcs	r6, r6, r2
 80007f2:	4675      	movcs	r5, lr
 80007f4:	ea40 00dc 	orrcs.w	r0, r0, ip, lsr #3
 80007f8:	ea55 0e06 	orrs.w	lr, r5, r6
 80007fc:	d018      	beq.n	8000830 <__aeabi_ddiv+0x114>
 80007fe:	ea4f 1505 	mov.w	r5, r5, lsl #4
 8000802:	ea45 7516 	orr.w	r5, r5, r6, lsr #28
 8000806:	ea4f 1606 	mov.w	r6, r6, lsl #4
 800080a:	ea4f 03c3 	mov.w	r3, r3, lsl #3
 800080e:	ea43 7352 	orr.w	r3, r3, r2, lsr #29
 8000812:	ea4f 02c2 	mov.w	r2, r2, lsl #3
 8000816:	ea5f 1c1c 	movs.w	ip, ip, lsr #4
 800081a:	d1c0      	bne.n	800079e <__aeabi_ddiv+0x82>
 800081c:	f411 1f80 	tst.w	r1, #1048576	@ 0x100000
 8000820:	d10b      	bne.n	800083a <__aeabi_ddiv+0x11e>
 8000822:	ea41 0100 	orr.w	r1, r1, r0
 8000826:	f04f 0000 	mov.w	r0, #0
 800082a:	f04f 4c00 	mov.w	ip, #2147483648	@ 0x80000000
 800082e:	e7b6      	b.n	800079e <__aeabi_ddiv+0x82>
 8000830:	f411 1f80 	tst.w	r1, #1048576	@ 0x100000
 8000834:	bf04      	itt	eq
 8000836:	4301      	orreq	r1, r0
 8000838:	2000      	moveq	r0, #0
 800083a:	f1b4 0cfd 	subs.w	ip, r4, #253	@ 0xfd
 800083e:	bf88      	it	hi
 8000840:	f5bc 6fe0 	cmphi.w	ip, #1792	@ 0x700
 8000844:	f63f aeaf 	bhi.w	80005a6 <__aeabi_dmul+0xde>
 8000848:	ebb5 0c03 	subs.w	ip, r5, r3
 800084c:	bf04      	itt	eq
 800084e:	ebb6 0c02 	subseq.w	ip, r6, r2
 8000852:	ea5f 0c50 	movseq.w	ip, r0, lsr #1
 8000856:	f150 0000 	adcs.w	r0, r0, #0
 800085a:	eb41 5104 	adc.w	r1, r1, r4, lsl #20
 800085e:	bd70      	pop	{r4, r5, r6, pc}
 8000860:	f00e 4e00 	and.w	lr, lr, #2147483648	@ 0x80000000
 8000864:	ea4e 3111 	orr.w	r1, lr, r1, lsr #12
 8000868:	eb14 045c 	adds.w	r4, r4, ip, lsr #1
 800086c:	bfc2      	ittt	gt
 800086e:	ebd4 050c 	rsbsgt	r5, r4, ip
 8000872:	ea41 5104 	orrgt.w	r1, r1, r4, lsl #20
 8000876:	bd70      	popgt	{r4, r5, r6, pc}
 8000878:	f441 1180 	orr.w	r1, r1, #1048576	@ 0x100000
 800087c:	f04f 0e00 	mov.w	lr, #0
 8000880:	3c01      	subs	r4, #1
 8000882:	e690      	b.n	80005a6 <__aeabi_dmul+0xde>
 8000884:	ea45 0e06 	orr.w	lr, r5, r6
 8000888:	e68d      	b.n	80005a6 <__aeabi_dmul+0xde>
 800088a:	ea0c 5513 	and.w	r5, ip, r3, lsr #20
 800088e:	ea94 0f0c 	teq	r4, ip
 8000892:	bf08      	it	eq
 8000894:	ea95 0f0c 	teqeq	r5, ip
 8000898:	f43f af3b 	beq.w	8000712 <__aeabi_dmul+0x24a>
 800089c:	ea94 0f0c 	teq	r4, ip
 80008a0:	d10a      	bne.n	80008b8 <__aeabi_ddiv+0x19c>
 80008a2:	ea50 3401 	orrs.w	r4, r0, r1, lsl #12
 80008a6:	f47f af34 	bne.w	8000712 <__aeabi_dmul+0x24a>
 80008aa:	ea95 0f0c 	teq	r5, ip
 80008ae:	f47f af25 	bne.w	80006fc <__aeabi_dmul+0x234>
 80008b2:	4610      	mov	r0, r2
 80008b4:	4619      	mov	r1, r3
 80008b6:	e72c      	b.n	8000712 <__aeabi_dmul+0x24a>
 80008b8:	ea95 0f0c 	teq	r5, ip
 80008bc:	d106      	bne.n	80008cc <__aeabi_ddiv+0x1b0>
 80008be:	ea52 3503 	orrs.w	r5, r2, r3, lsl #12
 80008c2:	f43f aefd 	beq.w	80006c0 <__aeabi_dmul+0x1f8>
 80008c6:	4610      	mov	r0, r2
 80008c8:	4619      	mov	r1, r3
 80008ca:	e722      	b.n	8000712 <__aeabi_dmul+0x24a>
 80008cc:	ea50 0641 	orrs.w	r6, r0, r1, lsl #1
 80008d0:	bf18      	it	ne
 80008d2:	ea52 0643 	orrsne.w	r6, r2, r3, lsl #1
 80008d6:	f47f aec5 	bne.w	8000664 <__aeabi_dmul+0x19c>
 80008da:	ea50 0441 	orrs.w	r4, r0, r1, lsl #1
 80008de:	f47f af0d 	bne.w	80006fc <__aeabi_dmul+0x234>
 80008e2:	ea52 0543 	orrs.w	r5, r2, r3, lsl #1
 80008e6:	f47f aeeb 	bne.w	80006c0 <__aeabi_dmul+0x1f8>
 80008ea:	e712      	b.n	8000712 <__aeabi_dmul+0x24a>

080008ec <__gedf2>:
 80008ec:	f04f 3cff 	mov.w	ip, #4294967295
 80008f0:	e006      	b.n	8000900 <__cmpdf2+0x4>
 80008f2:	bf00      	nop

080008f4 <__ledf2>:
 80008f4:	f04f 0c01 	mov.w	ip, #1
 80008f8:	e002      	b.n	8000900 <__cmpdf2+0x4>
 80008fa:	bf00      	nop

080008fc <__cmpdf2>:
 80008fc:	f04f 0c01 	mov.w	ip, #1
 8000900:	f84d cd04 	str.w	ip, [sp, #-4]!
 8000904:	ea4f 0c41 	mov.w	ip, r1, lsl #1
 8000908:	ea7f 5c6c 	mvns.w	ip, ip, asr #21
 800090c:	ea4f 0c43 	mov.w	ip, r3, lsl #1
 8000910:	bf18      	it	ne
 8000912:	ea7f 5c6c 	mvnsne.w	ip, ip, asr #21
 8000916:	d01b      	beq.n	8000950 <__cmpdf2+0x54>
 8000918:	b001      	add	sp, #4
 800091a:	ea50 0c41 	orrs.w	ip, r0, r1, lsl #1
 800091e:	bf0c      	ite	eq
 8000920:	ea52 0c43 	orrseq.w	ip, r2, r3, lsl #1
 8000924:	ea91 0f03 	teqne	r1, r3
 8000928:	bf02      	ittt	eq
 800092a:	ea90 0f02 	teqeq	r0, r2
 800092e:	2000      	moveq	r0, #0
 8000930:	4770      	bxeq	lr
 8000932:	f110 0f00 	cmn.w	r0, #0
 8000936:	ea91 0f03 	teq	r1, r3
 800093a:	bf58      	it	pl
 800093c:	4299      	cmppl	r1, r3
 800093e:	bf08      	it	eq
 8000940:	4290      	cmpeq	r0, r2
 8000942:	bf2c      	ite	cs
 8000944:	17d8      	asrcs	r0, r3, #31
 8000946:	ea6f 70e3 	mvncc.w	r0, r3, asr #31
 800094a:	f040 0001 	orr.w	r0, r0, #1
 800094e:	4770      	bx	lr
 8000950:	ea4f 0c41 	mov.w	ip, r1, lsl #1
 8000954:	ea7f 5c6c 	mvns.w	ip, ip, asr #21
 8000958:	d102      	bne.n	8000960 <__cmpdf2+0x64>
 800095a:	ea50 3c01 	orrs.w	ip, r0, r1, lsl #12
 800095e:	d107      	bne.n	8000970 <__cmpdf2+0x74>
 8000960:	ea4f 0c43 	mov.w	ip, r3, lsl #1
 8000964:	ea7f 5c6c 	mvns.w	ip, ip, asr #21
 8000968:	d1d6      	bne.n	8000918 <__cmpdf2+0x1c>
 800096a:	ea52 3c03 	orrs.w	ip, r2, r3, lsl #12
 800096e:	d0d3      	beq.n	8000918 <__cmpdf2+0x1c>
 8000970:	f85d 0b04 	ldr.w	r0, [sp], #4
 8000974:	4770      	bx	lr
 8000976:	bf00      	nop

08000978 <__aeabi_cdrcmple>:
 8000978:	4684      	mov	ip, r0
 800097a:	4610      	mov	r0, r2
 800097c:	4662      	mov	r2, ip
 800097e:	468c      	mov	ip, r1
 8000980:	4619      	mov	r1, r3
 8000982:	4663      	mov	r3, ip
 8000984:	e000      	b.n	8000988 <__aeabi_cdcmpeq>
 8000986:	bf00      	nop

08000988 <__aeabi_cdcmpeq>:
 8000988:	b501      	push	{r0, lr}
 800098a:	f7ff ffb7 	bl	80008fc <__cmpdf2>
 800098e:	2800      	cmp	r0, #0
 8000990:	bf48      	it	mi
 8000992:	f110 0f00 	cmnmi.w	r0, #0
 8000996:	bd01      	pop	{r0, pc}

08000998 <__aeabi_dcmpeq>:
 8000998:	f84d ed08 	str.w	lr, [sp, #-8]!
 800099c:	f7ff fff4 	bl	8000988 <__aeabi_cdcmpeq>
 80009a0:	bf0c      	ite	eq
 80009a2:	2001      	moveq	r0, #1
 80009a4:	2000      	movne	r0, #0
 80009a6:	f85d fb08 	ldr.w	pc, [sp], #8
 80009aa:	bf00      	nop

080009ac <__aeabi_dcmplt>:
 80009ac:	f84d ed08 	str.w	lr, [sp, #-8]!
 80009b0:	f7ff ffea 	bl	8000988 <__aeabi_cdcmpeq>
 80009b4:	bf34      	ite	cc
 80009b6:	2001      	movcc	r0, #1
 80009b8:	2000      	movcs	r0, #0
 80009ba:	f85d fb08 	ldr.w	pc, [sp], #8
 80009be:	bf00      	nop

080009c0 <__aeabi_dcmple>:
 80009c0:	f84d ed08 	str.w	lr, [sp, #-8]!
 80009c4:	f7ff ffe0 	bl	8000988 <__aeabi_cdcmpeq>
 80009c8:	bf94      	ite	ls
 80009ca:	2001      	movls	r0, #1
 80009cc:	2000      	movhi	r0, #0
 80009ce:	f85d fb08 	ldr.w	pc, [sp], #8
 80009d2:	bf00      	nop

080009d4 <__aeabi_dcmpge>:
 80009d4:	f84d ed08 	str.w	lr, [sp, #-8]!
 80009d8:	f7ff ffce 	bl	8000978 <__aeabi_cdrcmple>
 80009dc:	bf94      	ite	ls
 80009de:	2001      	movls	r0, #1
 80009e0:	2000      	movhi	r0, #0
 80009e2:	f85d fb08 	ldr.w	pc, [sp], #8
 80009e6:	bf00      	nop

080009e8 <__aeabi_dcmpgt>:
 80009e8:	f84d ed08 	str.w	lr, [sp, #-8]!
 80009ec:	f7ff ffc4 	bl	8000978 <__aeabi_cdrcmple>
 80009f0:	bf34      	ite	cc
 80009f2:	2001      	movcc	r0, #1
 80009f4:	2000      	movcs	r0, #0
 80009f6:	f85d fb08 	ldr.w	pc, [sp], #8
 80009fa:	bf00      	nop

080009fc <__aeabi_dcmpun>:
 80009fc:	ea4f 0c41 	mov.w	ip, r1, lsl #1
 8000a00:	ea7f 5c6c 	mvns.w	ip, ip, asr #21
 8000a04:	d102      	bne.n	8000a0c <__aeabi_dcmpun+0x10>
 8000a06:	ea50 3c01 	orrs.w	ip, r0, r1, lsl #12
 8000a0a:	d10a      	bne.n	8000a22 <__aeabi_dcmpun+0x26>
 8000a0c:	ea4f 0c43 	mov.w	ip, r3, lsl #1
 8000a10:	ea7f 5c6c 	mvns.w	ip, ip, asr #21
 8000a14:	d102      	bne.n	8000a1c <__aeabi_dcmpun+0x20>
 8000a16:	ea52 3c03 	orrs.w	ip, r2, r3, lsl #12
 8000a1a:	d102      	bne.n	8000a22 <__aeabi_dcmpun+0x26>
 8000a1c:	f04f 0000 	mov.w	r0, #0
 8000a20:	4770      	bx	lr
 8000a22:	f04f 0001 	mov.w	r0, #1
 8000a26:	4770      	bx	lr

08000a28 <__aeabi_d2f>:
 8000a28:	ea4f 0241 	mov.w	r2, r1, lsl #1
 8000a2c:	f1b2 43e0 	subs.w	r3, r2, #1879048192	@ 0x70000000
 8000a30:	bf24      	itt	cs
 8000a32:	f5b3 1c00 	subscs.w	ip, r3, #2097152	@ 0x200000
 8000a36:	f1dc 5cfe 	rsbscs	ip, ip, #532676608	@ 0x1fc00000
 8000a3a:	d90d      	bls.n	8000a58 <__aeabi_d2f+0x30>
 8000a3c:	f001 4c00 	and.w	ip, r1, #2147483648	@ 0x80000000
 8000a40:	ea4f 02c0 	mov.w	r2, r0, lsl #3
 8000a44:	ea4c 7050 	orr.w	r0, ip, r0, lsr #29
 8000a48:	f1b2 4f00 	cmp.w	r2, #2147483648	@ 0x80000000
 8000a4c:	eb40 0083 	adc.w	r0, r0, r3, lsl #2
 8000a50:	bf08      	it	eq
 8000a52:	f020 0001 	biceq.w	r0, r0, #1
 8000a56:	4770      	bx	lr
 8000a58:	f011 4f80 	tst.w	r1, #1073741824	@ 0x40000000
 8000a5c:	d121      	bne.n	8000aa2 <__aeabi_d2f+0x7a>
 8000a5e:	f113 7238 	adds.w	r2, r3, #48234496	@ 0x2e00000
 8000a62:	bfbc      	itt	lt
 8000a64:	f001 4000 	andlt.w	r0, r1, #2147483648	@ 0x80000000
 8000a68:	4770      	bxlt	lr
 8000a6a:	f441 1180 	orr.w	r1, r1, #1048576	@ 0x100000
 8000a6e:	ea4f 5252 	mov.w	r2, r2, lsr #21
 8000a72:	f1c2 0218 	rsb	r2, r2, #24
 8000a76:	f1c2 0c20 	rsb	ip, r2, #32
 8000a7a:	fa10 f30c 	lsls.w	r3, r0, ip
 8000a7e:	fa20 f002 	lsr.w	r0, r0, r2
 8000a82:	bf18      	it	ne
 8000a84:	f040 0001 	orrne.w	r0, r0, #1
 8000a88:	ea4f 23c1 	mov.w	r3, r1, lsl #11
 8000a8c:	ea4f 23d3 	mov.w	r3, r3, lsr #11
 8000a90:	fa03 fc0c 	lsl.w	ip, r3, ip
 8000a94:	ea40 000c 	orr.w	r0, r0, ip
 8000a98:	fa23 f302 	lsr.w	r3, r3, r2
 8000a9c:	ea4f 0343 	mov.w	r3, r3, lsl #1
 8000aa0:	e7cc      	b.n	8000a3c <__aeabi_d2f+0x14>
 8000aa2:	ea7f 5362 	mvns.w	r3, r2, asr #21
 8000aa6:	d107      	bne.n	8000ab8 <__aeabi_d2f+0x90>
 8000aa8:	ea50 3301 	orrs.w	r3, r0, r1, lsl #12
 8000aac:	bf1e      	ittt	ne
 8000aae:	f04f 40fe 	movne.w	r0, #2130706432	@ 0x7f000000
 8000ab2:	f440 0040 	orrne.w	r0, r0, #12582912	@ 0xc00000
 8000ab6:	4770      	bxne	lr
 8000ab8:	f001 4000 	and.w	r0, r1, #2147483648	@ 0x80000000
 8000abc:	f040 40fe 	orr.w	r0, r0, #2130706432	@ 0x7f000000
 8000ac0:	f440 0000 	orr.w	r0, r0, #8388608	@ 0x800000
 8000ac4:	4770      	bx	lr
 8000ac6:	bf00      	nop

08000ac8 <__aeabi_frsub>:
 8000ac8:	f080 4000 	eor.w	r0, r0, #2147483648	@ 0x80000000
 8000acc:	e002      	b.n	8000ad4 <__addsf3>
 8000ace:	bf00      	nop

08000ad0 <__aeabi_fsub>:
 8000ad0:	f081 4100 	eor.w	r1, r1, #2147483648	@ 0x80000000

08000ad4 <__addsf3>:
 8000ad4:	0042      	lsls	r2, r0, #1
 8000ad6:	bf1f      	itttt	ne
 8000ad8:	ea5f 0341 	movsne.w	r3, r1, lsl #1
 8000adc:	ea92 0f03 	teqne	r2, r3
 8000ae0:	ea7f 6c22 	mvnsne.w	ip, r2, asr #24
 8000ae4:	ea7f 6c23 	mvnsne.w	ip, r3, asr #24
 8000ae8:	d06a      	beq.n	8000bc0 <__addsf3+0xec>
 8000aea:	ea4f 6212 	mov.w	r2, r2, lsr #24
 8000aee:	ebd2 6313 	rsbs	r3, r2, r3, lsr #24
 8000af2:	bfc1      	itttt	gt
 8000af4:	18d2      	addgt	r2, r2, r3
 8000af6:	4041      	eorgt	r1, r0
 8000af8:	4048      	eorgt	r0, r1
 8000afa:	4041      	eorgt	r1, r0
 8000afc:	bfb8      	it	lt
 8000afe:	425b      	neglt	r3, r3
 8000b00:	2b19      	cmp	r3, #25
 8000b02:	bf88      	it	hi
 8000b04:	4770      	bxhi	lr
 8000b06:	f010 4f00 	tst.w	r0, #2147483648	@ 0x80000000
 8000b0a:	f440 0000 	orr.w	r0, r0, #8388608	@ 0x800000
 8000b0e:	f020 407f 	bic.w	r0, r0, #4278190080	@ 0xff000000
 8000b12:	bf18      	it	ne
 8000b14:	4240      	negne	r0, r0
 8000b16:	f011 4f00 	tst.w	r1, #2147483648	@ 0x80000000
 8000b1a:	f441 0100 	orr.w	r1, r1, #8388608	@ 0x800000
 8000b1e:	f021 417f 	bic.w	r1, r1, #4278190080	@ 0xff000000
 8000b22:	bf18      	it	ne
 8000b24:	4249      	negne	r1, r1
 8000b26:	ea92 0f03 	teq	r2, r3
 8000b2a:	d03f      	beq.n	8000bac <__addsf3+0xd8>
 8000b2c:	f1a2 0201 	sub.w	r2, r2, #1
 8000b30:	fa41 fc03 	asr.w	ip, r1, r3
 8000b34:	eb10 000c 	adds.w	r0, r0, ip
 8000b38:	f1c3 0320 	rsb	r3, r3, #32
 8000b3c:	fa01 f103 	lsl.w	r1, r1, r3
 8000b40:	f000 4300 	and.w	r3, r0, #2147483648	@ 0x80000000
 8000b44:	d502      	bpl.n	8000b4c <__addsf3+0x78>
 8000b46:	4249      	negs	r1, r1
 8000b48:	eb60 0040 	sbc.w	r0, r0, r0, lsl #1
 8000b4c:	f5b0 0f00 	cmp.w	r0, #8388608	@ 0x800000
 8000b50:	d313      	bcc.n	8000b7a <__addsf3+0xa6>
 8000b52:	f1b0 7f80 	cmp.w	r0, #16777216	@ 0x1000000
 8000b56:	d306      	bcc.n	8000b66 <__addsf3+0x92>
 8000b58:	0840      	lsrs	r0, r0, #1
 8000b5a:	ea4f 0131 	mov.w	r1, r1, rrx
 8000b5e:	f102 0201 	add.w	r2, r2, #1
 8000b62:	2afe      	cmp	r2, #254	@ 0xfe
 8000b64:	d251      	bcs.n	8000c0a <__addsf3+0x136>
 8000b66:	f1b1 4f00 	cmp.w	r1, #2147483648	@ 0x80000000
 8000b6a:	eb40 50c2 	adc.w	r0, r0, r2, lsl #23
 8000b6e:	bf08      	it	eq
 8000b70:	f020 0001 	biceq.w	r0, r0, #1
 8000b74:	ea40 0003 	orr.w	r0, r0, r3
 8000b78:	4770      	bx	lr
 8000b7a:	0049      	lsls	r1, r1, #1
 8000b7c:	eb40 0000 	adc.w	r0, r0, r0
 8000b80:	3a01      	subs	r2, #1
 8000b82:	bf28      	it	cs
 8000b84:	f5b0 0f00 	cmpcs.w	r0, #8388608	@ 0x800000
 8000b88:	d2ed      	bcs.n	8000b66 <__addsf3+0x92>
 8000b8a:	fab0 fc80 	clz	ip, r0
 8000b8e:	f1ac 0c08 	sub.w	ip, ip, #8
 8000b92:	ebb2 020c 	subs.w	r2, r2, ip
 8000b96:	fa00 f00c 	lsl.w	r0, r0, ip
 8000b9a:	bfaa      	itet	ge
 8000b9c:	eb00 50c2 	addge.w	r0, r0, r2, lsl #23
 8000ba0:	4252      	neglt	r2, r2
 8000ba2:	4318      	orrge	r0, r3
 8000ba4:	bfbc      	itt	lt
 8000ba6:	40d0      	lsrlt	r0, r2
 8000ba8:	4318      	orrlt	r0, r3
 8000baa:	4770      	bx	lr
 8000bac:	f092 0f00 	teq	r2, #0
 8000bb0:	f481 0100 	eor.w	r1, r1, #8388608	@ 0x800000
 8000bb4:	bf06      	itte	eq
 8000bb6:	f480 0000 	eoreq.w	r0, r0, #8388608	@ 0x800000
 8000bba:	3201      	addeq	r2, #1
 8000bbc:	3b01      	subne	r3, #1
 8000bbe:	e7b5      	b.n	8000b2c <__addsf3+0x58>
 8000bc0:	ea4f 0341 	mov.w	r3, r1, lsl #1
 8000bc4:	ea7f 6c22 	mvns.w	ip, r2, asr #24
 8000bc8:	bf18      	it	ne
 8000bca:	ea7f 6c23 	mvnsne.w	ip, r3, asr #24
 8000bce:	d021      	beq.n	8000c14 <__addsf3+0x140>
 8000bd0:	ea92 0f03 	teq	r2, r3
 8000bd4:	d004      	beq.n	8000be0 <__addsf3+0x10c>
 8000bd6:	f092 0f00 	teq	r2, #0
 8000bda:	bf08      	it	eq
 8000bdc:	4608      	moveq	r0, r1
 8000bde:	4770      	bx	lr
 8000be0:	ea90 0f01 	teq	r0, r1
 8000be4:	bf1c      	itt	ne
 8000be6:	2000      	movne	r0, #0
 8000be8:	4770      	bxne	lr
 8000bea:	f012 4f7f 	tst.w	r2, #4278190080	@ 0xff000000
 8000bee:	d104      	bne.n	8000bfa <__addsf3+0x126>
 8000bf0:	0040      	lsls	r0, r0, #1
 8000bf2:	bf28      	it	cs
 8000bf4:	f040 4000 	orrcs.w	r0, r0, #2147483648	@ 0x80000000
 8000bf8:	4770      	bx	lr
 8000bfa:	f112 7200 	adds.w	r2, r2, #33554432	@ 0x2000000
 8000bfe:	bf3c      	itt	cc
 8000c00:	f500 0000 	addcc.w	r0, r0, #8388608	@ 0x800000
 8000c04:	4770      	bxcc	lr
 8000c06:	f000 4300 	and.w	r3, r0, #2147483648	@ 0x80000000
 8000c0a:	f043 40fe 	orr.w	r0, r3, #2130706432	@ 0x7f000000
 8000c0e:	f440 0000 	orr.w	r0, r0, #8388608	@ 0x800000
 8000c12:	4770      	bx	lr
 8000c14:	ea7f 6222 	mvns.w	r2, r2, asr #24
 8000c18:	bf16      	itet	ne
 8000c1a:	4608      	movne	r0, r1
 8000c1c:	ea7f 6323 	mvnseq.w	r3, r3, asr #24
 8000c20:	4601      	movne	r1, r0
 8000c22:	0242      	lsls	r2, r0, #9
 8000c24:	bf06      	itte	eq
 8000c26:	ea5f 2341 	movseq.w	r3, r1, lsl #9
 8000c2a:	ea90 0f01 	teqeq	r0, r1
 8000c2e:	f440 0080 	orrne.w	r0, r0, #4194304	@ 0x400000
 8000c32:	4770      	bx	lr

08000c34 <__aeabi_ui2f>:
 8000c34:	f04f 0300 	mov.w	r3, #0
 8000c38:	e004      	b.n	8000c44 <__aeabi_i2f+0x8>
 8000c3a:	bf00      	nop

08000c3c <__aeabi_i2f>:
 8000c3c:	f010 4300 	ands.w	r3, r0, #2147483648	@ 0x80000000
 8000c40:	bf48      	it	mi
 8000c42:	4240      	negmi	r0, r0
 8000c44:	ea5f 0c00 	movs.w	ip, r0
 8000c48:	bf08      	it	eq
 8000c4a:	4770      	bxeq	lr
 8000c4c:	f043 4396 	orr.w	r3, r3, #1258291200	@ 0x4b000000
 8000c50:	4601      	mov	r1, r0
 8000c52:	f04f 0000 	mov.w	r0, #0
 8000c56:	e01c      	b.n	8000c92 <__aeabi_l2f+0x2a>

08000c58 <__aeabi_ul2f>:
 8000c58:	ea50 0201 	orrs.w	r2, r0, r1
 8000c5c:	bf08      	it	eq
 8000c5e:	4770      	bxeq	lr
 8000c60:	f04f 0300 	mov.w	r3, #0
 8000c64:	e00a      	b.n	8000c7c <__aeabi_l2f+0x14>
 8000c66:	bf00      	nop

08000c68 <__aeabi_l2f>:
 8000c68:	ea50 0201 	orrs.w	r2, r0, r1
 8000c6c:	bf08      	it	eq
 8000c6e:	4770      	bxeq	lr
 8000c70:	f011 4300 	ands.w	r3, r1, #2147483648	@ 0x80000000
 8000c74:	d502      	bpl.n	8000c7c <__aeabi_l2f+0x14>
 8000c76:	4240      	negs	r0, r0
 8000c78:	eb61 0141 	sbc.w	r1, r1, r1, lsl #1
 8000c7c:	ea5f 0c01 	movs.w	ip, r1
 8000c80:	bf02      	ittt	eq
 8000c82:	4684      	moveq	ip, r0
 8000c84:	4601      	moveq	r1, r0
 8000c86:	2000      	moveq	r0, #0
 8000c88:	f043 43b6 	orr.w	r3, r3, #1526726656	@ 0x5b000000
 8000c8c:	bf08      	it	eq
 8000c8e:	f1a3 5380 	subeq.w	r3, r3, #268435456	@ 0x10000000
 8000c92:	f5a3 0300 	sub.w	r3, r3, #8388608	@ 0x800000
 8000c96:	fabc f28c 	clz	r2, ip
 8000c9a:	3a08      	subs	r2, #8
 8000c9c:	eba3 53c2 	sub.w	r3, r3, r2, lsl #23
 8000ca0:	db10      	blt.n	8000cc4 <__aeabi_l2f+0x5c>
 8000ca2:	fa01 fc02 	lsl.w	ip, r1, r2
 8000ca6:	4463      	add	r3, ip
 8000ca8:	fa00 fc02 	lsl.w	ip, r0, r2
 8000cac:	f1c2 0220 	rsb	r2, r2, #32
 8000cb0:	f1bc 4f00 	cmp.w	ip, #2147483648	@ 0x80000000
 8000cb4:	fa20 f202 	lsr.w	r2, r0, r2
 8000cb8:	eb43 0002 	adc.w	r0, r3, r2
 8000cbc:	bf08      	it	eq
 8000cbe:	f020 0001 	biceq.w	r0, r0, #1
 8000cc2:	4770      	bx	lr
 8000cc4:	f102 0220 	add.w	r2, r2, #32
 8000cc8:	fa01 fc02 	lsl.w	ip, r1, r2
 8000ccc:	f1c2 0220 	rsb	r2, r2, #32
 8000cd0:	ea50 004c 	orrs.w	r0, r0, ip, lsl #1
 8000cd4:	fa21 f202 	lsr.w	r2, r1, r2
 8000cd8:	eb43 0002 	adc.w	r0, r3, r2
 8000cdc:	bf08      	it	eq
 8000cde:	ea20 70dc 	biceq.w	r0, r0, ip, lsr #31
 8000ce2:	4770      	bx	lr

08000ce4 <__aeabi_fmul>:
 8000ce4:	f04f 0cff 	mov.w	ip, #255	@ 0xff
 8000ce8:	ea1c 52d0 	ands.w	r2, ip, r0, lsr #23
 8000cec:	bf1e      	ittt	ne
 8000cee:	ea1c 53d1 	andsne.w	r3, ip, r1, lsr #23
 8000cf2:	ea92 0f0c 	teqne	r2, ip
 8000cf6:	ea93 0f0c 	teqne	r3, ip
 8000cfa:	d06f      	beq.n	8000ddc <__aeabi_fmul+0xf8>
 8000cfc:	441a      	add	r2, r3
 8000cfe:	ea80 0c01 	eor.w	ip, r0, r1
 8000d02:	0240      	lsls	r0, r0, #9
 8000d04:	bf18      	it	ne
 8000d06:	ea5f 2141 	movsne.w	r1, r1, lsl #9
 8000d0a:	d01e      	beq.n	8000d4a <__aeabi_fmul+0x66>
 8000d0c:	f04f 6300 	mov.w	r3, #134217728	@ 0x8000000
 8000d10:	ea43 1050 	orr.w	r0, r3, r0, lsr #5
 8000d14:	ea43 1151 	orr.w	r1, r3, r1, lsr #5
 8000d18:	fba0 3101 	umull	r3, r1, r0, r1
 8000d1c:	f00c 4000 	and.w	r0, ip, #2147483648	@ 0x80000000
 8000d20:	f5b1 0f00 	cmp.w	r1, #8388608	@ 0x800000
 8000d24:	bf3e      	ittt	cc
 8000d26:	0049      	lslcc	r1, r1, #1
 8000d28:	ea41 71d3 	orrcc.w	r1, r1, r3, lsr #31
 8000d2c:	005b      	lslcc	r3, r3, #1
 8000d2e:	ea40 0001 	orr.w	r0, r0, r1
 8000d32:	f162 027f 	sbc.w	r2, r2, #127	@ 0x7f
 8000d36:	2afd      	cmp	r2, #253	@ 0xfd
 8000d38:	d81d      	bhi.n	8000d76 <__aeabi_fmul+0x92>
 8000d3a:	f1b3 4f00 	cmp.w	r3, #2147483648	@ 0x80000000
 8000d3e:	eb40 50c2 	adc.w	r0, r0, r2, lsl #23
 8000d42:	bf08      	it	eq
 8000d44:	f020 0001 	biceq.w	r0, r0, #1
 8000d48:	4770      	bx	lr
 8000d4a:	f090 0f00 	teq	r0, #0
 8000d4e:	f00c 4c00 	and.w	ip, ip, #2147483648	@ 0x80000000
 8000d52:	bf08      	it	eq
 8000d54:	0249      	lsleq	r1, r1, #9
 8000d56:	ea4c 2050 	orr.w	r0, ip, r0, lsr #9
 8000d5a:	ea40 2051 	orr.w	r0, r0, r1, lsr #9
 8000d5e:	3a7f      	subs	r2, #127	@ 0x7f
 8000d60:	bfc2      	ittt	gt
 8000d62:	f1d2 03ff 	rsbsgt	r3, r2, #255	@ 0xff
 8000d66:	ea40 50c2 	orrgt.w	r0, r0, r2, lsl #23
 8000d6a:	4770      	bxgt	lr
 8000d6c:	f440 0000 	orr.w	r0, r0, #8388608	@ 0x800000
 8000d70:	f04f 0300 	mov.w	r3, #0
 8000d74:	3a01      	subs	r2, #1
 8000d76:	dc5d      	bgt.n	8000e34 <__aeabi_fmul+0x150>
 8000d78:	f112 0f19 	cmn.w	r2, #25
 8000d7c:	bfdc      	itt	le
 8000d7e:	f000 4000 	andle.w	r0, r0, #2147483648	@ 0x80000000
 8000d82:	4770      	bxle	lr
 8000d84:	f1c2 0200 	rsb	r2, r2, #0
 8000d88:	0041      	lsls	r1, r0, #1
 8000d8a:	fa21 f102 	lsr.w	r1, r1, r2
 8000d8e:	f1c2 0220 	rsb	r2, r2, #32
 8000d92:	fa00 fc02 	lsl.w	ip, r0, r2
 8000d96:	ea5f 0031 	movs.w	r0, r1, rrx
 8000d9a:	f140 0000 	adc.w	r0, r0, #0
 8000d9e:	ea53 034c 	orrs.w	r3, r3, ip, lsl #1
 8000da2:	bf08      	it	eq
 8000da4:	ea20 70dc 	biceq.w	r0, r0, ip, lsr #31
 8000da8:	4770      	bx	lr
 8000daa:	f092 0f00 	teq	r2, #0
 8000dae:	f000 4c00 	and.w	ip, r0, #2147483648	@ 0x80000000
 8000db2:	bf02      	ittt	eq
 8000db4:	0040      	lsleq	r0, r0, #1
 8000db6:	f410 0f00 	tsteq.w	r0, #8388608	@ 0x800000
 8000dba:	3a01      	subeq	r2, #1
 8000dbc:	d0f9      	beq.n	8000db2 <__aeabi_fmul+0xce>
 8000dbe:	ea40 000c 	orr.w	r0, r0, ip
 8000dc2:	f093 0f00 	teq	r3, #0
 8000dc6:	f001 4c00 	and.w	ip, r1, #2147483648	@ 0x80000000
 8000dca:	bf02      	ittt	eq
 8000dcc:	0049      	lsleq	r1, r1, #1
 8000dce:	f411 0f00 	tsteq.w	r1, #8388608	@ 0x800000
 8000dd2:	3b01      	subeq	r3, #1
 8000dd4:	d0f9      	beq.n	8000dca <__aeabi_fmul+0xe6>
 8000dd6:	ea41 010c 	orr.w	r1, r1, ip
 8000dda:	e78f      	b.n	8000cfc <__aeabi_fmul+0x18>
 8000ddc:	ea0c 53d1 	and.w	r3, ip, r1, lsr #23
 8000de0:	ea92 0f0c 	teq	r2, ip
 8000de4:	bf18      	it	ne
 8000de6:	ea93 0f0c 	teqne	r3, ip
 8000dea:	d00a      	beq.n	8000e02 <__aeabi_fmul+0x11e>
 8000dec:	f030 4c00 	bics.w	ip, r0, #2147483648	@ 0x80000000
 8000df0:	bf18      	it	ne
 8000df2:	f031 4c00 	bicsne.w	ip, r1, #2147483648	@ 0x80000000
 8000df6:	d1d8      	bne.n	8000daa <__aeabi_fmul+0xc6>
 8000df8:	ea80 0001 	eor.w	r0, r0, r1
 8000dfc:	f000 4000 	and.w	r0, r0, #2147483648	@ 0x80000000
 8000e00:	4770      	bx	lr
 8000e02:	f090 0f00 	teq	r0, #0
 8000e06:	bf17      	itett	ne
 8000e08:	f090 4f00 	teqne	r0, #2147483648	@ 0x80000000
 8000e0c:	4608      	moveq	r0, r1
 8000e0e:	f091 0f00 	teqne	r1, #0
 8000e12:	f091 4f00 	teqne	r1, #2147483648	@ 0x80000000
 8000e16:	d014      	beq.n	8000e42 <__aeabi_fmul+0x15e>
 8000e18:	ea92 0f0c 	teq	r2, ip
 8000e1c:	d101      	bne.n	8000e22 <__aeabi_fmul+0x13e>
 8000e1e:	0242      	lsls	r2, r0, #9
 8000e20:	d10f      	bne.n	8000e42 <__aeabi_fmul+0x15e>
 8000e22:	ea93 0f0c 	teq	r3, ip
 8000e26:	d103      	bne.n	8000e30 <__aeabi_fmul+0x14c>
 8000e28:	024b      	lsls	r3, r1, #9
 8000e2a:	bf18      	it	ne
 8000e2c:	4608      	movne	r0, r1
 8000e2e:	d108      	bne.n	8000e42 <__aeabi_fmul+0x15e>
 8000e30:	ea80 0001 	eor.w	r0, r0, r1
 8000e34:	f000 4000 	and.w	r0, r0, #2147483648	@ 0x80000000
 8000e38:	f040 40fe 	orr.w	r0, r0, #2130706432	@ 0x7f000000
 8000e3c:	f440 0000 	orr.w	r0, r0, #8388608	@ 0x800000
 8000e40:	4770      	bx	lr
 8000e42:	f040 40fe 	orr.w	r0, r0, #2130706432	@ 0x7f000000
 8000e46:	f440 0040 	orr.w	r0, r0, #12582912	@ 0xc00000
 8000e4a:	4770      	bx	lr

08000e4c <__aeabi_fdiv>:
 8000e4c:	f04f 0cff 	mov.w	ip, #255	@ 0xff
 8000e50:	ea1c 52d0 	ands.w	r2, ip, r0, lsr #23
 8000e54:	bf1e      	ittt	ne
 8000e56:	ea1c 53d1 	andsne.w	r3, ip, r1, lsr #23
 8000e5a:	ea92 0f0c 	teqne	r2, ip
 8000e5e:	ea93 0f0c 	teqne	r3, ip
 8000e62:	d069      	beq.n	8000f38 <__aeabi_fdiv+0xec>
 8000e64:	eba2 0203 	sub.w	r2, r2, r3
 8000e68:	ea80 0c01 	eor.w	ip, r0, r1
 8000e6c:	0249      	lsls	r1, r1, #9
 8000e6e:	ea4f 2040 	mov.w	r0, r0, lsl #9
 8000e72:	d037      	beq.n	8000ee4 <__aeabi_fdiv+0x98>
 8000e74:	f04f 5380 	mov.w	r3, #268435456	@ 0x10000000
 8000e78:	ea43 1111 	orr.w	r1, r3, r1, lsr #4
 8000e7c:	ea43 1310 	orr.w	r3, r3, r0, lsr #4
 8000e80:	f00c 4000 	and.w	r0, ip, #2147483648	@ 0x80000000
 8000e84:	428b      	cmp	r3, r1
 8000e86:	bf38      	it	cc
 8000e88:	005b      	lslcc	r3, r3, #1
 8000e8a:	f142 027d 	adc.w	r2, r2, #125	@ 0x7d
 8000e8e:	f44f 0c00 	mov.w	ip, #8388608	@ 0x800000
 8000e92:	428b      	cmp	r3, r1
 8000e94:	bf24      	itt	cs
 8000e96:	1a5b      	subcs	r3, r3, r1
 8000e98:	ea40 000c 	orrcs.w	r0, r0, ip
 8000e9c:	ebb3 0f51 	cmp.w	r3, r1, lsr #1
 8000ea0:	bf24      	itt	cs
 8000ea2:	eba3 0351 	subcs.w	r3, r3, r1, lsr #1
 8000ea6:	ea40 005c 	orrcs.w	r0, r0, ip, lsr #1
 8000eaa:	ebb3 0f91 	cmp.w	r3, r1, lsr #2
 8000eae:	bf24      	itt	cs
 8000eb0:	eba3 0391 	subcs.w	r3, r3, r1, lsr #2
 8000eb4:	ea40 009c 	orrcs.w	r0, r0, ip, lsr #2
 8000eb8:	ebb3 0fd1 	cmp.w	r3, r1, lsr #3
 8000ebc:	bf24      	itt	cs
 8000ebe:	eba3 03d1 	subcs.w	r3, r3, r1, lsr #3
 8000ec2:	ea40 00dc 	orrcs.w	r0, r0, ip, lsr #3
 8000ec6:	011b      	lsls	r3, r3, #4
 8000ec8:	bf18      	it	ne
 8000eca:	ea5f 1c1c 	movsne.w	ip, ip, lsr #4
 8000ece:	d1e0      	bne.n	8000e92 <__aeabi_fdiv+0x46>
 8000ed0:	2afd      	cmp	r2, #253	@ 0xfd
 8000ed2:	f63f af50 	bhi.w	8000d76 <__aeabi_fmul+0x92>
 8000ed6:	428b      	cmp	r3, r1
 8000ed8:	eb40 50c2 	adc.w	r0, r0, r2, lsl #23
 8000edc:	bf08      	it	eq
 8000ede:	f020 0001 	biceq.w	r0, r0, #1
 8000ee2:	4770      	bx	lr
 8000ee4:	f00c 4c00 	and.w	ip, ip, #2147483648	@ 0x80000000
 8000ee8:	ea4c 2050 	orr.w	r0, ip, r0, lsr #9
 8000eec:	327f      	adds	r2, #127	@ 0x7f
 8000eee:	bfc2      	ittt	gt
 8000ef0:	f1d2 03ff 	rsbsgt	r3, r2, #255	@ 0xff
 8000ef4:	ea40 50c2 	orrgt.w	r0, r0, r2, lsl #23
 8000ef8:	4770      	bxgt	lr
 8000efa:	f440 0000 	orr.w	r0, r0, #8388608	@ 0x800000
 8000efe:	f04f 0300 	mov.w	r3, #0
 8000f02:	3a01      	subs	r2, #1
 8000f04:	e737      	b.n	8000d76 <__aeabi_fmul+0x92>
 8000f06:	f092 0f00 	teq	r2, #0
 8000f0a:	f000 4c00 	and.w	ip, r0, #2147483648	@ 0x80000000
 8000f0e:	bf02      	ittt	eq
 8000f10:	0040      	lsleq	r0, r0, #1
 8000f12:	f410 0f00 	tsteq.w	r0, #8388608	@ 0x800000
 8000f16:	3a01      	subeq	r2, #1
 8000f18:	d0f9      	beq.n	8000f0e <__aeabi_fdiv+0xc2>
 8000f1a:	ea40 000c 	orr.w	r0, r0, ip
 8000f1e:	f093 0f00 	teq	r3, #0
 8000f22:	f001 4c00 	and.w	ip, r1, #2147483648	@ 0x80000000
 8000f26:	bf02      	ittt	eq
 8000f28:	0049      	lsleq	r1, r1, #1
 8000f2a:	f411 0f00 	tsteq.w	r1, #8388608	@ 0x800000
 8000f2e:	3b01      	subeq	r3, #1
 8000f30:	d0f9      	beq.n	8000f26 <__aeabi_fdiv+0xda>
 8000f32:	ea41 010c 	orr.w	r1, r1, ip
 8000f36:	e795      	b.n	8000e64 <__aeabi_fdiv+0x18>
 8000f38:	ea0c 53d1 	and.w	r3, ip, r1, lsr #23
 8000f3c:	ea92 0f0c 	teq	r2, ip
 8000f40:	d108      	bne.n	8000f54 <__aeabi_fdiv+0x108>
 8000f42:	0242      	lsls	r2, r0, #9
 8000f44:	f47f af7d 	bne.w	8000e42 <__aeabi_fmul+0x15e>
 8000f48:	ea93 0f0c 	teq	r3, ip
 8000f4c:	f47f af70 	bne.w	8000e30 <__aeabi_fmul+0x14c>
 8000f50:	4608      	mov	r0, r1
 8000f52:	e776      	b.n	8000e42 <__aeabi_fmul+0x15e>
 8000f54:	ea93 0f0c 	teq	r3, ip
 8000f58:	d104      	bne.n	8000f64 <__aeabi_fdiv+0x118>
 8000f5a:	024b      	lsls	r3, r1, #9
 8000f5c:	f43f af4c 	beq.w	8000df8 <__aeabi_fmul+0x114>
 8000f60:	4608      	mov	r0, r1
 8000f62:	e76e      	b.n	8000e42 <__aeabi_fmul+0x15e>
 8000f64:	f030 4c00 	bics.w	ip, r0, #2147483648	@ 0x80000000
 8000f68:	bf18      	it	ne
 8000f6a:	f031 4c00 	bicsne.w	ip, r1, #2147483648	@ 0x80000000
 8000f6e:	d1ca      	bne.n	8000f06 <__aeabi_fdiv+0xba>
 8000f70:	f030 4200 	bics.w	r2, r0, #2147483648	@ 0x80000000
 8000f74:	f47f af5c 	bne.w	8000e30 <__aeabi_fmul+0x14c>
 8000f78:	f031 4300 	bics.w	r3, r1, #2147483648	@ 0x80000000
 8000f7c:	f47f af3c 	bne.w	8000df8 <__aeabi_fmul+0x114>
 8000f80:	e75f      	b.n	8000e42 <__aeabi_fmul+0x15e>
 8000f82:	bf00      	nop

08000f84 <__gesf2>:
 8000f84:	f04f 3cff 	mov.w	ip, #4294967295
 8000f88:	e006      	b.n	8000f98 <__cmpsf2+0x4>
 8000f8a:	bf00      	nop

08000f8c <__lesf2>:
 8000f8c:	f04f 0c01 	mov.w	ip, #1
 8000f90:	e002      	b.n	8000f98 <__cmpsf2+0x4>
 8000f92:	bf00      	nop

08000f94 <__cmpsf2>:
 8000f94:	f04f 0c01 	mov.w	ip, #1
 8000f98:	f84d cd04 	str.w	ip, [sp, #-4]!
 8000f9c:	ea4f 0240 	mov.w	r2, r0, lsl #1
 8000fa0:	ea4f 0341 	mov.w	r3, r1, lsl #1
 8000fa4:	ea7f 6c22 	mvns.w	ip, r2, asr #24
 8000fa8:	bf18      	it	ne
 8000faa:	ea7f 6c23 	mvnsne.w	ip, r3, asr #24
 8000fae:	d011      	beq.n	8000fd4 <__cmpsf2+0x40>
 8000fb0:	b001      	add	sp, #4
 8000fb2:	ea52 0c53 	orrs.w	ip, r2, r3, lsr #1
 8000fb6:	bf18      	it	ne
 8000fb8:	ea90 0f01 	teqne	r0, r1
 8000fbc:	bf58      	it	pl
 8000fbe:	ebb2 0003 	subspl.w	r0, r2, r3
 8000fc2:	bf88      	it	hi
 8000fc4:	17c8      	asrhi	r0, r1, #31
 8000fc6:	bf38      	it	cc
 8000fc8:	ea6f 70e1 	mvncc.w	r0, r1, asr #31
 8000fcc:	bf18      	it	ne
 8000fce:	f040 0001 	orrne.w	r0, r0, #1
 8000fd2:	4770      	bx	lr
 8000fd4:	ea7f 6c22 	mvns.w	ip, r2, asr #24
 8000fd8:	d102      	bne.n	8000fe0 <__cmpsf2+0x4c>
 8000fda:	ea5f 2c40 	movs.w	ip, r0, lsl #9
 8000fde:	d105      	bne.n	8000fec <__cmpsf2+0x58>
 8000fe0:	ea7f 6c23 	mvns.w	ip, r3, asr #24
 8000fe4:	d1e4      	bne.n	8000fb0 <__cmpsf2+0x1c>
 8000fe6:	ea5f 2c41 	movs.w	ip, r1, lsl #9
 8000fea:	d0e1      	beq.n	8000fb0 <__cmpsf2+0x1c>
 8000fec:	f85d 0b04 	ldr.w	r0, [sp], #4
 8000ff0:	4770      	bx	lr
 8000ff2:	bf00      	nop

08000ff4 <__aeabi_cfrcmple>:
 8000ff4:	4684      	mov	ip, r0
 8000ff6:	4608      	mov	r0, r1
 8000ff8:	4661      	mov	r1, ip
 8000ffa:	e7ff      	b.n	8000ffc <__aeabi_cfcmpeq>

08000ffc <__aeabi_cfcmpeq>:
 8000ffc:	b50f      	push	{r0, r1, r2, r3, lr}
 8000ffe:	f7ff ffc9 	bl	8000f94 <__cmpsf2>
 8001002:	2800      	cmp	r0, #0
 8001004:	bf48      	it	mi
 8001006:	f110 0f00 	cmnmi.w	r0, #0
 800100a:	bd0f      	pop	{r0, r1, r2, r3, pc}

0800100c <__aeabi_fcmpeq>:
 800100c:	f84d ed08 	str.w	lr, [sp, #-8]!
 8001010:	f7ff fff4 	bl	8000ffc <__aeabi_cfcmpeq>
 8001014:	bf0c      	ite	eq
 8001016:	2001      	moveq	r0, #1
 8001018:	2000      	movne	r0, #0
 800101a:	f85d fb08 	ldr.w	pc, [sp], #8
 800101e:	bf00      	nop

08001020 <__aeabi_fcmplt>:
 8001020:	f84d ed08 	str.w	lr, [sp, #-8]!
 8001024:	f7ff ffea 	bl	8000ffc <__aeabi_cfcmpeq>
 8001028:	bf34      	ite	cc
 800102a:	2001      	movcc	r0, #1
 800102c:	2000      	movcs	r0, #0
 800102e:	f85d fb08 	ldr.w	pc, [sp], #8
 8001032:	bf00      	nop

08001034 <__aeabi_fcmple>:
 8001034:	f84d ed08 	str.w	lr, [sp, #-8]!
 8001038:	f7ff ffe0 	bl	8000ffc <__aeabi_cfcmpeq>
 800103c:	bf94      	ite	ls
 800103e:	2001      	movls	r0, #1
 8001040:	2000      	movhi	r0, #0
 8001042:	f85d fb08 	ldr.w	pc, [sp], #8
 8001046:	bf00      	nop

08001048 <__aeabi_fcmpge>:
 8001048:	f84d ed08 	str.w	lr, [sp, #-8]!
 800104c:	f7ff ffd2 	bl	8000ff4 <__aeabi_cfrcmple>
 8001050:	bf94      	ite	ls
 8001052:	2001      	movls	r0, #1
 8001054:	2000      	movhi	r0, #0
 8001056:	f85d fb08 	ldr.w	pc, [sp], #8
 800105a:	bf00      	nop

0800105c <__aeabi_fcmpgt>:
 800105c:	f84d ed08 	str.w	lr, [sp, #-8]!
 8001060:	f7ff ffc8 	bl	8000ff4 <__aeabi_cfrcmple>
 8001064:	bf34      	ite	cc
 8001066:	2001      	movcc	r0, #1
 8001068:	2000      	movcs	r0, #0
 800106a:	f85d fb08 	ldr.w	pc, [sp], #8
 800106e:	bf00      	nop

08001070 <__aeabi_f2uiz>:
 8001070:	0042      	lsls	r2, r0, #1
 8001072:	d20e      	bcs.n	8001092 <__aeabi_f2uiz+0x22>
 8001074:	f1b2 4ffe 	cmp.w	r2, #2130706432	@ 0x7f000000
 8001078:	d30b      	bcc.n	8001092 <__aeabi_f2uiz+0x22>
 800107a:	f04f 039e 	mov.w	r3, #158	@ 0x9e
 800107e:	ebb3 6212 	subs.w	r2, r3, r2, lsr #24
 8001082:	d409      	bmi.n	8001098 <__aeabi_f2uiz+0x28>
 8001084:	ea4f 2300 	mov.w	r3, r0, lsl #8
 8001088:	f043 4300 	orr.w	r3, r3, #2147483648	@ 0x80000000
 800108c:	fa23 f002 	lsr.w	r0, r3, r2
 8001090:	4770      	bx	lr
 8001092:	f04f 0000 	mov.w	r0, #0
 8001096:	4770      	bx	lr
 8001098:	f112 0f61 	cmn.w	r2, #97	@ 0x61
 800109c:	d101      	bne.n	80010a2 <__aeabi_f2uiz+0x32>
 800109e:	0242      	lsls	r2, r0, #9
 80010a0:	d102      	bne.n	80010a8 <__aeabi_f2uiz+0x38>
 80010a2:	f04f 30ff 	mov.w	r0, #4294967295
 80010a6:	4770      	bx	lr
 80010a8:	f04f 0000 	mov.w	r0, #0
 80010ac:	4770      	bx	lr
 80010ae:	bf00      	nop

080010b0 <max>:
float c1, c2, c3; // parameters theta
float d1, d2, d3; // parameters theta_dot
float u_S, u_M, u_B;

float max(int num_args, ...) // VARIABLE MUST BE FLOAT (EX: 70.0, 980.0 NOT 70 OR 980) , IF NOT FLOAT --> MAX FUNC WILL FALSE!!
{
 80010b0:	b40f      	push	{r0, r1, r2, r3}
 80010b2:	b580      	push	{r7, lr}
 80010b4:	b084      	sub	sp, #16
 80010b6:	af00      	add	r7, sp, #0
   float max;
   float current;
   va_list ap;
   va_start(ap, num_args);
 80010b8:	f107 031c 	add.w	r3, r7, #28
 80010bc:	603b      	str	r3, [r7, #0]
   for(int i = 0; i < num_args; i++)
 80010be:	2300      	movs	r3, #0
 80010c0:	60bb      	str	r3, [r7, #8]
 80010c2:	e023      	b.n	800110c <max+0x5c>
   {
	   current = (float)va_arg(ap, double);  // Auto increment the pointer to receive the next argument (float) every call function
 80010c4:	683b      	ldr	r3, [r7, #0]
 80010c6:	3307      	adds	r3, #7
 80010c8:	f023 0307 	bic.w	r3, r3, #7
 80010cc:	f103 0208 	add.w	r2, r3, #8
 80010d0:	603a      	str	r2, [r7, #0]
 80010d2:	e9d3 2300 	ldrd	r2, r3, [r3]
 80010d6:	4610      	mov	r0, r2
 80010d8:	4619      	mov	r1, r3
 80010da:	f7ff fca5 	bl	8000a28 <__aeabi_d2f>
 80010de:	4603      	mov	r3, r0
 80010e0:	607b      	str	r3, [r7, #4]
	   current += 0.0000001f; // Convert to float again :>
 80010e2:	4910      	ldr	r1, [pc, #64]	@ (8001124 <max+0x74>)
 80010e4:	6878      	ldr	r0, [r7, #4]
 80010e6:	f7ff fcf5 	bl	8000ad4 <__addsf3>
 80010ea:	4603      	mov	r3, r0
 80010ec:	607b      	str	r3, [r7, #4]
	   if(i == 0 || current > max)
 80010ee:	68bb      	ldr	r3, [r7, #8]
 80010f0:	2b00      	cmp	r3, #0
 80010f2:	d006      	beq.n	8001102 <max+0x52>
 80010f4:	68f9      	ldr	r1, [r7, #12]
 80010f6:	6878      	ldr	r0, [r7, #4]
 80010f8:	f7ff ffb0 	bl	800105c <__aeabi_fcmpgt>
 80010fc:	4603      	mov	r3, r0
 80010fe:	2b00      	cmp	r3, #0
 8001100:	d001      	beq.n	8001106 <max+0x56>
	   {
		   max = current;
 8001102:	687b      	ldr	r3, [r7, #4]
 8001104:	60fb      	str	r3, [r7, #12]
   for(int i = 0; i < num_args; i++)
 8001106:	68bb      	ldr	r3, [r7, #8]
 8001108:	3301      	adds	r3, #1
 800110a:	60bb      	str	r3, [r7, #8]
 800110c:	68ba      	ldr	r2, [r7, #8]
 800110e:	69bb      	ldr	r3, [r7, #24]
 8001110:	429a      	cmp	r2, r3
 8001112:	dbd7      	blt.n	80010c4 <max+0x14>
	   }
   }
   va_end(ap);

   return max;
 8001114:	68fb      	ldr	r3, [r7, #12]
}
 8001116:	4618      	mov	r0, r3
 8001118:	3710      	adds	r7, #16
 800111a:	46bd      	mov	sp, r7
 800111c:	e8bd 4080 	ldmia.w	sp!, {r7, lr}
 8001120:	b004      	add	sp, #16
 8001122:	4770      	bx	lr
 8001124:	33d6bf95 	.word	0x33d6bf95

08001128 <min>:
float min(float a, float b) {
 8001128:	b580      	push	{r7, lr}
 800112a:	b082      	sub	sp, #8
 800112c:	af00      	add	r7, sp, #0
 800112e:	6078      	str	r0, [r7, #4]
 8001130:	6039      	str	r1, [r7, #0]
	return (a <= b) ? a : b;
 8001132:	6839      	ldr	r1, [r7, #0]
 8001134:	6878      	ldr	r0, [r7, #4]
 8001136:	f7ff ff7d 	bl	8001034 <__aeabi_fcmple>
 800113a:	4603      	mov	r3, r0
 800113c:	2b00      	cmp	r3, #0
 800113e:	d001      	beq.n	8001144 <min+0x1c>
 8001140:	687b      	ldr	r3, [r7, #4]
 8001142:	e000      	b.n	8001146 <min+0x1e>
 8001144:	683b      	ldr	r3, [r7, #0]
}
 8001146:	4618      	mov	r0, r3
 8001148:	3708      	adds	r7, #8
 800114a:	46bd      	mov	sp, r7
 800114c:	bd80      	pop	{r7, pc}

0800114e <mfTriang>:
//float max(float a, float b) {
//	return (a >= b) ? a : b;
//}


float mfTriang(float x, float a, float b, float c) {
 800114e:	b590      	push	{r4, r7, lr}
 8001150:	b087      	sub	sp, #28
 8001152:	af00      	add	r7, sp, #0
 8001154:	60f8      	str	r0, [r7, #12]
 8001156:	60b9      	str	r1, [r7, #8]
 8001158:	607a      	str	r2, [r7, #4]
 800115a:	603b      	str	r3, [r7, #0]
  float out_tri;

  if (x < a) {
 800115c:	68b9      	ldr	r1, [r7, #8]
 800115e:	68f8      	ldr	r0, [r7, #12]
 8001160:	f7ff ff5e 	bl	8001020 <__aeabi_fcmplt>
 8001164:	4603      	mov	r3, r0
 8001166:	2b00      	cmp	r3, #0
 8001168:	d003      	beq.n	8001172 <mfTriang+0x24>
	  out_tri = 0;
 800116a:	f04f 0300 	mov.w	r3, #0
 800116e:	617b      	str	r3, [r7, #20]
 8001170:	e042      	b.n	80011f8 <mfTriang+0xaa>
  } else if ((x >= a) && (x <= b)) {
 8001172:	68b9      	ldr	r1, [r7, #8]
 8001174:	68f8      	ldr	r0, [r7, #12]
 8001176:	f7ff ff67 	bl	8001048 <__aeabi_fcmpge>
 800117a:	4603      	mov	r3, r0
 800117c:	2b00      	cmp	r3, #0
 800117e:	d018      	beq.n	80011b2 <mfTriang+0x64>
 8001180:	6879      	ldr	r1, [r7, #4]
 8001182:	68f8      	ldr	r0, [r7, #12]
 8001184:	f7ff ff56 	bl	8001034 <__aeabi_fcmple>
 8001188:	4603      	mov	r3, r0
 800118a:	2b00      	cmp	r3, #0
 800118c:	d011      	beq.n	80011b2 <mfTriang+0x64>
	  out_tri = (x - a) / (b - a);
 800118e:	68b9      	ldr	r1, [r7, #8]
 8001190:	68f8      	ldr	r0, [r7, #12]
 8001192:	f7ff fc9d 	bl	8000ad0 <__aeabi_fsub>
 8001196:	4603      	mov	r3, r0
 8001198:	461c      	mov	r4, r3
 800119a:	68b9      	ldr	r1, [r7, #8]
 800119c:	6878      	ldr	r0, [r7, #4]
 800119e:	f7ff fc97 	bl	8000ad0 <__aeabi_fsub>
 80011a2:	4603      	mov	r3, r0
 80011a4:	4619      	mov	r1, r3
 80011a6:	4620      	mov	r0, r4
 80011a8:	f7ff fe50 	bl	8000e4c <__aeabi_fdiv>
 80011ac:	4603      	mov	r3, r0
 80011ae:	617b      	str	r3, [r7, #20]
 80011b0:	e022      	b.n	80011f8 <mfTriang+0xaa>
  } else if ((x >= b) && (x <= c)) {
 80011b2:	6879      	ldr	r1, [r7, #4]
 80011b4:	68f8      	ldr	r0, [r7, #12]
 80011b6:	f7ff ff47 	bl	8001048 <__aeabi_fcmpge>
 80011ba:	4603      	mov	r3, r0
 80011bc:	2b00      	cmp	r3, #0
 80011be:	d018      	beq.n	80011f2 <mfTriang+0xa4>
 80011c0:	6839      	ldr	r1, [r7, #0]
 80011c2:	68f8      	ldr	r0, [r7, #12]
 80011c4:	f7ff ff36 	bl	8001034 <__aeabi_fcmple>
 80011c8:	4603      	mov	r3, r0
 80011ca:	2b00      	cmp	r3, #0
 80011cc:	d011      	beq.n	80011f2 <mfTriang+0xa4>
	  out_tri = (c - x) / (c - b);
 80011ce:	68f9      	ldr	r1, [r7, #12]
 80011d0:	6838      	ldr	r0, [r7, #0]
 80011d2:	f7ff fc7d 	bl	8000ad0 <__aeabi_fsub>
 80011d6:	4603      	mov	r3, r0
 80011d8:	461c      	mov	r4, r3
 80011da:	6879      	ldr	r1, [r7, #4]
 80011dc:	6838      	ldr	r0, [r7, #0]
 80011de:	f7ff fc77 	bl	8000ad0 <__aeabi_fsub>
 80011e2:	4603      	mov	r3, r0
 80011e4:	4619      	mov	r1, r3
 80011e6:	4620      	mov	r0, r4
 80011e8:	f7ff fe30 	bl	8000e4c <__aeabi_fdiv>
 80011ec:	4603      	mov	r3, r0
 80011ee:	617b      	str	r3, [r7, #20]
 80011f0:	e002      	b.n	80011f8 <mfTriang+0xaa>
  } else {
	  out_tri = 0;
 80011f2:	f04f 0300 	mov.w	r3, #0
 80011f6:	617b      	str	r3, [r7, #20]
  }

  return out_tri;
 80011f8:	697b      	ldr	r3, [r7, #20]
}
 80011fa:	4618      	mov	r0, r3
 80011fc:	371c      	adds	r7, #28
 80011fe:	46bd      	mov	sp, r7
 8001200:	bd90      	pop	{r4, r7, pc}

08001202 <mfTrap>:

float mfTrap(float x, float a, float b, float c, float d) {
 8001202:	b590      	push	{r4, r7, lr}
 8001204:	b087      	sub	sp, #28
 8001206:	af00      	add	r7, sp, #0
 8001208:	60f8      	str	r0, [r7, #12]
 800120a:	60b9      	str	r1, [r7, #8]
 800120c:	607a      	str	r2, [r7, #4]
 800120e:	603b      	str	r3, [r7, #0]
  float out_trap;

  if (x < a) {
 8001210:	68b9      	ldr	r1, [r7, #8]
 8001212:	68f8      	ldr	r0, [r7, #12]
 8001214:	f7ff ff04 	bl	8001020 <__aeabi_fcmplt>
 8001218:	4603      	mov	r3, r0
 800121a:	2b00      	cmp	r3, #0
 800121c:	d003      	beq.n	8001226 <mfTrap+0x24>
	  out_trap = 0;
 800121e:	f04f 0300 	mov.w	r3, #0
 8001222:	617b      	str	r3, [r7, #20]
 8001224:	e06a      	b.n	80012fc <mfTrap+0xfa>
  } else if ((x >= a) && (x <= b)) {
 8001226:	68b9      	ldr	r1, [r7, #8]
 8001228:	68f8      	ldr	r0, [r7, #12]
 800122a:	f7ff ff0d 	bl	8001048 <__aeabi_fcmpge>
 800122e:	4603      	mov	r3, r0
 8001230:	2b00      	cmp	r3, #0
 8001232:	d023      	beq.n	800127c <mfTrap+0x7a>
 8001234:	6879      	ldr	r1, [r7, #4]
 8001236:	68f8      	ldr	r0, [r7, #12]
 8001238:	f7ff fefc 	bl	8001034 <__aeabi_fcmple>
 800123c:	4603      	mov	r3, r0
 800123e:	2b00      	cmp	r3, #0
 8001240:	d01c      	beq.n	800127c <mfTrap+0x7a>
    if (a == b) {
 8001242:	6879      	ldr	r1, [r7, #4]
 8001244:	68b8      	ldr	r0, [r7, #8]
 8001246:	f7ff fee1 	bl	800100c <__aeabi_fcmpeq>
 800124a:	4603      	mov	r3, r0
 800124c:	2b00      	cmp	r3, #0
 800124e:	d003      	beq.n	8001258 <mfTrap+0x56>
    	out_trap = 1;
 8001250:	f04f 537e 	mov.w	r3, #1065353216	@ 0x3f800000
 8001254:	617b      	str	r3, [r7, #20]
    if (a == b) {
 8001256:	e051      	b.n	80012fc <mfTrap+0xfa>
    } else {
    	out_trap = (x - a) / (b - a);
 8001258:	68b9      	ldr	r1, [r7, #8]
 800125a:	68f8      	ldr	r0, [r7, #12]
 800125c:	f7ff fc38 	bl	8000ad0 <__aeabi_fsub>
 8001260:	4603      	mov	r3, r0
 8001262:	461c      	mov	r4, r3
 8001264:	68b9      	ldr	r1, [r7, #8]
 8001266:	6878      	ldr	r0, [r7, #4]
 8001268:	f7ff fc32 	bl	8000ad0 <__aeabi_fsub>
 800126c:	4603      	mov	r3, r0
 800126e:	4619      	mov	r1, r3
 8001270:	4620      	mov	r0, r4
 8001272:	f7ff fdeb 	bl	8000e4c <__aeabi_fdiv>
 8001276:	4603      	mov	r3, r0
 8001278:	617b      	str	r3, [r7, #20]
    if (a == b) {
 800127a:	e03f      	b.n	80012fc <mfTrap+0xfa>
    }
  } else if ((x >= b) && (x <= c)) {
 800127c:	6879      	ldr	r1, [r7, #4]
 800127e:	68f8      	ldr	r0, [r7, #12]
 8001280:	f7ff fee2 	bl	8001048 <__aeabi_fcmpge>
 8001284:	4603      	mov	r3, r0
 8001286:	2b00      	cmp	r3, #0
 8001288:	d00a      	beq.n	80012a0 <mfTrap+0x9e>
 800128a:	6839      	ldr	r1, [r7, #0]
 800128c:	68f8      	ldr	r0, [r7, #12]
 800128e:	f7ff fed1 	bl	8001034 <__aeabi_fcmple>
 8001292:	4603      	mov	r3, r0
 8001294:	2b00      	cmp	r3, #0
 8001296:	d003      	beq.n	80012a0 <mfTrap+0x9e>
	  out_trap = 1;
 8001298:	f04f 537e 	mov.w	r3, #1065353216	@ 0x3f800000
 800129c:	617b      	str	r3, [r7, #20]
 800129e:	e02d      	b.n	80012fc <mfTrap+0xfa>
  } else if ((x >= c) && (x <= d)) {
 80012a0:	6839      	ldr	r1, [r7, #0]
 80012a2:	68f8      	ldr	r0, [r7, #12]
 80012a4:	f7ff fed0 	bl	8001048 <__aeabi_fcmpge>
 80012a8:	4603      	mov	r3, r0
 80012aa:	2b00      	cmp	r3, #0
 80012ac:	d023      	beq.n	80012f6 <mfTrap+0xf4>
 80012ae:	6ab9      	ldr	r1, [r7, #40]	@ 0x28
 80012b0:	68f8      	ldr	r0, [r7, #12]
 80012b2:	f7ff febf 	bl	8001034 <__aeabi_fcmple>
 80012b6:	4603      	mov	r3, r0
 80012b8:	2b00      	cmp	r3, #0
 80012ba:	d01c      	beq.n	80012f6 <mfTrap+0xf4>
    if (c == d) {
 80012bc:	6ab9      	ldr	r1, [r7, #40]	@ 0x28
 80012be:	6838      	ldr	r0, [r7, #0]
 80012c0:	f7ff fea4 	bl	800100c <__aeabi_fcmpeq>
 80012c4:	4603      	mov	r3, r0
 80012c6:	2b00      	cmp	r3, #0
 80012c8:	d003      	beq.n	80012d2 <mfTrap+0xd0>
    	out_trap = 1;
 80012ca:	f04f 537e 	mov.w	r3, #1065353216	@ 0x3f800000
 80012ce:	617b      	str	r3, [r7, #20]
    if (c == d) {
 80012d0:	e014      	b.n	80012fc <mfTrap+0xfa>
    } else {
    	out_trap = (d - x) / (d - c);
 80012d2:	68f9      	ldr	r1, [r7, #12]
 80012d4:	6ab8      	ldr	r0, [r7, #40]	@ 0x28
 80012d6:	f7ff fbfb 	bl	8000ad0 <__aeabi_fsub>
 80012da:	4603      	mov	r3, r0
 80012dc:	461c      	mov	r4, r3
 80012de:	6839      	ldr	r1, [r7, #0]
 80012e0:	6ab8      	ldr	r0, [r7, #40]	@ 0x28
 80012e2:	f7ff fbf5 	bl	8000ad0 <__aeabi_fsub>
 80012e6:	4603      	mov	r3, r0
 80012e8:	4619      	mov	r1, r3
 80012ea:	4620      	mov	r0, r4
 80012ec:	f7ff fdae 	bl	8000e4c <__aeabi_fdiv>
 80012f0:	4603      	mov	r3, r0
 80012f2:	617b      	str	r3, [r7, #20]
    if (c == d) {
 80012f4:	e002      	b.n	80012fc <mfTrap+0xfa>
    }
  } else {
	  out_trap = 0;
 80012f6:	f04f 0300 	mov.w	r3, #0
 80012fa:	617b      	str	r3, [r7, #20]
  }

  return out_trap;
 80012fc:	697b      	ldr	r3, [r7, #20]
}
 80012fe:	4618      	mov	r0, r3
 8001300:	371c      	adds	r7, #28
 8001302:	46bd      	mov	sp, r7
 8001304:	bd90      	pop	{r4, r7, pc}
	...

08001308 <run_fuzzy>:

float run_fuzzy(float x1, float x2) {
 8001308:	e92d 4ff0 	stmdb	sp!, {r4, r5, r6, r7, r8, r9, sl, fp, lr}
 800130c:	b0bb      	sub	sp, #236	@ 0xec
 800130e:	af08      	add	r7, sp, #32
 8001310:	60f8      	str	r0, [r7, #12]
 8001312:	60b9      	str	r1, [r7, #8]
//  theta.NB = mfTrap(x1, -5.0f, -1.0f, -c1, -c2 + 0.25); // ve hinh dinh nghia cac gia tri ngon ngu cua bien NB,NS,... (theta)
//  theta.NS = mfTrap(x1, -c1, -c2 + 0.25, -c3 +0.25, 0);
//  theta.ZE = mfTrap(x1, -c2 + 0.25, -c3 + 0.25, c3 - 0.28, c2 - 0.25);
//  theta.PS = mfTrap(x1, 0, c3 - 0.28, c2 - 0.25, c1 - 0.14);
//  theta.PB = mfTrap(x1, c2 - 0.25, c1 -0.14, 1.0f, 5.0f);
  c1 = 0.5f;
 8001314:	4ba8      	ldr	r3, [pc, #672]	@ (80015b8 <run_fuzzy+0x2b0>)
 8001316:	f04f 527c 	mov.w	r2, #1056964608	@ 0x3f000000
 800131a:	601a      	str	r2, [r3, #0]
  c2 = 0.25f;
 800131c:	4ba7      	ldr	r3, [pc, #668]	@ (80015bc <run_fuzzy+0x2b4>)
 800131e:	f04f 527a 	mov.w	r2, #1048576000	@ 0x3e800000
 8001322:	601a      	str	r2, [r3, #0]
  c3 = 0.07f;
 8001324:	4ba6      	ldr	r3, [pc, #664]	@ (80015c0 <run_fuzzy+0x2b8>)
 8001326:	4aa7      	ldr	r2, [pc, #668]	@ (80015c4 <run_fuzzy+0x2bc>)
 8001328:	601a      	str	r2, [r3, #0]

  theta.NB = mfTrap(x1, -5.0f, -1.0f, -c1, -c2 ); // ve hinh dinh nghia cac gia tri ngon ngu cua bien NB,NS,... (theta)
 800132a:	4ba3      	ldr	r3, [pc, #652]	@ (80015b8 <run_fuzzy+0x2b0>)
 800132c:	681b      	ldr	r3, [r3, #0]
 800132e:	f083 4200 	eor.w	r2, r3, #2147483648	@ 0x80000000
 8001332:	4ba2      	ldr	r3, [pc, #648]	@ (80015bc <run_fuzzy+0x2b4>)
 8001334:	681b      	ldr	r3, [r3, #0]
 8001336:	f083 4300 	eor.w	r3, r3, #2147483648	@ 0x80000000
 800133a:	9300      	str	r3, [sp, #0]
 800133c:	4613      	mov	r3, r2
 800133e:	4aa2      	ldr	r2, [pc, #648]	@ (80015c8 <run_fuzzy+0x2c0>)
 8001340:	49a2      	ldr	r1, [pc, #648]	@ (80015cc <run_fuzzy+0x2c4>)
 8001342:	68f8      	ldr	r0, [r7, #12]
 8001344:	f7ff ff5d 	bl	8001202 <mfTrap>
 8001348:	4603      	mov	r3, r0
 800134a:	647b      	str	r3, [r7, #68]	@ 0x44
  theta.NS = mfTrap(x1, -c1, -c2 , -c3 , 0);
 800134c:	4b9a      	ldr	r3, [pc, #616]	@ (80015b8 <run_fuzzy+0x2b0>)
 800134e:	681b      	ldr	r3, [r3, #0]
 8001350:	f083 4100 	eor.w	r1, r3, #2147483648	@ 0x80000000
 8001354:	4b99      	ldr	r3, [pc, #612]	@ (80015bc <run_fuzzy+0x2b4>)
 8001356:	681b      	ldr	r3, [r3, #0]
 8001358:	f083 4200 	eor.w	r2, r3, #2147483648	@ 0x80000000
 800135c:	4b98      	ldr	r3, [pc, #608]	@ (80015c0 <run_fuzzy+0x2b8>)
 800135e:	681b      	ldr	r3, [r3, #0]
 8001360:	f083 4300 	eor.w	r3, r3, #2147483648	@ 0x80000000
 8001364:	f04f 0000 	mov.w	r0, #0
 8001368:	9000      	str	r0, [sp, #0]
 800136a:	68f8      	ldr	r0, [r7, #12]
 800136c:	f7ff ff49 	bl	8001202 <mfTrap>
 8001370:	4603      	mov	r3, r0
 8001372:	64bb      	str	r3, [r7, #72]	@ 0x48
  theta.ZE = mfTrap(x1, -c2 , -c3 , c3 - 0.055, c2 - 0.18);
 8001374:	4b91      	ldr	r3, [pc, #580]	@ (80015bc <run_fuzzy+0x2b4>)
 8001376:	681b      	ldr	r3, [r3, #0]
 8001378:	f083 4400 	eor.w	r4, r3, #2147483648	@ 0x80000000
 800137c:	4b90      	ldr	r3, [pc, #576]	@ (80015c0 <run_fuzzy+0x2b8>)
 800137e:	681b      	ldr	r3, [r3, #0]
 8001380:	f083 4500 	eor.w	r5, r3, #2147483648	@ 0x80000000
 8001384:	4b8e      	ldr	r3, [pc, #568]	@ (80015c0 <run_fuzzy+0x2b8>)
 8001386:	681b      	ldr	r3, [r3, #0]
 8001388:	4618      	mov	r0, r3
 800138a:	f7ff f845 	bl	8000418 <__aeabi_f2d>
 800138e:	a386      	add	r3, pc, #536	@ (adr r3, 80015a8 <run_fuzzy+0x2a0>)
 8001390:	e9d3 2300 	ldrd	r2, r3, [r3]
 8001394:	f7fe fee0 	bl	8000158 <__aeabi_dsub>
 8001398:	4602      	mov	r2, r0
 800139a:	460b      	mov	r3, r1
 800139c:	4610      	mov	r0, r2
 800139e:	4619      	mov	r1, r3
 80013a0:	f7ff fb42 	bl	8000a28 <__aeabi_d2f>
 80013a4:	4606      	mov	r6, r0
 80013a6:	4b85      	ldr	r3, [pc, #532]	@ (80015bc <run_fuzzy+0x2b4>)
 80013a8:	681b      	ldr	r3, [r3, #0]
 80013aa:	4618      	mov	r0, r3
 80013ac:	f7ff f834 	bl	8000418 <__aeabi_f2d>
 80013b0:	a37f      	add	r3, pc, #508	@ (adr r3, 80015b0 <run_fuzzy+0x2a8>)
 80013b2:	e9d3 2300 	ldrd	r2, r3, [r3]
 80013b6:	f7fe fecf 	bl	8000158 <__aeabi_dsub>
 80013ba:	4602      	mov	r2, r0
 80013bc:	460b      	mov	r3, r1
 80013be:	4610      	mov	r0, r2
 80013c0:	4619      	mov	r1, r3
 80013c2:	f7ff fb31 	bl	8000a28 <__aeabi_d2f>
 80013c6:	4603      	mov	r3, r0
 80013c8:	9300      	str	r3, [sp, #0]
 80013ca:	4633      	mov	r3, r6
 80013cc:	462a      	mov	r2, r5
 80013ce:	4621      	mov	r1, r4
 80013d0:	68f8      	ldr	r0, [r7, #12]
 80013d2:	f7ff ff16 	bl	8001202 <mfTrap>
 80013d6:	4603      	mov	r3, r0
 80013d8:	64fb      	str	r3, [r7, #76]	@ 0x4c
  theta.PS = mfTrap(x1, 0, c3 - 0.055, c2 - 0.18, c1 - 0.18);
 80013da:	4b79      	ldr	r3, [pc, #484]	@ (80015c0 <run_fuzzy+0x2b8>)
 80013dc:	681b      	ldr	r3, [r3, #0]
 80013de:	4618      	mov	r0, r3
 80013e0:	f7ff f81a 	bl	8000418 <__aeabi_f2d>
 80013e4:	a370      	add	r3, pc, #448	@ (adr r3, 80015a8 <run_fuzzy+0x2a0>)
 80013e6:	e9d3 2300 	ldrd	r2, r3, [r3]
 80013ea:	f7fe feb5 	bl	8000158 <__aeabi_dsub>
 80013ee:	4602      	mov	r2, r0
 80013f0:	460b      	mov	r3, r1
 80013f2:	4610      	mov	r0, r2
 80013f4:	4619      	mov	r1, r3
 80013f6:	f7ff fb17 	bl	8000a28 <__aeabi_d2f>
 80013fa:	4604      	mov	r4, r0
 80013fc:	4b6f      	ldr	r3, [pc, #444]	@ (80015bc <run_fuzzy+0x2b4>)
 80013fe:	681b      	ldr	r3, [r3, #0]
 8001400:	4618      	mov	r0, r3
 8001402:	f7ff f809 	bl	8000418 <__aeabi_f2d>
 8001406:	a36a      	add	r3, pc, #424	@ (adr r3, 80015b0 <run_fuzzy+0x2a8>)
 8001408:	e9d3 2300 	ldrd	r2, r3, [r3]
 800140c:	f7fe fea4 	bl	8000158 <__aeabi_dsub>
 8001410:	4602      	mov	r2, r0
 8001412:	460b      	mov	r3, r1
 8001414:	4610      	mov	r0, r2
 8001416:	4619      	mov	r1, r3
 8001418:	f7ff fb06 	bl	8000a28 <__aeabi_d2f>
 800141c:	4605      	mov	r5, r0
 800141e:	4b66      	ldr	r3, [pc, #408]	@ (80015b8 <run_fuzzy+0x2b0>)
 8001420:	681b      	ldr	r3, [r3, #0]
 8001422:	4618      	mov	r0, r3
 8001424:	f7fe fff8 	bl	8000418 <__aeabi_f2d>
 8001428:	a361      	add	r3, pc, #388	@ (adr r3, 80015b0 <run_fuzzy+0x2a8>)
 800142a:	e9d3 2300 	ldrd	r2, r3, [r3]
 800142e:	f7fe fe93 	bl	8000158 <__aeabi_dsub>
 8001432:	4602      	mov	r2, r0
 8001434:	460b      	mov	r3, r1
 8001436:	4610      	mov	r0, r2
 8001438:	4619      	mov	r1, r3
 800143a:	f7ff faf5 	bl	8000a28 <__aeabi_d2f>
 800143e:	4603      	mov	r3, r0
 8001440:	9300      	str	r3, [sp, #0]
 8001442:	462b      	mov	r3, r5
 8001444:	4622      	mov	r2, r4
 8001446:	f04f 0100 	mov.w	r1, #0
 800144a:	68f8      	ldr	r0, [r7, #12]
 800144c:	f7ff fed9 	bl	8001202 <mfTrap>
 8001450:	4603      	mov	r3, r0
 8001452:	653b      	str	r3, [r7, #80]	@ 0x50
  theta.PB = mfTrap(x1, c2 - 0.18, c1 - 0.18, 1.0f, 5.0f);
 8001454:	4b59      	ldr	r3, [pc, #356]	@ (80015bc <run_fuzzy+0x2b4>)
 8001456:	681b      	ldr	r3, [r3, #0]
 8001458:	4618      	mov	r0, r3
 800145a:	f7fe ffdd 	bl	8000418 <__aeabi_f2d>
 800145e:	a354      	add	r3, pc, #336	@ (adr r3, 80015b0 <run_fuzzy+0x2a8>)
 8001460:	e9d3 2300 	ldrd	r2, r3, [r3]
 8001464:	f7fe fe78 	bl	8000158 <__aeabi_dsub>
 8001468:	4602      	mov	r2, r0
 800146a:	460b      	mov	r3, r1
 800146c:	4610      	mov	r0, r2
 800146e:	4619      	mov	r1, r3
 8001470:	f7ff fada 	bl	8000a28 <__aeabi_d2f>
 8001474:	4604      	mov	r4, r0
 8001476:	4b50      	ldr	r3, [pc, #320]	@ (80015b8 <run_fuzzy+0x2b0>)
 8001478:	681b      	ldr	r3, [r3, #0]
 800147a:	4618      	mov	r0, r3
 800147c:	f7fe ffcc 	bl	8000418 <__aeabi_f2d>
 8001480:	a34b      	add	r3, pc, #300	@ (adr r3, 80015b0 <run_fuzzy+0x2a8>)
 8001482:	e9d3 2300 	ldrd	r2, r3, [r3]
 8001486:	f7fe fe67 	bl	8000158 <__aeabi_dsub>
 800148a:	4602      	mov	r2, r0
 800148c:	460b      	mov	r3, r1
 800148e:	4610      	mov	r0, r2
 8001490:	4619      	mov	r1, r3
 8001492:	f7ff fac9 	bl	8000a28 <__aeabi_d2f>
 8001496:	4602      	mov	r2, r0
 8001498:	4b4d      	ldr	r3, [pc, #308]	@ (80015d0 <run_fuzzy+0x2c8>)
 800149a:	9300      	str	r3, [sp, #0]
 800149c:	f04f 537e 	mov.w	r3, #1065353216	@ 0x3f800000
 80014a0:	4621      	mov	r1, r4
 80014a2:	68f8      	ldr	r0, [r7, #12]
 80014a4:	f7ff fead 	bl	8001202 <mfTrap>
 80014a8:	4603      	mov	r3, r0
 80014aa:	657b      	str	r3, [r7, #84]	@ 0x54

  // parameters theta_dot
  d1 = 0.18f;
 80014ac:	4b49      	ldr	r3, [pc, #292]	@ (80015d4 <run_fuzzy+0x2cc>)
 80014ae:	4a4a      	ldr	r2, [pc, #296]	@ (80015d8 <run_fuzzy+0x2d0>)
 80014b0:	601a      	str	r2, [r3, #0]
  d2 = 0.12f;
 80014b2:	4b4a      	ldr	r3, [pc, #296]	@ (80015dc <run_fuzzy+0x2d4>)
 80014b4:	4a4a      	ldr	r2, [pc, #296]	@ (80015e0 <run_fuzzy+0x2d8>)
 80014b6:	601a      	str	r2, [r3, #0]
  d3 = 0.07f;
 80014b8:	4b4a      	ldr	r3, [pc, #296]	@ (80015e4 <run_fuzzy+0x2dc>)
 80014ba:	4a42      	ldr	r2, [pc, #264]	@ (80015c4 <run_fuzzy+0x2bc>)
 80014bc:	601a      	str	r2, [r3, #0]

//  theta_dot.NB = mfTriang(x2, -5.0f, -1.0f, -d1); // ve hinh dinh nghia cac gia tri ngon ngu cua bien NB,NS,... (thetadot)
  theta_dot.NB = mfTrap(x1, -5.0f, -1.0f, -d1, -d2);
 80014be:	4b45      	ldr	r3, [pc, #276]	@ (80015d4 <run_fuzzy+0x2cc>)
 80014c0:	681b      	ldr	r3, [r3, #0]
 80014c2:	f083 4200 	eor.w	r2, r3, #2147483648	@ 0x80000000
 80014c6:	4b45      	ldr	r3, [pc, #276]	@ (80015dc <run_fuzzy+0x2d4>)
 80014c8:	681b      	ldr	r3, [r3, #0]
 80014ca:	f083 4300 	eor.w	r3, r3, #2147483648	@ 0x80000000
 80014ce:	9300      	str	r3, [sp, #0]
 80014d0:	4613      	mov	r3, r2
 80014d2:	4a3d      	ldr	r2, [pc, #244]	@ (80015c8 <run_fuzzy+0x2c0>)
 80014d4:	493d      	ldr	r1, [pc, #244]	@ (80015cc <run_fuzzy+0x2c4>)
 80014d6:	68f8      	ldr	r0, [r7, #12]
 80014d8:	f7ff fe93 	bl	8001202 <mfTrap>
 80014dc:	4603      	mov	r3, r0
 80014de:	633b      	str	r3, [r7, #48]	@ 0x30
  theta_dot.NS = mfTriang(x2, -1.0f, -d2, -d3);
 80014e0:	4b3e      	ldr	r3, [pc, #248]	@ (80015dc <run_fuzzy+0x2d4>)
 80014e2:	681b      	ldr	r3, [r3, #0]
 80014e4:	f083 4200 	eor.w	r2, r3, #2147483648	@ 0x80000000
 80014e8:	4b3e      	ldr	r3, [pc, #248]	@ (80015e4 <run_fuzzy+0x2dc>)
 80014ea:	681b      	ldr	r3, [r3, #0]
 80014ec:	f083 4300 	eor.w	r3, r3, #2147483648	@ 0x80000000
 80014f0:	4935      	ldr	r1, [pc, #212]	@ (80015c8 <run_fuzzy+0x2c0>)
 80014f2:	68b8      	ldr	r0, [r7, #8]
 80014f4:	f7ff fe2b 	bl	800114e <mfTriang>
 80014f8:	4603      	mov	r3, r0
 80014fa:	637b      	str	r3, [r7, #52]	@ 0x34
  theta_dot.ZE = mfTriang(x2, -d3, 0, d3);
 80014fc:	4b39      	ldr	r3, [pc, #228]	@ (80015e4 <run_fuzzy+0x2dc>)
 80014fe:	681b      	ldr	r3, [r3, #0]
 8001500:	f083 4100 	eor.w	r1, r3, #2147483648	@ 0x80000000
 8001504:	4b37      	ldr	r3, [pc, #220]	@ (80015e4 <run_fuzzy+0x2dc>)
 8001506:	681b      	ldr	r3, [r3, #0]
 8001508:	f04f 0200 	mov.w	r2, #0
 800150c:	68b8      	ldr	r0, [r7, #8]
 800150e:	f7ff fe1e 	bl	800114e <mfTriang>
 8001512:	4603      	mov	r3, r0
 8001514:	63bb      	str	r3, [r7, #56]	@ 0x38
  theta_dot.PS = mfTriang(x2, d3, d2, 1.0f);
 8001516:	4b33      	ldr	r3, [pc, #204]	@ (80015e4 <run_fuzzy+0x2dc>)
 8001518:	6819      	ldr	r1, [r3, #0]
 800151a:	4b30      	ldr	r3, [pc, #192]	@ (80015dc <run_fuzzy+0x2d4>)
 800151c:	681a      	ldr	r2, [r3, #0]
 800151e:	f04f 537e 	mov.w	r3, #1065353216	@ 0x3f800000
 8001522:	68b8      	ldr	r0, [r7, #8]
 8001524:	f7ff fe13 	bl	800114e <mfTriang>
 8001528:	4603      	mov	r3, r0
 800152a:	63fb      	str	r3, [r7, #60]	@ 0x3c
  theta_dot.PB = mfTrap(x1, d2, d1, 1.0f, 5.0f);
 800152c:	4b2b      	ldr	r3, [pc, #172]	@ (80015dc <run_fuzzy+0x2d4>)
 800152e:	6819      	ldr	r1, [r3, #0]
 8001530:	4b28      	ldr	r3, [pc, #160]	@ (80015d4 <run_fuzzy+0x2cc>)
 8001532:	681a      	ldr	r2, [r3, #0]
 8001534:	4b26      	ldr	r3, [pc, #152]	@ (80015d0 <run_fuzzy+0x2c8>)
 8001536:	9300      	str	r3, [sp, #0]
 8001538:	f04f 537e 	mov.w	r3, #1065353216	@ 0x3f800000
 800153c:	68f8      	ldr	r0, [r7, #12]
 800153e:	f7ff fe60 	bl	8001202 <mfTrap>
 8001542:	4603      	mov	r3, r0
 8001544:	643b      	str	r3, [r7, #64]	@ 0x40
//  theta_dot.PB = mfTriang(x2, d1, 1.0f, 5.0f);

  // calculate uk_fuzzy (-1->1) base on MAX-MIN, "and" => MIN

  r[0] = min(theta.NB, theta_dot.NB); // NB
 8001546:	6c7b      	ldr	r3, [r7, #68]	@ 0x44
 8001548:	6b3a      	ldr	r2, [r7, #48]	@ 0x30
 800154a:	4611      	mov	r1, r2
 800154c:	4618      	mov	r0, r3
 800154e:	f7ff fdeb 	bl	8001128 <min>
 8001552:	4603      	mov	r3, r0
 8001554:	65bb      	str	r3, [r7, #88]	@ 0x58

  r[1] = min(theta.NS, theta_dot.NB); // NB
 8001556:	6cbb      	ldr	r3, [r7, #72]	@ 0x48
 8001558:	6b3a      	ldr	r2, [r7, #48]	@ 0x30
 800155a:	4611      	mov	r1, r2
 800155c:	4618      	mov	r0, r3
 800155e:	f7ff fde3 	bl	8001128 <min>
 8001562:	4603      	mov	r3, r0
 8001564:	65fb      	str	r3, [r7, #92]	@ 0x5c

  r[2] = min(theta.ZE, theta_dot.NB); // NM
 8001566:	6cfb      	ldr	r3, [r7, #76]	@ 0x4c
 8001568:	6b3a      	ldr	r2, [r7, #48]	@ 0x30
 800156a:	4611      	mov	r1, r2
 800156c:	4618      	mov	r0, r3
 800156e:	f7ff fddb 	bl	8001128 <min>
 8001572:	4603      	mov	r3, r0
 8001574:	663b      	str	r3, [r7, #96]	@ 0x60

  r[3] = min(theta.PS, theta_dot.NB); // NS
 8001576:	6d3b      	ldr	r3, [r7, #80]	@ 0x50
 8001578:	6b3a      	ldr	r2, [r7, #48]	@ 0x30
 800157a:	4611      	mov	r1, r2
 800157c:	4618      	mov	r0, r3
 800157e:	f7ff fdd3 	bl	8001128 <min>
 8001582:	4603      	mov	r3, r0
 8001584:	667b      	str	r3, [r7, #100]	@ 0x64

  r[4] = min(theta.PB, theta_dot.NB); // ZE
 8001586:	6d7b      	ldr	r3, [r7, #84]	@ 0x54
 8001588:	6b3a      	ldr	r2, [r7, #48]	@ 0x30
 800158a:	4611      	mov	r1, r2
 800158c:	4618      	mov	r0, r3
 800158e:	f7ff fdcb 	bl	8001128 <min>
 8001592:	4603      	mov	r3, r0
 8001594:	66bb      	str	r3, [r7, #104]	@ 0x68
  //----------------------------------------------
  r[5] = min(theta.NB, theta_dot.NS); // NB
 8001596:	6c7b      	ldr	r3, [r7, #68]	@ 0x44
 8001598:	6b7a      	ldr	r2, [r7, #52]	@ 0x34
 800159a:	4611      	mov	r1, r2
 800159c:	4618      	mov	r0, r3
 800159e:	f7ff fdc3 	bl	8001128 <min>
 80015a2:	e021      	b.n	80015e8 <run_fuzzy+0x2e0>
 80015a4:	f3af 8000 	nop.w
 80015a8:	c28f5c29 	.word	0xc28f5c29
 80015ac:	3fac28f5 	.word	0x3fac28f5
 80015b0:	70a3d70a 	.word	0x70a3d70a
 80015b4:	3fc70a3d 	.word	0x3fc70a3d
 80015b8:	2000011c 	.word	0x2000011c
 80015bc:	20000120 	.word	0x20000120
 80015c0:	20000124 	.word	0x20000124
 80015c4:	3d8f5c29 	.word	0x3d8f5c29
 80015c8:	bf800000 	.word	0xbf800000
 80015cc:	c0a00000 	.word	0xc0a00000
 80015d0:	40a00000 	.word	0x40a00000
 80015d4:	20000128 	.word	0x20000128
 80015d8:	3e3851ec 	.word	0x3e3851ec
 80015dc:	2000012c 	.word	0x2000012c
 80015e0:	3df5c28f 	.word	0x3df5c28f
 80015e4:	20000130 	.word	0x20000130
 80015e8:	4603      	mov	r3, r0
 80015ea:	66fb      	str	r3, [r7, #108]	@ 0x6c

  r[6] = min(theta.NS, theta_dot.NS); // NM
 80015ec:	6cbb      	ldr	r3, [r7, #72]	@ 0x48
 80015ee:	6b7a      	ldr	r2, [r7, #52]	@ 0x34
 80015f0:	4611      	mov	r1, r2
 80015f2:	4618      	mov	r0, r3
 80015f4:	f7ff fd98 	bl	8001128 <min>
 80015f8:	4603      	mov	r3, r0
 80015fa:	673b      	str	r3, [r7, #112]	@ 0x70

  r[7] = min(theta.ZE, theta_dot.NS); // NS
 80015fc:	6cfb      	ldr	r3, [r7, #76]	@ 0x4c
 80015fe:	6b7a      	ldr	r2, [r7, #52]	@ 0x34
 8001600:	4611      	mov	r1, r2
 8001602:	4618      	mov	r0, r3
 8001604:	f7ff fd90 	bl	8001128 <min>
 8001608:	4603      	mov	r3, r0
 800160a:	677b      	str	r3, [r7, #116]	@ 0x74

  r[8] = min(theta.PS, theta_dot.NS); // ZE
 800160c:	6d3b      	ldr	r3, [r7, #80]	@ 0x50
 800160e:	6b7a      	ldr	r2, [r7, #52]	@ 0x34
 8001610:	4611      	mov	r1, r2
 8001612:	4618      	mov	r0, r3
 8001614:	f7ff fd88 	bl	8001128 <min>
 8001618:	4603      	mov	r3, r0
 800161a:	67bb      	str	r3, [r7, #120]	@ 0x78

  r[9] = min(theta.PB, theta_dot.NS); // PS
 800161c:	6d7b      	ldr	r3, [r7, #84]	@ 0x54
 800161e:	6b7a      	ldr	r2, [r7, #52]	@ 0x34
 8001620:	4611      	mov	r1, r2
 8001622:	4618      	mov	r0, r3
 8001624:	f7ff fd80 	bl	8001128 <min>
 8001628:	4603      	mov	r3, r0
 800162a:	67fb      	str	r3, [r7, #124]	@ 0x7c
  //----------------------------------------------
  r[10] = min(theta.NB, theta_dot.ZE); // NM
 800162c:	6c7b      	ldr	r3, [r7, #68]	@ 0x44
 800162e:	6bba      	ldr	r2, [r7, #56]	@ 0x38
 8001630:	4611      	mov	r1, r2
 8001632:	4618      	mov	r0, r3
 8001634:	f7ff fd78 	bl	8001128 <min>
 8001638:	4603      	mov	r3, r0
 800163a:	f8c7 3080 	str.w	r3, [r7, #128]	@ 0x80

  r[11] = min(theta.NS, theta_dot.ZE); // NS
 800163e:	6cbb      	ldr	r3, [r7, #72]	@ 0x48
 8001640:	6bba      	ldr	r2, [r7, #56]	@ 0x38
 8001642:	4611      	mov	r1, r2
 8001644:	4618      	mov	r0, r3
 8001646:	f7ff fd6f 	bl	8001128 <min>
 800164a:	4603      	mov	r3, r0
 800164c:	f8c7 3084 	str.w	r3, [r7, #132]	@ 0x84

  r[12] = min(theta.ZE, theta_dot.ZE); // ZE
 8001650:	6cfb      	ldr	r3, [r7, #76]	@ 0x4c
 8001652:	6bba      	ldr	r2, [r7, #56]	@ 0x38
 8001654:	4611      	mov	r1, r2
 8001656:	4618      	mov	r0, r3
 8001658:	f7ff fd66 	bl	8001128 <min>
 800165c:	4603      	mov	r3, r0
 800165e:	f8c7 3088 	str.w	r3, [r7, #136]	@ 0x88

  r[13] = min(theta.PS, theta_dot.ZE); // PS
 8001662:	6d3b      	ldr	r3, [r7, #80]	@ 0x50
 8001664:	6bba      	ldr	r2, [r7, #56]	@ 0x38
 8001666:	4611      	mov	r1, r2
 8001668:	4618      	mov	r0, r3
 800166a:	f7ff fd5d 	bl	8001128 <min>
 800166e:	4603      	mov	r3, r0
 8001670:	f8c7 308c 	str.w	r3, [r7, #140]	@ 0x8c

  r[14] = min(theta.PB, theta_dot.ZE); // PM
 8001674:	6d7b      	ldr	r3, [r7, #84]	@ 0x54
 8001676:	6bba      	ldr	r2, [r7, #56]	@ 0x38
 8001678:	4611      	mov	r1, r2
 800167a:	4618      	mov	r0, r3
 800167c:	f7ff fd54 	bl	8001128 <min>
 8001680:	4603      	mov	r3, r0
 8001682:	f8c7 3090 	str.w	r3, [r7, #144]	@ 0x90
  //----------------------------------------------
  r[15] = min(theta.NB, theta_dot.PS); // NS
 8001686:	6c7b      	ldr	r3, [r7, #68]	@ 0x44
 8001688:	6bfa      	ldr	r2, [r7, #60]	@ 0x3c
 800168a:	4611      	mov	r1, r2
 800168c:	4618      	mov	r0, r3
 800168e:	f7ff fd4b 	bl	8001128 <min>
 8001692:	4603      	mov	r3, r0
 8001694:	f8c7 3094 	str.w	r3, [r7, #148]	@ 0x94

  r[16] = min(theta.NS, theta_dot.PS); // ZE
 8001698:	6cbb      	ldr	r3, [r7, #72]	@ 0x48
 800169a:	6bfa      	ldr	r2, [r7, #60]	@ 0x3c
 800169c:	4611      	mov	r1, r2
 800169e:	4618      	mov	r0, r3
 80016a0:	f7ff fd42 	bl	8001128 <min>
 80016a4:	4603      	mov	r3, r0
 80016a6:	f8c7 3098 	str.w	r3, [r7, #152]	@ 0x98

  r[17] = min(theta.ZE, theta_dot.PS); // PS
 80016aa:	6cfb      	ldr	r3, [r7, #76]	@ 0x4c
 80016ac:	6bfa      	ldr	r2, [r7, #60]	@ 0x3c
 80016ae:	4611      	mov	r1, r2
 80016b0:	4618      	mov	r0, r3
 80016b2:	f7ff fd39 	bl	8001128 <min>
 80016b6:	4603      	mov	r3, r0
 80016b8:	f8c7 309c 	str.w	r3, [r7, #156]	@ 0x9c

  r[18] = min(theta.PS, theta_dot.PS); // PM
 80016bc:	6d3b      	ldr	r3, [r7, #80]	@ 0x50
 80016be:	6bfa      	ldr	r2, [r7, #60]	@ 0x3c
 80016c0:	4611      	mov	r1, r2
 80016c2:	4618      	mov	r0, r3
 80016c4:	f7ff fd30 	bl	8001128 <min>
 80016c8:	4603      	mov	r3, r0
 80016ca:	f8c7 30a0 	str.w	r3, [r7, #160]	@ 0xa0

  r[19] = min(theta.PB, theta_dot.PS); // PB
 80016ce:	6d7b      	ldr	r3, [r7, #84]	@ 0x54
 80016d0:	6bfa      	ldr	r2, [r7, #60]	@ 0x3c
 80016d2:	4611      	mov	r1, r2
 80016d4:	4618      	mov	r0, r3
 80016d6:	f7ff fd27 	bl	8001128 <min>
 80016da:	4603      	mov	r3, r0
 80016dc:	f8c7 30a4 	str.w	r3, [r7, #164]	@ 0xa4
  //----------------------------------------------
  r[20] = min(theta.NB, theta_dot.PB); // ZE
 80016e0:	6c7b      	ldr	r3, [r7, #68]	@ 0x44
 80016e2:	6c3a      	ldr	r2, [r7, #64]	@ 0x40
 80016e4:	4611      	mov	r1, r2
 80016e6:	4618      	mov	r0, r3
 80016e8:	f7ff fd1e 	bl	8001128 <min>
 80016ec:	4603      	mov	r3, r0
 80016ee:	f8c7 30a8 	str.w	r3, [r7, #168]	@ 0xa8

  r[21] = min(theta.NS, theta_dot.PB); // PS
 80016f2:	6cbb      	ldr	r3, [r7, #72]	@ 0x48
 80016f4:	6c3a      	ldr	r2, [r7, #64]	@ 0x40
 80016f6:	4611      	mov	r1, r2
 80016f8:	4618      	mov	r0, r3
 80016fa:	f7ff fd15 	bl	8001128 <min>
 80016fe:	4603      	mov	r3, r0
 8001700:	f8c7 30ac 	str.w	r3, [r7, #172]	@ 0xac

  r[22] = min(theta.ZE, theta_dot.PB); // PM
 8001704:	6cfb      	ldr	r3, [r7, #76]	@ 0x4c
 8001706:	6c3a      	ldr	r2, [r7, #64]	@ 0x40
 8001708:	4611      	mov	r1, r2
 800170a:	4618      	mov	r0, r3
 800170c:	f7ff fd0c 	bl	8001128 <min>
 8001710:	4603      	mov	r3, r0
 8001712:	f8c7 30b0 	str.w	r3, [r7, #176]	@ 0xb0

  r[23] = min(theta.PS, theta_dot.PB); // PB
 8001716:	6d3b      	ldr	r3, [r7, #80]	@ 0x50
 8001718:	6c3a      	ldr	r2, [r7, #64]	@ 0x40
 800171a:	4611      	mov	r1, r2
 800171c:	4618      	mov	r0, r3
 800171e:	f7ff fd03 	bl	8001128 <min>
 8001722:	4603      	mov	r3, r0
 8001724:	f8c7 30b4 	str.w	r3, [r7, #180]	@ 0xb4

  r[24] = min(theta.PB, theta_dot.PB); // PB
 8001728:	6d7b      	ldr	r3, [r7, #84]	@ 0x54
 800172a:	6c3a      	ldr	r2, [r7, #64]	@ 0x40
 800172c:	4611      	mov	r1, r2
 800172e:	4618      	mov	r0, r3
 8001730:	f7ff fcfa 	bl	8001128 <min>
 8001734:	4603      	mov	r3, r0
 8001736:	f8c7 30b8 	str.w	r3, [r7, #184]	@ 0xb8
   * ZE: r4 r8 r12 r16 r20
   * PS: r9 r13 r17 r21
   * PM: r14 r18 r22
   * PB: r19 r23 r24
   */
  u_dot.NB = max(3, r[0], r[1], r[5]);
 800173a:	6dbb      	ldr	r3, [r7, #88]	@ 0x58
 800173c:	4618      	mov	r0, r3
 800173e:	f7fe fe6b 	bl	8000418 <__aeabi_f2d>
 8001742:	4680      	mov	r8, r0
 8001744:	4689      	mov	r9, r1
 8001746:	6dfb      	ldr	r3, [r7, #92]	@ 0x5c
 8001748:	4618      	mov	r0, r3
 800174a:	f7fe fe65 	bl	8000418 <__aeabi_f2d>
 800174e:	4604      	mov	r4, r0
 8001750:	460d      	mov	r5, r1
 8001752:	6efb      	ldr	r3, [r7, #108]	@ 0x6c
 8001754:	4618      	mov	r0, r3
 8001756:	f7fe fe5f 	bl	8000418 <__aeabi_f2d>
 800175a:	4602      	mov	r2, r0
 800175c:	460b      	mov	r3, r1
 800175e:	e9cd 2302 	strd	r2, r3, [sp, #8]
 8001762:	e9cd 4500 	strd	r4, r5, [sp]
 8001766:	4642      	mov	r2, r8
 8001768:	464b      	mov	r3, r9
 800176a:	2003      	movs	r0, #3
 800176c:	f7ff fca0 	bl	80010b0 <max>
 8001770:	4603      	mov	r3, r0
 8001772:	617b      	str	r3, [r7, #20]
  u_dot.NM = max(3, r[2], r[6], r[10]);
 8001774:	6e3b      	ldr	r3, [r7, #96]	@ 0x60
 8001776:	4618      	mov	r0, r3
 8001778:	f7fe fe4e 	bl	8000418 <__aeabi_f2d>
 800177c:	4680      	mov	r8, r0
 800177e:	4689      	mov	r9, r1
 8001780:	6f3b      	ldr	r3, [r7, #112]	@ 0x70
 8001782:	4618      	mov	r0, r3
 8001784:	f7fe fe48 	bl	8000418 <__aeabi_f2d>
 8001788:	4604      	mov	r4, r0
 800178a:	460d      	mov	r5, r1
 800178c:	f8d7 3080 	ldr.w	r3, [r7, #128]	@ 0x80
 8001790:	4618      	mov	r0, r3
 8001792:	f7fe fe41 	bl	8000418 <__aeabi_f2d>
 8001796:	4602      	mov	r2, r0
 8001798:	460b      	mov	r3, r1
 800179a:	e9cd 2302 	strd	r2, r3, [sp, #8]
 800179e:	e9cd 4500 	strd	r4, r5, [sp]
 80017a2:	4642      	mov	r2, r8
 80017a4:	464b      	mov	r3, r9
 80017a6:	2003      	movs	r0, #3
 80017a8:	f7ff fc82 	bl	80010b0 <max>
 80017ac:	4603      	mov	r3, r0
 80017ae:	61bb      	str	r3, [r7, #24]
  u_dot.NS = max(4, r[3], r[7], r[11], r[15]);
 80017b0:	6e7b      	ldr	r3, [r7, #100]	@ 0x64
 80017b2:	4618      	mov	r0, r3
 80017b4:	f7fe fe30 	bl	8000418 <__aeabi_f2d>
 80017b8:	4682      	mov	sl, r0
 80017ba:	468b      	mov	fp, r1
 80017bc:	6f7b      	ldr	r3, [r7, #116]	@ 0x74
 80017be:	4618      	mov	r0, r3
 80017c0:	f7fe fe2a 	bl	8000418 <__aeabi_f2d>
 80017c4:	4604      	mov	r4, r0
 80017c6:	460d      	mov	r5, r1
 80017c8:	f8d7 3084 	ldr.w	r3, [r7, #132]	@ 0x84
 80017cc:	4618      	mov	r0, r3
 80017ce:	f7fe fe23 	bl	8000418 <__aeabi_f2d>
 80017d2:	4680      	mov	r8, r0
 80017d4:	4689      	mov	r9, r1
 80017d6:	f8d7 3094 	ldr.w	r3, [r7, #148]	@ 0x94
 80017da:	4618      	mov	r0, r3
 80017dc:	f7fe fe1c 	bl	8000418 <__aeabi_f2d>
 80017e0:	4602      	mov	r2, r0
 80017e2:	460b      	mov	r3, r1
 80017e4:	e9cd 2304 	strd	r2, r3, [sp, #16]
 80017e8:	e9cd 8902 	strd	r8, r9, [sp, #8]
 80017ec:	e9cd 4500 	strd	r4, r5, [sp]
 80017f0:	4652      	mov	r2, sl
 80017f2:	465b      	mov	r3, fp
 80017f4:	2004      	movs	r0, #4
 80017f6:	f7ff fc5b 	bl	80010b0 <max>
 80017fa:	4603      	mov	r3, r0
 80017fc:	61fb      	str	r3, [r7, #28]
  u_dot.ZE = max(5, r[4], r[8], r[12], r[16], r[20]);
 80017fe:	6ebb      	ldr	r3, [r7, #104]	@ 0x68
 8001800:	4618      	mov	r0, r3
 8001802:	f7fe fe09 	bl	8000418 <__aeabi_f2d>
 8001806:	e9c7 0100 	strd	r0, r1, [r7]
 800180a:	6fbb      	ldr	r3, [r7, #120]	@ 0x78
 800180c:	4618      	mov	r0, r3
 800180e:	f7fe fe03 	bl	8000418 <__aeabi_f2d>
 8001812:	4604      	mov	r4, r0
 8001814:	460d      	mov	r5, r1
 8001816:	f8d7 3088 	ldr.w	r3, [r7, #136]	@ 0x88
 800181a:	4618      	mov	r0, r3
 800181c:	f7fe fdfc 	bl	8000418 <__aeabi_f2d>
 8001820:	4680      	mov	r8, r0
 8001822:	4689      	mov	r9, r1
 8001824:	f8d7 3098 	ldr.w	r3, [r7, #152]	@ 0x98
 8001828:	4618      	mov	r0, r3
 800182a:	f7fe fdf5 	bl	8000418 <__aeabi_f2d>
 800182e:	4682      	mov	sl, r0
 8001830:	468b      	mov	fp, r1
 8001832:	f8d7 30a8 	ldr.w	r3, [r7, #168]	@ 0xa8
 8001836:	4618      	mov	r0, r3
 8001838:	f7fe fdee 	bl	8000418 <__aeabi_f2d>
 800183c:	4602      	mov	r2, r0
 800183e:	460b      	mov	r3, r1
 8001840:	e9cd 2306 	strd	r2, r3, [sp, #24]
 8001844:	e9cd ab04 	strd	sl, fp, [sp, #16]
 8001848:	e9cd 8902 	strd	r8, r9, [sp, #8]
 800184c:	e9cd 4500 	strd	r4, r5, [sp]
 8001850:	e9d7 2300 	ldrd	r2, r3, [r7]
 8001854:	2005      	movs	r0, #5
 8001856:	f7ff fc2b 	bl	80010b0 <max>
 800185a:	4603      	mov	r3, r0
 800185c:	623b      	str	r3, [r7, #32]
  u_dot.PS = max(4, r[9], r[13], r[17], r[21]);
 800185e:	6ffb      	ldr	r3, [r7, #124]	@ 0x7c
 8001860:	4618      	mov	r0, r3
 8001862:	f7fe fdd9 	bl	8000418 <__aeabi_f2d>
 8001866:	4682      	mov	sl, r0
 8001868:	468b      	mov	fp, r1
 800186a:	f8d7 308c 	ldr.w	r3, [r7, #140]	@ 0x8c
 800186e:	4618      	mov	r0, r3
 8001870:	f7fe fdd2 	bl	8000418 <__aeabi_f2d>
 8001874:	4604      	mov	r4, r0
 8001876:	460d      	mov	r5, r1
 8001878:	f8d7 309c 	ldr.w	r3, [r7, #156]	@ 0x9c
 800187c:	4618      	mov	r0, r3
 800187e:	f7fe fdcb 	bl	8000418 <__aeabi_f2d>
 8001882:	4680      	mov	r8, r0
 8001884:	4689      	mov	r9, r1
 8001886:	f8d7 30ac 	ldr.w	r3, [r7, #172]	@ 0xac
 800188a:	4618      	mov	r0, r3
 800188c:	f7fe fdc4 	bl	8000418 <__aeabi_f2d>
 8001890:	4602      	mov	r2, r0
 8001892:	460b      	mov	r3, r1
 8001894:	e9cd 2304 	strd	r2, r3, [sp, #16]
 8001898:	e9cd 8902 	strd	r8, r9, [sp, #8]
 800189c:	e9cd 4500 	strd	r4, r5, [sp]
 80018a0:	4652      	mov	r2, sl
 80018a2:	465b      	mov	r3, fp
 80018a4:	2004      	movs	r0, #4
 80018a6:	f7ff fc03 	bl	80010b0 <max>
 80018aa:	4603      	mov	r3, r0
 80018ac:	627b      	str	r3, [r7, #36]	@ 0x24
  u_dot.PM = max(3, r[14], r[18], r[22]);
 80018ae:	f8d7 3090 	ldr.w	r3, [r7, #144]	@ 0x90
 80018b2:	4618      	mov	r0, r3
 80018b4:	f7fe fdb0 	bl	8000418 <__aeabi_f2d>
 80018b8:	4680      	mov	r8, r0
 80018ba:	4689      	mov	r9, r1
 80018bc:	f8d7 30a0 	ldr.w	r3, [r7, #160]	@ 0xa0
 80018c0:	4618      	mov	r0, r3
 80018c2:	f7fe fda9 	bl	8000418 <__aeabi_f2d>
 80018c6:	4604      	mov	r4, r0
 80018c8:	460d      	mov	r5, r1
 80018ca:	f8d7 30b0 	ldr.w	r3, [r7, #176]	@ 0xb0
 80018ce:	4618      	mov	r0, r3
 80018d0:	f7fe fda2 	bl	8000418 <__aeabi_f2d>
 80018d4:	4602      	mov	r2, r0
 80018d6:	460b      	mov	r3, r1
 80018d8:	e9cd 2302 	strd	r2, r3, [sp, #8]
 80018dc:	e9cd 4500 	strd	r4, r5, [sp]
 80018e0:	4642      	mov	r2, r8
 80018e2:	464b      	mov	r3, r9
 80018e4:	2003      	movs	r0, #3
 80018e6:	f7ff fbe3 	bl	80010b0 <max>
 80018ea:	4603      	mov	r3, r0
 80018ec:	62bb      	str	r3, [r7, #40]	@ 0x28
  u_dot.PB = max(3, r[19], r[23], r[24]);
 80018ee:	f8d7 30a4 	ldr.w	r3, [r7, #164]	@ 0xa4
 80018f2:	4618      	mov	r0, r3
 80018f4:	f7fe fd90 	bl	8000418 <__aeabi_f2d>
 80018f8:	4680      	mov	r8, r0
 80018fa:	4689      	mov	r9, r1
 80018fc:	f8d7 30b4 	ldr.w	r3, [r7, #180]	@ 0xb4
 8001900:	4618      	mov	r0, r3
 8001902:	f7fe fd89 	bl	8000418 <__aeabi_f2d>
 8001906:	4604      	mov	r4, r0
 8001908:	460d      	mov	r5, r1
 800190a:	f8d7 30b8 	ldr.w	r3, [r7, #184]	@ 0xb8
 800190e:	4618      	mov	r0, r3
 8001910:	f7fe fd82 	bl	8000418 <__aeabi_f2d>
 8001914:	4602      	mov	r2, r0
 8001916:	460b      	mov	r3, r1
 8001918:	e9cd 2302 	strd	r2, r3, [sp, #8]
 800191c:	e9cd 4500 	strd	r4, r5, [sp]
 8001920:	4642      	mov	r2, r8
 8001922:	464b      	mov	r3, r9
 8001924:	2003      	movs	r0, #3
 8001926:	f7ff fbc3 	bl	80010b0 <max>
 800192a:	4603      	mov	r3, r0
 800192c:	62fb      	str	r3, [r7, #44]	@ 0x2c
//	  u_dot.PB = max(max(r[19], r[23]), r[24]);

  // weighted average defuzzification method
  float sum_beta;
  float sum_beta_y;
  u_S = 0.3f;
 800192e:	4b54      	ldr	r3, [pc, #336]	@ (8001a80 <run_fuzzy+0x778>)
 8001930:	4a54      	ldr	r2, [pc, #336]	@ (8001a84 <run_fuzzy+0x77c>)
 8001932:	601a      	str	r2, [r3, #0]
  u_M = 0.62f;
 8001934:	4b54      	ldr	r3, [pc, #336]	@ (8001a88 <run_fuzzy+0x780>)
 8001936:	4a55      	ldr	r2, [pc, #340]	@ (8001a8c <run_fuzzy+0x784>)
 8001938:	601a      	str	r2, [r3, #0]
  u_B = 0.82f;
 800193a:	4b55      	ldr	r3, [pc, #340]	@ (8001a90 <run_fuzzy+0x788>)
 800193c:	4a55      	ldr	r2, [pc, #340]	@ (8001a94 <run_fuzzy+0x78c>)
 800193e:	601a      	str	r2, [r3, #0]
  sum_beta = u_dot.NB + u_dot.NM + u_dot.NS + u_dot.ZE + u_dot.PS + u_dot.PM + u_dot.PB;
 8001940:	697b      	ldr	r3, [r7, #20]
 8001942:	69ba      	ldr	r2, [r7, #24]
 8001944:	4611      	mov	r1, r2
 8001946:	4618      	mov	r0, r3
 8001948:	f7ff f8c4 	bl	8000ad4 <__addsf3>
 800194c:	4603      	mov	r3, r0
 800194e:	461a      	mov	r2, r3
 8001950:	69fb      	ldr	r3, [r7, #28]
 8001952:	4619      	mov	r1, r3
 8001954:	4610      	mov	r0, r2
 8001956:	f7ff f8bd 	bl	8000ad4 <__addsf3>
 800195a:	4603      	mov	r3, r0
 800195c:	461a      	mov	r2, r3
 800195e:	6a3b      	ldr	r3, [r7, #32]
 8001960:	4619      	mov	r1, r3
 8001962:	4610      	mov	r0, r2
 8001964:	f7ff f8b6 	bl	8000ad4 <__addsf3>
 8001968:	4603      	mov	r3, r0
 800196a:	461a      	mov	r2, r3
 800196c:	6a7b      	ldr	r3, [r7, #36]	@ 0x24
 800196e:	4619      	mov	r1, r3
 8001970:	4610      	mov	r0, r2
 8001972:	f7ff f8af 	bl	8000ad4 <__addsf3>
 8001976:	4603      	mov	r3, r0
 8001978:	461a      	mov	r2, r3
 800197a:	6abb      	ldr	r3, [r7, #40]	@ 0x28
 800197c:	4619      	mov	r1, r3
 800197e:	4610      	mov	r0, r2
 8001980:	f7ff f8a8 	bl	8000ad4 <__addsf3>
 8001984:	4603      	mov	r3, r0
 8001986:	461a      	mov	r2, r3
 8001988:	6afb      	ldr	r3, [r7, #44]	@ 0x2c
 800198a:	4619      	mov	r1, r3
 800198c:	4610      	mov	r0, r2
 800198e:	f7ff f8a1 	bl	8000ad4 <__addsf3>
 8001992:	4603      	mov	r3, r0
 8001994:	f8c7 30c4 	str.w	r3, [r7, #196]	@ 0xc4
  sum_beta_y = -u_B * u_dot.NB + -u_M * u_dot.NM + -u_S * u_dot.NS + 0 * u_dot.ZE + u_S * u_dot.PS + u_M * u_dot.PM + u_B * u_dot.PB;
 8001998:	4b3d      	ldr	r3, [pc, #244]	@ (8001a90 <run_fuzzy+0x788>)
 800199a:	681b      	ldr	r3, [r3, #0]
 800199c:	f083 4300 	eor.w	r3, r3, #2147483648	@ 0x80000000
 80019a0:	697a      	ldr	r2, [r7, #20]
 80019a2:	4611      	mov	r1, r2
 80019a4:	4618      	mov	r0, r3
 80019a6:	f7ff f99d 	bl	8000ce4 <__aeabi_fmul>
 80019aa:	4603      	mov	r3, r0
 80019ac:	461c      	mov	r4, r3
 80019ae:	4b36      	ldr	r3, [pc, #216]	@ (8001a88 <run_fuzzy+0x780>)
 80019b0:	681b      	ldr	r3, [r3, #0]
 80019b2:	f083 4300 	eor.w	r3, r3, #2147483648	@ 0x80000000
 80019b6:	69ba      	ldr	r2, [r7, #24]
 80019b8:	4611      	mov	r1, r2
 80019ba:	4618      	mov	r0, r3
 80019bc:	f7ff f992 	bl	8000ce4 <__aeabi_fmul>
 80019c0:	4603      	mov	r3, r0
 80019c2:	4619      	mov	r1, r3
 80019c4:	4620      	mov	r0, r4
 80019c6:	f7ff f885 	bl	8000ad4 <__addsf3>
 80019ca:	4603      	mov	r3, r0
 80019cc:	461c      	mov	r4, r3
 80019ce:	4b2c      	ldr	r3, [pc, #176]	@ (8001a80 <run_fuzzy+0x778>)
 80019d0:	681b      	ldr	r3, [r3, #0]
 80019d2:	f083 4300 	eor.w	r3, r3, #2147483648	@ 0x80000000
 80019d6:	69fa      	ldr	r2, [r7, #28]
 80019d8:	4611      	mov	r1, r2
 80019da:	4618      	mov	r0, r3
 80019dc:	f7ff f982 	bl	8000ce4 <__aeabi_fmul>
 80019e0:	4603      	mov	r3, r0
 80019e2:	4619      	mov	r1, r3
 80019e4:	4620      	mov	r0, r4
 80019e6:	f7ff f875 	bl	8000ad4 <__addsf3>
 80019ea:	4603      	mov	r3, r0
 80019ec:	461c      	mov	r4, r3
 80019ee:	6a3b      	ldr	r3, [r7, #32]
 80019f0:	f04f 0100 	mov.w	r1, #0
 80019f4:	4618      	mov	r0, r3
 80019f6:	f7ff f975 	bl	8000ce4 <__aeabi_fmul>
 80019fa:	4603      	mov	r3, r0
 80019fc:	4619      	mov	r1, r3
 80019fe:	4620      	mov	r0, r4
 8001a00:	f7ff f868 	bl	8000ad4 <__addsf3>
 8001a04:	4603      	mov	r3, r0
 8001a06:	461c      	mov	r4, r3
 8001a08:	6a7b      	ldr	r3, [r7, #36]	@ 0x24
 8001a0a:	4a1d      	ldr	r2, [pc, #116]	@ (8001a80 <run_fuzzy+0x778>)
 8001a0c:	6812      	ldr	r2, [r2, #0]
 8001a0e:	4611      	mov	r1, r2
 8001a10:	4618      	mov	r0, r3
 8001a12:	f7ff f967 	bl	8000ce4 <__aeabi_fmul>
 8001a16:	4603      	mov	r3, r0
 8001a18:	4619      	mov	r1, r3
 8001a1a:	4620      	mov	r0, r4
 8001a1c:	f7ff f85a 	bl	8000ad4 <__addsf3>
 8001a20:	4603      	mov	r3, r0
 8001a22:	461c      	mov	r4, r3
 8001a24:	6abb      	ldr	r3, [r7, #40]	@ 0x28
 8001a26:	4a18      	ldr	r2, [pc, #96]	@ (8001a88 <run_fuzzy+0x780>)
 8001a28:	6812      	ldr	r2, [r2, #0]
 8001a2a:	4611      	mov	r1, r2
 8001a2c:	4618      	mov	r0, r3
 8001a2e:	f7ff f959 	bl	8000ce4 <__aeabi_fmul>
 8001a32:	4603      	mov	r3, r0
 8001a34:	4619      	mov	r1, r3
 8001a36:	4620      	mov	r0, r4
 8001a38:	f7ff f84c 	bl	8000ad4 <__addsf3>
 8001a3c:	4603      	mov	r3, r0
 8001a3e:	461c      	mov	r4, r3
 8001a40:	6afb      	ldr	r3, [r7, #44]	@ 0x2c
 8001a42:	4a13      	ldr	r2, [pc, #76]	@ (8001a90 <run_fuzzy+0x788>)
 8001a44:	6812      	ldr	r2, [r2, #0]
 8001a46:	4611      	mov	r1, r2
 8001a48:	4618      	mov	r0, r3
 8001a4a:	f7ff f94b 	bl	8000ce4 <__aeabi_fmul>
 8001a4e:	4603      	mov	r3, r0
 8001a50:	4619      	mov	r1, r3
 8001a52:	4620      	mov	r0, r4
 8001a54:	f7ff f83e 	bl	8000ad4 <__addsf3>
 8001a58:	4603      	mov	r3, r0
 8001a5a:	f8c7 30c0 	str.w	r3, [r7, #192]	@ 0xc0
  out = sum_beta_y / sum_beta; // Homework3 :>
 8001a5e:	f8d7 10c4 	ldr.w	r1, [r7, #196]	@ 0xc4
 8001a62:	f8d7 00c0 	ldr.w	r0, [r7, #192]	@ 0xc0
 8001a66:	f7ff f9f1 	bl	8000e4c <__aeabi_fdiv>
 8001a6a:	4603      	mov	r3, r0
 8001a6c:	f8c7 30bc 	str.w	r3, [r7, #188]	@ 0xbc

  return out;
 8001a70:	f8d7 30bc 	ldr.w	r3, [r7, #188]	@ 0xbc
}
 8001a74:	4618      	mov	r0, r3
 8001a76:	37cc      	adds	r7, #204	@ 0xcc
 8001a78:	46bd      	mov	sp, r7
 8001a7a:	e8bd 8ff0 	ldmia.w	sp!, {r4, r5, r6, r7, r8, r9, sl, fp, pc}
 8001a7e:	bf00      	nop
 8001a80:	20000134 	.word	0x20000134
 8001a84:	3e99999a 	.word	0x3e99999a
 8001a88:	20000138 	.word	0x20000138
 8001a8c:	3f1eb852 	.word	0x3f1eb852
 8001a90:	2000013c 	.word	0x2000013c
 8001a94:	3f51eb85 	.word	0x3f51eb85

08001a98 <limit_range>:

void limit_range(float *x) {
 8001a98:	b580      	push	{r7, lr}
 8001a9a:	b082      	sub	sp, #8
 8001a9c:	af00      	add	r7, sp, #0
 8001a9e:	6078      	str	r0, [r7, #4]
  if (*x > 1)
 8001aa0:	687b      	ldr	r3, [r7, #4]
 8001aa2:	681b      	ldr	r3, [r3, #0]
 8001aa4:	f04f 517e 	mov.w	r1, #1065353216	@ 0x3f800000
 8001aa8:	4618      	mov	r0, r3
 8001aaa:	f7ff fad7 	bl	800105c <__aeabi_fcmpgt>
 8001aae:	4603      	mov	r3, r0
 8001ab0:	2b00      	cmp	r3, #0
 8001ab2:	d004      	beq.n	8001abe <limit_range+0x26>
    *x = 1;
 8001ab4:	687b      	ldr	r3, [r7, #4]
 8001ab6:	f04f 527e 	mov.w	r2, #1065353216	@ 0x3f800000
 8001aba:	601a      	str	r2, [r3, #0]
  else if (*x < -1)
    *x = -1;
}
 8001abc:	e00c      	b.n	8001ad8 <limit_range+0x40>
  else if (*x < -1)
 8001abe:	687b      	ldr	r3, [r7, #4]
 8001ac0:	681b      	ldr	r3, [r3, #0]
 8001ac2:	4907      	ldr	r1, [pc, #28]	@ (8001ae0 <limit_range+0x48>)
 8001ac4:	4618      	mov	r0, r3
 8001ac6:	f7ff faab 	bl	8001020 <__aeabi_fcmplt>
 8001aca:	4603      	mov	r3, r0
 8001acc:	2b00      	cmp	r3, #0
 8001ace:	d100      	bne.n	8001ad2 <limit_range+0x3a>
}
 8001ad0:	e002      	b.n	8001ad8 <limit_range+0x40>
    *x = -1;
 8001ad2:	687b      	ldr	r3, [r7, #4]
 8001ad4:	4a02      	ldr	r2, [pc, #8]	@ (8001ae0 <limit_range+0x48>)
 8001ad6:	601a      	str	r2, [r3, #0]
}
 8001ad8:	bf00      	nop
 8001ada:	3708      	adds	r7, #8
 8001adc:	46bd      	mov	sp, r7
 8001ade:	bd80      	pop	{r7, pc}
 8001ae0:	bf800000 	.word	0xbf800000

08001ae4 <main>:
/**
  * @brief  The application entry point.
  * @retval int
  */
int main(void)
{
 8001ae4:	b580      	push	{r7, lr}
 8001ae6:	af00      	add	r7, sp, #0
  /* USER CODE END 1 */

  /* MCU Configuration--------------------------------------------------------*/

  /* Reset of all peripherals, Initializes the Flash interface and the Systick. */
  HAL_Init();
 8001ae8:	f001 f956 	bl	8002d98 <HAL_Init>
  /* USER CODE BEGIN Init */

  /* USER CODE END Init */

  /* Configure the system clock */
  SystemClock_Config();
 8001aec:	f000 f810 	bl	8001b10 <SystemClock_Config>
  /* USER CODE BEGIN SysInit */

  /* USER CODE END SysInit */

  /* Initialize all configured peripherals */
  MX_GPIO_Init();
 8001af0:	f000 f9b8 	bl	8001e64 <MX_GPIO_Init>
  MX_TIM3_Init();
 8001af4:	f000 f8ce 	bl	8001c94 <MX_TIM3_Init>
  MX_USART1_UART_Init();
 8001af8:	f000 f98a 	bl	8001e10 <MX_USART1_UART_Init>
  MX_TIM1_Init();
 8001afc:	f000 f878 	bl	8001bf0 <MX_TIM1_Init>
  MX_I2C1_Init();
 8001b00:	f000 f848 	bl	8001b94 <MX_I2C1_Init>
  MX_TIM4_Init();
 8001b04:	f000 f920 	bl	8001d48 <MX_TIM4_Init>
  /* USER CODE BEGIN 2 */
  Init_All();
 8001b08:	f000 fa30 	bl	8001f6c <Init_All>
  /* USER CODE END 2 */

  /* Infinite loop */
  /* USER CODE BEGIN WHILE */
  while (1)
 8001b0c:	bf00      	nop
 8001b0e:	e7fd      	b.n	8001b0c <main+0x28>

08001b10 <SystemClock_Config>:
/**
  * @brief System Clock Configuration
  * @retval None
  */
void SystemClock_Config(void)
{
 8001b10:	b580      	push	{r7, lr}
 8001b12:	b090      	sub	sp, #64	@ 0x40
 8001b14:	af00      	add	r7, sp, #0
  RCC_OscInitTypeDef RCC_OscInitStruct = {0};
 8001b16:	f107 0318 	add.w	r3, r7, #24
 8001b1a:	2228      	movs	r2, #40	@ 0x28
 8001b1c:	2100      	movs	r1, #0
 8001b1e:	4618      	mov	r0, r3
 8001b20:	f004 f8ec 	bl	8005cfc <memset>
  RCC_ClkInitTypeDef RCC_ClkInitStruct = {0};
 8001b24:	1d3b      	adds	r3, r7, #4
 8001b26:	2200      	movs	r2, #0
 8001b28:	601a      	str	r2, [r3, #0]
 8001b2a:	605a      	str	r2, [r3, #4]
 8001b2c:	609a      	str	r2, [r3, #8]
 8001b2e:	60da      	str	r2, [r3, #12]
 8001b30:	611a      	str	r2, [r3, #16]

  /** Initializes the RCC Oscillators according to the specified parameters
  * in the RCC_OscInitTypeDef structure.
  */
  RCC_OscInitStruct.OscillatorType = RCC_OSCILLATORTYPE_HSI;
 8001b32:	2302      	movs	r3, #2
 8001b34:	61bb      	str	r3, [r7, #24]
  RCC_OscInitStruct.HSIState = RCC_HSI_ON;
 8001b36:	2301      	movs	r3, #1
 8001b38:	62bb      	str	r3, [r7, #40]	@ 0x28
  RCC_OscInitStruct.HSICalibrationValue = RCC_HSICALIBRATION_DEFAULT;
 8001b3a:	2310      	movs	r3, #16
 8001b3c:	62fb      	str	r3, [r7, #44]	@ 0x2c
  RCC_OscInitStruct.PLL.PLLState = RCC_PLL_ON;
 8001b3e:	2302      	movs	r3, #2
 8001b40:	637b      	str	r3, [r7, #52]	@ 0x34
  RCC_OscInitStruct.PLL.PLLSource = RCC_PLLSOURCE_HSI_DIV2;
 8001b42:	2300      	movs	r3, #0
 8001b44:	63bb      	str	r3, [r7, #56]	@ 0x38
  RCC_OscInitStruct.PLL.PLLMUL = RCC_PLL_MUL16;
 8001b46:	f44f 1360 	mov.w	r3, #3670016	@ 0x380000
 8001b4a:	63fb      	str	r3, [r7, #60]	@ 0x3c
  if (HAL_RCC_OscConfig(&RCC_OscInitStruct) != HAL_OK)
 8001b4c:	f107 0318 	add.w	r3, r7, #24
 8001b50:	4618      	mov	r0, r3
 8001b52:	f002 fc87 	bl	8004464 <HAL_RCC_OscConfig>
 8001b56:	4603      	mov	r3, r0
 8001b58:	2b00      	cmp	r3, #0
 8001b5a:	d001      	beq.n	8001b60 <SystemClock_Config+0x50>
  {
    Error_Handler();
 8001b5c:	f000 fb9e 	bl	800229c <Error_Handler>
  }

  /** Initializes the CPU, AHB and APB buses clocks
  */
  RCC_ClkInitStruct.ClockType = RCC_CLOCKTYPE_HCLK|RCC_CLOCKTYPE_SYSCLK
 8001b60:	230f      	movs	r3, #15
 8001b62:	607b      	str	r3, [r7, #4]
                              |RCC_CLOCKTYPE_PCLK1|RCC_CLOCKTYPE_PCLK2;
  RCC_ClkInitStruct.SYSCLKSource = RCC_SYSCLKSOURCE_PLLCLK;
 8001b64:	2302      	movs	r3, #2
 8001b66:	60bb      	str	r3, [r7, #8]
  RCC_ClkInitStruct.AHBCLKDivider = RCC_SYSCLK_DIV1;
 8001b68:	2300      	movs	r3, #0
 8001b6a:	60fb      	str	r3, [r7, #12]
  RCC_ClkInitStruct.APB1CLKDivider = RCC_HCLK_DIV2;
 8001b6c:	f44f 6380 	mov.w	r3, #1024	@ 0x400
 8001b70:	613b      	str	r3, [r7, #16]
  RCC_ClkInitStruct.APB2CLKDivider = RCC_HCLK_DIV1;
 8001b72:	2300      	movs	r3, #0
 8001b74:	617b      	str	r3, [r7, #20]

  if (HAL_RCC_ClockConfig(&RCC_ClkInitStruct, FLASH_LATENCY_2) != HAL_OK)
 8001b76:	1d3b      	adds	r3, r7, #4
 8001b78:	2102      	movs	r1, #2
 8001b7a:	4618      	mov	r0, r3
 8001b7c:	f002 fef4 	bl	8004968 <HAL_RCC_ClockConfig>
 8001b80:	4603      	mov	r3, r0
 8001b82:	2b00      	cmp	r3, #0
 8001b84:	d001      	beq.n	8001b8a <SystemClock_Config+0x7a>
  {
    Error_Handler();
 8001b86:	f000 fb89 	bl	800229c <Error_Handler>
  }
}
 8001b8a:	bf00      	nop
 8001b8c:	3740      	adds	r7, #64	@ 0x40
 8001b8e:	46bd      	mov	sp, r7
 8001b90:	bd80      	pop	{r7, pc}
	...

08001b94 <MX_I2C1_Init>:
  * @brief I2C1 Initialization Function
  * @param None
  * @retval None
  */
static void MX_I2C1_Init(void)
{
 8001b94:	b580      	push	{r7, lr}
 8001b96:	af00      	add	r7, sp, #0
  /* USER CODE END I2C1_Init 0 */

  /* USER CODE BEGIN I2C1_Init 1 */

  /* USER CODE END I2C1_Init 1 */
  hi2c1.Instance = I2C1;
 8001b98:	4b12      	ldr	r3, [pc, #72]	@ (8001be4 <MX_I2C1_Init+0x50>)
 8001b9a:	4a13      	ldr	r2, [pc, #76]	@ (8001be8 <MX_I2C1_Init+0x54>)
 8001b9c:	601a      	str	r2, [r3, #0]
  hi2c1.Init.ClockSpeed = 100000;
 8001b9e:	4b11      	ldr	r3, [pc, #68]	@ (8001be4 <MX_I2C1_Init+0x50>)
 8001ba0:	4a12      	ldr	r2, [pc, #72]	@ (8001bec <MX_I2C1_Init+0x58>)
 8001ba2:	605a      	str	r2, [r3, #4]
  hi2c1.Init.DutyCycle = I2C_DUTYCYCLE_2;
 8001ba4:	4b0f      	ldr	r3, [pc, #60]	@ (8001be4 <MX_I2C1_Init+0x50>)
 8001ba6:	2200      	movs	r2, #0
 8001ba8:	609a      	str	r2, [r3, #8]
  hi2c1.Init.OwnAddress1 = 0;
 8001baa:	4b0e      	ldr	r3, [pc, #56]	@ (8001be4 <MX_I2C1_Init+0x50>)
 8001bac:	2200      	movs	r2, #0
 8001bae:	60da      	str	r2, [r3, #12]
  hi2c1.Init.AddressingMode = I2C_ADDRESSINGMODE_7BIT;
 8001bb0:	4b0c      	ldr	r3, [pc, #48]	@ (8001be4 <MX_I2C1_Init+0x50>)
 8001bb2:	f44f 4280 	mov.w	r2, #16384	@ 0x4000
 8001bb6:	611a      	str	r2, [r3, #16]
  hi2c1.Init.DualAddressMode = I2C_DUALADDRESS_DISABLE;
 8001bb8:	4b0a      	ldr	r3, [pc, #40]	@ (8001be4 <MX_I2C1_Init+0x50>)
 8001bba:	2200      	movs	r2, #0
 8001bbc:	615a      	str	r2, [r3, #20]
  hi2c1.Init.OwnAddress2 = 0;
 8001bbe:	4b09      	ldr	r3, [pc, #36]	@ (8001be4 <MX_I2C1_Init+0x50>)
 8001bc0:	2200      	movs	r2, #0
 8001bc2:	619a      	str	r2, [r3, #24]
  hi2c1.Init.GeneralCallMode = I2C_GENERALCALL_DISABLE;
 8001bc4:	4b07      	ldr	r3, [pc, #28]	@ (8001be4 <MX_I2C1_Init+0x50>)
 8001bc6:	2200      	movs	r2, #0
 8001bc8:	61da      	str	r2, [r3, #28]
  hi2c1.Init.NoStretchMode = I2C_NOSTRETCH_DISABLE;
 8001bca:	4b06      	ldr	r3, [pc, #24]	@ (8001be4 <MX_I2C1_Init+0x50>)
 8001bcc:	2200      	movs	r2, #0
 8001bce:	621a      	str	r2, [r3, #32]
  if (HAL_I2C_Init(&hi2c1) != HAL_OK)
 8001bd0:	4804      	ldr	r0, [pc, #16]	@ (8001be4 <MX_I2C1_Init+0x50>)
 8001bd2:	f001 fbed 	bl	80033b0 <HAL_I2C_Init>
 8001bd6:	4603      	mov	r3, r0
 8001bd8:	2b00      	cmp	r3, #0
 8001bda:	d001      	beq.n	8001be0 <MX_I2C1_Init+0x4c>
  {
    Error_Handler();
 8001bdc:	f000 fb5e 	bl	800229c <Error_Handler>
  }
  /* USER CODE BEGIN I2C1_Init 2 */

  /* USER CODE END I2C1_Init 2 */

}
 8001be0:	bf00      	nop
 8001be2:	bd80      	pop	{r7, pc}
 8001be4:	20000140 	.word	0x20000140
 8001be8:	40005400 	.word	0x40005400
 8001bec:	000186a0 	.word	0x000186a0

08001bf0 <MX_TIM1_Init>:
  * @brief TIM1 Initialization Function
  * @param None
  * @retval None
  */
static void MX_TIM1_Init(void)
{
 8001bf0:	b580      	push	{r7, lr}
 8001bf2:	b086      	sub	sp, #24
 8001bf4:	af00      	add	r7, sp, #0

  /* USER CODE BEGIN TIM1_Init 0 */

  /* USER CODE END TIM1_Init 0 */

  TIM_ClockConfigTypeDef sClockSourceConfig = {0};
 8001bf6:	f107 0308 	add.w	r3, r7, #8
 8001bfa:	2200      	movs	r2, #0
 8001bfc:	601a      	str	r2, [r3, #0]
 8001bfe:	605a      	str	r2, [r3, #4]
 8001c00:	609a      	str	r2, [r3, #8]
 8001c02:	60da      	str	r2, [r3, #12]
  TIM_MasterConfigTypeDef sMasterConfig = {0};
 8001c04:	463b      	mov	r3, r7
 8001c06:	2200      	movs	r2, #0
 8001c08:	601a      	str	r2, [r3, #0]
 8001c0a:	605a      	str	r2, [r3, #4]

  /* USER CODE BEGIN TIM1_Init 1 */

  /* USER CODE END TIM1_Init 1 */
  htim1.Instance = TIM1;
 8001c0c:	4b1f      	ldr	r3, [pc, #124]	@ (8001c8c <MX_TIM1_Init+0x9c>)
 8001c0e:	4a20      	ldr	r2, [pc, #128]	@ (8001c90 <MX_TIM1_Init+0xa0>)
 8001c10:	601a      	str	r2, [r3, #0]
  htim1.Init.Prescaler = 639;
 8001c12:	4b1e      	ldr	r3, [pc, #120]	@ (8001c8c <MX_TIM1_Init+0x9c>)
 8001c14:	f240 227f 	movw	r2, #639	@ 0x27f
 8001c18:	605a      	str	r2, [r3, #4]
  htim1.Init.CounterMode = TIM_COUNTERMODE_UP;
 8001c1a:	4b1c      	ldr	r3, [pc, #112]	@ (8001c8c <MX_TIM1_Init+0x9c>)
 8001c1c:	2200      	movs	r2, #0
 8001c1e:	609a      	str	r2, [r3, #8]
  htim1.Init.Period = 499;
 8001c20:	4b1a      	ldr	r3, [pc, #104]	@ (8001c8c <MX_TIM1_Init+0x9c>)
 8001c22:	f240 12f3 	movw	r2, #499	@ 0x1f3
 8001c26:	60da      	str	r2, [r3, #12]
  htim1.Init.ClockDivision = TIM_CLOCKDIVISION_DIV1;
 8001c28:	4b18      	ldr	r3, [pc, #96]	@ (8001c8c <MX_TIM1_Init+0x9c>)
 8001c2a:	2200      	movs	r2, #0
 8001c2c:	611a      	str	r2, [r3, #16]
  htim1.Init.RepetitionCounter = 0;
 8001c2e:	4b17      	ldr	r3, [pc, #92]	@ (8001c8c <MX_TIM1_Init+0x9c>)
 8001c30:	2200      	movs	r2, #0
 8001c32:	615a      	str	r2, [r3, #20]
  htim1.Init.AutoReloadPreload = TIM_AUTORELOAD_PRELOAD_DISABLE;
 8001c34:	4b15      	ldr	r3, [pc, #84]	@ (8001c8c <MX_TIM1_Init+0x9c>)
 8001c36:	2200      	movs	r2, #0
 8001c38:	619a      	str	r2, [r3, #24]
  if (HAL_TIM_Base_Init(&htim1) != HAL_OK)
 8001c3a:	4814      	ldr	r0, [pc, #80]	@ (8001c8c <MX_TIM1_Init+0x9c>)
 8001c3c:	f003 f822 	bl	8004c84 <HAL_TIM_Base_Init>
 8001c40:	4603      	mov	r3, r0
 8001c42:	2b00      	cmp	r3, #0
 8001c44:	d001      	beq.n	8001c4a <MX_TIM1_Init+0x5a>
  {
    Error_Handler();
 8001c46:	f000 fb29 	bl	800229c <Error_Handler>
  }
  sClockSourceConfig.ClockSource = TIM_CLOCKSOURCE_INTERNAL;
 8001c4a:	f44f 5380 	mov.w	r3, #4096	@ 0x1000
 8001c4e:	60bb      	str	r3, [r7, #8]
  if (HAL_TIM_ConfigClockSource(&htim1, &sClockSourceConfig) != HAL_OK)
 8001c50:	f107 0308 	add.w	r3, r7, #8
 8001c54:	4619      	mov	r1, r3
 8001c56:	480d      	ldr	r0, [pc, #52]	@ (8001c8c <MX_TIM1_Init+0x9c>)
 8001c58:	f003 fb72 	bl	8005340 <HAL_TIM_ConfigClockSource>
 8001c5c:	4603      	mov	r3, r0
 8001c5e:	2b00      	cmp	r3, #0
 8001c60:	d001      	beq.n	8001c66 <MX_TIM1_Init+0x76>
  {
    Error_Handler();
 8001c62:	f000 fb1b 	bl	800229c <Error_Handler>
  }
  sMasterConfig.MasterOutputTrigger = TIM_TRGO_RESET;
 8001c66:	2300      	movs	r3, #0
 8001c68:	603b      	str	r3, [r7, #0]
  sMasterConfig.MasterSlaveMode = TIM_MASTERSLAVEMODE_DISABLE;
 8001c6a:	2300      	movs	r3, #0
 8001c6c:	607b      	str	r3, [r7, #4]
  if (HAL_TIMEx_MasterConfigSynchronization(&htim1, &sMasterConfig) != HAL_OK)
 8001c6e:	463b      	mov	r3, r7
 8001c70:	4619      	mov	r1, r3
 8001c72:	4806      	ldr	r0, [pc, #24]	@ (8001c8c <MX_TIM1_Init+0x9c>)
 8001c74:	f003 fef4 	bl	8005a60 <HAL_TIMEx_MasterConfigSynchronization>
 8001c78:	4603      	mov	r3, r0
 8001c7a:	2b00      	cmp	r3, #0
 8001c7c:	d001      	beq.n	8001c82 <MX_TIM1_Init+0x92>
  {
    Error_Handler();
 8001c7e:	f000 fb0d 	bl	800229c <Error_Handler>
  }
  /* USER CODE BEGIN TIM1_Init 2 */

  /* USER CODE END TIM1_Init 2 */

}
 8001c82:	bf00      	nop
 8001c84:	3718      	adds	r7, #24
 8001c86:	46bd      	mov	sp, r7
 8001c88:	bd80      	pop	{r7, pc}
 8001c8a:	bf00      	nop
 8001c8c:	20000194 	.word	0x20000194
 8001c90:	40012c00 	.word	0x40012c00

08001c94 <MX_TIM3_Init>:
  * @brief TIM3 Initialization Function
  * @param None
  * @retval None
  */
static void MX_TIM3_Init(void)
{
 8001c94:	b580      	push	{r7, lr}
 8001c96:	b08a      	sub	sp, #40	@ 0x28
 8001c98:	af00      	add	r7, sp, #0

  /* USER CODE BEGIN TIM3_Init 0 */

  /* USER CODE END TIM3_Init 0 */

  TIM_MasterConfigTypeDef sMasterConfig = {0};
 8001c9a:	f107 0320 	add.w	r3, r7, #32
 8001c9e:	2200      	movs	r2, #0
 8001ca0:	601a      	str	r2, [r3, #0]
 8001ca2:	605a      	str	r2, [r3, #4]
  TIM_OC_InitTypeDef sConfigOC = {0};
 8001ca4:	1d3b      	adds	r3, r7, #4
 8001ca6:	2200      	movs	r2, #0
 8001ca8:	601a      	str	r2, [r3, #0]
 8001caa:	605a      	str	r2, [r3, #4]
 8001cac:	609a      	str	r2, [r3, #8]
 8001cae:	60da      	str	r2, [r3, #12]
 8001cb0:	611a      	str	r2, [r3, #16]
 8001cb2:	615a      	str	r2, [r3, #20]
 8001cb4:	619a      	str	r2, [r3, #24]

  /* USER CODE BEGIN TIM3_Init 1 */

  /* USER CODE END TIM3_Init 1 */
  htim3.Instance = TIM3;
 8001cb6:	4b22      	ldr	r3, [pc, #136]	@ (8001d40 <MX_TIM3_Init+0xac>)
 8001cb8:	4a22      	ldr	r2, [pc, #136]	@ (8001d44 <MX_TIM3_Init+0xb0>)
 8001cba:	601a      	str	r2, [r3, #0]
  htim3.Init.Prescaler = 9;
 8001cbc:	4b20      	ldr	r3, [pc, #128]	@ (8001d40 <MX_TIM3_Init+0xac>)
 8001cbe:	2209      	movs	r2, #9
 8001cc0:	605a      	str	r2, [r3, #4]
  htim3.Init.CounterMode = TIM_COUNTERMODE_UP;
 8001cc2:	4b1f      	ldr	r3, [pc, #124]	@ (8001d40 <MX_TIM3_Init+0xac>)
 8001cc4:	2200      	movs	r2, #0
 8001cc6:	609a      	str	r2, [r3, #8]
  htim3.Init.Period = 3199;
 8001cc8:	4b1d      	ldr	r3, [pc, #116]	@ (8001d40 <MX_TIM3_Init+0xac>)
 8001cca:	f640 427f 	movw	r2, #3199	@ 0xc7f
 8001cce:	60da      	str	r2, [r3, #12]
  htim3.Init.ClockDivision = TIM_CLOCKDIVISION_DIV1;
 8001cd0:	4b1b      	ldr	r3, [pc, #108]	@ (8001d40 <MX_TIM3_Init+0xac>)
 8001cd2:	2200      	movs	r2, #0
 8001cd4:	611a      	str	r2, [r3, #16]
  htim3.Init.AutoReloadPreload = TIM_AUTORELOAD_PRELOAD_DISABLE;
 8001cd6:	4b1a      	ldr	r3, [pc, #104]	@ (8001d40 <MX_TIM3_Init+0xac>)
 8001cd8:	2200      	movs	r2, #0
 8001cda:	619a      	str	r2, [r3, #24]
  if (HAL_TIM_PWM_Init(&htim3) != HAL_OK)
 8001cdc:	4818      	ldr	r0, [pc, #96]	@ (8001d40 <MX_TIM3_Init+0xac>)
 8001cde:	f003 f873 	bl	8004dc8 <HAL_TIM_PWM_Init>
 8001ce2:	4603      	mov	r3, r0
 8001ce4:	2b00      	cmp	r3, #0
 8001ce6:	d001      	beq.n	8001cec <MX_TIM3_Init+0x58>
  {
    Error_Handler();
 8001ce8:	f000 fad8 	bl	800229c <Error_Handler>
  }
  sMasterConfig.MasterOutputTrigger = TIM_TRGO_RESET;
 8001cec:	2300      	movs	r3, #0
 8001cee:	623b      	str	r3, [r7, #32]
  sMasterConfig.MasterSlaveMode = TIM_MASTERSLAVEMODE_DISABLE;
 8001cf0:	2300      	movs	r3, #0
 8001cf2:	627b      	str	r3, [r7, #36]	@ 0x24
  if (HAL_TIMEx_MasterConfigSynchronization(&htim3, &sMasterConfig) != HAL_OK)
 8001cf4:	f107 0320 	add.w	r3, r7, #32
 8001cf8:	4619      	mov	r1, r3
 8001cfa:	4811      	ldr	r0, [pc, #68]	@ (8001d40 <MX_TIM3_Init+0xac>)
 8001cfc:	f003 feb0 	bl	8005a60 <HAL_TIMEx_MasterConfigSynchronization>
 8001d00:	4603      	mov	r3, r0
 8001d02:	2b00      	cmp	r3, #0
 8001d04:	d001      	beq.n	8001d0a <MX_TIM3_Init+0x76>
  {
    Error_Handler();
 8001d06:	f000 fac9 	bl	800229c <Error_Handler>
  }
  sConfigOC.OCMode = TIM_OCMODE_PWM1;
 8001d0a:	2360      	movs	r3, #96	@ 0x60
 8001d0c:	607b      	str	r3, [r7, #4]
  sConfigOC.Pulse = 0;
 8001d0e:	2300      	movs	r3, #0
 8001d10:	60bb      	str	r3, [r7, #8]
  sConfigOC.OCPolarity = TIM_OCPOLARITY_HIGH;
 8001d12:	2300      	movs	r3, #0
 8001d14:	60fb      	str	r3, [r7, #12]
  sConfigOC.OCFastMode = TIM_OCFAST_DISABLE;
 8001d16:	2300      	movs	r3, #0
 8001d18:	617b      	str	r3, [r7, #20]
  if (HAL_TIM_PWM_ConfigChannel(&htim3, &sConfigOC, TIM_CHANNEL_1) != HAL_OK)
 8001d1a:	1d3b      	adds	r3, r7, #4
 8001d1c:	2200      	movs	r2, #0
 8001d1e:	4619      	mov	r1, r3
 8001d20:	4807      	ldr	r0, [pc, #28]	@ (8001d40 <MX_TIM3_Init+0xac>)
 8001d22:	f003 fa4b 	bl	80051bc <HAL_TIM_PWM_ConfigChannel>
 8001d26:	4603      	mov	r3, r0
 8001d28:	2b00      	cmp	r3, #0
 8001d2a:	d001      	beq.n	8001d30 <MX_TIM3_Init+0x9c>
  {
    Error_Handler();
 8001d2c:	f000 fab6 	bl	800229c <Error_Handler>
  }
  /* USER CODE BEGIN TIM3_Init 2 */

  /* USER CODE END TIM3_Init 2 */
  HAL_TIM_MspPostInit(&htim3);
 8001d30:	4803      	ldr	r0, [pc, #12]	@ (8001d40 <MX_TIM3_Init+0xac>)
 8001d32:	f000 ff1d 	bl	8002b70 <HAL_TIM_MspPostInit>

}
 8001d36:	bf00      	nop
 8001d38:	3728      	adds	r7, #40	@ 0x28
 8001d3a:	46bd      	mov	sp, r7
 8001d3c:	bd80      	pop	{r7, pc}
 8001d3e:	bf00      	nop
 8001d40:	200001dc 	.word	0x200001dc
 8001d44:	40000400 	.word	0x40000400

08001d48 <MX_TIM4_Init>:
  * @brief TIM4 Initialization Function
  * @param None
  * @retval None
  */
static void MX_TIM4_Init(void)
{
 8001d48:	b580      	push	{r7, lr}
 8001d4a:	b08a      	sub	sp, #40	@ 0x28
 8001d4c:	af00      	add	r7, sp, #0

  /* USER CODE BEGIN TIM4_Init 0 */

  /* USER CODE END TIM4_Init 0 */

  TIM_MasterConfigTypeDef sMasterConfig = {0};
 8001d4e:	f107 0320 	add.w	r3, r7, #32
 8001d52:	2200      	movs	r2, #0
 8001d54:	601a      	str	r2, [r3, #0]
 8001d56:	605a      	str	r2, [r3, #4]
  TIM_OC_InitTypeDef sConfigOC = {0};
 8001d58:	1d3b      	adds	r3, r7, #4
 8001d5a:	2200      	movs	r2, #0
 8001d5c:	601a      	str	r2, [r3, #0]
 8001d5e:	605a      	str	r2, [r3, #4]
 8001d60:	609a      	str	r2, [r3, #8]
 8001d62:	60da      	str	r2, [r3, #12]
 8001d64:	611a      	str	r2, [r3, #16]
 8001d66:	615a      	str	r2, [r3, #20]
 8001d68:	619a      	str	r2, [r3, #24]

  /* USER CODE BEGIN TIM4_Init 1 */

  /* USER CODE END TIM4_Init 1 */
  htim4.Instance = TIM4;
 8001d6a:	4b27      	ldr	r3, [pc, #156]	@ (8001e08 <MX_TIM4_Init+0xc0>)
 8001d6c:	4a27      	ldr	r2, [pc, #156]	@ (8001e0c <MX_TIM4_Init+0xc4>)
 8001d6e:	601a      	str	r2, [r3, #0]
  htim4.Init.Prescaler = 9;
 8001d70:	4b25      	ldr	r3, [pc, #148]	@ (8001e08 <MX_TIM4_Init+0xc0>)
 8001d72:	2209      	movs	r2, #9
 8001d74:	605a      	str	r2, [r3, #4]
  htim4.Init.CounterMode = TIM_COUNTERMODE_UP;
 8001d76:	4b24      	ldr	r3, [pc, #144]	@ (8001e08 <MX_TIM4_Init+0xc0>)
 8001d78:	2200      	movs	r2, #0
 8001d7a:	609a      	str	r2, [r3, #8]
  htim4.Init.Period = 3199;
 8001d7c:	4b22      	ldr	r3, [pc, #136]	@ (8001e08 <MX_TIM4_Init+0xc0>)
 8001d7e:	f640 427f 	movw	r2, #3199	@ 0xc7f
 8001d82:	60da      	str	r2, [r3, #12]
  htim4.Init.ClockDivision = TIM_CLOCKDIVISION_DIV1;
 8001d84:	4b20      	ldr	r3, [pc, #128]	@ (8001e08 <MX_TIM4_Init+0xc0>)
 8001d86:	2200      	movs	r2, #0
 8001d88:	611a      	str	r2, [r3, #16]
  htim4.Init.AutoReloadPreload = TIM_AUTORELOAD_PRELOAD_DISABLE;
 8001d8a:	4b1f      	ldr	r3, [pc, #124]	@ (8001e08 <MX_TIM4_Init+0xc0>)
 8001d8c:	2200      	movs	r2, #0
 8001d8e:	619a      	str	r2, [r3, #24]
  if (HAL_TIM_PWM_Init(&htim4) != HAL_OK)
 8001d90:	481d      	ldr	r0, [pc, #116]	@ (8001e08 <MX_TIM4_Init+0xc0>)
 8001d92:	f003 f819 	bl	8004dc8 <HAL_TIM_PWM_Init>
 8001d96:	4603      	mov	r3, r0
 8001d98:	2b00      	cmp	r3, #0
 8001d9a:	d001      	beq.n	8001da0 <MX_TIM4_Init+0x58>
  {
    Error_Handler();
 8001d9c:	f000 fa7e 	bl	800229c <Error_Handler>
  }
  sMasterConfig.MasterOutputTrigger = TIM_TRGO_RESET;
 8001da0:	2300      	movs	r3, #0
 8001da2:	623b      	str	r3, [r7, #32]
  sMasterConfig.MasterSlaveMode = TIM_MASTERSLAVEMODE_DISABLE;
 8001da4:	2300      	movs	r3, #0
 8001da6:	627b      	str	r3, [r7, #36]	@ 0x24
  if (HAL_TIMEx_MasterConfigSynchronization(&htim4, &sMasterConfig) != HAL_OK)
 8001da8:	f107 0320 	add.w	r3, r7, #32
 8001dac:	4619      	mov	r1, r3
 8001dae:	4816      	ldr	r0, [pc, #88]	@ (8001e08 <MX_TIM4_Init+0xc0>)
 8001db0:	f003 fe56 	bl	8005a60 <HAL_TIMEx_MasterConfigSynchronization>
 8001db4:	4603      	mov	r3, r0
 8001db6:	2b00      	cmp	r3, #0
 8001db8:	d001      	beq.n	8001dbe <MX_TIM4_Init+0x76>
  {
    Error_Handler();
 8001dba:	f000 fa6f 	bl	800229c <Error_Handler>
  }
  sConfigOC.OCMode = TIM_OCMODE_PWM1;
 8001dbe:	2360      	movs	r3, #96	@ 0x60
 8001dc0:	607b      	str	r3, [r7, #4]
  sConfigOC.Pulse = 0;
 8001dc2:	2300      	movs	r3, #0
 8001dc4:	60bb      	str	r3, [r7, #8]
  sConfigOC.OCPolarity = TIM_OCPOLARITY_HIGH;
 8001dc6:	2300      	movs	r3, #0
 8001dc8:	60fb      	str	r3, [r7, #12]
  sConfigOC.OCFastMode = TIM_OCFAST_DISABLE;
 8001dca:	2300      	movs	r3, #0
 8001dcc:	617b      	str	r3, [r7, #20]
  if (HAL_TIM_PWM_ConfigChannel(&htim4, &sConfigOC, TIM_CHANNEL_1) != HAL_OK)
 8001dce:	1d3b      	adds	r3, r7, #4
 8001dd0:	2200      	movs	r2, #0
 8001dd2:	4619      	mov	r1, r3
 8001dd4:	480c      	ldr	r0, [pc, #48]	@ (8001e08 <MX_TIM4_Init+0xc0>)
 8001dd6:	f003 f9f1 	bl	80051bc <HAL_TIM_PWM_ConfigChannel>
 8001dda:	4603      	mov	r3, r0
 8001ddc:	2b00      	cmp	r3, #0
 8001dde:	d001      	beq.n	8001de4 <MX_TIM4_Init+0x9c>
  {
    Error_Handler();
 8001de0:	f000 fa5c 	bl	800229c <Error_Handler>
  }
  if (HAL_TIM_PWM_ConfigChannel(&htim4, &sConfigOC, TIM_CHANNEL_2) != HAL_OK)
 8001de4:	1d3b      	adds	r3, r7, #4
 8001de6:	2204      	movs	r2, #4
 8001de8:	4619      	mov	r1, r3
 8001dea:	4807      	ldr	r0, [pc, #28]	@ (8001e08 <MX_TIM4_Init+0xc0>)
 8001dec:	f003 f9e6 	bl	80051bc <HAL_TIM_PWM_ConfigChannel>
 8001df0:	4603      	mov	r3, r0
 8001df2:	2b00      	cmp	r3, #0
 8001df4:	d001      	beq.n	8001dfa <MX_TIM4_Init+0xb2>
  {
    Error_Handler();
 8001df6:	f000 fa51 	bl	800229c <Error_Handler>
  }
  /* USER CODE BEGIN TIM4_Init 2 */

  /* USER CODE END TIM4_Init 2 */
  HAL_TIM_MspPostInit(&htim4);
 8001dfa:	4803      	ldr	r0, [pc, #12]	@ (8001e08 <MX_TIM4_Init+0xc0>)
 8001dfc:	f000 feb8 	bl	8002b70 <HAL_TIM_MspPostInit>

}
 8001e00:	bf00      	nop
 8001e02:	3728      	adds	r7, #40	@ 0x28
 8001e04:	46bd      	mov	sp, r7
 8001e06:	bd80      	pop	{r7, pc}
 8001e08:	20000224 	.word	0x20000224
 8001e0c:	40000800 	.word	0x40000800

08001e10 <MX_USART1_UART_Init>:
  * @brief USART1 Initialization Function
  * @param None
  * @retval None
  */
static void MX_USART1_UART_Init(void)
{
 8001e10:	b580      	push	{r7, lr}
 8001e12:	af00      	add	r7, sp, #0
  /* USER CODE END USART1_Init 0 */

  /* USER CODE BEGIN USART1_Init 1 */

  /* USER CODE END USART1_Init 1 */
  huart1.Instance = USART1;
 8001e14:	4b11      	ldr	r3, [pc, #68]	@ (8001e5c <MX_USART1_UART_Init+0x4c>)
 8001e16:	4a12      	ldr	r2, [pc, #72]	@ (8001e60 <MX_USART1_UART_Init+0x50>)
 8001e18:	601a      	str	r2, [r3, #0]
  huart1.Init.BaudRate = 115200;
 8001e1a:	4b10      	ldr	r3, [pc, #64]	@ (8001e5c <MX_USART1_UART_Init+0x4c>)
 8001e1c:	f44f 32e1 	mov.w	r2, #115200	@ 0x1c200
 8001e20:	605a      	str	r2, [r3, #4]
  huart1.Init.WordLength = UART_WORDLENGTH_8B;
 8001e22:	4b0e      	ldr	r3, [pc, #56]	@ (8001e5c <MX_USART1_UART_Init+0x4c>)
 8001e24:	2200      	movs	r2, #0
 8001e26:	609a      	str	r2, [r3, #8]
  huart1.Init.StopBits = UART_STOPBITS_1;
 8001e28:	4b0c      	ldr	r3, [pc, #48]	@ (8001e5c <MX_USART1_UART_Init+0x4c>)
 8001e2a:	2200      	movs	r2, #0
 8001e2c:	60da      	str	r2, [r3, #12]
  huart1.Init.Parity = UART_PARITY_NONE;
 8001e2e:	4b0b      	ldr	r3, [pc, #44]	@ (8001e5c <MX_USART1_UART_Init+0x4c>)
 8001e30:	2200      	movs	r2, #0
 8001e32:	611a      	str	r2, [r3, #16]
  huart1.Init.Mode = UART_MODE_TX_RX;
 8001e34:	4b09      	ldr	r3, [pc, #36]	@ (8001e5c <MX_USART1_UART_Init+0x4c>)
 8001e36:	220c      	movs	r2, #12
 8001e38:	615a      	str	r2, [r3, #20]
  huart1.Init.HwFlowCtl = UART_HWCONTROL_NONE;
 8001e3a:	4b08      	ldr	r3, [pc, #32]	@ (8001e5c <MX_USART1_UART_Init+0x4c>)
 8001e3c:	2200      	movs	r2, #0
 8001e3e:	619a      	str	r2, [r3, #24]
  huart1.Init.OverSampling = UART_OVERSAMPLING_16;
 8001e40:	4b06      	ldr	r3, [pc, #24]	@ (8001e5c <MX_USART1_UART_Init+0x4c>)
 8001e42:	2200      	movs	r2, #0
 8001e44:	61da      	str	r2, [r3, #28]
  if (HAL_UART_Init(&huart1) != HAL_OK)
 8001e46:	4805      	ldr	r0, [pc, #20]	@ (8001e5c <MX_USART1_UART_Init+0x4c>)
 8001e48:	f003 fe7a 	bl	8005b40 <HAL_UART_Init>
 8001e4c:	4603      	mov	r3, r0
 8001e4e:	2b00      	cmp	r3, #0
 8001e50:	d001      	beq.n	8001e56 <MX_USART1_UART_Init+0x46>
  {
    Error_Handler();
 8001e52:	f000 fa23 	bl	800229c <Error_Handler>
  }
  /* USER CODE BEGIN USART1_Init 2 */

  /* USER CODE END USART1_Init 2 */

}
 8001e56:	bf00      	nop
 8001e58:	bd80      	pop	{r7, pc}
 8001e5a:	bf00      	nop
 8001e5c:	2000026c 	.word	0x2000026c
 8001e60:	40013800 	.word	0x40013800

08001e64 <MX_GPIO_Init>:
  * @brief GPIO Initialization Function
  * @param None
  * @retval None
  */
static void MX_GPIO_Init(void)
{
 8001e64:	b580      	push	{r7, lr}
 8001e66:	b088      	sub	sp, #32
 8001e68:	af00      	add	r7, sp, #0
  GPIO_InitTypeDef GPIO_InitStruct = {0};
 8001e6a:	f107 0310 	add.w	r3, r7, #16
 8001e6e:	2200      	movs	r2, #0
 8001e70:	601a      	str	r2, [r3, #0]
 8001e72:	605a      	str	r2, [r3, #4]
 8001e74:	609a      	str	r2, [r3, #8]
 8001e76:	60da      	str	r2, [r3, #12]
/* USER CODE BEGIN MX_GPIO_Init_1 */
/* USER CODE END MX_GPIO_Init_1 */

  /* GPIO Ports Clock Enable */
  __HAL_RCC_GPIOC_CLK_ENABLE();
 8001e78:	4b38      	ldr	r3, [pc, #224]	@ (8001f5c <MX_GPIO_Init+0xf8>)
 8001e7a:	699b      	ldr	r3, [r3, #24]
 8001e7c:	4a37      	ldr	r2, [pc, #220]	@ (8001f5c <MX_GPIO_Init+0xf8>)
 8001e7e:	f043 0310 	orr.w	r3, r3, #16
 8001e82:	6193      	str	r3, [r2, #24]
 8001e84:	4b35      	ldr	r3, [pc, #212]	@ (8001f5c <MX_GPIO_Init+0xf8>)
 8001e86:	699b      	ldr	r3, [r3, #24]
 8001e88:	f003 0310 	and.w	r3, r3, #16
 8001e8c:	60fb      	str	r3, [r7, #12]
 8001e8e:	68fb      	ldr	r3, [r7, #12]
  __HAL_RCC_GPIOD_CLK_ENABLE();
 8001e90:	4b32      	ldr	r3, [pc, #200]	@ (8001f5c <MX_GPIO_Init+0xf8>)
 8001e92:	699b      	ldr	r3, [r3, #24]
 8001e94:	4a31      	ldr	r2, [pc, #196]	@ (8001f5c <MX_GPIO_Init+0xf8>)
 8001e96:	f043 0320 	orr.w	r3, r3, #32
 8001e9a:	6193      	str	r3, [r2, #24]
 8001e9c:	4b2f      	ldr	r3, [pc, #188]	@ (8001f5c <MX_GPIO_Init+0xf8>)
 8001e9e:	699b      	ldr	r3, [r3, #24]
 8001ea0:	f003 0320 	and.w	r3, r3, #32
 8001ea4:	60bb      	str	r3, [r7, #8]
 8001ea6:	68bb      	ldr	r3, [r7, #8]
  __HAL_RCC_GPIOA_CLK_ENABLE();
 8001ea8:	4b2c      	ldr	r3, [pc, #176]	@ (8001f5c <MX_GPIO_Init+0xf8>)
 8001eaa:	699b      	ldr	r3, [r3, #24]
 8001eac:	4a2b      	ldr	r2, [pc, #172]	@ (8001f5c <MX_GPIO_Init+0xf8>)
 8001eae:	f043 0304 	orr.w	r3, r3, #4
 8001eb2:	6193      	str	r3, [r2, #24]
 8001eb4:	4b29      	ldr	r3, [pc, #164]	@ (8001f5c <MX_GPIO_Init+0xf8>)
 8001eb6:	699b      	ldr	r3, [r3, #24]
 8001eb8:	f003 0304 	and.w	r3, r3, #4
 8001ebc:	607b      	str	r3, [r7, #4]
 8001ebe:	687b      	ldr	r3, [r7, #4]
  __HAL_RCC_GPIOB_CLK_ENABLE();
 8001ec0:	4b26      	ldr	r3, [pc, #152]	@ (8001f5c <MX_GPIO_Init+0xf8>)
 8001ec2:	699b      	ldr	r3, [r3, #24]
 8001ec4:	4a25      	ldr	r2, [pc, #148]	@ (8001f5c <MX_GPIO_Init+0xf8>)
 8001ec6:	f043 0308 	orr.w	r3, r3, #8
 8001eca:	6193      	str	r3, [r2, #24]
 8001ecc:	4b23      	ldr	r3, [pc, #140]	@ (8001f5c <MX_GPIO_Init+0xf8>)
 8001ece:	699b      	ldr	r3, [r3, #24]
 8001ed0:	f003 0308 	and.w	r3, r3, #8
 8001ed4:	603b      	str	r3, [r7, #0]
 8001ed6:	683b      	ldr	r3, [r7, #0]

  /*Configure GPIO pin Output Level */
  HAL_GPIO_WritePin(GPIOC, GPIO_PIN_13, GPIO_PIN_RESET);
 8001ed8:	2200      	movs	r2, #0
 8001eda:	f44f 5100 	mov.w	r1, #8192	@ 0x2000
 8001ede:	4820      	ldr	r0, [pc, #128]	@ (8001f60 <MX_GPIO_Init+0xfc>)
 8001ee0:	f001 fa4e 	bl	8003380 <HAL_GPIO_WritePin>

  /*Configure GPIO pin Output Level */
  HAL_GPIO_WritePin(GPIOA, GPIO_OUT_LED_Pin|GPIO_PIN_5|IN1_Pin|IN2_Pin, GPIO_PIN_RESET);
 8001ee4:	2200      	movs	r2, #0
 8001ee6:	21e8      	movs	r1, #232	@ 0xe8
 8001ee8:	481e      	ldr	r0, [pc, #120]	@ (8001f64 <MX_GPIO_Init+0x100>)
 8001eea:	f001 fa49 	bl	8003380 <HAL_GPIO_WritePin>

  /*Configure GPIO pin Output Level */
  HAL_GPIO_WritePin(GPIOB, GPIO_PIN_10|GPIO_PIN_11|GPIO_PIN_5, GPIO_PIN_RESET);
 8001eee:	2200      	movs	r2, #0
 8001ef0:	f44f 6142 	mov.w	r1, #3104	@ 0xc20
 8001ef4:	481c      	ldr	r0, [pc, #112]	@ (8001f68 <MX_GPIO_Init+0x104>)
 8001ef6:	f001 fa43 	bl	8003380 <HAL_GPIO_WritePin>

  /*Configure GPIO pin : PC13 */
  GPIO_InitStruct.Pin = GPIO_PIN_13;
 8001efa:	f44f 5300 	mov.w	r3, #8192	@ 0x2000
 8001efe:	613b      	str	r3, [r7, #16]
  GPIO_InitStruct.Mode = GPIO_MODE_OUTPUT_PP;
 8001f00:	2301      	movs	r3, #1
 8001f02:	617b      	str	r3, [r7, #20]
  GPIO_InitStruct.Pull = GPIO_NOPULL;
 8001f04:	2300      	movs	r3, #0
 8001f06:	61bb      	str	r3, [r7, #24]
  GPIO_InitStruct.Speed = GPIO_SPEED_FREQ_LOW;
 8001f08:	2302      	movs	r3, #2
 8001f0a:	61fb      	str	r3, [r7, #28]
  HAL_GPIO_Init(GPIOC, &GPIO_InitStruct);
 8001f0c:	f107 0310 	add.w	r3, r7, #16
 8001f10:	4619      	mov	r1, r3
 8001f12:	4813      	ldr	r0, [pc, #76]	@ (8001f60 <MX_GPIO_Init+0xfc>)
 8001f14:	f001 f8b0 	bl	8003078 <HAL_GPIO_Init>

  /*Configure GPIO pins : GPIO_OUT_LED_Pin PA5 IN1_Pin IN2_Pin */
  GPIO_InitStruct.Pin = GPIO_OUT_LED_Pin|GPIO_PIN_5|IN1_Pin|IN2_Pin;
 8001f18:	23e8      	movs	r3, #232	@ 0xe8
 8001f1a:	613b      	str	r3, [r7, #16]
  GPIO_InitStruct.Mode = GPIO_MODE_OUTPUT_PP;
 8001f1c:	2301      	movs	r3, #1
 8001f1e:	617b      	str	r3, [r7, #20]
  GPIO_InitStruct.Pull = GPIO_NOPULL;
 8001f20:	2300      	movs	r3, #0
 8001f22:	61bb      	str	r3, [r7, #24]
  GPIO_InitStruct.Speed = GPIO_SPEED_FREQ_LOW;
 8001f24:	2302      	movs	r3, #2
 8001f26:	61fb      	str	r3, [r7, #28]
  HAL_GPIO_Init(GPIOA, &GPIO_InitStruct);
 8001f28:	f107 0310 	add.w	r3, r7, #16
 8001f2c:	4619      	mov	r1, r3
 8001f2e:	480d      	ldr	r0, [pc, #52]	@ (8001f64 <MX_GPIO_Init+0x100>)
 8001f30:	f001 f8a2 	bl	8003078 <HAL_GPIO_Init>

  /*Configure GPIO pins : PB10 PB11 PB5 */
  GPIO_InitStruct.Pin = GPIO_PIN_10|GPIO_PIN_11|GPIO_PIN_5;
 8001f34:	f44f 6342 	mov.w	r3, #3104	@ 0xc20
 8001f38:	613b      	str	r3, [r7, #16]
  GPIO_InitStruct.Mode = GPIO_MODE_OUTPUT_PP;
 8001f3a:	2301      	movs	r3, #1
 8001f3c:	617b      	str	r3, [r7, #20]
  GPIO_InitStruct.Pull = GPIO_NOPULL;
 8001f3e:	2300      	movs	r3, #0
 8001f40:	61bb      	str	r3, [r7, #24]
  GPIO_InitStruct.Speed = GPIO_SPEED_FREQ_LOW;
 8001f42:	2302      	movs	r3, #2
 8001f44:	61fb      	str	r3, [r7, #28]
  HAL_GPIO_Init(GPIOB, &GPIO_InitStruct);
 8001f46:	f107 0310 	add.w	r3, r7, #16
 8001f4a:	4619      	mov	r1, r3
 8001f4c:	4806      	ldr	r0, [pc, #24]	@ (8001f68 <MX_GPIO_Init+0x104>)
 8001f4e:	f001 f893 	bl	8003078 <HAL_GPIO_Init>

/* USER CODE BEGIN MX_GPIO_Init_2 */
/* USER CODE END MX_GPIO_Init_2 */
}
 8001f52:	bf00      	nop
 8001f54:	3720      	adds	r7, #32
 8001f56:	46bd      	mov	sp, r7
 8001f58:	bd80      	pop	{r7, pc}
 8001f5a:	bf00      	nop
 8001f5c:	40021000 	.word	0x40021000
 8001f60:	40011000 	.word	0x40011000
 8001f64:	40010800 	.word	0x40010800
 8001f68:	40010c00 	.word	0x40010c00

08001f6c <Init_All>:

/* USER CODE BEGIN 4 */
void Init_All()
{
 8001f6c:	b580      	push	{r7, lr}
 8001f6e:	af00      	add	r7, sp, #0
	while (MPU6050_Init(&hi2c1) == 1);
 8001f70:	bf00      	nop
 8001f72:	4809      	ldr	r0, [pc, #36]	@ (8001f98 <Init_All+0x2c>)
 8001f74:	f000 f998 	bl	80022a8 <MPU6050_Init>
 8001f78:	4603      	mov	r3, r0
 8001f7a:	2b01      	cmp	r3, #1
 8001f7c:	d0f9      	beq.n	8001f72 <Init_All+0x6>
	HAL_TIM_Base_Start_IT(&htim1);
 8001f7e:	4807      	ldr	r0, [pc, #28]	@ (8001f9c <Init_All+0x30>)
 8001f80:	f002 fed0 	bl	8004d24 <HAL_TIM_Base_Start_IT>
	HAL_TIM_PWM_Start(&htim3, TIM_CHANNEL_1);
 8001f84:	2100      	movs	r1, #0
 8001f86:	4806      	ldr	r0, [pc, #24]	@ (8001fa0 <Init_All+0x34>)
 8001f88:	f002 ff6e 	bl	8004e68 <HAL_TIM_PWM_Start>
	HAL_TIM_PWM_Start(&htim4, TIM_CHANNEL_2);
 8001f8c:	2104      	movs	r1, #4
 8001f8e:	4805      	ldr	r0, [pc, #20]	@ (8001fa4 <Init_All+0x38>)
 8001f90:	f002 ff6a 	bl	8004e68 <HAL_TIM_PWM_Start>
}
 8001f94:	bf00      	nop
 8001f96:	bd80      	pop	{r7, pc}
 8001f98:	20000140 	.word	0x20000140
 8001f9c:	20000194 	.word	0x20000194
 8001fa0:	200001dc 	.word	0x200001dc
 8001fa4:	20000224 	.word	0x20000224

08001fa8 <HAL_TIM_PeriodElapsedCallback>:

void HAL_TIM_PeriodElapsedCallback(TIM_HandleTypeDef *htim)
{
 8001fa8:	b580      	push	{r7, lr}
 8001faa:	b082      	sub	sp, #8
 8001fac:	af00      	add	r7, sp, #0
 8001fae:	6078      	str	r0, [r7, #4]
	if(htim->Instance == htim1.Instance)
 8001fb0:	687b      	ldr	r3, [r7, #4]
 8001fb2:	681a      	ldr	r2, [r3, #0]
 8001fb4:	4b2b      	ldr	r3, [pc, #172]	@ (8002064 <HAL_TIM_PeriodElapsedCallback+0xbc>)
 8001fb6:	681b      	ldr	r3, [r3, #0]
 8001fb8:	429a      	cmp	r2, r3
 8001fba:	d14e      	bne.n	800205a <HAL_TIM_PeriodElapsedCallback+0xb2>
	{
		MPU6050_Read_All(&hi2c1, &MPU6050);
 8001fbc:	492a      	ldr	r1, [pc, #168]	@ (8002068 <HAL_TIM_PeriodElapsedCallback+0xc0>)
 8001fbe:	482b      	ldr	r0, [pc, #172]	@ (800206c <HAL_TIM_PeriodElapsedCallback+0xc4>)
 8001fc0:	f000 f9ca 	bl	8002358 <MPU6050_Read_All>
		Fuzzy_Process();
 8001fc4:	f000 f85e 	bl	8002084 <Fuzzy_Process>
		if (Parameters.theta < -THETA_OVER || Parameters.theta > THETA_OVER)
 8001fc8:	4b29      	ldr	r3, [pc, #164]	@ (8002070 <HAL_TIM_PeriodElapsedCallback+0xc8>)
 8001fca:	68db      	ldr	r3, [r3, #12]
 8001fcc:	4929      	ldr	r1, [pc, #164]	@ (8002074 <HAL_TIM_PeriodElapsedCallback+0xcc>)
 8001fce:	4618      	mov	r0, r3
 8001fd0:	f7ff f826 	bl	8001020 <__aeabi_fcmplt>
 8001fd4:	4603      	mov	r3, r0
 8001fd6:	2b00      	cmp	r3, #0
 8001fd8:	d108      	bne.n	8001fec <HAL_TIM_PeriodElapsedCallback+0x44>
 8001fda:	4b25      	ldr	r3, [pc, #148]	@ (8002070 <HAL_TIM_PeriodElapsedCallback+0xc8>)
 8001fdc:	68db      	ldr	r3, [r3, #12]
 8001fde:	4926      	ldr	r1, [pc, #152]	@ (8002078 <HAL_TIM_PeriodElapsedCallback+0xd0>)
 8001fe0:	4618      	mov	r0, r3
 8001fe2:	f7ff f83b 	bl	800105c <__aeabi_fcmpgt>
 8001fe6:	4603      	mov	r3, r0
 8001fe8:	2b00      	cmp	r3, #0
 8001fea:	d002      	beq.n	8001ff2 <HAL_TIM_PeriodElapsedCallback+0x4a>
		{
			motor_stop();
 8001fec:	f000 f8ea 	bl	80021c4 <motor_stop>
		else
		{
			motor_stop();
		}
	}
}
 8001ff0:	e033      	b.n	800205a <HAL_TIM_PeriodElapsedCallback+0xb2>
		else if(Parameters.uk_fuzzy > 0)
 8001ff2:	4b1f      	ldr	r3, [pc, #124]	@ (8002070 <HAL_TIM_PeriodElapsedCallback+0xc8>)
 8001ff4:	689b      	ldr	r3, [r3, #8]
 8001ff6:	f04f 0100 	mov.w	r1, #0
 8001ffa:	4618      	mov	r0, r3
 8001ffc:	f7ff f82e 	bl	800105c <__aeabi_fcmpgt>
 8002000:	4603      	mov	r3, r0
 8002002:	2b00      	cmp	r3, #0
 8002004:	d00d      	beq.n	8002022 <HAL_TIM_PeriodElapsedCallback+0x7a>
			motor_forward();
 8002006:	f000 f8a1 	bl	800214c <motor_forward>
			pwm_out(Parameters.uk_fuzzy);
 800200a:	4b19      	ldr	r3, [pc, #100]	@ (8002070 <HAL_TIM_PeriodElapsedCallback+0xc8>)
 800200c:	689b      	ldr	r3, [r3, #8]
 800200e:	4618      	mov	r0, r3
 8002010:	f000 f8fa 	bl	8002208 <pwm_out>
			forward = 1; //Just4Debugging
 8002014:	4b19      	ldr	r3, [pc, #100]	@ (800207c <HAL_TIM_PeriodElapsedCallback+0xd4>)
 8002016:	2201      	movs	r2, #1
 8002018:	701a      	strb	r2, [r3, #0]
			reverse = 0;
 800201a:	4b19      	ldr	r3, [pc, #100]	@ (8002080 <HAL_TIM_PeriodElapsedCallback+0xd8>)
 800201c:	2200      	movs	r2, #0
 800201e:	701a      	strb	r2, [r3, #0]
}
 8002020:	e01b      	b.n	800205a <HAL_TIM_PeriodElapsedCallback+0xb2>
		else if(Parameters.uk_fuzzy < 0)
 8002022:	4b13      	ldr	r3, [pc, #76]	@ (8002070 <HAL_TIM_PeriodElapsedCallback+0xc8>)
 8002024:	689b      	ldr	r3, [r3, #8]
 8002026:	f04f 0100 	mov.w	r1, #0
 800202a:	4618      	mov	r0, r3
 800202c:	f7fe fff8 	bl	8001020 <__aeabi_fcmplt>
 8002030:	4603      	mov	r3, r0
 8002032:	2b00      	cmp	r3, #0
 8002034:	d00f      	beq.n	8002056 <HAL_TIM_PeriodElapsedCallback+0xae>
			motor_reverse();
 8002036:	f000 f8a7 	bl	8002188 <motor_reverse>
			pwm_out((-(Parameters.uk_fuzzy)));
 800203a:	4b0d      	ldr	r3, [pc, #52]	@ (8002070 <HAL_TIM_PeriodElapsedCallback+0xc8>)
 800203c:	689b      	ldr	r3, [r3, #8]
 800203e:	f083 4300 	eor.w	r3, r3, #2147483648	@ 0x80000000
 8002042:	4618      	mov	r0, r3
 8002044:	f000 f8e0 	bl	8002208 <pwm_out>
			forward = 0; //Just4Debugging
 8002048:	4b0c      	ldr	r3, [pc, #48]	@ (800207c <HAL_TIM_PeriodElapsedCallback+0xd4>)
 800204a:	2200      	movs	r2, #0
 800204c:	701a      	strb	r2, [r3, #0]
			reverse = 1;
 800204e:	4b0c      	ldr	r3, [pc, #48]	@ (8002080 <HAL_TIM_PeriodElapsedCallback+0xd8>)
 8002050:	2201      	movs	r2, #1
 8002052:	701a      	strb	r2, [r3, #0]
}
 8002054:	e001      	b.n	800205a <HAL_TIM_PeriodElapsedCallback+0xb2>
			motor_stop();
 8002056:	f000 f8b5 	bl	80021c4 <motor_stop>
}
 800205a:	bf00      	nop
 800205c:	3708      	adds	r7, #8
 800205e:	46bd      	mov	sp, r7
 8002060:	bd80      	pop	{r7, pc}
 8002062:	bf00      	nop
 8002064:	20000194 	.word	0x20000194
 8002068:	200002b8 	.word	0x200002b8
 800206c:	20000140 	.word	0x20000140
 8002070:	20000310 	.word	0x20000310
 8002074:	c2700000 	.word	0xc2700000
 8002078:	42700000 	.word	0x42700000
 800207c:	20000324 	.word	0x20000324
 8002080:	20000325 	.word	0x20000325

08002084 <Fuzzy_Process>:

void Fuzzy_Process()
{
 8002084:	b580      	push	{r7, lr}
 8002086:	af00      	add	r7, sp, #0
	Parameters.theta = MPU6050.KalmanAngleY + THETA_OFFSET;
 8002088:	4b28      	ldr	r3, [pc, #160]	@ (800212c <Fuzzy_Process+0xa8>)
 800208a:	e9d3 0114 	ldrd	r0, r1, [r3, #80]	@ 0x50
 800208e:	f04f 0200 	mov.w	r2, #0
 8002092:	4b27      	ldr	r3, [pc, #156]	@ (8002130 <Fuzzy_Process+0xac>)
 8002094:	f7fe f862 	bl	800015c <__adddf3>
 8002098:	4602      	mov	r2, r0
 800209a:	460b      	mov	r3, r1
 800209c:	4610      	mov	r0, r2
 800209e:	4619      	mov	r1, r3
 80020a0:	f7fe fcc2 	bl	8000a28 <__aeabi_d2f>
 80020a4:	4603      	mov	r3, r0
 80020a6:	4a23      	ldr	r2, [pc, #140]	@ (8002134 <Fuzzy_Process+0xb0>)
 80020a8:	60d3      	str	r3, [r2, #12]
	Parameters.theta_dot = MPU6050.Gy;
 80020aa:	4b20      	ldr	r3, [pc, #128]	@ (800212c <Fuzzy_Process+0xa8>)
 80020ac:	e9d3 230c 	ldrd	r2, r3, [r3, #48]	@ 0x30
 80020b0:	4610      	mov	r0, r2
 80020b2:	4619      	mov	r1, r3
 80020b4:	f7fe fcb8 	bl	8000a28 <__aeabi_d2f>
 80020b8:	4603      	mov	r3, r0
 80020ba:	4a1e      	ldr	r2, [pc, #120]	@ (8002134 <Fuzzy_Process+0xb0>)
 80020bc:	6113      	str	r3, [r2, #16]
	Parameters.input[0] = Parameters.theta * (1.0f/K_THETA);
 80020be:	4b1d      	ldr	r3, [pc, #116]	@ (8002134 <Fuzzy_Process+0xb0>)
 80020c0:	68db      	ldr	r3, [r3, #12]
 80020c2:	491d      	ldr	r1, [pc, #116]	@ (8002138 <Fuzzy_Process+0xb4>)
 80020c4:	4618      	mov	r0, r3
 80020c6:	f7fe fe0d 	bl	8000ce4 <__aeabi_fmul>
 80020ca:	4603      	mov	r3, r0
 80020cc:	461a      	mov	r2, r3
 80020ce:	4b19      	ldr	r3, [pc, #100]	@ (8002134 <Fuzzy_Process+0xb0>)
 80020d0:	601a      	str	r2, [r3, #0]
	Parameters.input[1] = Parameters.theta_dot * (1.0f/K_THETA_DOT);
 80020d2:	4b18      	ldr	r3, [pc, #96]	@ (8002134 <Fuzzy_Process+0xb0>)
 80020d4:	691b      	ldr	r3, [r3, #16]
 80020d6:	4919      	ldr	r1, [pc, #100]	@ (800213c <Fuzzy_Process+0xb8>)
 80020d8:	4618      	mov	r0, r3
 80020da:	f7fe fe03 	bl	8000ce4 <__aeabi_fmul>
 80020de:	4603      	mov	r3, r0
 80020e0:	461a      	mov	r2, r3
 80020e2:	4b14      	ldr	r3, [pc, #80]	@ (8002134 <Fuzzy_Process+0xb0>)
 80020e4:	605a      	str	r2, [r3, #4]
	limit_range(&(Parameters.input[0]));
 80020e6:	4813      	ldr	r0, [pc, #76]	@ (8002134 <Fuzzy_Process+0xb0>)
 80020e8:	f7ff fcd6 	bl	8001a98 <limit_range>
	limit_range(&(Parameters.input[1]));
 80020ec:	4814      	ldr	r0, [pc, #80]	@ (8002140 <Fuzzy_Process+0xbc>)
 80020ee:	f7ff fcd3 	bl	8001a98 <limit_range>
	Parameters.uk_fuzzy = (run_fuzzy(Parameters.input[0], Parameters.input[1])) * K_UK_FUZZY;
 80020f2:	4b10      	ldr	r3, [pc, #64]	@ (8002134 <Fuzzy_Process+0xb0>)
 80020f4:	681b      	ldr	r3, [r3, #0]
 80020f6:	4a0f      	ldr	r2, [pc, #60]	@ (8002134 <Fuzzy_Process+0xb0>)
 80020f8:	6852      	ldr	r2, [r2, #4]
 80020fa:	4611      	mov	r1, r2
 80020fc:	4618      	mov	r0, r3
 80020fe:	f7ff f903 	bl	8001308 <run_fuzzy>
 8002102:	4603      	mov	r3, r0
 8002104:	490f      	ldr	r1, [pc, #60]	@ (8002144 <Fuzzy_Process+0xc0>)
 8002106:	4618      	mov	r0, r3
 8002108:	f7fe fdec 	bl	8000ce4 <__aeabi_fmul>
 800210c:	4603      	mov	r3, r0
 800210e:	461a      	mov	r2, r3
 8002110:	4b08      	ldr	r3, [pc, #32]	@ (8002134 <Fuzzy_Process+0xb0>)
 8002112:	609a      	str	r2, [r3, #8]
	Parameters.uk_fuzzy *= (1.0f/3199); //convert uk (-3199->3199 to -100->100)
 8002114:	4b07      	ldr	r3, [pc, #28]	@ (8002134 <Fuzzy_Process+0xb0>)
 8002116:	689b      	ldr	r3, [r3, #8]
 8002118:	490b      	ldr	r1, [pc, #44]	@ (8002148 <Fuzzy_Process+0xc4>)
 800211a:	4618      	mov	r0, r3
 800211c:	f7fe fde2 	bl	8000ce4 <__aeabi_fmul>
 8002120:	4603      	mov	r3, r0
 8002122:	461a      	mov	r2, r3
 8002124:	4b03      	ldr	r3, [pc, #12]	@ (8002134 <Fuzzy_Process+0xb0>)
 8002126:	609a      	str	r2, [r3, #8]
}
 8002128:	bf00      	nop
 800212a:	bd80      	pop	{r7, pc}
 800212c:	200002b8 	.word	0x200002b8
 8002130:	40040000 	.word	0x40040000
 8002134:	20000310 	.word	0x20000310
 8002138:	3de38e39 	.word	0x3de38e39
 800213c:	3c23d70a 	.word	0x3c23d70a
 8002140:	20000314 	.word	0x20000314
 8002144:	4547f000 	.word	0x4547f000
 8002148:	39a3e427 	.word	0x39a3e427

0800214c <motor_forward>:

void motor_forward()
{
 800214c:	b580      	push	{r7, lr}
 800214e:	af00      	add	r7, sp, #0
	HAL_GPIO_WritePin(GPIOA, GPIO_PIN_6, 1); //IN1
 8002150:	2201      	movs	r2, #1
 8002152:	2140      	movs	r1, #64	@ 0x40
 8002154:	480a      	ldr	r0, [pc, #40]	@ (8002180 <motor_forward+0x34>)
 8002156:	f001 f913 	bl	8003380 <HAL_GPIO_WritePin>
	HAL_GPIO_WritePin(GPIOA, GPIO_PIN_7, 0); //IN2
 800215a:	2200      	movs	r2, #0
 800215c:	2180      	movs	r1, #128	@ 0x80
 800215e:	4808      	ldr	r0, [pc, #32]	@ (8002180 <motor_forward+0x34>)
 8002160:	f001 f90e 	bl	8003380 <HAL_GPIO_WritePin>
	HAL_GPIO_WritePin(GPIOB, GPIO_PIN_10, 1); //IN3
 8002164:	2201      	movs	r2, #1
 8002166:	f44f 6180 	mov.w	r1, #1024	@ 0x400
 800216a:	4806      	ldr	r0, [pc, #24]	@ (8002184 <motor_forward+0x38>)
 800216c:	f001 f908 	bl	8003380 <HAL_GPIO_WritePin>
	HAL_GPIO_WritePin(GPIOB, GPIO_PIN_5, 0); //IN4
 8002170:	2200      	movs	r2, #0
 8002172:	2120      	movs	r1, #32
 8002174:	4803      	ldr	r0, [pc, #12]	@ (8002184 <motor_forward+0x38>)
 8002176:	f001 f903 	bl	8003380 <HAL_GPIO_WritePin>
}
 800217a:	bf00      	nop
 800217c:	bd80      	pop	{r7, pc}
 800217e:	bf00      	nop
 8002180:	40010800 	.word	0x40010800
 8002184:	40010c00 	.word	0x40010c00

08002188 <motor_reverse>:

void motor_reverse()
{
 8002188:	b580      	push	{r7, lr}
 800218a:	af00      	add	r7, sp, #0
	HAL_GPIO_WritePin(GPIOA, GPIO_PIN_6, 0); //IN1
 800218c:	2200      	movs	r2, #0
 800218e:	2140      	movs	r1, #64	@ 0x40
 8002190:	480a      	ldr	r0, [pc, #40]	@ (80021bc <motor_reverse+0x34>)
 8002192:	f001 f8f5 	bl	8003380 <HAL_GPIO_WritePin>
	HAL_GPIO_WritePin(GPIOA, GPIO_PIN_7, 1); //IN2
 8002196:	2201      	movs	r2, #1
 8002198:	2180      	movs	r1, #128	@ 0x80
 800219a:	4808      	ldr	r0, [pc, #32]	@ (80021bc <motor_reverse+0x34>)
 800219c:	f001 f8f0 	bl	8003380 <HAL_GPIO_WritePin>
	HAL_GPIO_WritePin(GPIOB, GPIO_PIN_10, 0); //IN3
 80021a0:	2200      	movs	r2, #0
 80021a2:	f44f 6180 	mov.w	r1, #1024	@ 0x400
 80021a6:	4806      	ldr	r0, [pc, #24]	@ (80021c0 <motor_reverse+0x38>)
 80021a8:	f001 f8ea 	bl	8003380 <HAL_GPIO_WritePin>
	HAL_GPIO_WritePin(GPIOB, GPIO_PIN_5, 1); //IN4
 80021ac:	2201      	movs	r2, #1
 80021ae:	2120      	movs	r1, #32
 80021b0:	4803      	ldr	r0, [pc, #12]	@ (80021c0 <motor_reverse+0x38>)
 80021b2:	f001 f8e5 	bl	8003380 <HAL_GPIO_WritePin>
}
 80021b6:	bf00      	nop
 80021b8:	bd80      	pop	{r7, pc}
 80021ba:	bf00      	nop
 80021bc:	40010800 	.word	0x40010800
 80021c0:	40010c00 	.word	0x40010c00

080021c4 <motor_stop>:

void motor_stop()
{
 80021c4:	b580      	push	{r7, lr}
 80021c6:	af00      	add	r7, sp, #0
	HAL_GPIO_WritePin(GPIOA, GPIO_PIN_6, 0); //IN1
 80021c8:	2200      	movs	r2, #0
 80021ca:	2140      	movs	r1, #64	@ 0x40
 80021cc:	480c      	ldr	r0, [pc, #48]	@ (8002200 <motor_stop+0x3c>)
 80021ce:	f001 f8d7 	bl	8003380 <HAL_GPIO_WritePin>
	HAL_GPIO_WritePin(GPIOA, GPIO_PIN_7, 0); //IN2
 80021d2:	2200      	movs	r2, #0
 80021d4:	2180      	movs	r1, #128	@ 0x80
 80021d6:	480a      	ldr	r0, [pc, #40]	@ (8002200 <motor_stop+0x3c>)
 80021d8:	f001 f8d2 	bl	8003380 <HAL_GPIO_WritePin>
	HAL_GPIO_WritePin(GPIOB, GPIO_PIN_10, 0); //IN3
 80021dc:	2200      	movs	r2, #0
 80021de:	f44f 6180 	mov.w	r1, #1024	@ 0x400
 80021e2:	4808      	ldr	r0, [pc, #32]	@ (8002204 <motor_stop+0x40>)
 80021e4:	f001 f8cc 	bl	8003380 <HAL_GPIO_WritePin>
	HAL_GPIO_WritePin(GPIOB, GPIO_PIN_5, 0); //IN4
 80021e8:	2200      	movs	r2, #0
 80021ea:	2120      	movs	r1, #32
 80021ec:	4805      	ldr	r0, [pc, #20]	@ (8002204 <motor_stop+0x40>)
 80021ee:	f001 f8c7 	bl	8003380 <HAL_GPIO_WritePin>
	pwm_out(0);
 80021f2:	f04f 0000 	mov.w	r0, #0
 80021f6:	f000 f807 	bl	8002208 <pwm_out>
}
 80021fa:	bf00      	nop
 80021fc:	bd80      	pop	{r7, pc}
 80021fe:	bf00      	nop
 8002200:	40010800 	.word	0x40010800
 8002204:	40010c00 	.word	0x40010c00

08002208 <pwm_out>:

void pwm_out(float duty) //duty 0->1 (not 0->100), uk -1->1
{
 8002208:	b590      	push	{r4, r7, lr}
 800220a:	b083      	sub	sp, #12
 800220c:	af00      	add	r7, sp, #0
 800220e:	6078      	str	r0, [r7, #4]
	if (duty > 1) duty = 1;
 8002210:	f04f 517e 	mov.w	r1, #1065353216	@ 0x3f800000
 8002214:	6878      	ldr	r0, [r7, #4]
 8002216:	f7fe ff21 	bl	800105c <__aeabi_fcmpgt>
 800221a:	4603      	mov	r3, r0
 800221c:	2b00      	cmp	r3, #0
 800221e:	d002      	beq.n	8002226 <pwm_out+0x1e>
 8002220:	f04f 537e 	mov.w	r3, #1065353216	@ 0x3f800000
 8002224:	607b      	str	r3, [r7, #4]
	if (duty < 0) duty = 0;
 8002226:	f04f 0100 	mov.w	r1, #0
 800222a:	6878      	ldr	r0, [r7, #4]
 800222c:	f7fe fef8 	bl	8001020 <__aeabi_fcmplt>
 8002230:	4603      	mov	r3, r0
 8002232:	2b00      	cmp	r3, #0
 8002234:	d002      	beq.n	800223c <pwm_out+0x34>
 8002236:	f04f 0300 	mov.w	r3, #0
 800223a:	607b      	str	r3, [r7, #4]
	htim3.Instance->CCR1 = (htim3.Instance->ARR) * (duty); //hardware
 800223c:	4b15      	ldr	r3, [pc, #84]	@ (8002294 <pwm_out+0x8c>)
 800223e:	681b      	ldr	r3, [r3, #0]
 8002240:	6adb      	ldr	r3, [r3, #44]	@ 0x2c
 8002242:	4618      	mov	r0, r3
 8002244:	f7fe fcf6 	bl	8000c34 <__aeabi_ui2f>
 8002248:	4603      	mov	r3, r0
 800224a:	6879      	ldr	r1, [r7, #4]
 800224c:	4618      	mov	r0, r3
 800224e:	f7fe fd49 	bl	8000ce4 <__aeabi_fmul>
 8002252:	4603      	mov	r3, r0
 8002254:	461a      	mov	r2, r3
 8002256:	4b0f      	ldr	r3, [pc, #60]	@ (8002294 <pwm_out+0x8c>)
 8002258:	681c      	ldr	r4, [r3, #0]
 800225a:	4610      	mov	r0, r2
 800225c:	f7fe ff08 	bl	8001070 <__aeabi_f2uiz>
 8002260:	4603      	mov	r3, r0
 8002262:	6363      	str	r3, [r4, #52]	@ 0x34
	htim4.Instance->CCR2 = (htim4.Instance->ARR) * (duty);
 8002264:	4b0c      	ldr	r3, [pc, #48]	@ (8002298 <pwm_out+0x90>)
 8002266:	681b      	ldr	r3, [r3, #0]
 8002268:	6adb      	ldr	r3, [r3, #44]	@ 0x2c
 800226a:	4618      	mov	r0, r3
 800226c:	f7fe fce2 	bl	8000c34 <__aeabi_ui2f>
 8002270:	4603      	mov	r3, r0
 8002272:	6879      	ldr	r1, [r7, #4]
 8002274:	4618      	mov	r0, r3
 8002276:	f7fe fd35 	bl	8000ce4 <__aeabi_fmul>
 800227a:	4603      	mov	r3, r0
 800227c:	461a      	mov	r2, r3
 800227e:	4b06      	ldr	r3, [pc, #24]	@ (8002298 <pwm_out+0x90>)
 8002280:	681c      	ldr	r4, [r3, #0]
 8002282:	4610      	mov	r0, r2
 8002284:	f7fe fef4 	bl	8001070 <__aeabi_f2uiz>
 8002288:	4603      	mov	r3, r0
 800228a:	63a3      	str	r3, [r4, #56]	@ 0x38
}
 800228c:	bf00      	nop
 800228e:	370c      	adds	r7, #12
 8002290:	46bd      	mov	sp, r7
 8002292:	bd90      	pop	{r4, r7, pc}
 8002294:	200001dc 	.word	0x200001dc
 8002298:	20000224 	.word	0x20000224

0800229c <Error_Handler>:
/**
  * @brief  This function is executed in case of error occurrence.
  * @retval None
  */
void Error_Handler(void)
{
 800229c:	b480      	push	{r7}
 800229e:	af00      	add	r7, sp, #0
  \details Disables IRQ interrupts by setting the I-bit in the CPSR.
           Can only be executed in Privileged modes.
 */
__STATIC_FORCEINLINE void __disable_irq(void)
{
  __ASM volatile ("cpsid i" : : : "memory");
 80022a0:	b672      	cpsid	i
}
 80022a2:	bf00      	nop
  /* USER CODE BEGIN Error_Handler_Debug */
  /* User can add his own implementation to report the HAL error return state */
  __disable_irq();
  while (1)
 80022a4:	bf00      	nop
 80022a6:	e7fd      	b.n	80022a4 <Error_Handler+0x8>

080022a8 <MPU6050_Init>:
    .Q_bias = 0.003f,
    .R_measure = 0.03f,
};

uint8_t MPU6050_Init(I2C_HandleTypeDef *I2Cx)
{
 80022a8:	b580      	push	{r7, lr}
 80022aa:	b088      	sub	sp, #32
 80022ac:	af04      	add	r7, sp, #16
 80022ae:	6078      	str	r0, [r7, #4]
    uint8_t check;
    uint8_t Data;

    // check device ID WHO_AM_I

    HAL_I2C_Mem_Read(I2Cx, MPU6050_ADDR, WHO_AM_I_REG, 1, &check, 1, i2c_timeout);
 80022b0:	2364      	movs	r3, #100	@ 0x64
 80022b2:	9302      	str	r3, [sp, #8]
 80022b4:	2301      	movs	r3, #1
 80022b6:	9301      	str	r3, [sp, #4]
 80022b8:	f107 030f 	add.w	r3, r7, #15
 80022bc:	9300      	str	r3, [sp, #0]
 80022be:	2301      	movs	r3, #1
 80022c0:	2275      	movs	r2, #117	@ 0x75
 80022c2:	21d0      	movs	r1, #208	@ 0xd0
 80022c4:	6878      	ldr	r0, [r7, #4]
 80022c6:	f001 fab1 	bl	800382c <HAL_I2C_Mem_Read>

    if (check == 104) // 0x68 will be returned by the sensor if everything goes well
 80022ca:	7bfb      	ldrb	r3, [r7, #15]
 80022cc:	2b68      	cmp	r3, #104	@ 0x68
 80022ce:	d13d      	bne.n	800234c <MPU6050_Init+0xa4>
    {
        // power management register 0X6B we should write all 0's to wake the sensor up
        Data = 0;
 80022d0:	2300      	movs	r3, #0
 80022d2:	73bb      	strb	r3, [r7, #14]
        HAL_I2C_Mem_Write(I2Cx, MPU6050_ADDR, PWR_MGMT_1_REG, 1, &Data, 1, i2c_timeout);
 80022d4:	2364      	movs	r3, #100	@ 0x64
 80022d6:	9302      	str	r3, [sp, #8]
 80022d8:	2301      	movs	r3, #1
 80022da:	9301      	str	r3, [sp, #4]
 80022dc:	f107 030e 	add.w	r3, r7, #14
 80022e0:	9300      	str	r3, [sp, #0]
 80022e2:	2301      	movs	r3, #1
 80022e4:	226b      	movs	r2, #107	@ 0x6b
 80022e6:	21d0      	movs	r1, #208	@ 0xd0
 80022e8:	6878      	ldr	r0, [r7, #4]
 80022ea:	f001 f9a5 	bl	8003638 <HAL_I2C_Mem_Write>

        // Set DATA RATE of 1KHz by writing SMPLRT_DIV register
        Data = 0x07;
 80022ee:	2307      	movs	r3, #7
 80022f0:	73bb      	strb	r3, [r7, #14]
        HAL_I2C_Mem_Write(I2Cx, MPU6050_ADDR, SMPLRT_DIV_REG, 1, &Data, 1, i2c_timeout);
 80022f2:	2364      	movs	r3, #100	@ 0x64
 80022f4:	9302      	str	r3, [sp, #8]
 80022f6:	2301      	movs	r3, #1
 80022f8:	9301      	str	r3, [sp, #4]
 80022fa:	f107 030e 	add.w	r3, r7, #14
 80022fe:	9300      	str	r3, [sp, #0]
 8002300:	2301      	movs	r3, #1
 8002302:	2219      	movs	r2, #25
 8002304:	21d0      	movs	r1, #208	@ 0xd0
 8002306:	6878      	ldr	r0, [r7, #4]
 8002308:	f001 f996 	bl	8003638 <HAL_I2C_Mem_Write>

        // Set accelerometer configuration in ACCEL_CONFIG Register
        // XA_ST=0,YA_ST=0,ZA_ST=0, FS_SEL=0 ->  2g
        Data = 0x00;
 800230c:	2300      	movs	r3, #0
 800230e:	73bb      	strb	r3, [r7, #14]
        HAL_I2C_Mem_Write(I2Cx, MPU6050_ADDR, ACCEL_CONFIG_REG, 1, &Data, 1, i2c_timeout);
 8002310:	2364      	movs	r3, #100	@ 0x64
 8002312:	9302      	str	r3, [sp, #8]
 8002314:	2301      	movs	r3, #1
 8002316:	9301      	str	r3, [sp, #4]
 8002318:	f107 030e 	add.w	r3, r7, #14
 800231c:	9300      	str	r3, [sp, #0]
 800231e:	2301      	movs	r3, #1
 8002320:	221c      	movs	r2, #28
 8002322:	21d0      	movs	r1, #208	@ 0xd0
 8002324:	6878      	ldr	r0, [r7, #4]
 8002326:	f001 f987 	bl	8003638 <HAL_I2C_Mem_Write>

        // Set Gyroscopic configuration in GYRO_CONFIG Register
        // XG_ST=0,YG_ST=0,ZG_ST=0, FS_SEL=0 ->  250 /s
        Data = 0x00;
 800232a:	2300      	movs	r3, #0
 800232c:	73bb      	strb	r3, [r7, #14]
        HAL_I2C_Mem_Write(I2Cx, MPU6050_ADDR, GYRO_CONFIG_REG, 1, &Data, 1, i2c_timeout);
 800232e:	2364      	movs	r3, #100	@ 0x64
 8002330:	9302      	str	r3, [sp, #8]
 8002332:	2301      	movs	r3, #1
 8002334:	9301      	str	r3, [sp, #4]
 8002336:	f107 030e 	add.w	r3, r7, #14
 800233a:	9300      	str	r3, [sp, #0]
 800233c:	2301      	movs	r3, #1
 800233e:	221b      	movs	r2, #27
 8002340:	21d0      	movs	r1, #208	@ 0xd0
 8002342:	6878      	ldr	r0, [r7, #4]
 8002344:	f001 f978 	bl	8003638 <HAL_I2C_Mem_Write>
        return 0;
 8002348:	2300      	movs	r3, #0
 800234a:	e000      	b.n	800234e <MPU6050_Init+0xa6>
    }
    return 1;
 800234c:	2301      	movs	r3, #1
}
 800234e:	4618      	mov	r0, r3
 8002350:	3710      	adds	r7, #16
 8002352:	46bd      	mov	sp, r7
 8002354:	bd80      	pop	{r7, pc}
	...

08002358 <MPU6050_Read_All>:
    temp = (int16_t)(Rec_Data[0] << 8 | Rec_Data[1]);
    DataStruct->Temperature = (float)((int16_t)temp / (float)340.0 + (float)36.53);
}

void MPU6050_Read_All(I2C_HandleTypeDef *I2Cx, MPU6050_t *DataStruct)
{
 8002358:	e92d 4fb0 	stmdb	sp!, {r4, r5, r7, r8, r9, sl, fp, lr}
 800235c:	b094      	sub	sp, #80	@ 0x50
 800235e:	af04      	add	r7, sp, #16
 8002360:	6078      	str	r0, [r7, #4]
 8002362:	6039      	str	r1, [r7, #0]
    uint8_t Rec_Data[14];
    int16_t temp;

    // Read 14 BYTES of data starting from ACCEL_XOUT_H register

    HAL_I2C_Mem_Read(I2Cx, MPU6050_ADDR, ACCEL_XOUT_H_REG, 1, Rec_Data, 14, i2c_timeout);
 8002364:	2364      	movs	r3, #100	@ 0x64
 8002366:	9302      	str	r3, [sp, #8]
 8002368:	230e      	movs	r3, #14
 800236a:	9301      	str	r3, [sp, #4]
 800236c:	f107 0308 	add.w	r3, r7, #8
 8002370:	9300      	str	r3, [sp, #0]
 8002372:	2301      	movs	r3, #1
 8002374:	223b      	movs	r2, #59	@ 0x3b
 8002376:	21d0      	movs	r1, #208	@ 0xd0
 8002378:	6878      	ldr	r0, [r7, #4]
 800237a:	f001 fa57 	bl	800382c <HAL_I2C_Mem_Read>

    DataStruct->Accel_X_RAW = (int16_t)(Rec_Data[0] << 8 | Rec_Data[1]);
 800237e:	7a3b      	ldrb	r3, [r7, #8]
 8002380:	021b      	lsls	r3, r3, #8
 8002382:	b21a      	sxth	r2, r3
 8002384:	7a7b      	ldrb	r3, [r7, #9]
 8002386:	b21b      	sxth	r3, r3
 8002388:	4313      	orrs	r3, r2
 800238a:	b21a      	sxth	r2, r3
 800238c:	683b      	ldr	r3, [r7, #0]
 800238e:	801a      	strh	r2, [r3, #0]
    DataStruct->Accel_Y_RAW = (int16_t)(Rec_Data[2] << 8 | Rec_Data[3]);
 8002390:	7abb      	ldrb	r3, [r7, #10]
 8002392:	021b      	lsls	r3, r3, #8
 8002394:	b21a      	sxth	r2, r3
 8002396:	7afb      	ldrb	r3, [r7, #11]
 8002398:	b21b      	sxth	r3, r3
 800239a:	4313      	orrs	r3, r2
 800239c:	b21a      	sxth	r2, r3
 800239e:	683b      	ldr	r3, [r7, #0]
 80023a0:	805a      	strh	r2, [r3, #2]
    DataStruct->Accel_Z_RAW = (int16_t)(Rec_Data[4] << 8 | Rec_Data[5]);
 80023a2:	7b3b      	ldrb	r3, [r7, #12]
 80023a4:	021b      	lsls	r3, r3, #8
 80023a6:	b21a      	sxth	r2, r3
 80023a8:	7b7b      	ldrb	r3, [r7, #13]
 80023aa:	b21b      	sxth	r3, r3
 80023ac:	4313      	orrs	r3, r2
 80023ae:	b21a      	sxth	r2, r3
 80023b0:	683b      	ldr	r3, [r7, #0]
 80023b2:	809a      	strh	r2, [r3, #4]
    temp = (int16_t)(Rec_Data[6] << 8 | Rec_Data[7]);
 80023b4:	7bbb      	ldrb	r3, [r7, #14]
 80023b6:	021b      	lsls	r3, r3, #8
 80023b8:	b21a      	sxth	r2, r3
 80023ba:	7bfb      	ldrb	r3, [r7, #15]
 80023bc:	b21b      	sxth	r3, r3
 80023be:	4313      	orrs	r3, r2
 80023c0:	86fb      	strh	r3, [r7, #54]	@ 0x36
    DataStruct->Gyro_X_RAW = (int16_t)(Rec_Data[8] << 8 | Rec_Data[9]);
 80023c2:	7c3b      	ldrb	r3, [r7, #16]
 80023c4:	021b      	lsls	r3, r3, #8
 80023c6:	b21a      	sxth	r2, r3
 80023c8:	7c7b      	ldrb	r3, [r7, #17]
 80023ca:	b21b      	sxth	r3, r3
 80023cc:	4313      	orrs	r3, r2
 80023ce:	b21a      	sxth	r2, r3
 80023d0:	683b      	ldr	r3, [r7, #0]
 80023d2:	841a      	strh	r2, [r3, #32]
    DataStruct->Gyro_Y_RAW = (int16_t)(Rec_Data[10] << 8 | Rec_Data[11]);
 80023d4:	7cbb      	ldrb	r3, [r7, #18]
 80023d6:	021b      	lsls	r3, r3, #8
 80023d8:	b21a      	sxth	r2, r3
 80023da:	7cfb      	ldrb	r3, [r7, #19]
 80023dc:	b21b      	sxth	r3, r3
 80023de:	4313      	orrs	r3, r2
 80023e0:	b21a      	sxth	r2, r3
 80023e2:	683b      	ldr	r3, [r7, #0]
 80023e4:	845a      	strh	r2, [r3, #34]	@ 0x22
    DataStruct->Gyro_Z_RAW = (int16_t)(Rec_Data[12] << 8 | Rec_Data[13]);
 80023e6:	7d3b      	ldrb	r3, [r7, #20]
 80023e8:	021b      	lsls	r3, r3, #8
 80023ea:	b21a      	sxth	r2, r3
 80023ec:	7d7b      	ldrb	r3, [r7, #21]
 80023ee:	b21b      	sxth	r3, r3
 80023f0:	4313      	orrs	r3, r2
 80023f2:	b21a      	sxth	r2, r3
 80023f4:	683b      	ldr	r3, [r7, #0]
 80023f6:	849a      	strh	r2, [r3, #36]	@ 0x24

    DataStruct->Ax = DataStruct->Accel_X_RAW / 16384.0;
 80023f8:	683b      	ldr	r3, [r7, #0]
 80023fa:	f9b3 3000 	ldrsh.w	r3, [r3]
 80023fe:	4618      	mov	r0, r3
 8002400:	f7fd fff8 	bl	80003f4 <__aeabi_i2d>
 8002404:	f04f 0200 	mov.w	r2, #0
 8002408:	4b95      	ldr	r3, [pc, #596]	@ (8002660 <MPU6050_Read_All+0x308>)
 800240a:	f7fe f987 	bl	800071c <__aeabi_ddiv>
 800240e:	4602      	mov	r2, r0
 8002410:	460b      	mov	r3, r1
 8002412:	6839      	ldr	r1, [r7, #0]
 8002414:	e9c1 2302 	strd	r2, r3, [r1, #8]
    DataStruct->Ay = DataStruct->Accel_Y_RAW / 16384.0;
 8002418:	683b      	ldr	r3, [r7, #0]
 800241a:	f9b3 3002 	ldrsh.w	r3, [r3, #2]
 800241e:	4618      	mov	r0, r3
 8002420:	f7fd ffe8 	bl	80003f4 <__aeabi_i2d>
 8002424:	f04f 0200 	mov.w	r2, #0
 8002428:	4b8d      	ldr	r3, [pc, #564]	@ (8002660 <MPU6050_Read_All+0x308>)
 800242a:	f7fe f977 	bl	800071c <__aeabi_ddiv>
 800242e:	4602      	mov	r2, r0
 8002430:	460b      	mov	r3, r1
 8002432:	6839      	ldr	r1, [r7, #0]
 8002434:	e9c1 2304 	strd	r2, r3, [r1, #16]
    DataStruct->Az = DataStruct->Accel_Z_RAW / Accel_Z_corrector;
 8002438:	683b      	ldr	r3, [r7, #0]
 800243a:	f9b3 3004 	ldrsh.w	r3, [r3, #4]
 800243e:	4618      	mov	r0, r3
 8002440:	f7fd ffd8 	bl	80003f4 <__aeabi_i2d>
 8002444:	a380      	add	r3, pc, #512	@ (adr r3, 8002648 <MPU6050_Read_All+0x2f0>)
 8002446:	e9d3 2300 	ldrd	r2, r3, [r3]
 800244a:	f7fe f967 	bl	800071c <__aeabi_ddiv>
 800244e:	4602      	mov	r2, r0
 8002450:	460b      	mov	r3, r1
 8002452:	6839      	ldr	r1, [r7, #0]
 8002454:	e9c1 2306 	strd	r2, r3, [r1, #24]
    DataStruct->Temperature = (float)((int16_t)temp / (float)340.0 + (float)36.53);
 8002458:	f9b7 3036 	ldrsh.w	r3, [r7, #54]	@ 0x36
 800245c:	4618      	mov	r0, r3
 800245e:	f7fe fbed 	bl	8000c3c <__aeabi_i2f>
 8002462:	4603      	mov	r3, r0
 8002464:	497f      	ldr	r1, [pc, #508]	@ (8002664 <MPU6050_Read_All+0x30c>)
 8002466:	4618      	mov	r0, r3
 8002468:	f7fe fcf0 	bl	8000e4c <__aeabi_fdiv>
 800246c:	4603      	mov	r3, r0
 800246e:	497e      	ldr	r1, [pc, #504]	@ (8002668 <MPU6050_Read_All+0x310>)
 8002470:	4618      	mov	r0, r3
 8002472:	f7fe fb2f 	bl	8000ad4 <__addsf3>
 8002476:	4603      	mov	r3, r0
 8002478:	461a      	mov	r2, r3
 800247a:	683b      	ldr	r3, [r7, #0]
 800247c:	641a      	str	r2, [r3, #64]	@ 0x40
    DataStruct->Gx = DataStruct->Gyro_X_RAW / 131.0;
 800247e:	683b      	ldr	r3, [r7, #0]
 8002480:	f9b3 3020 	ldrsh.w	r3, [r3, #32]
 8002484:	4618      	mov	r0, r3
 8002486:	f7fd ffb5 	bl	80003f4 <__aeabi_i2d>
 800248a:	a371      	add	r3, pc, #452	@ (adr r3, 8002650 <MPU6050_Read_All+0x2f8>)
 800248c:	e9d3 2300 	ldrd	r2, r3, [r3]
 8002490:	f7fe f944 	bl	800071c <__aeabi_ddiv>
 8002494:	4602      	mov	r2, r0
 8002496:	460b      	mov	r3, r1
 8002498:	6839      	ldr	r1, [r7, #0]
 800249a:	e9c1 230a 	strd	r2, r3, [r1, #40]	@ 0x28
    DataStruct->Gy = DataStruct->Gyro_Y_RAW / 131.0;
 800249e:	683b      	ldr	r3, [r7, #0]
 80024a0:	f9b3 3022 	ldrsh.w	r3, [r3, #34]	@ 0x22
 80024a4:	4618      	mov	r0, r3
 80024a6:	f7fd ffa5 	bl	80003f4 <__aeabi_i2d>
 80024aa:	a369      	add	r3, pc, #420	@ (adr r3, 8002650 <MPU6050_Read_All+0x2f8>)
 80024ac:	e9d3 2300 	ldrd	r2, r3, [r3]
 80024b0:	f7fe f934 	bl	800071c <__aeabi_ddiv>
 80024b4:	4602      	mov	r2, r0
 80024b6:	460b      	mov	r3, r1
 80024b8:	6839      	ldr	r1, [r7, #0]
 80024ba:	e9c1 230c 	strd	r2, r3, [r1, #48]	@ 0x30
    DataStruct->Gz = DataStruct->Gyro_Z_RAW / 131.0;
 80024be:	683b      	ldr	r3, [r7, #0]
 80024c0:	f9b3 3024 	ldrsh.w	r3, [r3, #36]	@ 0x24
 80024c4:	4618      	mov	r0, r3
 80024c6:	f7fd ff95 	bl	80003f4 <__aeabi_i2d>
 80024ca:	a361      	add	r3, pc, #388	@ (adr r3, 8002650 <MPU6050_Read_All+0x2f8>)
 80024cc:	e9d3 2300 	ldrd	r2, r3, [r3]
 80024d0:	f7fe f924 	bl	800071c <__aeabi_ddiv>
 80024d4:	4602      	mov	r2, r0
 80024d6:	460b      	mov	r3, r1
 80024d8:	6839      	ldr	r1, [r7, #0]
 80024da:	e9c1 230e 	strd	r2, r3, [r1, #56]	@ 0x38

    // Kalman angle solve
    double dt = (double)(HAL_GetTick() - timer) / 1000;
 80024de:	f000 fcb3 	bl	8002e48 <HAL_GetTick>
 80024e2:	4602      	mov	r2, r0
 80024e4:	4b61      	ldr	r3, [pc, #388]	@ (800266c <MPU6050_Read_All+0x314>)
 80024e6:	681b      	ldr	r3, [r3, #0]
 80024e8:	1ad3      	subs	r3, r2, r3
 80024ea:	4618      	mov	r0, r3
 80024ec:	f7fd ff72 	bl	80003d4 <__aeabi_ui2d>
 80024f0:	f04f 0200 	mov.w	r2, #0
 80024f4:	4b5e      	ldr	r3, [pc, #376]	@ (8002670 <MPU6050_Read_All+0x318>)
 80024f6:	f7fe f911 	bl	800071c <__aeabi_ddiv>
 80024fa:	4602      	mov	r2, r0
 80024fc:	460b      	mov	r3, r1
 80024fe:	e9c7 230a 	strd	r2, r3, [r7, #40]	@ 0x28
    timer = HAL_GetTick();
 8002502:	f000 fca1 	bl	8002e48 <HAL_GetTick>
 8002506:	4603      	mov	r3, r0
 8002508:	4a58      	ldr	r2, [pc, #352]	@ (800266c <MPU6050_Read_All+0x314>)
 800250a:	6013      	str	r3, [r2, #0]
    double roll;
    double roll_sqrt = sqrt(
        DataStruct->Accel_X_RAW * DataStruct->Accel_X_RAW + DataStruct->Accel_Z_RAW * DataStruct->Accel_Z_RAW);
 800250c:	683b      	ldr	r3, [r7, #0]
 800250e:	f9b3 3000 	ldrsh.w	r3, [r3]
 8002512:	461a      	mov	r2, r3
 8002514:	683b      	ldr	r3, [r7, #0]
 8002516:	f9b3 3000 	ldrsh.w	r3, [r3]
 800251a:	fb03 f202 	mul.w	r2, r3, r2
 800251e:	683b      	ldr	r3, [r7, #0]
 8002520:	f9b3 3004 	ldrsh.w	r3, [r3, #4]
 8002524:	4619      	mov	r1, r3
 8002526:	683b      	ldr	r3, [r7, #0]
 8002528:	f9b3 3004 	ldrsh.w	r3, [r3, #4]
 800252c:	fb01 f303 	mul.w	r3, r1, r3
 8002530:	4413      	add	r3, r2
    double roll_sqrt = sqrt(
 8002532:	4618      	mov	r0, r3
 8002534:	f7fd ff5e 	bl	80003f4 <__aeabi_i2d>
 8002538:	4602      	mov	r2, r0
 800253a:	460b      	mov	r3, r1
 800253c:	4610      	mov	r0, r2
 800253e:	4619      	mov	r1, r3
 8002540:	f003 fc10 	bl	8005d64 <sqrt>
 8002544:	e9c7 0108 	strd	r0, r1, [r7, #32]
    if (roll_sqrt != 0.0)
 8002548:	f04f 0200 	mov.w	r2, #0
 800254c:	f04f 0300 	mov.w	r3, #0
 8002550:	e9d7 0108 	ldrd	r0, r1, [r7, #32]
 8002554:	f7fe fa20 	bl	8000998 <__aeabi_dcmpeq>
 8002558:	4603      	mov	r3, r0
 800255a:	2b00      	cmp	r3, #0
 800255c:	d119      	bne.n	8002592 <MPU6050_Read_All+0x23a>
    {
        roll = atan(DataStruct->Accel_Y_RAW / roll_sqrt) * RAD_TO_DEG;
 800255e:	683b      	ldr	r3, [r7, #0]
 8002560:	f9b3 3002 	ldrsh.w	r3, [r3, #2]
 8002564:	4618      	mov	r0, r3
 8002566:	f7fd ff45 	bl	80003f4 <__aeabi_i2d>
 800256a:	e9d7 2308 	ldrd	r2, r3, [r7, #32]
 800256e:	f7fe f8d5 	bl	800071c <__aeabi_ddiv>
 8002572:	4602      	mov	r2, r0
 8002574:	460b      	mov	r3, r1
 8002576:	4610      	mov	r0, r2
 8002578:	4619      	mov	r1, r3
 800257a:	f003 fc19 	bl	8005db0 <atan>
 800257e:	a336      	add	r3, pc, #216	@ (adr r3, 8002658 <MPU6050_Read_All+0x300>)
 8002580:	e9d3 2300 	ldrd	r2, r3, [r3]
 8002584:	f7fd ffa0 	bl	80004c8 <__aeabi_dmul>
 8002588:	4602      	mov	r2, r0
 800258a:	460b      	mov	r3, r1
 800258c:	e9c7 230e 	strd	r2, r3, [r7, #56]	@ 0x38
 8002590:	e005      	b.n	800259e <MPU6050_Read_All+0x246>
    }
    else
    {
        roll = 0.0;
 8002592:	f04f 0200 	mov.w	r2, #0
 8002596:	f04f 0300 	mov.w	r3, #0
 800259a:	e9c7 230e 	strd	r2, r3, [r7, #56]	@ 0x38
    }
    double pitch = atan2(-DataStruct->Accel_X_RAW, DataStruct->Accel_Z_RAW) * RAD_TO_DEG;
 800259e:	683b      	ldr	r3, [r7, #0]
 80025a0:	f9b3 3000 	ldrsh.w	r3, [r3]
 80025a4:	425b      	negs	r3, r3
 80025a6:	4618      	mov	r0, r3
 80025a8:	f7fd ff24 	bl	80003f4 <__aeabi_i2d>
 80025ac:	4682      	mov	sl, r0
 80025ae:	468b      	mov	fp, r1
 80025b0:	683b      	ldr	r3, [r7, #0]
 80025b2:	f9b3 3004 	ldrsh.w	r3, [r3, #4]
 80025b6:	4618      	mov	r0, r3
 80025b8:	f7fd ff1c 	bl	80003f4 <__aeabi_i2d>
 80025bc:	4602      	mov	r2, r0
 80025be:	460b      	mov	r3, r1
 80025c0:	4650      	mov	r0, sl
 80025c2:	4659      	mov	r1, fp
 80025c4:	f003 fbcc 	bl	8005d60 <atan2>
 80025c8:	a323      	add	r3, pc, #140	@ (adr r3, 8002658 <MPU6050_Read_All+0x300>)
 80025ca:	e9d3 2300 	ldrd	r2, r3, [r3]
 80025ce:	f7fd ff7b 	bl	80004c8 <__aeabi_dmul>
 80025d2:	4602      	mov	r2, r0
 80025d4:	460b      	mov	r3, r1
 80025d6:	e9c7 2306 	strd	r2, r3, [r7, #24]
    if ((pitch < -90 && DataStruct->KalmanAngleY > 90) || (pitch > 90 && DataStruct->KalmanAngleY < -90))
 80025da:	f04f 0200 	mov.w	r2, #0
 80025de:	4b25      	ldr	r3, [pc, #148]	@ (8002674 <MPU6050_Read_All+0x31c>)
 80025e0:	e9d7 0106 	ldrd	r0, r1, [r7, #24]
 80025e4:	f7fe f9e2 	bl	80009ac <__aeabi_dcmplt>
 80025e8:	4603      	mov	r3, r0
 80025ea:	2b00      	cmp	r3, #0
 80025ec:	d00a      	beq.n	8002604 <MPU6050_Read_All+0x2ac>
 80025ee:	683b      	ldr	r3, [r7, #0]
 80025f0:	e9d3 0114 	ldrd	r0, r1, [r3, #80]	@ 0x50
 80025f4:	f04f 0200 	mov.w	r2, #0
 80025f8:	4b1f      	ldr	r3, [pc, #124]	@ (8002678 <MPU6050_Read_All+0x320>)
 80025fa:	f7fe f9f5 	bl	80009e8 <__aeabi_dcmpgt>
 80025fe:	4603      	mov	r3, r0
 8002600:	2b00      	cmp	r3, #0
 8002602:	d114      	bne.n	800262e <MPU6050_Read_All+0x2d6>
 8002604:	f04f 0200 	mov.w	r2, #0
 8002608:	4b1b      	ldr	r3, [pc, #108]	@ (8002678 <MPU6050_Read_All+0x320>)
 800260a:	e9d7 0106 	ldrd	r0, r1, [r7, #24]
 800260e:	f7fe f9eb 	bl	80009e8 <__aeabi_dcmpgt>
 8002612:	4603      	mov	r3, r0
 8002614:	2b00      	cmp	r3, #0
 8002616:	d033      	beq.n	8002680 <MPU6050_Read_All+0x328>
 8002618:	683b      	ldr	r3, [r7, #0]
 800261a:	e9d3 0114 	ldrd	r0, r1, [r3, #80]	@ 0x50
 800261e:	f04f 0200 	mov.w	r2, #0
 8002622:	4b14      	ldr	r3, [pc, #80]	@ (8002674 <MPU6050_Read_All+0x31c>)
 8002624:	f7fe f9c2 	bl	80009ac <__aeabi_dcmplt>
 8002628:	4603      	mov	r3, r0
 800262a:	2b00      	cmp	r3, #0
 800262c:	d028      	beq.n	8002680 <MPU6050_Read_All+0x328>
    {
        KalmanY.angle = pitch;
 800262e:	4913      	ldr	r1, [pc, #76]	@ (800267c <MPU6050_Read_All+0x324>)
 8002630:	e9d7 2306 	ldrd	r2, r3, [r7, #24]
 8002634:	e9c1 2306 	strd	r2, r3, [r1, #24]
        DataStruct->KalmanAngleY = pitch;
 8002638:	6839      	ldr	r1, [r7, #0]
 800263a:	e9d7 2306 	ldrd	r2, r3, [r7, #24]
 800263e:	e9c1 2314 	strd	r2, r3, [r1, #80]	@ 0x50
 8002642:	e030      	b.n	80026a6 <MPU6050_Read_All+0x34e>
 8002644:	f3af 8000 	nop.w
 8002648:	00000000 	.word	0x00000000
 800264c:	40cc2900 	.word	0x40cc2900
 8002650:	00000000 	.word	0x00000000
 8002654:	40606000 	.word	0x40606000
 8002658:	1a63c1f8 	.word	0x1a63c1f8
 800265c:	404ca5dc 	.word	0x404ca5dc
 8002660:	40d00000 	.word	0x40d00000
 8002664:	43aa0000 	.word	0x43aa0000
 8002668:	42121eb8 	.word	0x42121eb8
 800266c:	20000328 	.word	0x20000328
 8002670:	408f4000 	.word	0x408f4000
 8002674:	c0568000 	.word	0xc0568000
 8002678:	40568000 	.word	0x40568000
 800267c:	20000048 	.word	0x20000048
    }
    else
    {
        DataStruct->KalmanAngleY = Kalman_getAngle(&KalmanY, pitch, DataStruct->Gy, dt);
 8002680:	683b      	ldr	r3, [r7, #0]
 8002682:	e9d3 230c 	ldrd	r2, r3, [r3, #48]	@ 0x30
 8002686:	e9d7 010a 	ldrd	r0, r1, [r7, #40]	@ 0x28
 800268a:	e9cd 0102 	strd	r0, r1, [sp, #8]
 800268e:	e9cd 2300 	strd	r2, r3, [sp]
 8002692:	e9d7 2306 	ldrd	r2, r3, [r7, #24]
 8002696:	481c      	ldr	r0, [pc, #112]	@ (8002708 <MPU6050_Read_All+0x3b0>)
 8002698:	f000 f83c 	bl	8002714 <Kalman_getAngle>
 800269c:	4602      	mov	r2, r0
 800269e:	460b      	mov	r3, r1
 80026a0:	6839      	ldr	r1, [r7, #0]
 80026a2:	e9c1 2314 	strd	r2, r3, [r1, #80]	@ 0x50
    }
    if (fabs(DataStruct->KalmanAngleY) > 90)
 80026a6:	683b      	ldr	r3, [r7, #0]
 80026a8:	e9d3 2314 	ldrd	r2, r3, [r3, #80]	@ 0x50
 80026ac:	4690      	mov	r8, r2
 80026ae:	f023 4900 	bic.w	r9, r3, #2147483648	@ 0x80000000
 80026b2:	f04f 0200 	mov.w	r2, #0
 80026b6:	4b15      	ldr	r3, [pc, #84]	@ (800270c <MPU6050_Read_All+0x3b4>)
 80026b8:	4640      	mov	r0, r8
 80026ba:	4649      	mov	r1, r9
 80026bc:	f7fe f994 	bl	80009e8 <__aeabi_dcmpgt>
 80026c0:	4603      	mov	r3, r0
 80026c2:	2b00      	cmp	r3, #0
 80026c4:	d008      	beq.n	80026d8 <MPU6050_Read_All+0x380>
        DataStruct->Gx = -DataStruct->Gx;
 80026c6:	683b      	ldr	r3, [r7, #0]
 80026c8:	e9d3 230a 	ldrd	r2, r3, [r3, #40]	@ 0x28
 80026cc:	4614      	mov	r4, r2
 80026ce:	f083 4500 	eor.w	r5, r3, #2147483648	@ 0x80000000
 80026d2:	683b      	ldr	r3, [r7, #0]
 80026d4:	e9c3 450a 	strd	r4, r5, [r3, #40]	@ 0x28
    DataStruct->KalmanAngleX = Kalman_getAngle(&KalmanX, roll, DataStruct->Gx, dt);
 80026d8:	683b      	ldr	r3, [r7, #0]
 80026da:	e9d3 230a 	ldrd	r2, r3, [r3, #40]	@ 0x28
 80026de:	e9d7 010a 	ldrd	r0, r1, [r7, #40]	@ 0x28
 80026e2:	e9cd 0102 	strd	r0, r1, [sp, #8]
 80026e6:	e9cd 2300 	strd	r2, r3, [sp]
 80026ea:	e9d7 230e 	ldrd	r2, r3, [r7, #56]	@ 0x38
 80026ee:	4808      	ldr	r0, [pc, #32]	@ (8002710 <MPU6050_Read_All+0x3b8>)
 80026f0:	f000 f810 	bl	8002714 <Kalman_getAngle>
 80026f4:	4602      	mov	r2, r0
 80026f6:	460b      	mov	r3, r1
 80026f8:	6839      	ldr	r1, [r7, #0]
 80026fa:	e9c1 2312 	strd	r2, r3, [r1, #72]	@ 0x48
}
 80026fe:	bf00      	nop
 8002700:	3740      	adds	r7, #64	@ 0x40
 8002702:	46bd      	mov	sp, r7
 8002704:	e8bd 8fb0 	ldmia.w	sp!, {r4, r5, r7, r8, r9, sl, fp, pc}
 8002708:	20000048 	.word	0x20000048
 800270c:	40568000 	.word	0x40568000
 8002710:	20000000 	.word	0x20000000

08002714 <Kalman_getAngle>:

double Kalman_getAngle(Kalman_t *Kalman, double newAngle, double newRate, double dt)
{
 8002714:	b5b0      	push	{r4, r5, r7, lr}
 8002716:	b092      	sub	sp, #72	@ 0x48
 8002718:	af00      	add	r7, sp, #0
 800271a:	60f8      	str	r0, [r7, #12]
 800271c:	e9c7 2300 	strd	r2, r3, [r7]
    double rate = newRate - Kalman->bias;
 8002720:	68fb      	ldr	r3, [r7, #12]
 8002722:	e9d3 2308 	ldrd	r2, r3, [r3, #32]
 8002726:	e9d7 0116 	ldrd	r0, r1, [r7, #88]	@ 0x58
 800272a:	f7fd fd15 	bl	8000158 <__aeabi_dsub>
 800272e:	4602      	mov	r2, r0
 8002730:	460b      	mov	r3, r1
 8002732:	e9c7 2310 	strd	r2, r3, [r7, #64]	@ 0x40
    Kalman->angle += dt * rate;
 8002736:	68fb      	ldr	r3, [r7, #12]
 8002738:	e9d3 4506 	ldrd	r4, r5, [r3, #24]
 800273c:	e9d7 2310 	ldrd	r2, r3, [r7, #64]	@ 0x40
 8002740:	e9d7 0118 	ldrd	r0, r1, [r7, #96]	@ 0x60
 8002744:	f7fd fec0 	bl	80004c8 <__aeabi_dmul>
 8002748:	4602      	mov	r2, r0
 800274a:	460b      	mov	r3, r1
 800274c:	4620      	mov	r0, r4
 800274e:	4629      	mov	r1, r5
 8002750:	f7fd fd04 	bl	800015c <__adddf3>
 8002754:	4602      	mov	r2, r0
 8002756:	460b      	mov	r3, r1
 8002758:	68f9      	ldr	r1, [r7, #12]
 800275a:	e9c1 2306 	strd	r2, r3, [r1, #24]

    Kalman->P[0][0] += dt * (dt * Kalman->P[1][1] - Kalman->P[0][1] - Kalman->P[1][0] + Kalman->Q_angle);
 800275e:	68fb      	ldr	r3, [r7, #12]
 8002760:	e9d3 450a 	ldrd	r4, r5, [r3, #40]	@ 0x28
 8002764:	68fb      	ldr	r3, [r7, #12]
 8002766:	e9d3 0110 	ldrd	r0, r1, [r3, #64]	@ 0x40
 800276a:	e9d7 2318 	ldrd	r2, r3, [r7, #96]	@ 0x60
 800276e:	f7fd feab 	bl	80004c8 <__aeabi_dmul>
 8002772:	4602      	mov	r2, r0
 8002774:	460b      	mov	r3, r1
 8002776:	4610      	mov	r0, r2
 8002778:	4619      	mov	r1, r3
 800277a:	68fb      	ldr	r3, [r7, #12]
 800277c:	e9d3 230c 	ldrd	r2, r3, [r3, #48]	@ 0x30
 8002780:	f7fd fcea 	bl	8000158 <__aeabi_dsub>
 8002784:	4602      	mov	r2, r0
 8002786:	460b      	mov	r3, r1
 8002788:	4610      	mov	r0, r2
 800278a:	4619      	mov	r1, r3
 800278c:	68fb      	ldr	r3, [r7, #12]
 800278e:	e9d3 230e 	ldrd	r2, r3, [r3, #56]	@ 0x38
 8002792:	f7fd fce1 	bl	8000158 <__aeabi_dsub>
 8002796:	4602      	mov	r2, r0
 8002798:	460b      	mov	r3, r1
 800279a:	4610      	mov	r0, r2
 800279c:	4619      	mov	r1, r3
 800279e:	68fb      	ldr	r3, [r7, #12]
 80027a0:	e9d3 2300 	ldrd	r2, r3, [r3]
 80027a4:	f7fd fcda 	bl	800015c <__adddf3>
 80027a8:	4602      	mov	r2, r0
 80027aa:	460b      	mov	r3, r1
 80027ac:	4610      	mov	r0, r2
 80027ae:	4619      	mov	r1, r3
 80027b0:	e9d7 2318 	ldrd	r2, r3, [r7, #96]	@ 0x60
 80027b4:	f7fd fe88 	bl	80004c8 <__aeabi_dmul>
 80027b8:	4602      	mov	r2, r0
 80027ba:	460b      	mov	r3, r1
 80027bc:	4620      	mov	r0, r4
 80027be:	4629      	mov	r1, r5
 80027c0:	f7fd fccc 	bl	800015c <__adddf3>
 80027c4:	4602      	mov	r2, r0
 80027c6:	460b      	mov	r3, r1
 80027c8:	68f9      	ldr	r1, [r7, #12]
 80027ca:	e9c1 230a 	strd	r2, r3, [r1, #40]	@ 0x28
    Kalman->P[0][1] -= dt * Kalman->P[1][1];
 80027ce:	68fb      	ldr	r3, [r7, #12]
 80027d0:	e9d3 450c 	ldrd	r4, r5, [r3, #48]	@ 0x30
 80027d4:	68fb      	ldr	r3, [r7, #12]
 80027d6:	e9d3 0110 	ldrd	r0, r1, [r3, #64]	@ 0x40
 80027da:	e9d7 2318 	ldrd	r2, r3, [r7, #96]	@ 0x60
 80027de:	f7fd fe73 	bl	80004c8 <__aeabi_dmul>
 80027e2:	4602      	mov	r2, r0
 80027e4:	460b      	mov	r3, r1
 80027e6:	4620      	mov	r0, r4
 80027e8:	4629      	mov	r1, r5
 80027ea:	f7fd fcb5 	bl	8000158 <__aeabi_dsub>
 80027ee:	4602      	mov	r2, r0
 80027f0:	460b      	mov	r3, r1
 80027f2:	68f9      	ldr	r1, [r7, #12]
 80027f4:	e9c1 230c 	strd	r2, r3, [r1, #48]	@ 0x30
    Kalman->P[1][0] -= dt * Kalman->P[1][1];
 80027f8:	68fb      	ldr	r3, [r7, #12]
 80027fa:	e9d3 450e 	ldrd	r4, r5, [r3, #56]	@ 0x38
 80027fe:	68fb      	ldr	r3, [r7, #12]
 8002800:	e9d3 0110 	ldrd	r0, r1, [r3, #64]	@ 0x40
 8002804:	e9d7 2318 	ldrd	r2, r3, [r7, #96]	@ 0x60
 8002808:	f7fd fe5e 	bl	80004c8 <__aeabi_dmul>
 800280c:	4602      	mov	r2, r0
 800280e:	460b      	mov	r3, r1
 8002810:	4620      	mov	r0, r4
 8002812:	4629      	mov	r1, r5
 8002814:	f7fd fca0 	bl	8000158 <__aeabi_dsub>
 8002818:	4602      	mov	r2, r0
 800281a:	460b      	mov	r3, r1
 800281c:	68f9      	ldr	r1, [r7, #12]
 800281e:	e9c1 230e 	strd	r2, r3, [r1, #56]	@ 0x38
    Kalman->P[1][1] += Kalman->Q_bias * dt;
 8002822:	68fb      	ldr	r3, [r7, #12]
 8002824:	e9d3 4510 	ldrd	r4, r5, [r3, #64]	@ 0x40
 8002828:	68fb      	ldr	r3, [r7, #12]
 800282a:	e9d3 0102 	ldrd	r0, r1, [r3, #8]
 800282e:	e9d7 2318 	ldrd	r2, r3, [r7, #96]	@ 0x60
 8002832:	f7fd fe49 	bl	80004c8 <__aeabi_dmul>
 8002836:	4602      	mov	r2, r0
 8002838:	460b      	mov	r3, r1
 800283a:	4620      	mov	r0, r4
 800283c:	4629      	mov	r1, r5
 800283e:	f7fd fc8d 	bl	800015c <__adddf3>
 8002842:	4602      	mov	r2, r0
 8002844:	460b      	mov	r3, r1
 8002846:	68f9      	ldr	r1, [r7, #12]
 8002848:	e9c1 2310 	strd	r2, r3, [r1, #64]	@ 0x40

    double S = Kalman->P[0][0] + Kalman->R_measure;
 800284c:	68fb      	ldr	r3, [r7, #12]
 800284e:	e9d3 010a 	ldrd	r0, r1, [r3, #40]	@ 0x28
 8002852:	68fb      	ldr	r3, [r7, #12]
 8002854:	e9d3 2304 	ldrd	r2, r3, [r3, #16]
 8002858:	f7fd fc80 	bl	800015c <__adddf3>
 800285c:	4602      	mov	r2, r0
 800285e:	460b      	mov	r3, r1
 8002860:	e9c7 230e 	strd	r2, r3, [r7, #56]	@ 0x38
    double K[2];
    K[0] = Kalman->P[0][0] / S;
 8002864:	68fb      	ldr	r3, [r7, #12]
 8002866:	e9d3 010a 	ldrd	r0, r1, [r3, #40]	@ 0x28
 800286a:	e9d7 230e 	ldrd	r2, r3, [r7, #56]	@ 0x38
 800286e:	f7fd ff55 	bl	800071c <__aeabi_ddiv>
 8002872:	4602      	mov	r2, r0
 8002874:	460b      	mov	r3, r1
 8002876:	e9c7 2304 	strd	r2, r3, [r7, #16]
    K[1] = Kalman->P[1][0] / S;
 800287a:	68fb      	ldr	r3, [r7, #12]
 800287c:	e9d3 010e 	ldrd	r0, r1, [r3, #56]	@ 0x38
 8002880:	e9d7 230e 	ldrd	r2, r3, [r7, #56]	@ 0x38
 8002884:	f7fd ff4a 	bl	800071c <__aeabi_ddiv>
 8002888:	4602      	mov	r2, r0
 800288a:	460b      	mov	r3, r1
 800288c:	e9c7 2306 	strd	r2, r3, [r7, #24]

    double y = newAngle - Kalman->angle;
 8002890:	68fb      	ldr	r3, [r7, #12]
 8002892:	e9d3 2306 	ldrd	r2, r3, [r3, #24]
 8002896:	e9d7 0100 	ldrd	r0, r1, [r7]
 800289a:	f7fd fc5d 	bl	8000158 <__aeabi_dsub>
 800289e:	4602      	mov	r2, r0
 80028a0:	460b      	mov	r3, r1
 80028a2:	e9c7 230c 	strd	r2, r3, [r7, #48]	@ 0x30
    Kalman->angle += K[0] * y;
 80028a6:	68fb      	ldr	r3, [r7, #12]
 80028a8:	e9d3 4506 	ldrd	r4, r5, [r3, #24]
 80028ac:	e9d7 0104 	ldrd	r0, r1, [r7, #16]
 80028b0:	e9d7 230c 	ldrd	r2, r3, [r7, #48]	@ 0x30
 80028b4:	f7fd fe08 	bl	80004c8 <__aeabi_dmul>
 80028b8:	4602      	mov	r2, r0
 80028ba:	460b      	mov	r3, r1
 80028bc:	4620      	mov	r0, r4
 80028be:	4629      	mov	r1, r5
 80028c0:	f7fd fc4c 	bl	800015c <__adddf3>
 80028c4:	4602      	mov	r2, r0
 80028c6:	460b      	mov	r3, r1
 80028c8:	68f9      	ldr	r1, [r7, #12]
 80028ca:	e9c1 2306 	strd	r2, r3, [r1, #24]
    Kalman->bias += K[1] * y;
 80028ce:	68fb      	ldr	r3, [r7, #12]
 80028d0:	e9d3 4508 	ldrd	r4, r5, [r3, #32]
 80028d4:	e9d7 0106 	ldrd	r0, r1, [r7, #24]
 80028d8:	e9d7 230c 	ldrd	r2, r3, [r7, #48]	@ 0x30
 80028dc:	f7fd fdf4 	bl	80004c8 <__aeabi_dmul>
 80028e0:	4602      	mov	r2, r0
 80028e2:	460b      	mov	r3, r1
 80028e4:	4620      	mov	r0, r4
 80028e6:	4629      	mov	r1, r5
 80028e8:	f7fd fc38 	bl	800015c <__adddf3>
 80028ec:	4602      	mov	r2, r0
 80028ee:	460b      	mov	r3, r1
 80028f0:	68f9      	ldr	r1, [r7, #12]
 80028f2:	e9c1 2308 	strd	r2, r3, [r1, #32]

    double P00_temp = Kalman->P[0][0];
 80028f6:	68fb      	ldr	r3, [r7, #12]
 80028f8:	e9d3 230a 	ldrd	r2, r3, [r3, #40]	@ 0x28
 80028fc:	e9c7 230a 	strd	r2, r3, [r7, #40]	@ 0x28
    double P01_temp = Kalman->P[0][1];
 8002900:	68fb      	ldr	r3, [r7, #12]
 8002902:	e9d3 230c 	ldrd	r2, r3, [r3, #48]	@ 0x30
 8002906:	e9c7 2308 	strd	r2, r3, [r7, #32]

    Kalman->P[0][0] -= K[0] * P00_temp;
 800290a:	68fb      	ldr	r3, [r7, #12]
 800290c:	e9d3 450a 	ldrd	r4, r5, [r3, #40]	@ 0x28
 8002910:	e9d7 0104 	ldrd	r0, r1, [r7, #16]
 8002914:	e9d7 230a 	ldrd	r2, r3, [r7, #40]	@ 0x28
 8002918:	f7fd fdd6 	bl	80004c8 <__aeabi_dmul>
 800291c:	4602      	mov	r2, r0
 800291e:	460b      	mov	r3, r1
 8002920:	4620      	mov	r0, r4
 8002922:	4629      	mov	r1, r5
 8002924:	f7fd fc18 	bl	8000158 <__aeabi_dsub>
 8002928:	4602      	mov	r2, r0
 800292a:	460b      	mov	r3, r1
 800292c:	68f9      	ldr	r1, [r7, #12]
 800292e:	e9c1 230a 	strd	r2, r3, [r1, #40]	@ 0x28
    Kalman->P[0][1] -= K[0] * P01_temp;
 8002932:	68fb      	ldr	r3, [r7, #12]
 8002934:	e9d3 450c 	ldrd	r4, r5, [r3, #48]	@ 0x30
 8002938:	e9d7 0104 	ldrd	r0, r1, [r7, #16]
 800293c:	e9d7 2308 	ldrd	r2, r3, [r7, #32]
 8002940:	f7fd fdc2 	bl	80004c8 <__aeabi_dmul>
 8002944:	4602      	mov	r2, r0
 8002946:	460b      	mov	r3, r1
 8002948:	4620      	mov	r0, r4
 800294a:	4629      	mov	r1, r5
 800294c:	f7fd fc04 	bl	8000158 <__aeabi_dsub>
 8002950:	4602      	mov	r2, r0
 8002952:	460b      	mov	r3, r1
 8002954:	68f9      	ldr	r1, [r7, #12]
 8002956:	e9c1 230c 	strd	r2, r3, [r1, #48]	@ 0x30
    Kalman->P[1][0] -= K[1] * P00_temp;
 800295a:	68fb      	ldr	r3, [r7, #12]
 800295c:	e9d3 450e 	ldrd	r4, r5, [r3, #56]	@ 0x38
 8002960:	e9d7 0106 	ldrd	r0, r1, [r7, #24]
 8002964:	e9d7 230a 	ldrd	r2, r3, [r7, #40]	@ 0x28
 8002968:	f7fd fdae 	bl	80004c8 <__aeabi_dmul>
 800296c:	4602      	mov	r2, r0
 800296e:	460b      	mov	r3, r1
 8002970:	4620      	mov	r0, r4
 8002972:	4629      	mov	r1, r5
 8002974:	f7fd fbf0 	bl	8000158 <__aeabi_dsub>
 8002978:	4602      	mov	r2, r0
 800297a:	460b      	mov	r3, r1
 800297c:	68f9      	ldr	r1, [r7, #12]
 800297e:	e9c1 230e 	strd	r2, r3, [r1, #56]	@ 0x38
    Kalman->P[1][1] -= K[1] * P01_temp;
 8002982:	68fb      	ldr	r3, [r7, #12]
 8002984:	e9d3 4510 	ldrd	r4, r5, [r3, #64]	@ 0x40
 8002988:	e9d7 0106 	ldrd	r0, r1, [r7, #24]
 800298c:	e9d7 2308 	ldrd	r2, r3, [r7, #32]
 8002990:	f7fd fd9a 	bl	80004c8 <__aeabi_dmul>
 8002994:	4602      	mov	r2, r0
 8002996:	460b      	mov	r3, r1
 8002998:	4620      	mov	r0, r4
 800299a:	4629      	mov	r1, r5
 800299c:	f7fd fbdc 	bl	8000158 <__aeabi_dsub>
 80029a0:	4602      	mov	r2, r0
 80029a2:	460b      	mov	r3, r1
 80029a4:	68f9      	ldr	r1, [r7, #12]
 80029a6:	e9c1 2310 	strd	r2, r3, [r1, #64]	@ 0x40

    return Kalman->angle;
 80029aa:	68fb      	ldr	r3, [r7, #12]
 80029ac:	e9d3 2306 	ldrd	r2, r3, [r3, #24]
};
 80029b0:	4610      	mov	r0, r2
 80029b2:	4619      	mov	r1, r3
 80029b4:	3748      	adds	r7, #72	@ 0x48
 80029b6:	46bd      	mov	sp, r7
 80029b8:	bdb0      	pop	{r4, r5, r7, pc}
	...

080029bc <HAL_MspInit>:
void HAL_TIM_MspPostInit(TIM_HandleTypeDef *htim);
                                        /**
  * Initializes the Global MSP.
  */
void HAL_MspInit(void)
{
 80029bc:	b480      	push	{r7}
 80029be:	b085      	sub	sp, #20
 80029c0:	af00      	add	r7, sp, #0

  /* USER CODE BEGIN MspInit 0 */

  /* USER CODE END MspInit 0 */

  __HAL_RCC_AFIO_CLK_ENABLE();
 80029c2:	4b15      	ldr	r3, [pc, #84]	@ (8002a18 <HAL_MspInit+0x5c>)
 80029c4:	699b      	ldr	r3, [r3, #24]
 80029c6:	4a14      	ldr	r2, [pc, #80]	@ (8002a18 <HAL_MspInit+0x5c>)
 80029c8:	f043 0301 	orr.w	r3, r3, #1
 80029cc:	6193      	str	r3, [r2, #24]
 80029ce:	4b12      	ldr	r3, [pc, #72]	@ (8002a18 <HAL_MspInit+0x5c>)
 80029d0:	699b      	ldr	r3, [r3, #24]
 80029d2:	f003 0301 	and.w	r3, r3, #1
 80029d6:	60bb      	str	r3, [r7, #8]
 80029d8:	68bb      	ldr	r3, [r7, #8]
  __HAL_RCC_PWR_CLK_ENABLE();
 80029da:	4b0f      	ldr	r3, [pc, #60]	@ (8002a18 <HAL_MspInit+0x5c>)
 80029dc:	69db      	ldr	r3, [r3, #28]
 80029de:	4a0e      	ldr	r2, [pc, #56]	@ (8002a18 <HAL_MspInit+0x5c>)
 80029e0:	f043 5380 	orr.w	r3, r3, #268435456	@ 0x10000000
 80029e4:	61d3      	str	r3, [r2, #28]
 80029e6:	4b0c      	ldr	r3, [pc, #48]	@ (8002a18 <HAL_MspInit+0x5c>)
 80029e8:	69db      	ldr	r3, [r3, #28]
 80029ea:	f003 5380 	and.w	r3, r3, #268435456	@ 0x10000000
 80029ee:	607b      	str	r3, [r7, #4]
 80029f0:	687b      	ldr	r3, [r7, #4]

  /* System interrupt init*/

  /** NOJTAG: JTAG-DP Disabled and SW-DP Enabled
  */
  __HAL_AFIO_REMAP_SWJ_NOJTAG();
 80029f2:	4b0a      	ldr	r3, [pc, #40]	@ (8002a1c <HAL_MspInit+0x60>)
 80029f4:	685b      	ldr	r3, [r3, #4]
 80029f6:	60fb      	str	r3, [r7, #12]
 80029f8:	68fb      	ldr	r3, [r7, #12]
 80029fa:	f023 63e0 	bic.w	r3, r3, #117440512	@ 0x7000000
 80029fe:	60fb      	str	r3, [r7, #12]
 8002a00:	68fb      	ldr	r3, [r7, #12]
 8002a02:	f043 7300 	orr.w	r3, r3, #33554432	@ 0x2000000
 8002a06:	60fb      	str	r3, [r7, #12]
 8002a08:	4a04      	ldr	r2, [pc, #16]	@ (8002a1c <HAL_MspInit+0x60>)
 8002a0a:	68fb      	ldr	r3, [r7, #12]
 8002a0c:	6053      	str	r3, [r2, #4]

  /* USER CODE BEGIN MspInit 1 */

  /* USER CODE END MspInit 1 */
}
 8002a0e:	bf00      	nop
 8002a10:	3714      	adds	r7, #20
 8002a12:	46bd      	mov	sp, r7
 8002a14:	bc80      	pop	{r7}
 8002a16:	4770      	bx	lr
 8002a18:	40021000 	.word	0x40021000
 8002a1c:	40010000 	.word	0x40010000

08002a20 <HAL_I2C_MspInit>:
* This function configures the hardware resources used in this example
* @param hi2c: I2C handle pointer
* @retval None
*/
void HAL_I2C_MspInit(I2C_HandleTypeDef* hi2c)
{
 8002a20:	b580      	push	{r7, lr}
 8002a22:	b08a      	sub	sp, #40	@ 0x28
 8002a24:	af00      	add	r7, sp, #0
 8002a26:	6078      	str	r0, [r7, #4]
  GPIO_InitTypeDef GPIO_InitStruct = {0};
 8002a28:	f107 0314 	add.w	r3, r7, #20
 8002a2c:	2200      	movs	r2, #0
 8002a2e:	601a      	str	r2, [r3, #0]
 8002a30:	605a      	str	r2, [r3, #4]
 8002a32:	609a      	str	r2, [r3, #8]
 8002a34:	60da      	str	r2, [r3, #12]
  if(hi2c->Instance==I2C1)
 8002a36:	687b      	ldr	r3, [r7, #4]
 8002a38:	681b      	ldr	r3, [r3, #0]
 8002a3a:	4a1d      	ldr	r2, [pc, #116]	@ (8002ab0 <HAL_I2C_MspInit+0x90>)
 8002a3c:	4293      	cmp	r3, r2
 8002a3e:	d132      	bne.n	8002aa6 <HAL_I2C_MspInit+0x86>
  {
  /* USER CODE BEGIN I2C1_MspInit 0 */

  /* USER CODE END I2C1_MspInit 0 */

    __HAL_RCC_GPIOB_CLK_ENABLE();
 8002a40:	4b1c      	ldr	r3, [pc, #112]	@ (8002ab4 <HAL_I2C_MspInit+0x94>)
 8002a42:	699b      	ldr	r3, [r3, #24]
 8002a44:	4a1b      	ldr	r2, [pc, #108]	@ (8002ab4 <HAL_I2C_MspInit+0x94>)
 8002a46:	f043 0308 	orr.w	r3, r3, #8
 8002a4a:	6193      	str	r3, [r2, #24]
 8002a4c:	4b19      	ldr	r3, [pc, #100]	@ (8002ab4 <HAL_I2C_MspInit+0x94>)
 8002a4e:	699b      	ldr	r3, [r3, #24]
 8002a50:	f003 0308 	and.w	r3, r3, #8
 8002a54:	613b      	str	r3, [r7, #16]
 8002a56:	693b      	ldr	r3, [r7, #16]
    /**I2C1 GPIO Configuration
    PB8     ------> I2C1_SCL
    PB9     ------> I2C1_SDA
    */
    GPIO_InitStruct.Pin = GPIO_PIN_8|GPIO_PIN_9;
 8002a58:	f44f 7340 	mov.w	r3, #768	@ 0x300
 8002a5c:	617b      	str	r3, [r7, #20]
    GPIO_InitStruct.Mode = GPIO_MODE_AF_OD;
 8002a5e:	2312      	movs	r3, #18
 8002a60:	61bb      	str	r3, [r7, #24]
    GPIO_InitStruct.Speed = GPIO_SPEED_FREQ_HIGH;
 8002a62:	2303      	movs	r3, #3
 8002a64:	623b      	str	r3, [r7, #32]
    HAL_GPIO_Init(GPIOB, &GPIO_InitStruct);
 8002a66:	f107 0314 	add.w	r3, r7, #20
 8002a6a:	4619      	mov	r1, r3
 8002a6c:	4812      	ldr	r0, [pc, #72]	@ (8002ab8 <HAL_I2C_MspInit+0x98>)
 8002a6e:	f000 fb03 	bl	8003078 <HAL_GPIO_Init>

    __HAL_AFIO_REMAP_I2C1_ENABLE();
 8002a72:	4b12      	ldr	r3, [pc, #72]	@ (8002abc <HAL_I2C_MspInit+0x9c>)
 8002a74:	685b      	ldr	r3, [r3, #4]
 8002a76:	627b      	str	r3, [r7, #36]	@ 0x24
 8002a78:	6a7b      	ldr	r3, [r7, #36]	@ 0x24
 8002a7a:	f043 63e0 	orr.w	r3, r3, #117440512	@ 0x7000000
 8002a7e:	627b      	str	r3, [r7, #36]	@ 0x24
 8002a80:	6a7b      	ldr	r3, [r7, #36]	@ 0x24
 8002a82:	f043 0302 	orr.w	r3, r3, #2
 8002a86:	627b      	str	r3, [r7, #36]	@ 0x24
 8002a88:	4a0c      	ldr	r2, [pc, #48]	@ (8002abc <HAL_I2C_MspInit+0x9c>)
 8002a8a:	6a7b      	ldr	r3, [r7, #36]	@ 0x24
 8002a8c:	6053      	str	r3, [r2, #4]

    /* Peripheral clock enable */
    __HAL_RCC_I2C1_CLK_ENABLE();
 8002a8e:	4b09      	ldr	r3, [pc, #36]	@ (8002ab4 <HAL_I2C_MspInit+0x94>)
 8002a90:	69db      	ldr	r3, [r3, #28]
 8002a92:	4a08      	ldr	r2, [pc, #32]	@ (8002ab4 <HAL_I2C_MspInit+0x94>)
 8002a94:	f443 1300 	orr.w	r3, r3, #2097152	@ 0x200000
 8002a98:	61d3      	str	r3, [r2, #28]
 8002a9a:	4b06      	ldr	r3, [pc, #24]	@ (8002ab4 <HAL_I2C_MspInit+0x94>)
 8002a9c:	69db      	ldr	r3, [r3, #28]
 8002a9e:	f403 1300 	and.w	r3, r3, #2097152	@ 0x200000
 8002aa2:	60fb      	str	r3, [r7, #12]
 8002aa4:	68fb      	ldr	r3, [r7, #12]
  /* USER CODE BEGIN I2C1_MspInit 1 */

  /* USER CODE END I2C1_MspInit 1 */
  }

}
 8002aa6:	bf00      	nop
 8002aa8:	3728      	adds	r7, #40	@ 0x28
 8002aaa:	46bd      	mov	sp, r7
 8002aac:	bd80      	pop	{r7, pc}
 8002aae:	bf00      	nop
 8002ab0:	40005400 	.word	0x40005400
 8002ab4:	40021000 	.word	0x40021000
 8002ab8:	40010c00 	.word	0x40010c00
 8002abc:	40010000 	.word	0x40010000

08002ac0 <HAL_TIM_Base_MspInit>:
* This function configures the hardware resources used in this example
* @param htim_base: TIM_Base handle pointer
* @retval None
*/
void HAL_TIM_Base_MspInit(TIM_HandleTypeDef* htim_base)
{
 8002ac0:	b580      	push	{r7, lr}
 8002ac2:	b084      	sub	sp, #16
 8002ac4:	af00      	add	r7, sp, #0
 8002ac6:	6078      	str	r0, [r7, #4]
  if(htim_base->Instance==TIM1)
 8002ac8:	687b      	ldr	r3, [r7, #4]
 8002aca:	681b      	ldr	r3, [r3, #0]
 8002acc:	4a0d      	ldr	r2, [pc, #52]	@ (8002b04 <HAL_TIM_Base_MspInit+0x44>)
 8002ace:	4293      	cmp	r3, r2
 8002ad0:	d113      	bne.n	8002afa <HAL_TIM_Base_MspInit+0x3a>
  {
  /* USER CODE BEGIN TIM1_MspInit 0 */

  /* USER CODE END TIM1_MspInit 0 */
    /* Peripheral clock enable */
    __HAL_RCC_TIM1_CLK_ENABLE();
 8002ad2:	4b0d      	ldr	r3, [pc, #52]	@ (8002b08 <HAL_TIM_Base_MspInit+0x48>)
 8002ad4:	699b      	ldr	r3, [r3, #24]
 8002ad6:	4a0c      	ldr	r2, [pc, #48]	@ (8002b08 <HAL_TIM_Base_MspInit+0x48>)
 8002ad8:	f443 6300 	orr.w	r3, r3, #2048	@ 0x800
 8002adc:	6193      	str	r3, [r2, #24]
 8002ade:	4b0a      	ldr	r3, [pc, #40]	@ (8002b08 <HAL_TIM_Base_MspInit+0x48>)
 8002ae0:	699b      	ldr	r3, [r3, #24]
 8002ae2:	f403 6300 	and.w	r3, r3, #2048	@ 0x800
 8002ae6:	60fb      	str	r3, [r7, #12]
 8002ae8:	68fb      	ldr	r3, [r7, #12]
    /* TIM1 interrupt Init */
    HAL_NVIC_SetPriority(TIM1_UP_IRQn, 0, 0);
 8002aea:	2200      	movs	r2, #0
 8002aec:	2100      	movs	r1, #0
 8002aee:	2019      	movs	r0, #25
 8002af0:	f000 fa8b 	bl	800300a <HAL_NVIC_SetPriority>
    HAL_NVIC_EnableIRQ(TIM1_UP_IRQn);
 8002af4:	2019      	movs	r0, #25
 8002af6:	f000 faa4 	bl	8003042 <HAL_NVIC_EnableIRQ>
  /* USER CODE BEGIN TIM1_MspInit 1 */

  /* USER CODE END TIM1_MspInit 1 */
  }

}
 8002afa:	bf00      	nop
 8002afc:	3710      	adds	r7, #16
 8002afe:	46bd      	mov	sp, r7
 8002b00:	bd80      	pop	{r7, pc}
 8002b02:	bf00      	nop
 8002b04:	40012c00 	.word	0x40012c00
 8002b08:	40021000 	.word	0x40021000

08002b0c <HAL_TIM_PWM_MspInit>:
* This function configures the hardware resources used in this example
* @param htim_pwm: TIM_PWM handle pointer
* @retval None
*/
void HAL_TIM_PWM_MspInit(TIM_HandleTypeDef* htim_pwm)
{
 8002b0c:	b480      	push	{r7}
 8002b0e:	b085      	sub	sp, #20
 8002b10:	af00      	add	r7, sp, #0
 8002b12:	6078      	str	r0, [r7, #4]
  if(htim_pwm->Instance==TIM3)
 8002b14:	687b      	ldr	r3, [r7, #4]
 8002b16:	681b      	ldr	r3, [r3, #0]
 8002b18:	4a12      	ldr	r2, [pc, #72]	@ (8002b64 <HAL_TIM_PWM_MspInit+0x58>)
 8002b1a:	4293      	cmp	r3, r2
 8002b1c:	d10c      	bne.n	8002b38 <HAL_TIM_PWM_MspInit+0x2c>
  {
  /* USER CODE BEGIN TIM3_MspInit 0 */

  /* USER CODE END TIM3_MspInit 0 */
    /* Peripheral clock enable */
    __HAL_RCC_TIM3_CLK_ENABLE();
 8002b1e:	4b12      	ldr	r3, [pc, #72]	@ (8002b68 <HAL_TIM_PWM_MspInit+0x5c>)
 8002b20:	69db      	ldr	r3, [r3, #28]
 8002b22:	4a11      	ldr	r2, [pc, #68]	@ (8002b68 <HAL_TIM_PWM_MspInit+0x5c>)
 8002b24:	f043 0302 	orr.w	r3, r3, #2
 8002b28:	61d3      	str	r3, [r2, #28]
 8002b2a:	4b0f      	ldr	r3, [pc, #60]	@ (8002b68 <HAL_TIM_PWM_MspInit+0x5c>)
 8002b2c:	69db      	ldr	r3, [r3, #28]
 8002b2e:	f003 0302 	and.w	r3, r3, #2
 8002b32:	60fb      	str	r3, [r7, #12]
 8002b34:	68fb      	ldr	r3, [r7, #12]
  /* USER CODE BEGIN TIM4_MspInit 1 */

  /* USER CODE END TIM4_MspInit 1 */
  }

}
 8002b36:	e010      	b.n	8002b5a <HAL_TIM_PWM_MspInit+0x4e>
  else if(htim_pwm->Instance==TIM4)
 8002b38:	687b      	ldr	r3, [r7, #4]
 8002b3a:	681b      	ldr	r3, [r3, #0]
 8002b3c:	4a0b      	ldr	r2, [pc, #44]	@ (8002b6c <HAL_TIM_PWM_MspInit+0x60>)
 8002b3e:	4293      	cmp	r3, r2
 8002b40:	d10b      	bne.n	8002b5a <HAL_TIM_PWM_MspInit+0x4e>
    __HAL_RCC_TIM4_CLK_ENABLE();
 8002b42:	4b09      	ldr	r3, [pc, #36]	@ (8002b68 <HAL_TIM_PWM_MspInit+0x5c>)
 8002b44:	69db      	ldr	r3, [r3, #28]
 8002b46:	4a08      	ldr	r2, [pc, #32]	@ (8002b68 <HAL_TIM_PWM_MspInit+0x5c>)
 8002b48:	f043 0304 	orr.w	r3, r3, #4
 8002b4c:	61d3      	str	r3, [r2, #28]
 8002b4e:	4b06      	ldr	r3, [pc, #24]	@ (8002b68 <HAL_TIM_PWM_MspInit+0x5c>)
 8002b50:	69db      	ldr	r3, [r3, #28]
 8002b52:	f003 0304 	and.w	r3, r3, #4
 8002b56:	60bb      	str	r3, [r7, #8]
 8002b58:	68bb      	ldr	r3, [r7, #8]
}
 8002b5a:	bf00      	nop
 8002b5c:	3714      	adds	r7, #20
 8002b5e:	46bd      	mov	sp, r7
 8002b60:	bc80      	pop	{r7}
 8002b62:	4770      	bx	lr
 8002b64:	40000400 	.word	0x40000400
 8002b68:	40021000 	.word	0x40021000
 8002b6c:	40000800 	.word	0x40000800

08002b70 <HAL_TIM_MspPostInit>:

void HAL_TIM_MspPostInit(TIM_HandleTypeDef* htim)
{
 8002b70:	b580      	push	{r7, lr}
 8002b72:	b08a      	sub	sp, #40	@ 0x28
 8002b74:	af00      	add	r7, sp, #0
 8002b76:	6078      	str	r0, [r7, #4]
  GPIO_InitTypeDef GPIO_InitStruct = {0};
 8002b78:	f107 0314 	add.w	r3, r7, #20
 8002b7c:	2200      	movs	r2, #0
 8002b7e:	601a      	str	r2, [r3, #0]
 8002b80:	605a      	str	r2, [r3, #4]
 8002b82:	609a      	str	r2, [r3, #8]
 8002b84:	60da      	str	r2, [r3, #12]
  if(htim->Instance==TIM3)
 8002b86:	687b      	ldr	r3, [r7, #4]
 8002b88:	681b      	ldr	r3, [r3, #0]
 8002b8a:	4a27      	ldr	r2, [pc, #156]	@ (8002c28 <HAL_TIM_MspPostInit+0xb8>)
 8002b8c:	4293      	cmp	r3, r2
 8002b8e:	d12a      	bne.n	8002be6 <HAL_TIM_MspPostInit+0x76>
  {
  /* USER CODE BEGIN TIM3_MspPostInit 0 */

  /* USER CODE END TIM3_MspPostInit 0 */
    __HAL_RCC_GPIOB_CLK_ENABLE();
 8002b90:	4b26      	ldr	r3, [pc, #152]	@ (8002c2c <HAL_TIM_MspPostInit+0xbc>)
 8002b92:	699b      	ldr	r3, [r3, #24]
 8002b94:	4a25      	ldr	r2, [pc, #148]	@ (8002c2c <HAL_TIM_MspPostInit+0xbc>)
 8002b96:	f043 0308 	orr.w	r3, r3, #8
 8002b9a:	6193      	str	r3, [r2, #24]
 8002b9c:	4b23      	ldr	r3, [pc, #140]	@ (8002c2c <HAL_TIM_MspPostInit+0xbc>)
 8002b9e:	699b      	ldr	r3, [r3, #24]
 8002ba0:	f003 0308 	and.w	r3, r3, #8
 8002ba4:	613b      	str	r3, [r7, #16]
 8002ba6:	693b      	ldr	r3, [r7, #16]
    /**TIM3 GPIO Configuration
    PB4     ------> TIM3_CH1
    */
    GPIO_InitStruct.Pin = GPIO_PIN_4;
 8002ba8:	2310      	movs	r3, #16
 8002baa:	617b      	str	r3, [r7, #20]
    GPIO_InitStruct.Mode = GPIO_MODE_AF_PP;
 8002bac:	2302      	movs	r3, #2
 8002bae:	61bb      	str	r3, [r7, #24]
    GPIO_InitStruct.Speed = GPIO_SPEED_FREQ_LOW;
 8002bb0:	2302      	movs	r3, #2
 8002bb2:	623b      	str	r3, [r7, #32]
    HAL_GPIO_Init(GPIOB, &GPIO_InitStruct);
 8002bb4:	f107 0314 	add.w	r3, r7, #20
 8002bb8:	4619      	mov	r1, r3
 8002bba:	481d      	ldr	r0, [pc, #116]	@ (8002c30 <HAL_TIM_MspPostInit+0xc0>)
 8002bbc:	f000 fa5c 	bl	8003078 <HAL_GPIO_Init>

    __HAL_AFIO_REMAP_TIM3_PARTIAL();
 8002bc0:	4b1c      	ldr	r3, [pc, #112]	@ (8002c34 <HAL_TIM_MspPostInit+0xc4>)
 8002bc2:	685b      	ldr	r3, [r3, #4]
 8002bc4:	627b      	str	r3, [r7, #36]	@ 0x24
 8002bc6:	6a7b      	ldr	r3, [r7, #36]	@ 0x24
 8002bc8:	f423 6340 	bic.w	r3, r3, #3072	@ 0xc00
 8002bcc:	627b      	str	r3, [r7, #36]	@ 0x24
 8002bce:	6a7b      	ldr	r3, [r7, #36]	@ 0x24
 8002bd0:	f043 63e0 	orr.w	r3, r3, #117440512	@ 0x7000000
 8002bd4:	627b      	str	r3, [r7, #36]	@ 0x24
 8002bd6:	6a7b      	ldr	r3, [r7, #36]	@ 0x24
 8002bd8:	f443 6300 	orr.w	r3, r3, #2048	@ 0x800
 8002bdc:	627b      	str	r3, [r7, #36]	@ 0x24
 8002bde:	4a15      	ldr	r2, [pc, #84]	@ (8002c34 <HAL_TIM_MspPostInit+0xc4>)
 8002be0:	6a7b      	ldr	r3, [r7, #36]	@ 0x24
 8002be2:	6053      	str	r3, [r2, #4]
  /* USER CODE BEGIN TIM4_MspPostInit 1 */

  /* USER CODE END TIM4_MspPostInit 1 */
  }

}
 8002be4:	e01c      	b.n	8002c20 <HAL_TIM_MspPostInit+0xb0>
  else if(htim->Instance==TIM4)
 8002be6:	687b      	ldr	r3, [r7, #4]
 8002be8:	681b      	ldr	r3, [r3, #0]
 8002bea:	4a13      	ldr	r2, [pc, #76]	@ (8002c38 <HAL_TIM_MspPostInit+0xc8>)
 8002bec:	4293      	cmp	r3, r2
 8002bee:	d117      	bne.n	8002c20 <HAL_TIM_MspPostInit+0xb0>
    __HAL_RCC_GPIOB_CLK_ENABLE();
 8002bf0:	4b0e      	ldr	r3, [pc, #56]	@ (8002c2c <HAL_TIM_MspPostInit+0xbc>)
 8002bf2:	699b      	ldr	r3, [r3, #24]
 8002bf4:	4a0d      	ldr	r2, [pc, #52]	@ (8002c2c <HAL_TIM_MspPostInit+0xbc>)
 8002bf6:	f043 0308 	orr.w	r3, r3, #8
 8002bfa:	6193      	str	r3, [r2, #24]
 8002bfc:	4b0b      	ldr	r3, [pc, #44]	@ (8002c2c <HAL_TIM_MspPostInit+0xbc>)
 8002bfe:	699b      	ldr	r3, [r3, #24]
 8002c00:	f003 0308 	and.w	r3, r3, #8
 8002c04:	60fb      	str	r3, [r7, #12]
 8002c06:	68fb      	ldr	r3, [r7, #12]
    GPIO_InitStruct.Pin = GPIO_PIN_6|GPIO_PIN_7;
 8002c08:	23c0      	movs	r3, #192	@ 0xc0
 8002c0a:	617b      	str	r3, [r7, #20]
    GPIO_InitStruct.Mode = GPIO_MODE_AF_PP;
 8002c0c:	2302      	movs	r3, #2
 8002c0e:	61bb      	str	r3, [r7, #24]
    GPIO_InitStruct.Speed = GPIO_SPEED_FREQ_LOW;
 8002c10:	2302      	movs	r3, #2
 8002c12:	623b      	str	r3, [r7, #32]
    HAL_GPIO_Init(GPIOB, &GPIO_InitStruct);
 8002c14:	f107 0314 	add.w	r3, r7, #20
 8002c18:	4619      	mov	r1, r3
 8002c1a:	4805      	ldr	r0, [pc, #20]	@ (8002c30 <HAL_TIM_MspPostInit+0xc0>)
 8002c1c:	f000 fa2c 	bl	8003078 <HAL_GPIO_Init>
}
 8002c20:	bf00      	nop
 8002c22:	3728      	adds	r7, #40	@ 0x28
 8002c24:	46bd      	mov	sp, r7
 8002c26:	bd80      	pop	{r7, pc}
 8002c28:	40000400 	.word	0x40000400
 8002c2c:	40021000 	.word	0x40021000
 8002c30:	40010c00 	.word	0x40010c00
 8002c34:	40010000 	.word	0x40010000
 8002c38:	40000800 	.word	0x40000800

08002c3c <HAL_UART_MspInit>:
* This function configures the hardware resources used in this example
* @param huart: UART handle pointer
* @retval None
*/
void HAL_UART_MspInit(UART_HandleTypeDef* huart)
{
 8002c3c:	b580      	push	{r7, lr}
 8002c3e:	b088      	sub	sp, #32
 8002c40:	af00      	add	r7, sp, #0
 8002c42:	6078      	str	r0, [r7, #4]
  GPIO_InitTypeDef GPIO_InitStruct = {0};
 8002c44:	f107 0310 	add.w	r3, r7, #16
 8002c48:	2200      	movs	r2, #0
 8002c4a:	601a      	str	r2, [r3, #0]
 8002c4c:	605a      	str	r2, [r3, #4]
 8002c4e:	609a      	str	r2, [r3, #8]
 8002c50:	60da      	str	r2, [r3, #12]
  if(huart->Instance==USART1)
 8002c52:	687b      	ldr	r3, [r7, #4]
 8002c54:	681b      	ldr	r3, [r3, #0]
 8002c56:	4a1c      	ldr	r2, [pc, #112]	@ (8002cc8 <HAL_UART_MspInit+0x8c>)
 8002c58:	4293      	cmp	r3, r2
 8002c5a:	d131      	bne.n	8002cc0 <HAL_UART_MspInit+0x84>
  {
  /* USER CODE BEGIN USART1_MspInit 0 */

  /* USER CODE END USART1_MspInit 0 */
    /* Peripheral clock enable */
    __HAL_RCC_USART1_CLK_ENABLE();
 8002c5c:	4b1b      	ldr	r3, [pc, #108]	@ (8002ccc <HAL_UART_MspInit+0x90>)
 8002c5e:	699b      	ldr	r3, [r3, #24]
 8002c60:	4a1a      	ldr	r2, [pc, #104]	@ (8002ccc <HAL_UART_MspInit+0x90>)
 8002c62:	f443 4380 	orr.w	r3, r3, #16384	@ 0x4000
 8002c66:	6193      	str	r3, [r2, #24]
 8002c68:	4b18      	ldr	r3, [pc, #96]	@ (8002ccc <HAL_UART_MspInit+0x90>)
 8002c6a:	699b      	ldr	r3, [r3, #24]
 8002c6c:	f403 4380 	and.w	r3, r3, #16384	@ 0x4000
 8002c70:	60fb      	str	r3, [r7, #12]
 8002c72:	68fb      	ldr	r3, [r7, #12]

    __HAL_RCC_GPIOA_CLK_ENABLE();
 8002c74:	4b15      	ldr	r3, [pc, #84]	@ (8002ccc <HAL_UART_MspInit+0x90>)
 8002c76:	699b      	ldr	r3, [r3, #24]
 8002c78:	4a14      	ldr	r2, [pc, #80]	@ (8002ccc <HAL_UART_MspInit+0x90>)
 8002c7a:	f043 0304 	orr.w	r3, r3, #4
 8002c7e:	6193      	str	r3, [r2, #24]
 8002c80:	4b12      	ldr	r3, [pc, #72]	@ (8002ccc <HAL_UART_MspInit+0x90>)
 8002c82:	699b      	ldr	r3, [r3, #24]
 8002c84:	f003 0304 	and.w	r3, r3, #4
 8002c88:	60bb      	str	r3, [r7, #8]
 8002c8a:	68bb      	ldr	r3, [r7, #8]
    /**USART1 GPIO Configuration
    PA9     ------> USART1_TX
    PA10     ------> USART1_RX
    */
    GPIO_InitStruct.Pin = GPIO_PIN_9;
 8002c8c:	f44f 7300 	mov.w	r3, #512	@ 0x200
 8002c90:	613b      	str	r3, [r7, #16]
    GPIO_InitStruct.Mode = GPIO_MODE_AF_PP;
 8002c92:	2302      	movs	r3, #2
 8002c94:	617b      	str	r3, [r7, #20]
    GPIO_InitStruct.Speed = GPIO_SPEED_FREQ_HIGH;
 8002c96:	2303      	movs	r3, #3
 8002c98:	61fb      	str	r3, [r7, #28]
    HAL_GPIO_Init(GPIOA, &GPIO_InitStruct);
 8002c9a:	f107 0310 	add.w	r3, r7, #16
 8002c9e:	4619      	mov	r1, r3
 8002ca0:	480b      	ldr	r0, [pc, #44]	@ (8002cd0 <HAL_UART_MspInit+0x94>)
 8002ca2:	f000 f9e9 	bl	8003078 <HAL_GPIO_Init>

    GPIO_InitStruct.Pin = GPIO_PIN_10;
 8002ca6:	f44f 6380 	mov.w	r3, #1024	@ 0x400
 8002caa:	613b      	str	r3, [r7, #16]
    GPIO_InitStruct.Mode = GPIO_MODE_INPUT;
 8002cac:	2300      	movs	r3, #0
 8002cae:	617b      	str	r3, [r7, #20]
    GPIO_InitStruct.Pull = GPIO_NOPULL;
 8002cb0:	2300      	movs	r3, #0
 8002cb2:	61bb      	str	r3, [r7, #24]
    HAL_GPIO_Init(GPIOA, &GPIO_InitStruct);
 8002cb4:	f107 0310 	add.w	r3, r7, #16
 8002cb8:	4619      	mov	r1, r3
 8002cba:	4805      	ldr	r0, [pc, #20]	@ (8002cd0 <HAL_UART_MspInit+0x94>)
 8002cbc:	f000 f9dc 	bl	8003078 <HAL_GPIO_Init>
  /* USER CODE BEGIN USART1_MspInit 1 */

  /* USER CODE END USART1_MspInit 1 */
  }

}
 8002cc0:	bf00      	nop
 8002cc2:	3720      	adds	r7, #32
 8002cc4:	46bd      	mov	sp, r7
 8002cc6:	bd80      	pop	{r7, pc}
 8002cc8:	40013800 	.word	0x40013800
 8002ccc:	40021000 	.word	0x40021000
 8002cd0:	40010800 	.word	0x40010800

08002cd4 <NMI_Handler>:
/******************************************************************************/
/**
  * @brief This function handles Non maskable interrupt.
  */
void NMI_Handler(void)
{
 8002cd4:	b480      	push	{r7}
 8002cd6:	af00      	add	r7, sp, #0
  /* USER CODE BEGIN NonMaskableInt_IRQn 0 */

  /* USER CODE END NonMaskableInt_IRQn 0 */
  /* USER CODE BEGIN NonMaskableInt_IRQn 1 */
   while (1)
 8002cd8:	bf00      	nop
 8002cda:	e7fd      	b.n	8002cd8 <NMI_Handler+0x4>

08002cdc <HardFault_Handler>:

/**
  * @brief This function handles Hard fault interrupt.
  */
void HardFault_Handler(void)
{
 8002cdc:	b480      	push	{r7}
 8002cde:	af00      	add	r7, sp, #0
  /* USER CODE BEGIN HardFault_IRQn 0 */

  /* USER CODE END HardFault_IRQn 0 */
  while (1)
 8002ce0:	bf00      	nop
 8002ce2:	e7fd      	b.n	8002ce0 <HardFault_Handler+0x4>

08002ce4 <MemManage_Handler>:

/**
  * @brief This function handles Memory management fault.
  */
void MemManage_Handler(void)
{
 8002ce4:	b480      	push	{r7}
 8002ce6:	af00      	add	r7, sp, #0
  /* USER CODE BEGIN MemoryManagement_IRQn 0 */

  /* USER CODE END MemoryManagement_IRQn 0 */
  while (1)
 8002ce8:	bf00      	nop
 8002cea:	e7fd      	b.n	8002ce8 <MemManage_Handler+0x4>

08002cec <BusFault_Handler>:

/**
  * @brief This function handles Prefetch fault, memory access fault.
  */
void BusFault_Handler(void)
{
 8002cec:	b480      	push	{r7}
 8002cee:	af00      	add	r7, sp, #0
  /* USER CODE BEGIN BusFault_IRQn 0 */

  /* USER CODE END BusFault_IRQn 0 */
  while (1)
 8002cf0:	bf00      	nop
 8002cf2:	e7fd      	b.n	8002cf0 <BusFault_Handler+0x4>

08002cf4 <UsageFault_Handler>:

/**
  * @brief This function handles Undefined instruction or illegal state.
  */
void UsageFault_Handler(void)
{
 8002cf4:	b480      	push	{r7}
 8002cf6:	af00      	add	r7, sp, #0
  /* USER CODE BEGIN UsageFault_IRQn 0 */

  /* USER CODE END UsageFault_IRQn 0 */
  while (1)
 8002cf8:	bf00      	nop
 8002cfa:	e7fd      	b.n	8002cf8 <UsageFault_Handler+0x4>

08002cfc <SVC_Handler>:

/**
  * @brief This function handles System service call via SWI instruction.
  */
void SVC_Handler(void)
{
 8002cfc:	b480      	push	{r7}
 8002cfe:	af00      	add	r7, sp, #0

  /* USER CODE END SVCall_IRQn 0 */
  /* USER CODE BEGIN SVCall_IRQn 1 */

  /* USER CODE END SVCall_IRQn 1 */
}
 8002d00:	bf00      	nop
 8002d02:	46bd      	mov	sp, r7
 8002d04:	bc80      	pop	{r7}
 8002d06:	4770      	bx	lr

08002d08 <DebugMon_Handler>:

/**
  * @brief This function handles Debug monitor.
  */
void DebugMon_Handler(void)
{
 8002d08:	b480      	push	{r7}
 8002d0a:	af00      	add	r7, sp, #0

  /* USER CODE END DebugMonitor_IRQn 0 */
  /* USER CODE BEGIN DebugMonitor_IRQn 1 */

  /* USER CODE END DebugMonitor_IRQn 1 */
}
 8002d0c:	bf00      	nop
 8002d0e:	46bd      	mov	sp, r7
 8002d10:	bc80      	pop	{r7}
 8002d12:	4770      	bx	lr

08002d14 <PendSV_Handler>:

/**
  * @brief This function handles Pendable request for system service.
  */
void PendSV_Handler(void)
{
 8002d14:	b480      	push	{r7}
 8002d16:	af00      	add	r7, sp, #0

  /* USER CODE END PendSV_IRQn 0 */
  /* USER CODE BEGIN PendSV_IRQn 1 */

  /* USER CODE END PendSV_IRQn 1 */
}
 8002d18:	bf00      	nop
 8002d1a:	46bd      	mov	sp, r7
 8002d1c:	bc80      	pop	{r7}
 8002d1e:	4770      	bx	lr

08002d20 <SysTick_Handler>:

/**
  * @brief This function handles System tick timer.
  */
void SysTick_Handler(void)
{
 8002d20:	b580      	push	{r7, lr}
 8002d22:	af00      	add	r7, sp, #0
  /* USER CODE BEGIN SysTick_IRQn 0 */

  /* USER CODE END SysTick_IRQn 0 */
  HAL_IncTick();
 8002d24:	f000 f87e 	bl	8002e24 <HAL_IncTick>
  /* USER CODE BEGIN SysTick_IRQn 1 */

  /* USER CODE END SysTick_IRQn 1 */
}
 8002d28:	bf00      	nop
 8002d2a:	bd80      	pop	{r7, pc}

08002d2c <TIM1_UP_IRQHandler>:

/**
  * @brief This function handles TIM1 update interrupt.
  */
void TIM1_UP_IRQHandler(void)
{
 8002d2c:	b580      	push	{r7, lr}
 8002d2e:	af00      	add	r7, sp, #0
  /* USER CODE BEGIN TIM1_UP_IRQn 0 */

  /* USER CODE END TIM1_UP_IRQn 0 */
  HAL_TIM_IRQHandler(&htim1);
 8002d30:	4802      	ldr	r0, [pc, #8]	@ (8002d3c <TIM1_UP_IRQHandler+0x10>)
 8002d32:	f002 f93b 	bl	8004fac <HAL_TIM_IRQHandler>
  /* USER CODE BEGIN TIM1_UP_IRQn 1 */

  /* USER CODE END TIM1_UP_IRQn 1 */
}
 8002d36:	bf00      	nop
 8002d38:	bd80      	pop	{r7, pc}
 8002d3a:	bf00      	nop
 8002d3c:	20000194 	.word	0x20000194

08002d40 <SystemInit>:
  * @note   This function should be used only after reset.
  * @param  None
  * @retval None
  */
void SystemInit (void)
{
 8002d40:	b480      	push	{r7}
 8002d42:	af00      	add	r7, sp, #0

  /* Configure the Vector Table location -------------------------------------*/
#if defined(USER_VECT_TAB_ADDRESS)
  SCB->VTOR = VECT_TAB_BASE_ADDRESS | VECT_TAB_OFFSET; /* Vector Table Relocation in Internal SRAM. */
#endif /* USER_VECT_TAB_ADDRESS */
     }
 8002d44:	bf00      	nop
 8002d46:	46bd      	mov	sp, r7
 8002d48:	bc80      	pop	{r7}
 8002d4a:	4770      	bx	lr

08002d4c <Reset_Handler>:
  .weak Reset_Handler
  .type Reset_Handler, %function
Reset_Handler:

/* Call the clock system initialization function.*/
     bl  SystemInit
 8002d4c:	f7ff fff8 	bl	8002d40 <SystemInit>

/* Copy the data segment initializers from flash to SRAM */
  ldr r0, =_sdata
 8002d50:	480b      	ldr	r0, [pc, #44]	@ (8002d80 <LoopFillZerobss+0xe>)
  ldr r1, =_edata
 8002d52:	490c      	ldr	r1, [pc, #48]	@ (8002d84 <LoopFillZerobss+0x12>)
  ldr r2, =_sidata
 8002d54:	4a0c      	ldr	r2, [pc, #48]	@ (8002d88 <LoopFillZerobss+0x16>)
  movs r3, #0
 8002d56:	2300      	movs	r3, #0
  b LoopCopyDataInit
 8002d58:	e002      	b.n	8002d60 <LoopCopyDataInit>

08002d5a <CopyDataInit>:

CopyDataInit:
  ldr r4, [r2, r3]
 8002d5a:	58d4      	ldr	r4, [r2, r3]
  str r4, [r0, r3]
 8002d5c:	50c4      	str	r4, [r0, r3]
  adds r3, r3, #4
 8002d5e:	3304      	adds	r3, #4

08002d60 <LoopCopyDataInit>:

LoopCopyDataInit:
  adds r4, r0, r3
 8002d60:	18c4      	adds	r4, r0, r3
  cmp r4, r1
 8002d62:	428c      	cmp	r4, r1
  bcc CopyDataInit
 8002d64:	d3f9      	bcc.n	8002d5a <CopyDataInit>
  
/* Zero fill the bss segment. */
  ldr r2, =_sbss
 8002d66:	4a09      	ldr	r2, [pc, #36]	@ (8002d8c <LoopFillZerobss+0x1a>)
  ldr r4, =_ebss
 8002d68:	4c09      	ldr	r4, [pc, #36]	@ (8002d90 <LoopFillZerobss+0x1e>)
  movs r3, #0
 8002d6a:	2300      	movs	r3, #0
  b LoopFillZerobss
 8002d6c:	e001      	b.n	8002d72 <LoopFillZerobss>

08002d6e <FillZerobss>:

FillZerobss:
  str  r3, [r2]
 8002d6e:	6013      	str	r3, [r2, #0]
  adds r2, r2, #4
 8002d70:	3204      	adds	r2, #4

08002d72 <LoopFillZerobss>:

LoopFillZerobss:
  cmp r2, r4
 8002d72:	42a2      	cmp	r2, r4
  bcc FillZerobss
 8002d74:	d3fb      	bcc.n	8002d6e <FillZerobss>

/* Call static constructors */
    bl __libc_init_array
 8002d76:	f002 ffcf 	bl	8005d18 <__libc_init_array>
/* Call the application's entry point.*/
  bl main
 8002d7a:	f7fe feb3 	bl	8001ae4 <main>
  bx lr
 8002d7e:	4770      	bx	lr
  ldr r0, =_sdata
 8002d80:	20000000 	.word	0x20000000
  ldr r1, =_edata
 8002d84:	20000100 	.word	0x20000100
  ldr r2, =_sidata
 8002d88:	080064f0 	.word	0x080064f0
  ldr r2, =_sbss
 8002d8c:	20000100 	.word	0x20000100
  ldr r4, =_ebss
 8002d90:	20000468 	.word	0x20000468

08002d94 <ADC1_2_IRQHandler>:
 * @retval : None
*/
    .section .text.Default_Handler,"ax",%progbits
Default_Handler:
Infinite_Loop:
  b Infinite_Loop
 8002d94:	e7fe      	b.n	8002d94 <ADC1_2_IRQHandler>
	...

08002d98 <HAL_Init>:
  *         need to ensure that the SysTick time base is always set to 1 millisecond
  *         to have correct HAL operation.
  * @retval HAL status
  */
HAL_StatusTypeDef HAL_Init(void)
{
 8002d98:	b580      	push	{r7, lr}
 8002d9a:	af00      	add	r7, sp, #0
    defined(STM32F102x6) || defined(STM32F102xB) || \
    defined(STM32F103x6) || defined(STM32F103xB) || defined(STM32F103xE) || defined(STM32F103xG) || \
    defined(STM32F105xC) || defined(STM32F107xC)

  /* Prefetch buffer is not available on value line devices */
  __HAL_FLASH_PREFETCH_BUFFER_ENABLE();
 8002d9c:	4b08      	ldr	r3, [pc, #32]	@ (8002dc0 <HAL_Init+0x28>)
 8002d9e:	681b      	ldr	r3, [r3, #0]
 8002da0:	4a07      	ldr	r2, [pc, #28]	@ (8002dc0 <HAL_Init+0x28>)
 8002da2:	f043 0310 	orr.w	r3, r3, #16
 8002da6:	6013      	str	r3, [r2, #0]
#endif
#endif /* PREFETCH_ENABLE */

  /* Set Interrupt Group Priority */
  HAL_NVIC_SetPriorityGrouping(NVIC_PRIORITYGROUP_4);
 8002da8:	2003      	movs	r0, #3
 8002daa:	f000 f923 	bl	8002ff4 <HAL_NVIC_SetPriorityGrouping>

  /* Use systick as time base source and configure 1ms tick (default clock after Reset is HSI) */
  HAL_InitTick(TICK_INT_PRIORITY);
 8002dae:	200f      	movs	r0, #15
 8002db0:	f000 f808 	bl	8002dc4 <HAL_InitTick>

  /* Init the low level hardware */
  HAL_MspInit();
 8002db4:	f7ff fe02 	bl	80029bc <HAL_MspInit>

  /* Return function status */
  return HAL_OK;
 8002db8:	2300      	movs	r3, #0
}
 8002dba:	4618      	mov	r0, r3
 8002dbc:	bd80      	pop	{r7, pc}
 8002dbe:	bf00      	nop
 8002dc0:	40022000 	.word	0x40022000

08002dc4 <HAL_InitTick>:
  *       implementation  in user file.
  * @param TickPriority Tick interrupt priority.
  * @retval HAL status
  */
__weak HAL_StatusTypeDef HAL_InitTick(uint32_t TickPriority)
{
 8002dc4:	b580      	push	{r7, lr}
 8002dc6:	b082      	sub	sp, #8
 8002dc8:	af00      	add	r7, sp, #0
 8002dca:	6078      	str	r0, [r7, #4]
  /* Configure the SysTick to have interrupt in 1ms time basis*/
  if (HAL_SYSTICK_Config(SystemCoreClock / (1000U / uwTickFreq)) > 0U)
 8002dcc:	4b12      	ldr	r3, [pc, #72]	@ (8002e18 <HAL_InitTick+0x54>)
 8002dce:	681a      	ldr	r2, [r3, #0]
 8002dd0:	4b12      	ldr	r3, [pc, #72]	@ (8002e1c <HAL_InitTick+0x58>)
 8002dd2:	781b      	ldrb	r3, [r3, #0]
 8002dd4:	4619      	mov	r1, r3
 8002dd6:	f44f 737a 	mov.w	r3, #1000	@ 0x3e8
 8002dda:	fbb3 f3f1 	udiv	r3, r3, r1
 8002dde:	fbb2 f3f3 	udiv	r3, r2, r3
 8002de2:	4618      	mov	r0, r3
 8002de4:	f000 f93b 	bl	800305e <HAL_SYSTICK_Config>
 8002de8:	4603      	mov	r3, r0
 8002dea:	2b00      	cmp	r3, #0
 8002dec:	d001      	beq.n	8002df2 <HAL_InitTick+0x2e>
  {
    return HAL_ERROR;
 8002dee:	2301      	movs	r3, #1
 8002df0:	e00e      	b.n	8002e10 <HAL_InitTick+0x4c>
  }

  /* Configure the SysTick IRQ priority */
  if (TickPriority < (1UL << __NVIC_PRIO_BITS))
 8002df2:	687b      	ldr	r3, [r7, #4]
 8002df4:	2b0f      	cmp	r3, #15
 8002df6:	d80a      	bhi.n	8002e0e <HAL_InitTick+0x4a>
  {
    HAL_NVIC_SetPriority(SysTick_IRQn, TickPriority, 0U);
 8002df8:	2200      	movs	r2, #0
 8002dfa:	6879      	ldr	r1, [r7, #4]
 8002dfc:	f04f 30ff 	mov.w	r0, #4294967295
 8002e00:	f000 f903 	bl	800300a <HAL_NVIC_SetPriority>
    uwTickPrio = TickPriority;
 8002e04:	4a06      	ldr	r2, [pc, #24]	@ (8002e20 <HAL_InitTick+0x5c>)
 8002e06:	687b      	ldr	r3, [r7, #4]
 8002e08:	6013      	str	r3, [r2, #0]
  {
    return HAL_ERROR;
  }

  /* Return function status */
  return HAL_OK;
 8002e0a:	2300      	movs	r3, #0
 8002e0c:	e000      	b.n	8002e10 <HAL_InitTick+0x4c>
    return HAL_ERROR;
 8002e0e:	2301      	movs	r3, #1
}
 8002e10:	4618      	mov	r0, r3
 8002e12:	3708      	adds	r7, #8
 8002e14:	46bd      	mov	sp, r7
 8002e16:	bd80      	pop	{r7, pc}
 8002e18:	20000090 	.word	0x20000090
 8002e1c:	20000098 	.word	0x20000098
 8002e20:	20000094 	.word	0x20000094

08002e24 <HAL_IncTick>:
  * @note This function is declared as __weak to be overwritten in case of other
  *      implementations in user file.
  * @retval None
  */
__weak void HAL_IncTick(void)
{
 8002e24:	b480      	push	{r7}
 8002e26:	af00      	add	r7, sp, #0
  uwTick += uwTickFreq;
 8002e28:	4b05      	ldr	r3, [pc, #20]	@ (8002e40 <HAL_IncTick+0x1c>)
 8002e2a:	781b      	ldrb	r3, [r3, #0]
 8002e2c:	461a      	mov	r2, r3
 8002e2e:	4b05      	ldr	r3, [pc, #20]	@ (8002e44 <HAL_IncTick+0x20>)
 8002e30:	681b      	ldr	r3, [r3, #0]
 8002e32:	4413      	add	r3, r2
 8002e34:	4a03      	ldr	r2, [pc, #12]	@ (8002e44 <HAL_IncTick+0x20>)
 8002e36:	6013      	str	r3, [r2, #0]
}
 8002e38:	bf00      	nop
 8002e3a:	46bd      	mov	sp, r7
 8002e3c:	bc80      	pop	{r7}
 8002e3e:	4770      	bx	lr
 8002e40:	20000098 	.word	0x20000098
 8002e44:	2000032c 	.word	0x2000032c

08002e48 <HAL_GetTick>:
  * @note  This function is declared as __weak to be overwritten in case of other
  *       implementations in user file.
  * @retval tick value
  */
__weak uint32_t HAL_GetTick(void)
{
 8002e48:	b480      	push	{r7}
 8002e4a:	af00      	add	r7, sp, #0
  return uwTick;
 8002e4c:	4b02      	ldr	r3, [pc, #8]	@ (8002e58 <HAL_GetTick+0x10>)
 8002e4e:	681b      	ldr	r3, [r3, #0]
}
 8002e50:	4618      	mov	r0, r3
 8002e52:	46bd      	mov	sp, r7
 8002e54:	bc80      	pop	{r7}
 8002e56:	4770      	bx	lr
 8002e58:	2000032c 	.word	0x2000032c

08002e5c <__NVIC_SetPriorityGrouping>:
           In case of a conflict between priority grouping and available
           priority bits (__NVIC_PRIO_BITS), the smallest possible priority group is set.
  \param [in]      PriorityGroup  Priority grouping field.
 */
__STATIC_INLINE void __NVIC_SetPriorityGrouping(uint32_t PriorityGroup)
{
 8002e5c:	b480      	push	{r7}
 8002e5e:	b085      	sub	sp, #20
 8002e60:	af00      	add	r7, sp, #0
 8002e62:	6078      	str	r0, [r7, #4]
  uint32_t reg_value;
  uint32_t PriorityGroupTmp = (PriorityGroup & (uint32_t)0x07UL);             /* only values 0..7 are used          */
 8002e64:	687b      	ldr	r3, [r7, #4]
 8002e66:	f003 0307 	and.w	r3, r3, #7
 8002e6a:	60fb      	str	r3, [r7, #12]

  reg_value  =  SCB->AIRCR;                                                   /* read old register configuration    */
 8002e6c:	4b0c      	ldr	r3, [pc, #48]	@ (8002ea0 <__NVIC_SetPriorityGrouping+0x44>)
 8002e6e:	68db      	ldr	r3, [r3, #12]
 8002e70:	60bb      	str	r3, [r7, #8]
  reg_value &= ~((uint32_t)(SCB_AIRCR_VECTKEY_Msk | SCB_AIRCR_PRIGROUP_Msk)); /* clear bits to change               */
 8002e72:	68ba      	ldr	r2, [r7, #8]
 8002e74:	f64f 03ff 	movw	r3, #63743	@ 0xf8ff
 8002e78:	4013      	ands	r3, r2
 8002e7a:	60bb      	str	r3, [r7, #8]
  reg_value  =  (reg_value                                   |
                ((uint32_t)0x5FAUL << SCB_AIRCR_VECTKEY_Pos) |
                (PriorityGroupTmp << SCB_AIRCR_PRIGROUP_Pos) );               /* Insert write key and priority group */
 8002e7c:	68fb      	ldr	r3, [r7, #12]
 8002e7e:	021a      	lsls	r2, r3, #8
                ((uint32_t)0x5FAUL << SCB_AIRCR_VECTKEY_Pos) |
 8002e80:	68bb      	ldr	r3, [r7, #8]
 8002e82:	4313      	orrs	r3, r2
  reg_value  =  (reg_value                                   |
 8002e84:	f043 63bf 	orr.w	r3, r3, #100139008	@ 0x5f80000
 8002e88:	f443 3300 	orr.w	r3, r3, #131072	@ 0x20000
 8002e8c:	60bb      	str	r3, [r7, #8]
  SCB->AIRCR =  reg_value;
 8002e8e:	4a04      	ldr	r2, [pc, #16]	@ (8002ea0 <__NVIC_SetPriorityGrouping+0x44>)
 8002e90:	68bb      	ldr	r3, [r7, #8]
 8002e92:	60d3      	str	r3, [r2, #12]
}
 8002e94:	bf00      	nop
 8002e96:	3714      	adds	r7, #20
 8002e98:	46bd      	mov	sp, r7
 8002e9a:	bc80      	pop	{r7}
 8002e9c:	4770      	bx	lr
 8002e9e:	bf00      	nop
 8002ea0:	e000ed00 	.word	0xe000ed00

08002ea4 <__NVIC_GetPriorityGrouping>:
  \brief   Get Priority Grouping
  \details Reads the priority grouping field from the NVIC Interrupt Controller.
  \return                Priority grouping field (SCB->AIRCR [10:8] PRIGROUP field).
 */
__STATIC_INLINE uint32_t __NVIC_GetPriorityGrouping(void)
{
 8002ea4:	b480      	push	{r7}
 8002ea6:	af00      	add	r7, sp, #0
  return ((uint32_t)((SCB->AIRCR & SCB_AIRCR_PRIGROUP_Msk) >> SCB_AIRCR_PRIGROUP_Pos));
 8002ea8:	4b04      	ldr	r3, [pc, #16]	@ (8002ebc <__NVIC_GetPriorityGrouping+0x18>)
 8002eaa:	68db      	ldr	r3, [r3, #12]
 8002eac:	0a1b      	lsrs	r3, r3, #8
 8002eae:	f003 0307 	and.w	r3, r3, #7
}
 8002eb2:	4618      	mov	r0, r3
 8002eb4:	46bd      	mov	sp, r7
 8002eb6:	bc80      	pop	{r7}
 8002eb8:	4770      	bx	lr
 8002eba:	bf00      	nop
 8002ebc:	e000ed00 	.word	0xe000ed00

08002ec0 <__NVIC_EnableIRQ>:
  \details Enables a device specific interrupt in the NVIC interrupt controller.
  \param [in]      IRQn  Device specific interrupt number.
  \note    IRQn must not be negative.
 */
__STATIC_INLINE void __NVIC_EnableIRQ(IRQn_Type IRQn)
{
 8002ec0:	b480      	push	{r7}
 8002ec2:	b083      	sub	sp, #12
 8002ec4:	af00      	add	r7, sp, #0
 8002ec6:	4603      	mov	r3, r0
 8002ec8:	71fb      	strb	r3, [r7, #7]
  if ((int32_t)(IRQn) >= 0)
 8002eca:	f997 3007 	ldrsb.w	r3, [r7, #7]
 8002ece:	2b00      	cmp	r3, #0
 8002ed0:	db0b      	blt.n	8002eea <__NVIC_EnableIRQ+0x2a>
  {
    NVIC->ISER[(((uint32_t)IRQn) >> 5UL)] = (uint32_t)(1UL << (((uint32_t)IRQn) & 0x1FUL));
 8002ed2:	79fb      	ldrb	r3, [r7, #7]
 8002ed4:	f003 021f 	and.w	r2, r3, #31
 8002ed8:	4906      	ldr	r1, [pc, #24]	@ (8002ef4 <__NVIC_EnableIRQ+0x34>)
 8002eda:	f997 3007 	ldrsb.w	r3, [r7, #7]
 8002ede:	095b      	lsrs	r3, r3, #5
 8002ee0:	2001      	movs	r0, #1
 8002ee2:	fa00 f202 	lsl.w	r2, r0, r2
 8002ee6:	f841 2023 	str.w	r2, [r1, r3, lsl #2]
  }
}
 8002eea:	bf00      	nop
 8002eec:	370c      	adds	r7, #12
 8002eee:	46bd      	mov	sp, r7
 8002ef0:	bc80      	pop	{r7}
 8002ef2:	4770      	bx	lr
 8002ef4:	e000e100 	.word	0xe000e100

08002ef8 <__NVIC_SetPriority>:
  \param [in]      IRQn  Interrupt number.
  \param [in]  priority  Priority to set.
  \note    The priority cannot be set for every processor exception.
 */
__STATIC_INLINE void __NVIC_SetPriority(IRQn_Type IRQn, uint32_t priority)
{
 8002ef8:	b480      	push	{r7}
 8002efa:	b083      	sub	sp, #12
 8002efc:	af00      	add	r7, sp, #0
 8002efe:	4603      	mov	r3, r0
 8002f00:	6039      	str	r1, [r7, #0]
 8002f02:	71fb      	strb	r3, [r7, #7]
  if ((int32_t)(IRQn) >= 0)
 8002f04:	f997 3007 	ldrsb.w	r3, [r7, #7]
 8002f08:	2b00      	cmp	r3, #0
 8002f0a:	db0a      	blt.n	8002f22 <__NVIC_SetPriority+0x2a>
  {
    NVIC->IP[((uint32_t)IRQn)]               = (uint8_t)((priority << (8U - __NVIC_PRIO_BITS)) & (uint32_t)0xFFUL);
 8002f0c:	683b      	ldr	r3, [r7, #0]
 8002f0e:	b2da      	uxtb	r2, r3
 8002f10:	490c      	ldr	r1, [pc, #48]	@ (8002f44 <__NVIC_SetPriority+0x4c>)
 8002f12:	f997 3007 	ldrsb.w	r3, [r7, #7]
 8002f16:	0112      	lsls	r2, r2, #4
 8002f18:	b2d2      	uxtb	r2, r2
 8002f1a:	440b      	add	r3, r1
 8002f1c:	f883 2300 	strb.w	r2, [r3, #768]	@ 0x300
  }
  else
  {
    SCB->SHP[(((uint32_t)IRQn) & 0xFUL)-4UL] = (uint8_t)((priority << (8U - __NVIC_PRIO_BITS)) & (uint32_t)0xFFUL);
  }
}
 8002f20:	e00a      	b.n	8002f38 <__NVIC_SetPriority+0x40>
    SCB->SHP[(((uint32_t)IRQn) & 0xFUL)-4UL] = (uint8_t)((priority << (8U - __NVIC_PRIO_BITS)) & (uint32_t)0xFFUL);
 8002f22:	683b      	ldr	r3, [r7, #0]
 8002f24:	b2da      	uxtb	r2, r3
 8002f26:	4908      	ldr	r1, [pc, #32]	@ (8002f48 <__NVIC_SetPriority+0x50>)
 8002f28:	79fb      	ldrb	r3, [r7, #7]
 8002f2a:	f003 030f 	and.w	r3, r3, #15
 8002f2e:	3b04      	subs	r3, #4
 8002f30:	0112      	lsls	r2, r2, #4
 8002f32:	b2d2      	uxtb	r2, r2
 8002f34:	440b      	add	r3, r1
 8002f36:	761a      	strb	r2, [r3, #24]
}
 8002f38:	bf00      	nop
 8002f3a:	370c      	adds	r7, #12
 8002f3c:	46bd      	mov	sp, r7
 8002f3e:	bc80      	pop	{r7}
 8002f40:	4770      	bx	lr
 8002f42:	bf00      	nop
 8002f44:	e000e100 	.word	0xe000e100
 8002f48:	e000ed00 	.word	0xe000ed00

08002f4c <NVIC_EncodePriority>:
  \param [in]   PreemptPriority  Preemptive priority value (starting from 0).
  \param [in]       SubPriority  Subpriority value (starting from 0).
  \return                        Encoded priority. Value can be used in the function \ref NVIC_SetPriority().
 */
__STATIC_INLINE uint32_t NVIC_EncodePriority (uint32_t PriorityGroup, uint32_t PreemptPriority, uint32_t SubPriority)
{
 8002f4c:	b480      	push	{r7}
 8002f4e:	b089      	sub	sp, #36	@ 0x24
 8002f50:	af00      	add	r7, sp, #0
 8002f52:	60f8      	str	r0, [r7, #12]
 8002f54:	60b9      	str	r1, [r7, #8]
 8002f56:	607a      	str	r2, [r7, #4]
  uint32_t PriorityGroupTmp = (PriorityGroup & (uint32_t)0x07UL);   /* only values 0..7 are used          */
 8002f58:	68fb      	ldr	r3, [r7, #12]
 8002f5a:	f003 0307 	and.w	r3, r3, #7
 8002f5e:	61fb      	str	r3, [r7, #28]
  uint32_t PreemptPriorityBits;
  uint32_t SubPriorityBits;

  PreemptPriorityBits = ((7UL - PriorityGroupTmp) > (uint32_t)(__NVIC_PRIO_BITS)) ? (uint32_t)(__NVIC_PRIO_BITS) : (uint32_t)(7UL - PriorityGroupTmp);
 8002f60:	69fb      	ldr	r3, [r7, #28]
 8002f62:	f1c3 0307 	rsb	r3, r3, #7
 8002f66:	2b04      	cmp	r3, #4
 8002f68:	bf28      	it	cs
 8002f6a:	2304      	movcs	r3, #4
 8002f6c:	61bb      	str	r3, [r7, #24]
  SubPriorityBits     = ((PriorityGroupTmp + (uint32_t)(__NVIC_PRIO_BITS)) < (uint32_t)7UL) ? (uint32_t)0UL : (uint32_t)((PriorityGroupTmp - 7UL) + (uint32_t)(__NVIC_PRIO_BITS));
 8002f6e:	69fb      	ldr	r3, [r7, #28]
 8002f70:	3304      	adds	r3, #4
 8002f72:	2b06      	cmp	r3, #6
 8002f74:	d902      	bls.n	8002f7c <NVIC_EncodePriority+0x30>
 8002f76:	69fb      	ldr	r3, [r7, #28]
 8002f78:	3b03      	subs	r3, #3
 8002f7a:	e000      	b.n	8002f7e <NVIC_EncodePriority+0x32>
 8002f7c:	2300      	movs	r3, #0
 8002f7e:	617b      	str	r3, [r7, #20]

  return (
           ((PreemptPriority & (uint32_t)((1UL << (PreemptPriorityBits)) - 1UL)) << SubPriorityBits) |
 8002f80:	f04f 32ff 	mov.w	r2, #4294967295
 8002f84:	69bb      	ldr	r3, [r7, #24]
 8002f86:	fa02 f303 	lsl.w	r3, r2, r3
 8002f8a:	43da      	mvns	r2, r3
 8002f8c:	68bb      	ldr	r3, [r7, #8]
 8002f8e:	401a      	ands	r2, r3
 8002f90:	697b      	ldr	r3, [r7, #20]
 8002f92:	409a      	lsls	r2, r3
           ((SubPriority     & (uint32_t)((1UL << (SubPriorityBits    )) - 1UL)))
 8002f94:	f04f 31ff 	mov.w	r1, #4294967295
 8002f98:	697b      	ldr	r3, [r7, #20]
 8002f9a:	fa01 f303 	lsl.w	r3, r1, r3
 8002f9e:	43d9      	mvns	r1, r3
 8002fa0:	687b      	ldr	r3, [r7, #4]
 8002fa2:	400b      	ands	r3, r1
           ((PreemptPriority & (uint32_t)((1UL << (PreemptPriorityBits)) - 1UL)) << SubPriorityBits) |
 8002fa4:	4313      	orrs	r3, r2
         );
}
 8002fa6:	4618      	mov	r0, r3
 8002fa8:	3724      	adds	r7, #36	@ 0x24
 8002faa:	46bd      	mov	sp, r7
 8002fac:	bc80      	pop	{r7}
 8002fae:	4770      	bx	lr

08002fb0 <SysTick_Config>:
  \note    When the variable <b>__Vendor_SysTickConfig</b> is set to 1, then the
           function <b>SysTick_Config</b> is not included. In this case, the file <b><i>device</i>.h</b>
           must contain a vendor-specific implementation of this function.
 */
__STATIC_INLINE uint32_t SysTick_Config(uint32_t ticks)
{
 8002fb0:	b580      	push	{r7, lr}
 8002fb2:	b082      	sub	sp, #8
 8002fb4:	af00      	add	r7, sp, #0
 8002fb6:	6078      	str	r0, [r7, #4]
  if ((ticks - 1UL) > SysTick_LOAD_RELOAD_Msk)
 8002fb8:	687b      	ldr	r3, [r7, #4]
 8002fba:	3b01      	subs	r3, #1
 8002fbc:	f1b3 7f80 	cmp.w	r3, #16777216	@ 0x1000000
 8002fc0:	d301      	bcc.n	8002fc6 <SysTick_Config+0x16>
  {
    return (1UL);                                                   /* Reload value impossible */
 8002fc2:	2301      	movs	r3, #1
 8002fc4:	e00f      	b.n	8002fe6 <SysTick_Config+0x36>
  }

  SysTick->LOAD  = (uint32_t)(ticks - 1UL);                         /* set reload register */
 8002fc6:	4a0a      	ldr	r2, [pc, #40]	@ (8002ff0 <SysTick_Config+0x40>)
 8002fc8:	687b      	ldr	r3, [r7, #4]
 8002fca:	3b01      	subs	r3, #1
 8002fcc:	6053      	str	r3, [r2, #4]
  NVIC_SetPriority (SysTick_IRQn, (1UL << __NVIC_PRIO_BITS) - 1UL); /* set Priority for Systick Interrupt */
 8002fce:	210f      	movs	r1, #15
 8002fd0:	f04f 30ff 	mov.w	r0, #4294967295
 8002fd4:	f7ff ff90 	bl	8002ef8 <__NVIC_SetPriority>
  SysTick->VAL   = 0UL;                                             /* Load the SysTick Counter Value */
 8002fd8:	4b05      	ldr	r3, [pc, #20]	@ (8002ff0 <SysTick_Config+0x40>)
 8002fda:	2200      	movs	r2, #0
 8002fdc:	609a      	str	r2, [r3, #8]
  SysTick->CTRL  = SysTick_CTRL_CLKSOURCE_Msk |
 8002fde:	4b04      	ldr	r3, [pc, #16]	@ (8002ff0 <SysTick_Config+0x40>)
 8002fe0:	2207      	movs	r2, #7
 8002fe2:	601a      	str	r2, [r3, #0]
                   SysTick_CTRL_TICKINT_Msk   |
                   SysTick_CTRL_ENABLE_Msk;                         /* Enable SysTick IRQ and SysTick Timer */
  return (0UL);                                                     /* Function successful */
 8002fe4:	2300      	movs	r3, #0
}
 8002fe6:	4618      	mov	r0, r3
 8002fe8:	3708      	adds	r7, #8
 8002fea:	46bd      	mov	sp, r7
 8002fec:	bd80      	pop	{r7, pc}
 8002fee:	bf00      	nop
 8002ff0:	e000e010 	.word	0xe000e010

08002ff4 <HAL_NVIC_SetPriorityGrouping>:
  * @note   When the NVIC_PriorityGroup_0 is selected, IRQ preemption is no more possible. 
  *         The pending IRQ priority will be managed only by the subpriority. 
  * @retval None
  */
void HAL_NVIC_SetPriorityGrouping(uint32_t PriorityGroup)
{
 8002ff4:	b580      	push	{r7, lr}
 8002ff6:	b082      	sub	sp, #8
 8002ff8:	af00      	add	r7, sp, #0
 8002ffa:	6078      	str	r0, [r7, #4]
  /* Check the parameters */
  assert_param(IS_NVIC_PRIORITY_GROUP(PriorityGroup));
  
  /* Set the PRIGROUP[10:8] bits according to the PriorityGroup parameter value */
  NVIC_SetPriorityGrouping(PriorityGroup);
 8002ffc:	6878      	ldr	r0, [r7, #4]
 8002ffe:	f7ff ff2d 	bl	8002e5c <__NVIC_SetPriorityGrouping>
}
 8003002:	bf00      	nop
 8003004:	3708      	adds	r7, #8
 8003006:	46bd      	mov	sp, r7
 8003008:	bd80      	pop	{r7, pc}

0800300a <HAL_NVIC_SetPriority>:
  *         This parameter can be a value between 0 and 15
  *         A lower priority value indicates a higher priority.          
  * @retval None
  */
void HAL_NVIC_SetPriority(IRQn_Type IRQn, uint32_t PreemptPriority, uint32_t SubPriority)
{ 
 800300a:	b580      	push	{r7, lr}
 800300c:	b086      	sub	sp, #24
 800300e:	af00      	add	r7, sp, #0
 8003010:	4603      	mov	r3, r0
 8003012:	60b9      	str	r1, [r7, #8]
 8003014:	607a      	str	r2, [r7, #4]
 8003016:	73fb      	strb	r3, [r7, #15]
  uint32_t prioritygroup = 0x00U;
 8003018:	2300      	movs	r3, #0
 800301a:	617b      	str	r3, [r7, #20]
  
  /* Check the parameters */
  assert_param(IS_NVIC_SUB_PRIORITY(SubPriority));
  assert_param(IS_NVIC_PREEMPTION_PRIORITY(PreemptPriority));
  
  prioritygroup = NVIC_GetPriorityGrouping();
 800301c:	f7ff ff42 	bl	8002ea4 <__NVIC_GetPriorityGrouping>
 8003020:	6178      	str	r0, [r7, #20]
  
  NVIC_SetPriority(IRQn, NVIC_EncodePriority(prioritygroup, PreemptPriority, SubPriority));
 8003022:	687a      	ldr	r2, [r7, #4]
 8003024:	68b9      	ldr	r1, [r7, #8]
 8003026:	6978      	ldr	r0, [r7, #20]
 8003028:	f7ff ff90 	bl	8002f4c <NVIC_EncodePriority>
 800302c:	4602      	mov	r2, r0
 800302e:	f997 300f 	ldrsb.w	r3, [r7, #15]
 8003032:	4611      	mov	r1, r2
 8003034:	4618      	mov	r0, r3
 8003036:	f7ff ff5f 	bl	8002ef8 <__NVIC_SetPriority>
}
 800303a:	bf00      	nop
 800303c:	3718      	adds	r7, #24
 800303e:	46bd      	mov	sp, r7
 8003040:	bd80      	pop	{r7, pc}

08003042 <HAL_NVIC_EnableIRQ>:
  *         This parameter can be an enumerator of IRQn_Type enumeration
  *         (For the complete STM32 Devices IRQ Channels list, please refer to the appropriate CMSIS device file (stm32f10xxx.h))
  * @retval None
  */
void HAL_NVIC_EnableIRQ(IRQn_Type IRQn)
{
 8003042:	b580      	push	{r7, lr}
 8003044:	b082      	sub	sp, #8
 8003046:	af00      	add	r7, sp, #0
 8003048:	4603      	mov	r3, r0
 800304a:	71fb      	strb	r3, [r7, #7]
  /* Check the parameters */
  assert_param(IS_NVIC_DEVICE_IRQ(IRQn));

  /* Enable interrupt */
  NVIC_EnableIRQ(IRQn);
 800304c:	f997 3007 	ldrsb.w	r3, [r7, #7]
 8003050:	4618      	mov	r0, r3
 8003052:	f7ff ff35 	bl	8002ec0 <__NVIC_EnableIRQ>
}
 8003056:	bf00      	nop
 8003058:	3708      	adds	r7, #8
 800305a:	46bd      	mov	sp, r7
 800305c:	bd80      	pop	{r7, pc}

0800305e <HAL_SYSTICK_Config>:
  * @param  TicksNumb: Specifies the ticks Number of ticks between two interrupts.
  * @retval status:  - 0  Function succeeded.
  *                  - 1  Function failed.
  */
uint32_t HAL_SYSTICK_Config(uint32_t TicksNumb)
{
 800305e:	b580      	push	{r7, lr}
 8003060:	b082      	sub	sp, #8
 8003062:	af00      	add	r7, sp, #0
 8003064:	6078      	str	r0, [r7, #4]
   return SysTick_Config(TicksNumb);
 8003066:	6878      	ldr	r0, [r7, #4]
 8003068:	f7ff ffa2 	bl	8002fb0 <SysTick_Config>
 800306c:	4603      	mov	r3, r0
}
 800306e:	4618      	mov	r0, r3
 8003070:	3708      	adds	r7, #8
 8003072:	46bd      	mov	sp, r7
 8003074:	bd80      	pop	{r7, pc}
	...

08003078 <HAL_GPIO_Init>:
  * @param  GPIO_Init: pointer to a GPIO_InitTypeDef structure that contains
  *         the configuration information for the specified GPIO peripheral.
  * @retval None
  */
void HAL_GPIO_Init(GPIO_TypeDef  *GPIOx, GPIO_InitTypeDef *GPIO_Init)
{
 8003078:	b480      	push	{r7}
 800307a:	b08b      	sub	sp, #44	@ 0x2c
 800307c:	af00      	add	r7, sp, #0
 800307e:	6078      	str	r0, [r7, #4]
 8003080:	6039      	str	r1, [r7, #0]
  uint32_t position = 0x00u;
 8003082:	2300      	movs	r3, #0
 8003084:	627b      	str	r3, [r7, #36]	@ 0x24
  uint32_t ioposition;
  uint32_t iocurrent;
  uint32_t temp;
  uint32_t config = 0x00u;
 8003086:	2300      	movs	r3, #0
 8003088:	623b      	str	r3, [r7, #32]
  assert_param(IS_GPIO_ALL_INSTANCE(GPIOx));
  assert_param(IS_GPIO_PIN(GPIO_Init->Pin));
  assert_param(IS_GPIO_MODE(GPIO_Init->Mode));

  /* Configure the port pins */
  while (((GPIO_Init->Pin) >> position) != 0x00u)
 800308a:	e169      	b.n	8003360 <HAL_GPIO_Init+0x2e8>
  {
    /* Get the IO position */
    ioposition = (0x01uL << position);
 800308c:	2201      	movs	r2, #1
 800308e:	6a7b      	ldr	r3, [r7, #36]	@ 0x24
 8003090:	fa02 f303 	lsl.w	r3, r2, r3
 8003094:	61fb      	str	r3, [r7, #28]

    /* Get the current IO position */
    iocurrent = (uint32_t)(GPIO_Init->Pin) & ioposition;
 8003096:	683b      	ldr	r3, [r7, #0]
 8003098:	681b      	ldr	r3, [r3, #0]
 800309a:	69fa      	ldr	r2, [r7, #28]
 800309c:	4013      	ands	r3, r2
 800309e:	61bb      	str	r3, [r7, #24]

    if (iocurrent == ioposition)
 80030a0:	69ba      	ldr	r2, [r7, #24]
 80030a2:	69fb      	ldr	r3, [r7, #28]
 80030a4:	429a      	cmp	r2, r3
 80030a6:	f040 8158 	bne.w	800335a <HAL_GPIO_Init+0x2e2>
    {
      /* Check the Alternate function parameters */
      assert_param(IS_GPIO_AF_INSTANCE(GPIOx));

      /* Based on the required mode, filling config variable with MODEy[1:0] and CNFy[3:2] corresponding bits */
      switch (GPIO_Init->Mode)
 80030aa:	683b      	ldr	r3, [r7, #0]
 80030ac:	685b      	ldr	r3, [r3, #4]
 80030ae:	4a9a      	ldr	r2, [pc, #616]	@ (8003318 <HAL_GPIO_Init+0x2a0>)
 80030b0:	4293      	cmp	r3, r2
 80030b2:	d05e      	beq.n	8003172 <HAL_GPIO_Init+0xfa>
 80030b4:	4a98      	ldr	r2, [pc, #608]	@ (8003318 <HAL_GPIO_Init+0x2a0>)
 80030b6:	4293      	cmp	r3, r2
 80030b8:	d875      	bhi.n	80031a6 <HAL_GPIO_Init+0x12e>
 80030ba:	4a98      	ldr	r2, [pc, #608]	@ (800331c <HAL_GPIO_Init+0x2a4>)
 80030bc:	4293      	cmp	r3, r2
 80030be:	d058      	beq.n	8003172 <HAL_GPIO_Init+0xfa>
 80030c0:	4a96      	ldr	r2, [pc, #600]	@ (800331c <HAL_GPIO_Init+0x2a4>)
 80030c2:	4293      	cmp	r3, r2
 80030c4:	d86f      	bhi.n	80031a6 <HAL_GPIO_Init+0x12e>
 80030c6:	4a96      	ldr	r2, [pc, #600]	@ (8003320 <HAL_GPIO_Init+0x2a8>)
 80030c8:	4293      	cmp	r3, r2
 80030ca:	d052      	beq.n	8003172 <HAL_GPIO_Init+0xfa>
 80030cc:	4a94      	ldr	r2, [pc, #592]	@ (8003320 <HAL_GPIO_Init+0x2a8>)
 80030ce:	4293      	cmp	r3, r2
 80030d0:	d869      	bhi.n	80031a6 <HAL_GPIO_Init+0x12e>
 80030d2:	4a94      	ldr	r2, [pc, #592]	@ (8003324 <HAL_GPIO_Init+0x2ac>)
 80030d4:	4293      	cmp	r3, r2
 80030d6:	d04c      	beq.n	8003172 <HAL_GPIO_Init+0xfa>
 80030d8:	4a92      	ldr	r2, [pc, #584]	@ (8003324 <HAL_GPIO_Init+0x2ac>)
 80030da:	4293      	cmp	r3, r2
 80030dc:	d863      	bhi.n	80031a6 <HAL_GPIO_Init+0x12e>
 80030de:	4a92      	ldr	r2, [pc, #584]	@ (8003328 <HAL_GPIO_Init+0x2b0>)
 80030e0:	4293      	cmp	r3, r2
 80030e2:	d046      	beq.n	8003172 <HAL_GPIO_Init+0xfa>
 80030e4:	4a90      	ldr	r2, [pc, #576]	@ (8003328 <HAL_GPIO_Init+0x2b0>)
 80030e6:	4293      	cmp	r3, r2
 80030e8:	d85d      	bhi.n	80031a6 <HAL_GPIO_Init+0x12e>
 80030ea:	2b12      	cmp	r3, #18
 80030ec:	d82a      	bhi.n	8003144 <HAL_GPIO_Init+0xcc>
 80030ee:	2b12      	cmp	r3, #18
 80030f0:	d859      	bhi.n	80031a6 <HAL_GPIO_Init+0x12e>
 80030f2:	a201      	add	r2, pc, #4	@ (adr r2, 80030f8 <HAL_GPIO_Init+0x80>)
 80030f4:	f852 f023 	ldr.w	pc, [r2, r3, lsl #2]
 80030f8:	08003173 	.word	0x08003173
 80030fc:	0800314d 	.word	0x0800314d
 8003100:	0800315f 	.word	0x0800315f
 8003104:	080031a1 	.word	0x080031a1
 8003108:	080031a7 	.word	0x080031a7
 800310c:	080031a7 	.word	0x080031a7
 8003110:	080031a7 	.word	0x080031a7
 8003114:	080031a7 	.word	0x080031a7
 8003118:	080031a7 	.word	0x080031a7
 800311c:	080031a7 	.word	0x080031a7
 8003120:	080031a7 	.word	0x080031a7
 8003124:	080031a7 	.word	0x080031a7
 8003128:	080031a7 	.word	0x080031a7
 800312c:	080031a7 	.word	0x080031a7
 8003130:	080031a7 	.word	0x080031a7
 8003134:	080031a7 	.word	0x080031a7
 8003138:	080031a7 	.word	0x080031a7
 800313c:	08003155 	.word	0x08003155
 8003140:	08003169 	.word	0x08003169
 8003144:	4a79      	ldr	r2, [pc, #484]	@ (800332c <HAL_GPIO_Init+0x2b4>)
 8003146:	4293      	cmp	r3, r2
 8003148:	d013      	beq.n	8003172 <HAL_GPIO_Init+0xfa>
          config = GPIO_CR_MODE_INPUT + GPIO_CR_CNF_ANALOG;
          break;

        /* Parameters are checked with assert_param */
        default:
          break;
 800314a:	e02c      	b.n	80031a6 <HAL_GPIO_Init+0x12e>
          config = GPIO_Init->Speed + GPIO_CR_CNF_GP_OUTPUT_PP;
 800314c:	683b      	ldr	r3, [r7, #0]
 800314e:	68db      	ldr	r3, [r3, #12]
 8003150:	623b      	str	r3, [r7, #32]
          break;
 8003152:	e029      	b.n	80031a8 <HAL_GPIO_Init+0x130>
          config = GPIO_Init->Speed + GPIO_CR_CNF_GP_OUTPUT_OD;
 8003154:	683b      	ldr	r3, [r7, #0]
 8003156:	68db      	ldr	r3, [r3, #12]
 8003158:	3304      	adds	r3, #4
 800315a:	623b      	str	r3, [r7, #32]
          break;
 800315c:	e024      	b.n	80031a8 <HAL_GPIO_Init+0x130>
          config = GPIO_Init->Speed + GPIO_CR_CNF_AF_OUTPUT_PP;
 800315e:	683b      	ldr	r3, [r7, #0]
 8003160:	68db      	ldr	r3, [r3, #12]
 8003162:	3308      	adds	r3, #8
 8003164:	623b      	str	r3, [r7, #32]
          break;
 8003166:	e01f      	b.n	80031a8 <HAL_GPIO_Init+0x130>
          config = GPIO_Init->Speed + GPIO_CR_CNF_AF_OUTPUT_OD;
 8003168:	683b      	ldr	r3, [r7, #0]
 800316a:	68db      	ldr	r3, [r3, #12]
 800316c:	330c      	adds	r3, #12
 800316e:	623b      	str	r3, [r7, #32]
          break;
 8003170:	e01a      	b.n	80031a8 <HAL_GPIO_Init+0x130>
          if (GPIO_Init->Pull == GPIO_NOPULL)
 8003172:	683b      	ldr	r3, [r7, #0]
 8003174:	689b      	ldr	r3, [r3, #8]
 8003176:	2b00      	cmp	r3, #0
 8003178:	d102      	bne.n	8003180 <HAL_GPIO_Init+0x108>
            config = GPIO_CR_MODE_INPUT + GPIO_CR_CNF_INPUT_FLOATING;
 800317a:	2304      	movs	r3, #4
 800317c:	623b      	str	r3, [r7, #32]
          break;
 800317e:	e013      	b.n	80031a8 <HAL_GPIO_Init+0x130>
          else if (GPIO_Init->Pull == GPIO_PULLUP)
 8003180:	683b      	ldr	r3, [r7, #0]
 8003182:	689b      	ldr	r3, [r3, #8]
 8003184:	2b01      	cmp	r3, #1
 8003186:	d105      	bne.n	8003194 <HAL_GPIO_Init+0x11c>
            config = GPIO_CR_MODE_INPUT + GPIO_CR_CNF_INPUT_PU_PD;
 8003188:	2308      	movs	r3, #8
 800318a:	623b      	str	r3, [r7, #32]
            GPIOx->BSRR = ioposition;
 800318c:	687b      	ldr	r3, [r7, #4]
 800318e:	69fa      	ldr	r2, [r7, #28]
 8003190:	611a      	str	r2, [r3, #16]
          break;
 8003192:	e009      	b.n	80031a8 <HAL_GPIO_Init+0x130>
            config = GPIO_CR_MODE_INPUT + GPIO_CR_CNF_INPUT_PU_PD;
 8003194:	2308      	movs	r3, #8
 8003196:	623b      	str	r3, [r7, #32]
            GPIOx->BRR = ioposition;
 8003198:	687b      	ldr	r3, [r7, #4]
 800319a:	69fa      	ldr	r2, [r7, #28]
 800319c:	615a      	str	r2, [r3, #20]
          break;
 800319e:	e003      	b.n	80031a8 <HAL_GPIO_Init+0x130>
          config = GPIO_CR_MODE_INPUT + GPIO_CR_CNF_ANALOG;
 80031a0:	2300      	movs	r3, #0
 80031a2:	623b      	str	r3, [r7, #32]
          break;
 80031a4:	e000      	b.n	80031a8 <HAL_GPIO_Init+0x130>
          break;
 80031a6:	bf00      	nop
      }

      /* Check if the current bit belongs to first half or last half of the pin count number
       in order to address CRH or CRL register*/
      configregister = (iocurrent < GPIO_PIN_8) ? &GPIOx->CRL     : &GPIOx->CRH;
 80031a8:	69bb      	ldr	r3, [r7, #24]
 80031aa:	2bff      	cmp	r3, #255	@ 0xff
 80031ac:	d801      	bhi.n	80031b2 <HAL_GPIO_Init+0x13a>
 80031ae:	687b      	ldr	r3, [r7, #4]
 80031b0:	e001      	b.n	80031b6 <HAL_GPIO_Init+0x13e>
 80031b2:	687b      	ldr	r3, [r7, #4]
 80031b4:	3304      	adds	r3, #4
 80031b6:	617b      	str	r3, [r7, #20]
      registeroffset = (iocurrent < GPIO_PIN_8) ? (position << 2u) : ((position - 8u) << 2u);
 80031b8:	69bb      	ldr	r3, [r7, #24]
 80031ba:	2bff      	cmp	r3, #255	@ 0xff
 80031bc:	d802      	bhi.n	80031c4 <HAL_GPIO_Init+0x14c>
 80031be:	6a7b      	ldr	r3, [r7, #36]	@ 0x24
 80031c0:	009b      	lsls	r3, r3, #2
 80031c2:	e002      	b.n	80031ca <HAL_GPIO_Init+0x152>
 80031c4:	6a7b      	ldr	r3, [r7, #36]	@ 0x24
 80031c6:	3b08      	subs	r3, #8
 80031c8:	009b      	lsls	r3, r3, #2
 80031ca:	613b      	str	r3, [r7, #16]

      /* Apply the new configuration of the pin to the register */
      MODIFY_REG((*configregister), ((GPIO_CRL_MODE0 | GPIO_CRL_CNF0) << registeroffset), (config << registeroffset));
 80031cc:	697b      	ldr	r3, [r7, #20]
 80031ce:	681a      	ldr	r2, [r3, #0]
 80031d0:	210f      	movs	r1, #15
 80031d2:	693b      	ldr	r3, [r7, #16]
 80031d4:	fa01 f303 	lsl.w	r3, r1, r3
 80031d8:	43db      	mvns	r3, r3
 80031da:	401a      	ands	r2, r3
 80031dc:	6a39      	ldr	r1, [r7, #32]
 80031de:	693b      	ldr	r3, [r7, #16]
 80031e0:	fa01 f303 	lsl.w	r3, r1, r3
 80031e4:	431a      	orrs	r2, r3
 80031e6:	697b      	ldr	r3, [r7, #20]
 80031e8:	601a      	str	r2, [r3, #0]

      /*--------------------- EXTI Mode Configuration ------------------------*/
      /* Configure the External Interrupt or event for the current IO */
      if ((GPIO_Init->Mode & EXTI_MODE) == EXTI_MODE)
 80031ea:	683b      	ldr	r3, [r7, #0]
 80031ec:	685b      	ldr	r3, [r3, #4]
 80031ee:	f003 5380 	and.w	r3, r3, #268435456	@ 0x10000000
 80031f2:	2b00      	cmp	r3, #0
 80031f4:	f000 80b1 	beq.w	800335a <HAL_GPIO_Init+0x2e2>
      {
        /* Enable AFIO Clock */
        __HAL_RCC_AFIO_CLK_ENABLE();
 80031f8:	4b4d      	ldr	r3, [pc, #308]	@ (8003330 <HAL_GPIO_Init+0x2b8>)
 80031fa:	699b      	ldr	r3, [r3, #24]
 80031fc:	4a4c      	ldr	r2, [pc, #304]	@ (8003330 <HAL_GPIO_Init+0x2b8>)
 80031fe:	f043 0301 	orr.w	r3, r3, #1
 8003202:	6193      	str	r3, [r2, #24]
 8003204:	4b4a      	ldr	r3, [pc, #296]	@ (8003330 <HAL_GPIO_Init+0x2b8>)
 8003206:	699b      	ldr	r3, [r3, #24]
 8003208:	f003 0301 	and.w	r3, r3, #1
 800320c:	60bb      	str	r3, [r7, #8]
 800320e:	68bb      	ldr	r3, [r7, #8]
        temp = AFIO->EXTICR[position >> 2u];
 8003210:	4a48      	ldr	r2, [pc, #288]	@ (8003334 <HAL_GPIO_Init+0x2bc>)
 8003212:	6a7b      	ldr	r3, [r7, #36]	@ 0x24
 8003214:	089b      	lsrs	r3, r3, #2
 8003216:	3302      	adds	r3, #2
 8003218:	f852 3023 	ldr.w	r3, [r2, r3, lsl #2]
 800321c:	60fb      	str	r3, [r7, #12]
        CLEAR_BIT(temp, (0x0Fu) << (4u * (position & 0x03u)));
 800321e:	6a7b      	ldr	r3, [r7, #36]	@ 0x24
 8003220:	f003 0303 	and.w	r3, r3, #3
 8003224:	009b      	lsls	r3, r3, #2
 8003226:	220f      	movs	r2, #15
 8003228:	fa02 f303 	lsl.w	r3, r2, r3
 800322c:	43db      	mvns	r3, r3
 800322e:	68fa      	ldr	r2, [r7, #12]
 8003230:	4013      	ands	r3, r2
 8003232:	60fb      	str	r3, [r7, #12]
        SET_BIT(temp, (GPIO_GET_INDEX(GPIOx)) << (4u * (position & 0x03u)));
 8003234:	687b      	ldr	r3, [r7, #4]
 8003236:	4a40      	ldr	r2, [pc, #256]	@ (8003338 <HAL_GPIO_Init+0x2c0>)
 8003238:	4293      	cmp	r3, r2
 800323a:	d013      	beq.n	8003264 <HAL_GPIO_Init+0x1ec>
 800323c:	687b      	ldr	r3, [r7, #4]
 800323e:	4a3f      	ldr	r2, [pc, #252]	@ (800333c <HAL_GPIO_Init+0x2c4>)
 8003240:	4293      	cmp	r3, r2
 8003242:	d00d      	beq.n	8003260 <HAL_GPIO_Init+0x1e8>
 8003244:	687b      	ldr	r3, [r7, #4]
 8003246:	4a3e      	ldr	r2, [pc, #248]	@ (8003340 <HAL_GPIO_Init+0x2c8>)
 8003248:	4293      	cmp	r3, r2
 800324a:	d007      	beq.n	800325c <HAL_GPIO_Init+0x1e4>
 800324c:	687b      	ldr	r3, [r7, #4]
 800324e:	4a3d      	ldr	r2, [pc, #244]	@ (8003344 <HAL_GPIO_Init+0x2cc>)
 8003250:	4293      	cmp	r3, r2
 8003252:	d101      	bne.n	8003258 <HAL_GPIO_Init+0x1e0>
 8003254:	2303      	movs	r3, #3
 8003256:	e006      	b.n	8003266 <HAL_GPIO_Init+0x1ee>
 8003258:	2304      	movs	r3, #4
 800325a:	e004      	b.n	8003266 <HAL_GPIO_Init+0x1ee>
 800325c:	2302      	movs	r3, #2
 800325e:	e002      	b.n	8003266 <HAL_GPIO_Init+0x1ee>
 8003260:	2301      	movs	r3, #1
 8003262:	e000      	b.n	8003266 <HAL_GPIO_Init+0x1ee>
 8003264:	2300      	movs	r3, #0
 8003266:	6a7a      	ldr	r2, [r7, #36]	@ 0x24
 8003268:	f002 0203 	and.w	r2, r2, #3
 800326c:	0092      	lsls	r2, r2, #2
 800326e:	4093      	lsls	r3, r2
 8003270:	68fa      	ldr	r2, [r7, #12]
 8003272:	4313      	orrs	r3, r2
 8003274:	60fb      	str	r3, [r7, #12]
        AFIO->EXTICR[position >> 2u] = temp;
 8003276:	492f      	ldr	r1, [pc, #188]	@ (8003334 <HAL_GPIO_Init+0x2bc>)
 8003278:	6a7b      	ldr	r3, [r7, #36]	@ 0x24
 800327a:	089b      	lsrs	r3, r3, #2
 800327c:	3302      	adds	r3, #2
 800327e:	68fa      	ldr	r2, [r7, #12]
 8003280:	f841 2023 	str.w	r2, [r1, r3, lsl #2]


        /* Enable or disable the rising trigger */
        if ((GPIO_Init->Mode & RISING_EDGE) == RISING_EDGE)
 8003284:	683b      	ldr	r3, [r7, #0]
 8003286:	685b      	ldr	r3, [r3, #4]
 8003288:	f403 1380 	and.w	r3, r3, #1048576	@ 0x100000
 800328c:	2b00      	cmp	r3, #0
 800328e:	d006      	beq.n	800329e <HAL_GPIO_Init+0x226>
        {
          SET_BIT(EXTI->RTSR, iocurrent);
 8003290:	4b2d      	ldr	r3, [pc, #180]	@ (8003348 <HAL_GPIO_Init+0x2d0>)
 8003292:	689a      	ldr	r2, [r3, #8]
 8003294:	492c      	ldr	r1, [pc, #176]	@ (8003348 <HAL_GPIO_Init+0x2d0>)
 8003296:	69bb      	ldr	r3, [r7, #24]
 8003298:	4313      	orrs	r3, r2
 800329a:	608b      	str	r3, [r1, #8]
 800329c:	e006      	b.n	80032ac <HAL_GPIO_Init+0x234>
        }
        else
        {
          CLEAR_BIT(EXTI->RTSR, iocurrent);
 800329e:	4b2a      	ldr	r3, [pc, #168]	@ (8003348 <HAL_GPIO_Init+0x2d0>)
 80032a0:	689a      	ldr	r2, [r3, #8]
 80032a2:	69bb      	ldr	r3, [r7, #24]
 80032a4:	43db      	mvns	r3, r3
 80032a6:	4928      	ldr	r1, [pc, #160]	@ (8003348 <HAL_GPIO_Init+0x2d0>)
 80032a8:	4013      	ands	r3, r2
 80032aa:	608b      	str	r3, [r1, #8]
        }

        /* Enable or disable the falling trigger */
        if ((GPIO_Init->Mode & FALLING_EDGE) == FALLING_EDGE)
 80032ac:	683b      	ldr	r3, [r7, #0]
 80032ae:	685b      	ldr	r3, [r3, #4]
 80032b0:	f403 1300 	and.w	r3, r3, #2097152	@ 0x200000
 80032b4:	2b00      	cmp	r3, #0
 80032b6:	d006      	beq.n	80032c6 <HAL_GPIO_Init+0x24e>
        {
          SET_BIT(EXTI->FTSR, iocurrent);
 80032b8:	4b23      	ldr	r3, [pc, #140]	@ (8003348 <HAL_GPIO_Init+0x2d0>)
 80032ba:	68da      	ldr	r2, [r3, #12]
 80032bc:	4922      	ldr	r1, [pc, #136]	@ (8003348 <HAL_GPIO_Init+0x2d0>)
 80032be:	69bb      	ldr	r3, [r7, #24]
 80032c0:	4313      	orrs	r3, r2
 80032c2:	60cb      	str	r3, [r1, #12]
 80032c4:	e006      	b.n	80032d4 <HAL_GPIO_Init+0x25c>
        }
        else
        {
          CLEAR_BIT(EXTI->FTSR, iocurrent);
 80032c6:	4b20      	ldr	r3, [pc, #128]	@ (8003348 <HAL_GPIO_Init+0x2d0>)
 80032c8:	68da      	ldr	r2, [r3, #12]
 80032ca:	69bb      	ldr	r3, [r7, #24]
 80032cc:	43db      	mvns	r3, r3
 80032ce:	491e      	ldr	r1, [pc, #120]	@ (8003348 <HAL_GPIO_Init+0x2d0>)
 80032d0:	4013      	ands	r3, r2
 80032d2:	60cb      	str	r3, [r1, #12]
        }

        /* Configure the event mask */
        if ((GPIO_Init->Mode & GPIO_MODE_EVT) == GPIO_MODE_EVT)
 80032d4:	683b      	ldr	r3, [r7, #0]
 80032d6:	685b      	ldr	r3, [r3, #4]
 80032d8:	f403 3300 	and.w	r3, r3, #131072	@ 0x20000
 80032dc:	2b00      	cmp	r3, #0
 80032de:	d006      	beq.n	80032ee <HAL_GPIO_Init+0x276>
        {
          SET_BIT(EXTI->EMR, iocurrent);
 80032e0:	4b19      	ldr	r3, [pc, #100]	@ (8003348 <HAL_GPIO_Init+0x2d0>)
 80032e2:	685a      	ldr	r2, [r3, #4]
 80032e4:	4918      	ldr	r1, [pc, #96]	@ (8003348 <HAL_GPIO_Init+0x2d0>)
 80032e6:	69bb      	ldr	r3, [r7, #24]
 80032e8:	4313      	orrs	r3, r2
 80032ea:	604b      	str	r3, [r1, #4]
 80032ec:	e006      	b.n	80032fc <HAL_GPIO_Init+0x284>
        }
        else
        {
          CLEAR_BIT(EXTI->EMR, iocurrent);
 80032ee:	4b16      	ldr	r3, [pc, #88]	@ (8003348 <HAL_GPIO_Init+0x2d0>)
 80032f0:	685a      	ldr	r2, [r3, #4]
 80032f2:	69bb      	ldr	r3, [r7, #24]
 80032f4:	43db      	mvns	r3, r3
 80032f6:	4914      	ldr	r1, [pc, #80]	@ (8003348 <HAL_GPIO_Init+0x2d0>)
 80032f8:	4013      	ands	r3, r2
 80032fa:	604b      	str	r3, [r1, #4]
        }

        /* Configure the interrupt mask */
        if ((GPIO_Init->Mode & GPIO_MODE_IT) == GPIO_MODE_IT)
 80032fc:	683b      	ldr	r3, [r7, #0]
 80032fe:	685b      	ldr	r3, [r3, #4]
 8003300:	f403 3380 	and.w	r3, r3, #65536	@ 0x10000
 8003304:	2b00      	cmp	r3, #0
 8003306:	d021      	beq.n	800334c <HAL_GPIO_Init+0x2d4>
        {
          SET_BIT(EXTI->IMR, iocurrent);
 8003308:	4b0f      	ldr	r3, [pc, #60]	@ (8003348 <HAL_GPIO_Init+0x2d0>)
 800330a:	681a      	ldr	r2, [r3, #0]
 800330c:	490e      	ldr	r1, [pc, #56]	@ (8003348 <HAL_GPIO_Init+0x2d0>)
 800330e:	69bb      	ldr	r3, [r7, #24]
 8003310:	4313      	orrs	r3, r2
 8003312:	600b      	str	r3, [r1, #0]
 8003314:	e021      	b.n	800335a <HAL_GPIO_Init+0x2e2>
 8003316:	bf00      	nop
 8003318:	10320000 	.word	0x10320000
 800331c:	10310000 	.word	0x10310000
 8003320:	10220000 	.word	0x10220000
 8003324:	10210000 	.word	0x10210000
 8003328:	10120000 	.word	0x10120000
 800332c:	10110000 	.word	0x10110000
 8003330:	40021000 	.word	0x40021000
 8003334:	40010000 	.word	0x40010000
 8003338:	40010800 	.word	0x40010800
 800333c:	40010c00 	.word	0x40010c00
 8003340:	40011000 	.word	0x40011000
 8003344:	40011400 	.word	0x40011400
 8003348:	40010400 	.word	0x40010400
        }
        else
        {
          CLEAR_BIT(EXTI->IMR, iocurrent);
 800334c:	4b0b      	ldr	r3, [pc, #44]	@ (800337c <HAL_GPIO_Init+0x304>)
 800334e:	681a      	ldr	r2, [r3, #0]
 8003350:	69bb      	ldr	r3, [r7, #24]
 8003352:	43db      	mvns	r3, r3
 8003354:	4909      	ldr	r1, [pc, #36]	@ (800337c <HAL_GPIO_Init+0x304>)
 8003356:	4013      	ands	r3, r2
 8003358:	600b      	str	r3, [r1, #0]
        }
      }
    }

	position++;
 800335a:	6a7b      	ldr	r3, [r7, #36]	@ 0x24
 800335c:	3301      	adds	r3, #1
 800335e:	627b      	str	r3, [r7, #36]	@ 0x24
  while (((GPIO_Init->Pin) >> position) != 0x00u)
 8003360:	683b      	ldr	r3, [r7, #0]
 8003362:	681a      	ldr	r2, [r3, #0]
 8003364:	6a7b      	ldr	r3, [r7, #36]	@ 0x24
 8003366:	fa22 f303 	lsr.w	r3, r2, r3
 800336a:	2b00      	cmp	r3, #0
 800336c:	f47f ae8e 	bne.w	800308c <HAL_GPIO_Init+0x14>
  }
}
 8003370:	bf00      	nop
 8003372:	bf00      	nop
 8003374:	372c      	adds	r7, #44	@ 0x2c
 8003376:	46bd      	mov	sp, r7
 8003378:	bc80      	pop	{r7}
 800337a:	4770      	bx	lr
 800337c:	40010400 	.word	0x40010400

08003380 <HAL_GPIO_WritePin>:
  *            @arg GPIO_PIN_RESET: to clear the port pin
  *            @arg GPIO_PIN_SET: to set the port pin
  * @retval None
  */
void HAL_GPIO_WritePin(GPIO_TypeDef *GPIOx, uint16_t GPIO_Pin, GPIO_PinState PinState)
{
 8003380:	b480      	push	{r7}
 8003382:	b083      	sub	sp, #12
 8003384:	af00      	add	r7, sp, #0
 8003386:	6078      	str	r0, [r7, #4]
 8003388:	460b      	mov	r3, r1
 800338a:	807b      	strh	r3, [r7, #2]
 800338c:	4613      	mov	r3, r2
 800338e:	707b      	strb	r3, [r7, #1]
  /* Check the parameters */
  assert_param(IS_GPIO_PIN(GPIO_Pin));
  assert_param(IS_GPIO_PIN_ACTION(PinState));

  if (PinState != GPIO_PIN_RESET)
 8003390:	787b      	ldrb	r3, [r7, #1]
 8003392:	2b00      	cmp	r3, #0
 8003394:	d003      	beq.n	800339e <HAL_GPIO_WritePin+0x1e>
  {
    GPIOx->BSRR = GPIO_Pin;
 8003396:	887a      	ldrh	r2, [r7, #2]
 8003398:	687b      	ldr	r3, [r7, #4]
 800339a:	611a      	str	r2, [r3, #16]
  }
  else
  {
    GPIOx->BSRR = (uint32_t)GPIO_Pin << 16u;
  }
}
 800339c:	e003      	b.n	80033a6 <HAL_GPIO_WritePin+0x26>
    GPIOx->BSRR = (uint32_t)GPIO_Pin << 16u;
 800339e:	887b      	ldrh	r3, [r7, #2]
 80033a0:	041a      	lsls	r2, r3, #16
 80033a2:	687b      	ldr	r3, [r7, #4]
 80033a4:	611a      	str	r2, [r3, #16]
}
 80033a6:	bf00      	nop
 80033a8:	370c      	adds	r7, #12
 80033aa:	46bd      	mov	sp, r7
 80033ac:	bc80      	pop	{r7}
 80033ae:	4770      	bx	lr

080033b0 <HAL_I2C_Init>:
  * @param  hi2c Pointer to a I2C_HandleTypeDef structure that contains
  *                the configuration information for the specified I2C.
  * @retval HAL status
  */
HAL_StatusTypeDef HAL_I2C_Init(I2C_HandleTypeDef *hi2c)
{
 80033b0:	b580      	push	{r7, lr}
 80033b2:	b084      	sub	sp, #16
 80033b4:	af00      	add	r7, sp, #0
 80033b6:	6078      	str	r0, [r7, #4]
  uint32_t freqrange;
  uint32_t pclk1;

  /* Check the I2C handle allocation */
  if (hi2c == NULL)
 80033b8:	687b      	ldr	r3, [r7, #4]
 80033ba:	2b00      	cmp	r3, #0
 80033bc:	d101      	bne.n	80033c2 <HAL_I2C_Init+0x12>
  {
    return HAL_ERROR;
 80033be:	2301      	movs	r3, #1
 80033c0:	e12b      	b.n	800361a <HAL_I2C_Init+0x26a>
  assert_param(IS_I2C_DUAL_ADDRESS(hi2c->Init.DualAddressMode));
  assert_param(IS_I2C_OWN_ADDRESS2(hi2c->Init.OwnAddress2));
  assert_param(IS_I2C_GENERAL_CALL(hi2c->Init.GeneralCallMode));
  assert_param(IS_I2C_NO_STRETCH(hi2c->Init.NoStretchMode));

  if (hi2c->State == HAL_I2C_STATE_RESET)
 80033c2:	687b      	ldr	r3, [r7, #4]
 80033c4:	f893 303d 	ldrb.w	r3, [r3, #61]	@ 0x3d
 80033c8:	b2db      	uxtb	r3, r3
 80033ca:	2b00      	cmp	r3, #0
 80033cc:	d106      	bne.n	80033dc <HAL_I2C_Init+0x2c>
  {
    /* Allocate lock resource and initialize it */
    hi2c->Lock = HAL_UNLOCKED;
 80033ce:	687b      	ldr	r3, [r7, #4]
 80033d0:	2200      	movs	r2, #0
 80033d2:	f883 203c 	strb.w	r2, [r3, #60]	@ 0x3c

    /* Init the low level hardware : GPIO, CLOCK, NVIC */
    hi2c->MspInitCallback(hi2c);
#else
    /* Init the low level hardware : GPIO, CLOCK, NVIC */
    HAL_I2C_MspInit(hi2c);
 80033d6:	6878      	ldr	r0, [r7, #4]
 80033d8:	f7ff fb22 	bl	8002a20 <HAL_I2C_MspInit>
#endif /* USE_HAL_I2C_REGISTER_CALLBACKS */
  }

  hi2c->State = HAL_I2C_STATE_BUSY;
 80033dc:	687b      	ldr	r3, [r7, #4]
 80033de:	2224      	movs	r2, #36	@ 0x24
 80033e0:	f883 203d 	strb.w	r2, [r3, #61]	@ 0x3d

  /* Disable the selected I2C peripheral */
  __HAL_I2C_DISABLE(hi2c);
 80033e4:	687b      	ldr	r3, [r7, #4]
 80033e6:	681b      	ldr	r3, [r3, #0]
 80033e8:	681a      	ldr	r2, [r3, #0]
 80033ea:	687b      	ldr	r3, [r7, #4]
 80033ec:	681b      	ldr	r3, [r3, #0]
 80033ee:	f022 0201 	bic.w	r2, r2, #1
 80033f2:	601a      	str	r2, [r3, #0]

  /*Reset I2C*/
  hi2c->Instance->CR1 |= I2C_CR1_SWRST;
 80033f4:	687b      	ldr	r3, [r7, #4]
 80033f6:	681b      	ldr	r3, [r3, #0]
 80033f8:	681a      	ldr	r2, [r3, #0]
 80033fa:	687b      	ldr	r3, [r7, #4]
 80033fc:	681b      	ldr	r3, [r3, #0]
 80033fe:	f442 4200 	orr.w	r2, r2, #32768	@ 0x8000
 8003402:	601a      	str	r2, [r3, #0]
  hi2c->Instance->CR1 &= ~I2C_CR1_SWRST;
 8003404:	687b      	ldr	r3, [r7, #4]
 8003406:	681b      	ldr	r3, [r3, #0]
 8003408:	681a      	ldr	r2, [r3, #0]
 800340a:	687b      	ldr	r3, [r7, #4]
 800340c:	681b      	ldr	r3, [r3, #0]
 800340e:	f422 4200 	bic.w	r2, r2, #32768	@ 0x8000
 8003412:	601a      	str	r2, [r3, #0]

  /* Get PCLK1 frequency */
  pclk1 = HAL_RCC_GetPCLK1Freq();
 8003414:	f001 fbf0 	bl	8004bf8 <HAL_RCC_GetPCLK1Freq>
 8003418:	60f8      	str	r0, [r7, #12]

  /* Check the minimum allowed PCLK1 frequency */
  if (I2C_MIN_PCLK_FREQ(pclk1, hi2c->Init.ClockSpeed) == 1U)
 800341a:	687b      	ldr	r3, [r7, #4]
 800341c:	685b      	ldr	r3, [r3, #4]
 800341e:	4a81      	ldr	r2, [pc, #516]	@ (8003624 <HAL_I2C_Init+0x274>)
 8003420:	4293      	cmp	r3, r2
 8003422:	d807      	bhi.n	8003434 <HAL_I2C_Init+0x84>
 8003424:	68fb      	ldr	r3, [r7, #12]
 8003426:	4a80      	ldr	r2, [pc, #512]	@ (8003628 <HAL_I2C_Init+0x278>)
 8003428:	4293      	cmp	r3, r2
 800342a:	bf94      	ite	ls
 800342c:	2301      	movls	r3, #1
 800342e:	2300      	movhi	r3, #0
 8003430:	b2db      	uxtb	r3, r3
 8003432:	e006      	b.n	8003442 <HAL_I2C_Init+0x92>
 8003434:	68fb      	ldr	r3, [r7, #12]
 8003436:	4a7d      	ldr	r2, [pc, #500]	@ (800362c <HAL_I2C_Init+0x27c>)
 8003438:	4293      	cmp	r3, r2
 800343a:	bf94      	ite	ls
 800343c:	2301      	movls	r3, #1
 800343e:	2300      	movhi	r3, #0
 8003440:	b2db      	uxtb	r3, r3
 8003442:	2b00      	cmp	r3, #0
 8003444:	d001      	beq.n	800344a <HAL_I2C_Init+0x9a>
  {
    return HAL_ERROR;
 8003446:	2301      	movs	r3, #1
 8003448:	e0e7      	b.n	800361a <HAL_I2C_Init+0x26a>
  }

  /* Calculate frequency range */
  freqrange = I2C_FREQRANGE(pclk1);
 800344a:	68fb      	ldr	r3, [r7, #12]
 800344c:	4a78      	ldr	r2, [pc, #480]	@ (8003630 <HAL_I2C_Init+0x280>)
 800344e:	fba2 2303 	umull	r2, r3, r2, r3
 8003452:	0c9b      	lsrs	r3, r3, #18
 8003454:	60bb      	str	r3, [r7, #8]

  /*---------------------------- I2Cx CR2 Configuration ----------------------*/
  /* Configure I2Cx: Frequency range */
  MODIFY_REG(hi2c->Instance->CR2, I2C_CR2_FREQ, freqrange);
 8003456:	687b      	ldr	r3, [r7, #4]
 8003458:	681b      	ldr	r3, [r3, #0]
 800345a:	685b      	ldr	r3, [r3, #4]
 800345c:	f023 013f 	bic.w	r1, r3, #63	@ 0x3f
 8003460:	687b      	ldr	r3, [r7, #4]
 8003462:	681b      	ldr	r3, [r3, #0]
 8003464:	68ba      	ldr	r2, [r7, #8]
 8003466:	430a      	orrs	r2, r1
 8003468:	605a      	str	r2, [r3, #4]

  /*---------------------------- I2Cx TRISE Configuration --------------------*/
  /* Configure I2Cx: Rise Time */
  MODIFY_REG(hi2c->Instance->TRISE, I2C_TRISE_TRISE, I2C_RISE_TIME(freqrange, hi2c->Init.ClockSpeed));
 800346a:	687b      	ldr	r3, [r7, #4]
 800346c:	681b      	ldr	r3, [r3, #0]
 800346e:	6a1b      	ldr	r3, [r3, #32]
 8003470:	f023 013f 	bic.w	r1, r3, #63	@ 0x3f
 8003474:	687b      	ldr	r3, [r7, #4]
 8003476:	685b      	ldr	r3, [r3, #4]
 8003478:	4a6a      	ldr	r2, [pc, #424]	@ (8003624 <HAL_I2C_Init+0x274>)
 800347a:	4293      	cmp	r3, r2
 800347c:	d802      	bhi.n	8003484 <HAL_I2C_Init+0xd4>
 800347e:	68bb      	ldr	r3, [r7, #8]
 8003480:	3301      	adds	r3, #1
 8003482:	e009      	b.n	8003498 <HAL_I2C_Init+0xe8>
 8003484:	68bb      	ldr	r3, [r7, #8]
 8003486:	f44f 7296 	mov.w	r2, #300	@ 0x12c
 800348a:	fb02 f303 	mul.w	r3, r2, r3
 800348e:	4a69      	ldr	r2, [pc, #420]	@ (8003634 <HAL_I2C_Init+0x284>)
 8003490:	fba2 2303 	umull	r2, r3, r2, r3
 8003494:	099b      	lsrs	r3, r3, #6
 8003496:	3301      	adds	r3, #1
 8003498:	687a      	ldr	r2, [r7, #4]
 800349a:	6812      	ldr	r2, [r2, #0]
 800349c:	430b      	orrs	r3, r1
 800349e:	6213      	str	r3, [r2, #32]

  /*---------------------------- I2Cx CCR Configuration ----------------------*/
  /* Configure I2Cx: Speed */
  MODIFY_REG(hi2c->Instance->CCR, (I2C_CCR_FS | I2C_CCR_DUTY | I2C_CCR_CCR), I2C_SPEED(pclk1, hi2c->Init.ClockSpeed, hi2c->Init.DutyCycle));
 80034a0:	687b      	ldr	r3, [r7, #4]
 80034a2:	681b      	ldr	r3, [r3, #0]
 80034a4:	69db      	ldr	r3, [r3, #28]
 80034a6:	f423 424f 	bic.w	r2, r3, #52992	@ 0xcf00
 80034aa:	f022 02ff 	bic.w	r2, r2, #255	@ 0xff
 80034ae:	687b      	ldr	r3, [r7, #4]
 80034b0:	685b      	ldr	r3, [r3, #4]
 80034b2:	495c      	ldr	r1, [pc, #368]	@ (8003624 <HAL_I2C_Init+0x274>)
 80034b4:	428b      	cmp	r3, r1
 80034b6:	d819      	bhi.n	80034ec <HAL_I2C_Init+0x13c>
 80034b8:	68fb      	ldr	r3, [r7, #12]
 80034ba:	1e59      	subs	r1, r3, #1
 80034bc:	687b      	ldr	r3, [r7, #4]
 80034be:	685b      	ldr	r3, [r3, #4]
 80034c0:	005b      	lsls	r3, r3, #1
 80034c2:	fbb1 f3f3 	udiv	r3, r1, r3
 80034c6:	1c59      	adds	r1, r3, #1
 80034c8:	f640 73fc 	movw	r3, #4092	@ 0xffc
 80034cc:	400b      	ands	r3, r1
 80034ce:	2b00      	cmp	r3, #0
 80034d0:	d00a      	beq.n	80034e8 <HAL_I2C_Init+0x138>
 80034d2:	68fb      	ldr	r3, [r7, #12]
 80034d4:	1e59      	subs	r1, r3, #1
 80034d6:	687b      	ldr	r3, [r7, #4]
 80034d8:	685b      	ldr	r3, [r3, #4]
 80034da:	005b      	lsls	r3, r3, #1
 80034dc:	fbb1 f3f3 	udiv	r3, r1, r3
 80034e0:	3301      	adds	r3, #1
 80034e2:	f3c3 030b 	ubfx	r3, r3, #0, #12
 80034e6:	e051      	b.n	800358c <HAL_I2C_Init+0x1dc>
 80034e8:	2304      	movs	r3, #4
 80034ea:	e04f      	b.n	800358c <HAL_I2C_Init+0x1dc>
 80034ec:	687b      	ldr	r3, [r7, #4]
 80034ee:	689b      	ldr	r3, [r3, #8]
 80034f0:	2b00      	cmp	r3, #0
 80034f2:	d111      	bne.n	8003518 <HAL_I2C_Init+0x168>
 80034f4:	68fb      	ldr	r3, [r7, #12]
 80034f6:	1e58      	subs	r0, r3, #1
 80034f8:	687b      	ldr	r3, [r7, #4]
 80034fa:	6859      	ldr	r1, [r3, #4]
 80034fc:	460b      	mov	r3, r1
 80034fe:	005b      	lsls	r3, r3, #1
 8003500:	440b      	add	r3, r1
 8003502:	fbb0 f3f3 	udiv	r3, r0, r3
 8003506:	3301      	adds	r3, #1
 8003508:	f3c3 030b 	ubfx	r3, r3, #0, #12
 800350c:	2b00      	cmp	r3, #0
 800350e:	bf0c      	ite	eq
 8003510:	2301      	moveq	r3, #1
 8003512:	2300      	movne	r3, #0
 8003514:	b2db      	uxtb	r3, r3
 8003516:	e012      	b.n	800353e <HAL_I2C_Init+0x18e>
 8003518:	68fb      	ldr	r3, [r7, #12]
 800351a:	1e58      	subs	r0, r3, #1
 800351c:	687b      	ldr	r3, [r7, #4]
 800351e:	6859      	ldr	r1, [r3, #4]
 8003520:	460b      	mov	r3, r1
 8003522:	009b      	lsls	r3, r3, #2
 8003524:	440b      	add	r3, r1
 8003526:	0099      	lsls	r1, r3, #2
 8003528:	440b      	add	r3, r1
 800352a:	fbb0 f3f3 	udiv	r3, r0, r3
 800352e:	3301      	adds	r3, #1
 8003530:	f3c3 030b 	ubfx	r3, r3, #0, #12
 8003534:	2b00      	cmp	r3, #0
 8003536:	bf0c      	ite	eq
 8003538:	2301      	moveq	r3, #1
 800353a:	2300      	movne	r3, #0
 800353c:	b2db      	uxtb	r3, r3
 800353e:	2b00      	cmp	r3, #0
 8003540:	d001      	beq.n	8003546 <HAL_I2C_Init+0x196>
 8003542:	2301      	movs	r3, #1
 8003544:	e022      	b.n	800358c <HAL_I2C_Init+0x1dc>
 8003546:	687b      	ldr	r3, [r7, #4]
 8003548:	689b      	ldr	r3, [r3, #8]
 800354a:	2b00      	cmp	r3, #0
 800354c:	d10e      	bne.n	800356c <HAL_I2C_Init+0x1bc>
 800354e:	68fb      	ldr	r3, [r7, #12]
 8003550:	1e58      	subs	r0, r3, #1
 8003552:	687b      	ldr	r3, [r7, #4]
 8003554:	6859      	ldr	r1, [r3, #4]
 8003556:	460b      	mov	r3, r1
 8003558:	005b      	lsls	r3, r3, #1
 800355a:	440b      	add	r3, r1
 800355c:	fbb0 f3f3 	udiv	r3, r0, r3
 8003560:	3301      	adds	r3, #1
 8003562:	f3c3 030b 	ubfx	r3, r3, #0, #12
 8003566:	f443 4300 	orr.w	r3, r3, #32768	@ 0x8000
 800356a:	e00f      	b.n	800358c <HAL_I2C_Init+0x1dc>
 800356c:	68fb      	ldr	r3, [r7, #12]
 800356e:	1e58      	subs	r0, r3, #1
 8003570:	687b      	ldr	r3, [r7, #4]
 8003572:	6859      	ldr	r1, [r3, #4]
 8003574:	460b      	mov	r3, r1
 8003576:	009b      	lsls	r3, r3, #2
 8003578:	440b      	add	r3, r1
 800357a:	0099      	lsls	r1, r3, #2
 800357c:	440b      	add	r3, r1
 800357e:	fbb0 f3f3 	udiv	r3, r0, r3
 8003582:	3301      	adds	r3, #1
 8003584:	f3c3 030b 	ubfx	r3, r3, #0, #12
 8003588:	f443 4340 	orr.w	r3, r3, #49152	@ 0xc000
 800358c:	6879      	ldr	r1, [r7, #4]
 800358e:	6809      	ldr	r1, [r1, #0]
 8003590:	4313      	orrs	r3, r2
 8003592:	61cb      	str	r3, [r1, #28]

  /*---------------------------- I2Cx CR1 Configuration ----------------------*/
  /* Configure I2Cx: Generalcall and NoStretch mode */
  MODIFY_REG(hi2c->Instance->CR1, (I2C_CR1_ENGC | I2C_CR1_NOSTRETCH), (hi2c->Init.GeneralCallMode | hi2c->Init.NoStretchMode));
 8003594:	687b      	ldr	r3, [r7, #4]
 8003596:	681b      	ldr	r3, [r3, #0]
 8003598:	681b      	ldr	r3, [r3, #0]
 800359a:	f023 01c0 	bic.w	r1, r3, #192	@ 0xc0
 800359e:	687b      	ldr	r3, [r7, #4]
 80035a0:	69da      	ldr	r2, [r3, #28]
 80035a2:	687b      	ldr	r3, [r7, #4]
 80035a4:	6a1b      	ldr	r3, [r3, #32]
 80035a6:	431a      	orrs	r2, r3
 80035a8:	687b      	ldr	r3, [r7, #4]
 80035aa:	681b      	ldr	r3, [r3, #0]
 80035ac:	430a      	orrs	r2, r1
 80035ae:	601a      	str	r2, [r3, #0]

  /*---------------------------- I2Cx OAR1 Configuration ---------------------*/
  /* Configure I2Cx: Own Address1 and addressing mode */
  MODIFY_REG(hi2c->Instance->OAR1, (I2C_OAR1_ADDMODE | I2C_OAR1_ADD8_9 | I2C_OAR1_ADD1_7 | I2C_OAR1_ADD0), (hi2c->Init.AddressingMode | hi2c->Init.OwnAddress1));
 80035b0:	687b      	ldr	r3, [r7, #4]
 80035b2:	681b      	ldr	r3, [r3, #0]
 80035b4:	689b      	ldr	r3, [r3, #8]
 80035b6:	f423 4303 	bic.w	r3, r3, #33536	@ 0x8300
 80035ba:	f023 03ff 	bic.w	r3, r3, #255	@ 0xff
 80035be:	687a      	ldr	r2, [r7, #4]
 80035c0:	6911      	ldr	r1, [r2, #16]
 80035c2:	687a      	ldr	r2, [r7, #4]
 80035c4:	68d2      	ldr	r2, [r2, #12]
 80035c6:	4311      	orrs	r1, r2
 80035c8:	687a      	ldr	r2, [r7, #4]
 80035ca:	6812      	ldr	r2, [r2, #0]
 80035cc:	430b      	orrs	r3, r1
 80035ce:	6093      	str	r3, [r2, #8]

  /*---------------------------- I2Cx OAR2 Configuration ---------------------*/
  /* Configure I2Cx: Dual mode and Own Address2 */
  MODIFY_REG(hi2c->Instance->OAR2, (I2C_OAR2_ENDUAL | I2C_OAR2_ADD2), (hi2c->Init.DualAddressMode | hi2c->Init.OwnAddress2));
 80035d0:	687b      	ldr	r3, [r7, #4]
 80035d2:	681b      	ldr	r3, [r3, #0]
 80035d4:	68db      	ldr	r3, [r3, #12]
 80035d6:	f023 01ff 	bic.w	r1, r3, #255	@ 0xff
 80035da:	687b      	ldr	r3, [r7, #4]
 80035dc:	695a      	ldr	r2, [r3, #20]
 80035de:	687b      	ldr	r3, [r7, #4]
 80035e0:	699b      	ldr	r3, [r3, #24]
 80035e2:	431a      	orrs	r2, r3
 80035e4:	687b      	ldr	r3, [r7, #4]
 80035e6:	681b      	ldr	r3, [r3, #0]
 80035e8:	430a      	orrs	r2, r1
 80035ea:	60da      	str	r2, [r3, #12]

  /* Enable the selected I2C peripheral */
  __HAL_I2C_ENABLE(hi2c);
 80035ec:	687b      	ldr	r3, [r7, #4]
 80035ee:	681b      	ldr	r3, [r3, #0]
 80035f0:	681a      	ldr	r2, [r3, #0]
 80035f2:	687b      	ldr	r3, [r7, #4]
 80035f4:	681b      	ldr	r3, [r3, #0]
 80035f6:	f042 0201 	orr.w	r2, r2, #1
 80035fa:	601a      	str	r2, [r3, #0]

  hi2c->ErrorCode = HAL_I2C_ERROR_NONE;
 80035fc:	687b      	ldr	r3, [r7, #4]
 80035fe:	2200      	movs	r2, #0
 8003600:	641a      	str	r2, [r3, #64]	@ 0x40
  hi2c->State = HAL_I2C_STATE_READY;
 8003602:	687b      	ldr	r3, [r7, #4]
 8003604:	2220      	movs	r2, #32
 8003606:	f883 203d 	strb.w	r2, [r3, #61]	@ 0x3d
  hi2c->PreviousState = I2C_STATE_NONE;
 800360a:	687b      	ldr	r3, [r7, #4]
 800360c:	2200      	movs	r2, #0
 800360e:	631a      	str	r2, [r3, #48]	@ 0x30
  hi2c->Mode = HAL_I2C_MODE_NONE;
 8003610:	687b      	ldr	r3, [r7, #4]
 8003612:	2200      	movs	r2, #0
 8003614:	f883 203e 	strb.w	r2, [r3, #62]	@ 0x3e

  return HAL_OK;
 8003618:	2300      	movs	r3, #0
}
 800361a:	4618      	mov	r0, r3
 800361c:	3710      	adds	r7, #16
 800361e:	46bd      	mov	sp, r7
 8003620:	bd80      	pop	{r7, pc}
 8003622:	bf00      	nop
 8003624:	000186a0 	.word	0x000186a0
 8003628:	001e847f 	.word	0x001e847f
 800362c:	003d08ff 	.word	0x003d08ff
 8003630:	431bde83 	.word	0x431bde83
 8003634:	10624dd3 	.word	0x10624dd3

08003638 <HAL_I2C_Mem_Write>:
  * @param  Size Amount of data to be sent
  * @param  Timeout Timeout duration
  * @retval HAL status
  */
HAL_StatusTypeDef HAL_I2C_Mem_Write(I2C_HandleTypeDef *hi2c, uint16_t DevAddress, uint16_t MemAddress, uint16_t MemAddSize, uint8_t *pData, uint16_t Size, uint32_t Timeout)
{
 8003638:	b580      	push	{r7, lr}
 800363a:	b088      	sub	sp, #32
 800363c:	af02      	add	r7, sp, #8
 800363e:	60f8      	str	r0, [r7, #12]
 8003640:	4608      	mov	r0, r1
 8003642:	4611      	mov	r1, r2
 8003644:	461a      	mov	r2, r3
 8003646:	4603      	mov	r3, r0
 8003648:	817b      	strh	r3, [r7, #10]
 800364a:	460b      	mov	r3, r1
 800364c:	813b      	strh	r3, [r7, #8]
 800364e:	4613      	mov	r3, r2
 8003650:	80fb      	strh	r3, [r7, #6]
  /* Init tickstart for timeout management*/
  uint32_t tickstart = HAL_GetTick();
 8003652:	f7ff fbf9 	bl	8002e48 <HAL_GetTick>
 8003656:	6178      	str	r0, [r7, #20]

  /* Check the parameters */
  assert_param(IS_I2C_MEMADD_SIZE(MemAddSize));

  if (hi2c->State == HAL_I2C_STATE_READY)
 8003658:	68fb      	ldr	r3, [r7, #12]
 800365a:	f893 303d 	ldrb.w	r3, [r3, #61]	@ 0x3d
 800365e:	b2db      	uxtb	r3, r3
 8003660:	2b20      	cmp	r3, #32
 8003662:	f040 80d9 	bne.w	8003818 <HAL_I2C_Mem_Write+0x1e0>
  {
    /* Wait until BUSY flag is reset */
    if (I2C_WaitOnFlagUntilTimeout(hi2c, I2C_FLAG_BUSY, SET, I2C_TIMEOUT_BUSY_FLAG, tickstart) != HAL_OK)
 8003666:	697b      	ldr	r3, [r7, #20]
 8003668:	9300      	str	r3, [sp, #0]
 800366a:	2319      	movs	r3, #25
 800366c:	2201      	movs	r2, #1
 800366e:	496d      	ldr	r1, [pc, #436]	@ (8003824 <HAL_I2C_Mem_Write+0x1ec>)
 8003670:	68f8      	ldr	r0, [r7, #12]
 8003672:	f000 fcc1 	bl	8003ff8 <I2C_WaitOnFlagUntilTimeout>
 8003676:	4603      	mov	r3, r0
 8003678:	2b00      	cmp	r3, #0
 800367a:	d001      	beq.n	8003680 <HAL_I2C_Mem_Write+0x48>
    {
      return HAL_BUSY;
 800367c:	2302      	movs	r3, #2
 800367e:	e0cc      	b.n	800381a <HAL_I2C_Mem_Write+0x1e2>
    }

    /* Process Locked */
    __HAL_LOCK(hi2c);
 8003680:	68fb      	ldr	r3, [r7, #12]
 8003682:	f893 303c 	ldrb.w	r3, [r3, #60]	@ 0x3c
 8003686:	2b01      	cmp	r3, #1
 8003688:	d101      	bne.n	800368e <HAL_I2C_Mem_Write+0x56>
 800368a:	2302      	movs	r3, #2
 800368c:	e0c5      	b.n	800381a <HAL_I2C_Mem_Write+0x1e2>
 800368e:	68fb      	ldr	r3, [r7, #12]
 8003690:	2201      	movs	r2, #1
 8003692:	f883 203c 	strb.w	r2, [r3, #60]	@ 0x3c

    /* Check if the I2C is already enabled */
    if ((hi2c->Instance->CR1 & I2C_CR1_PE) != I2C_CR1_PE)
 8003696:	68fb      	ldr	r3, [r7, #12]
 8003698:	681b      	ldr	r3, [r3, #0]
 800369a:	681b      	ldr	r3, [r3, #0]
 800369c:	f003 0301 	and.w	r3, r3, #1
 80036a0:	2b01      	cmp	r3, #1
 80036a2:	d007      	beq.n	80036b4 <HAL_I2C_Mem_Write+0x7c>
    {
      /* Enable I2C peripheral */
      __HAL_I2C_ENABLE(hi2c);
 80036a4:	68fb      	ldr	r3, [r7, #12]
 80036a6:	681b      	ldr	r3, [r3, #0]
 80036a8:	681a      	ldr	r2, [r3, #0]
 80036aa:	68fb      	ldr	r3, [r7, #12]
 80036ac:	681b      	ldr	r3, [r3, #0]
 80036ae:	f042 0201 	orr.w	r2, r2, #1
 80036b2:	601a      	str	r2, [r3, #0]
    }

    /* Disable Pos */
    CLEAR_BIT(hi2c->Instance->CR1, I2C_CR1_POS);
 80036b4:	68fb      	ldr	r3, [r7, #12]
 80036b6:	681b      	ldr	r3, [r3, #0]
 80036b8:	681a      	ldr	r2, [r3, #0]
 80036ba:	68fb      	ldr	r3, [r7, #12]
 80036bc:	681b      	ldr	r3, [r3, #0]
 80036be:	f422 6200 	bic.w	r2, r2, #2048	@ 0x800
 80036c2:	601a      	str	r2, [r3, #0]

    hi2c->State     = HAL_I2C_STATE_BUSY_TX;
 80036c4:	68fb      	ldr	r3, [r7, #12]
 80036c6:	2221      	movs	r2, #33	@ 0x21
 80036c8:	f883 203d 	strb.w	r2, [r3, #61]	@ 0x3d
    hi2c->Mode      = HAL_I2C_MODE_MEM;
 80036cc:	68fb      	ldr	r3, [r7, #12]
 80036ce:	2240      	movs	r2, #64	@ 0x40
 80036d0:	f883 203e 	strb.w	r2, [r3, #62]	@ 0x3e
    hi2c->ErrorCode = HAL_I2C_ERROR_NONE;
 80036d4:	68fb      	ldr	r3, [r7, #12]
 80036d6:	2200      	movs	r2, #0
 80036d8:	641a      	str	r2, [r3, #64]	@ 0x40

    /* Prepare transfer parameters */
    hi2c->pBuffPtr    = pData;
 80036da:	68fb      	ldr	r3, [r7, #12]
 80036dc:	6a3a      	ldr	r2, [r7, #32]
 80036de:	625a      	str	r2, [r3, #36]	@ 0x24
    hi2c->XferCount   = Size;
 80036e0:	68fb      	ldr	r3, [r7, #12]
 80036e2:	8cba      	ldrh	r2, [r7, #36]	@ 0x24
 80036e4:	855a      	strh	r2, [r3, #42]	@ 0x2a
    hi2c->XferSize    = hi2c->XferCount;
 80036e6:	68fb      	ldr	r3, [r7, #12]
 80036e8:	8d5b      	ldrh	r3, [r3, #42]	@ 0x2a
 80036ea:	b29a      	uxth	r2, r3
 80036ec:	68fb      	ldr	r3, [r7, #12]
 80036ee:	851a      	strh	r2, [r3, #40]	@ 0x28
    hi2c->XferOptions = I2C_NO_OPTION_FRAME;
 80036f0:	68fb      	ldr	r3, [r7, #12]
 80036f2:	4a4d      	ldr	r2, [pc, #308]	@ (8003828 <HAL_I2C_Mem_Write+0x1f0>)
 80036f4:	62da      	str	r2, [r3, #44]	@ 0x2c

    /* Send Slave Address and Memory Address */
    if (I2C_RequestMemoryWrite(hi2c, DevAddress, MemAddress, MemAddSize, Timeout, tickstart) != HAL_OK)
 80036f6:	88f8      	ldrh	r0, [r7, #6]
 80036f8:	893a      	ldrh	r2, [r7, #8]
 80036fa:	8979      	ldrh	r1, [r7, #10]
 80036fc:	697b      	ldr	r3, [r7, #20]
 80036fe:	9301      	str	r3, [sp, #4]
 8003700:	6abb      	ldr	r3, [r7, #40]	@ 0x28
 8003702:	9300      	str	r3, [sp, #0]
 8003704:	4603      	mov	r3, r0
 8003706:	68f8      	ldr	r0, [r7, #12]
 8003708:	f000 faf8 	bl	8003cfc <I2C_RequestMemoryWrite>
 800370c:	4603      	mov	r3, r0
 800370e:	2b00      	cmp	r3, #0
 8003710:	d052      	beq.n	80037b8 <HAL_I2C_Mem_Write+0x180>
    {
      return HAL_ERROR;
 8003712:	2301      	movs	r3, #1
 8003714:	e081      	b.n	800381a <HAL_I2C_Mem_Write+0x1e2>
    }

    while (hi2c->XferSize > 0U)
    {
      /* Wait until TXE flag is set */
      if (I2C_WaitOnTXEFlagUntilTimeout(hi2c, Timeout, tickstart) != HAL_OK)
 8003716:	697a      	ldr	r2, [r7, #20]
 8003718:	6ab9      	ldr	r1, [r7, #40]	@ 0x28
 800371a:	68f8      	ldr	r0, [r7, #12]
 800371c:	f000 fd86 	bl	800422c <I2C_WaitOnTXEFlagUntilTimeout>
 8003720:	4603      	mov	r3, r0
 8003722:	2b00      	cmp	r3, #0
 8003724:	d00d      	beq.n	8003742 <HAL_I2C_Mem_Write+0x10a>
      {
        if (hi2c->ErrorCode == HAL_I2C_ERROR_AF)
 8003726:	68fb      	ldr	r3, [r7, #12]
 8003728:	6c1b      	ldr	r3, [r3, #64]	@ 0x40
 800372a:	2b04      	cmp	r3, #4
 800372c:	d107      	bne.n	800373e <HAL_I2C_Mem_Write+0x106>
        {
          /* Generate Stop */
          SET_BIT(hi2c->Instance->CR1, I2C_CR1_STOP);
 800372e:	68fb      	ldr	r3, [r7, #12]
 8003730:	681b      	ldr	r3, [r3, #0]
 8003732:	681a      	ldr	r2, [r3, #0]
 8003734:	68fb      	ldr	r3, [r7, #12]
 8003736:	681b      	ldr	r3, [r3, #0]
 8003738:	f442 7200 	orr.w	r2, r2, #512	@ 0x200
 800373c:	601a      	str	r2, [r3, #0]
        }
        return HAL_ERROR;
 800373e:	2301      	movs	r3, #1
 8003740:	e06b      	b.n	800381a <HAL_I2C_Mem_Write+0x1e2>
      }

      /* Write data to DR */
      hi2c->Instance->DR = *hi2c->pBuffPtr;
 8003742:	68fb      	ldr	r3, [r7, #12]
 8003744:	6a5b      	ldr	r3, [r3, #36]	@ 0x24
 8003746:	781a      	ldrb	r2, [r3, #0]
 8003748:	68fb      	ldr	r3, [r7, #12]
 800374a:	681b      	ldr	r3, [r3, #0]
 800374c:	611a      	str	r2, [r3, #16]

      /* Increment Buffer pointer */
      hi2c->pBuffPtr++;
 800374e:	68fb      	ldr	r3, [r7, #12]
 8003750:	6a5b      	ldr	r3, [r3, #36]	@ 0x24
 8003752:	1c5a      	adds	r2, r3, #1
 8003754:	68fb      	ldr	r3, [r7, #12]
 8003756:	625a      	str	r2, [r3, #36]	@ 0x24

      /* Update counter */
      hi2c->XferSize--;
 8003758:	68fb      	ldr	r3, [r7, #12]
 800375a:	8d1b      	ldrh	r3, [r3, #40]	@ 0x28
 800375c:	3b01      	subs	r3, #1
 800375e:	b29a      	uxth	r2, r3
 8003760:	68fb      	ldr	r3, [r7, #12]
 8003762:	851a      	strh	r2, [r3, #40]	@ 0x28
      hi2c->XferCount--;
 8003764:	68fb      	ldr	r3, [r7, #12]
 8003766:	8d5b      	ldrh	r3, [r3, #42]	@ 0x2a
 8003768:	b29b      	uxth	r3, r3
 800376a:	3b01      	subs	r3, #1
 800376c:	b29a      	uxth	r2, r3
 800376e:	68fb      	ldr	r3, [r7, #12]
 8003770:	855a      	strh	r2, [r3, #42]	@ 0x2a

      if ((__HAL_I2C_GET_FLAG(hi2c, I2C_FLAG_BTF) == SET) && (hi2c->XferSize != 0U))
 8003772:	68fb      	ldr	r3, [r7, #12]
 8003774:	681b      	ldr	r3, [r3, #0]
 8003776:	695b      	ldr	r3, [r3, #20]
 8003778:	f003 0304 	and.w	r3, r3, #4
 800377c:	2b04      	cmp	r3, #4
 800377e:	d11b      	bne.n	80037b8 <HAL_I2C_Mem_Write+0x180>
 8003780:	68fb      	ldr	r3, [r7, #12]
 8003782:	8d1b      	ldrh	r3, [r3, #40]	@ 0x28
 8003784:	2b00      	cmp	r3, #0
 8003786:	d017      	beq.n	80037b8 <HAL_I2C_Mem_Write+0x180>
      {
        /* Write data to DR */
        hi2c->Instance->DR = *hi2c->pBuffPtr;
 8003788:	68fb      	ldr	r3, [r7, #12]
 800378a:	6a5b      	ldr	r3, [r3, #36]	@ 0x24
 800378c:	781a      	ldrb	r2, [r3, #0]
 800378e:	68fb      	ldr	r3, [r7, #12]
 8003790:	681b      	ldr	r3, [r3, #0]
 8003792:	611a      	str	r2, [r3, #16]

        /* Increment Buffer pointer */
        hi2c->pBuffPtr++;
 8003794:	68fb      	ldr	r3, [r7, #12]
 8003796:	6a5b      	ldr	r3, [r3, #36]	@ 0x24
 8003798:	1c5a      	adds	r2, r3, #1
 800379a:	68fb      	ldr	r3, [r7, #12]
 800379c:	625a      	str	r2, [r3, #36]	@ 0x24

        /* Update counter */
        hi2c->XferSize--;
 800379e:	68fb      	ldr	r3, [r7, #12]
 80037a0:	8d1b      	ldrh	r3, [r3, #40]	@ 0x28
 80037a2:	3b01      	subs	r3, #1
 80037a4:	b29a      	uxth	r2, r3
 80037a6:	68fb      	ldr	r3, [r7, #12]
 80037a8:	851a      	strh	r2, [r3, #40]	@ 0x28
        hi2c->XferCount--;
 80037aa:	68fb      	ldr	r3, [r7, #12]
 80037ac:	8d5b      	ldrh	r3, [r3, #42]	@ 0x2a
 80037ae:	b29b      	uxth	r3, r3
 80037b0:	3b01      	subs	r3, #1
 80037b2:	b29a      	uxth	r2, r3
 80037b4:	68fb      	ldr	r3, [r7, #12]
 80037b6:	855a      	strh	r2, [r3, #42]	@ 0x2a
    while (hi2c->XferSize > 0U)
 80037b8:	68fb      	ldr	r3, [r7, #12]
 80037ba:	8d1b      	ldrh	r3, [r3, #40]	@ 0x28
 80037bc:	2b00      	cmp	r3, #0
 80037be:	d1aa      	bne.n	8003716 <HAL_I2C_Mem_Write+0xde>
      }
    }

    /* Wait until BTF flag is set */
    if (I2C_WaitOnBTFFlagUntilTimeout(hi2c, Timeout, tickstart) != HAL_OK)
 80037c0:	697a      	ldr	r2, [r7, #20]
 80037c2:	6ab9      	ldr	r1, [r7, #40]	@ 0x28
 80037c4:	68f8      	ldr	r0, [r7, #12]
 80037c6:	f000 fd79 	bl	80042bc <I2C_WaitOnBTFFlagUntilTimeout>
 80037ca:	4603      	mov	r3, r0
 80037cc:	2b00      	cmp	r3, #0
 80037ce:	d00d      	beq.n	80037ec <HAL_I2C_Mem_Write+0x1b4>
    {
      if (hi2c->ErrorCode == HAL_I2C_ERROR_AF)
 80037d0:	68fb      	ldr	r3, [r7, #12]
 80037d2:	6c1b      	ldr	r3, [r3, #64]	@ 0x40
 80037d4:	2b04      	cmp	r3, #4
 80037d6:	d107      	bne.n	80037e8 <HAL_I2C_Mem_Write+0x1b0>
      {
        /* Generate Stop */
        SET_BIT(hi2c->Instance->CR1, I2C_CR1_STOP);
 80037d8:	68fb      	ldr	r3, [r7, #12]
 80037da:	681b      	ldr	r3, [r3, #0]
 80037dc:	681a      	ldr	r2, [r3, #0]
 80037de:	68fb      	ldr	r3, [r7, #12]
 80037e0:	681b      	ldr	r3, [r3, #0]
 80037e2:	f442 7200 	orr.w	r2, r2, #512	@ 0x200
 80037e6:	601a      	str	r2, [r3, #0]
      }
      return HAL_ERROR;
 80037e8:	2301      	movs	r3, #1
 80037ea:	e016      	b.n	800381a <HAL_I2C_Mem_Write+0x1e2>
    }

    /* Generate Stop */
    SET_BIT(hi2c->Instance->CR1, I2C_CR1_STOP);
 80037ec:	68fb      	ldr	r3, [r7, #12]
 80037ee:	681b      	ldr	r3, [r3, #0]
 80037f0:	681a      	ldr	r2, [r3, #0]
 80037f2:	68fb      	ldr	r3, [r7, #12]
 80037f4:	681b      	ldr	r3, [r3, #0]
 80037f6:	f442 7200 	orr.w	r2, r2, #512	@ 0x200
 80037fa:	601a      	str	r2, [r3, #0]

    hi2c->State = HAL_I2C_STATE_READY;
 80037fc:	68fb      	ldr	r3, [r7, #12]
 80037fe:	2220      	movs	r2, #32
 8003800:	f883 203d 	strb.w	r2, [r3, #61]	@ 0x3d
    hi2c->Mode = HAL_I2C_MODE_NONE;
 8003804:	68fb      	ldr	r3, [r7, #12]
 8003806:	2200      	movs	r2, #0
 8003808:	f883 203e 	strb.w	r2, [r3, #62]	@ 0x3e

    /* Process Unlocked */
    __HAL_UNLOCK(hi2c);
 800380c:	68fb      	ldr	r3, [r7, #12]
 800380e:	2200      	movs	r2, #0
 8003810:	f883 203c 	strb.w	r2, [r3, #60]	@ 0x3c

    return HAL_OK;
 8003814:	2300      	movs	r3, #0
 8003816:	e000      	b.n	800381a <HAL_I2C_Mem_Write+0x1e2>
  }
  else
  {
    return HAL_BUSY;
 8003818:	2302      	movs	r3, #2
  }
}
 800381a:	4618      	mov	r0, r3
 800381c:	3718      	adds	r7, #24
 800381e:	46bd      	mov	sp, r7
 8003820:	bd80      	pop	{r7, pc}
 8003822:	bf00      	nop
 8003824:	00100002 	.word	0x00100002
 8003828:	ffff0000 	.word	0xffff0000

0800382c <HAL_I2C_Mem_Read>:
  * @param  Size Amount of data to be sent
  * @param  Timeout Timeout duration
  * @retval HAL status
  */
HAL_StatusTypeDef HAL_I2C_Mem_Read(I2C_HandleTypeDef *hi2c, uint16_t DevAddress, uint16_t MemAddress, uint16_t MemAddSize, uint8_t *pData, uint16_t Size, uint32_t Timeout)
{
 800382c:	b580      	push	{r7, lr}
 800382e:	b08c      	sub	sp, #48	@ 0x30
 8003830:	af02      	add	r7, sp, #8
 8003832:	60f8      	str	r0, [r7, #12]
 8003834:	4608      	mov	r0, r1
 8003836:	4611      	mov	r1, r2
 8003838:	461a      	mov	r2, r3
 800383a:	4603      	mov	r3, r0
 800383c:	817b      	strh	r3, [r7, #10]
 800383e:	460b      	mov	r3, r1
 8003840:	813b      	strh	r3, [r7, #8]
 8003842:	4613      	mov	r3, r2
 8003844:	80fb      	strh	r3, [r7, #6]
  __IO uint32_t count = 0U;
 8003846:	2300      	movs	r3, #0
 8003848:	623b      	str	r3, [r7, #32]

  /* Init tickstart for timeout management*/
  uint32_t tickstart = HAL_GetTick();
 800384a:	f7ff fafd 	bl	8002e48 <HAL_GetTick>
 800384e:	6278      	str	r0, [r7, #36]	@ 0x24

  /* Check the parameters */
  assert_param(IS_I2C_MEMADD_SIZE(MemAddSize));

  if (hi2c->State == HAL_I2C_STATE_READY)
 8003850:	68fb      	ldr	r3, [r7, #12]
 8003852:	f893 303d 	ldrb.w	r3, [r3, #61]	@ 0x3d
 8003856:	b2db      	uxtb	r3, r3
 8003858:	2b20      	cmp	r3, #32
 800385a:	f040 8244 	bne.w	8003ce6 <HAL_I2C_Mem_Read+0x4ba>
  {
    /* Wait until BUSY flag is reset */
    if (I2C_WaitOnFlagUntilTimeout(hi2c, I2C_FLAG_BUSY, SET, I2C_TIMEOUT_BUSY_FLAG, tickstart) != HAL_OK)
 800385e:	6a7b      	ldr	r3, [r7, #36]	@ 0x24
 8003860:	9300      	str	r3, [sp, #0]
 8003862:	2319      	movs	r3, #25
 8003864:	2201      	movs	r2, #1
 8003866:	4982      	ldr	r1, [pc, #520]	@ (8003a70 <HAL_I2C_Mem_Read+0x244>)
 8003868:	68f8      	ldr	r0, [r7, #12]
 800386a:	f000 fbc5 	bl	8003ff8 <I2C_WaitOnFlagUntilTimeout>
 800386e:	4603      	mov	r3, r0
 8003870:	2b00      	cmp	r3, #0
 8003872:	d001      	beq.n	8003878 <HAL_I2C_Mem_Read+0x4c>
    {
      return HAL_BUSY;
 8003874:	2302      	movs	r3, #2
 8003876:	e237      	b.n	8003ce8 <HAL_I2C_Mem_Read+0x4bc>
    }

    /* Process Locked */
    __HAL_LOCK(hi2c);
 8003878:	68fb      	ldr	r3, [r7, #12]
 800387a:	f893 303c 	ldrb.w	r3, [r3, #60]	@ 0x3c
 800387e:	2b01      	cmp	r3, #1
 8003880:	d101      	bne.n	8003886 <HAL_I2C_Mem_Read+0x5a>
 8003882:	2302      	movs	r3, #2
 8003884:	e230      	b.n	8003ce8 <HAL_I2C_Mem_Read+0x4bc>
 8003886:	68fb      	ldr	r3, [r7, #12]
 8003888:	2201      	movs	r2, #1
 800388a:	f883 203c 	strb.w	r2, [r3, #60]	@ 0x3c

    /* Check if the I2C is already enabled */
    if ((hi2c->Instance->CR1 & I2C_CR1_PE) != I2C_CR1_PE)
 800388e:	68fb      	ldr	r3, [r7, #12]
 8003890:	681b      	ldr	r3, [r3, #0]
 8003892:	681b      	ldr	r3, [r3, #0]
 8003894:	f003 0301 	and.w	r3, r3, #1
 8003898:	2b01      	cmp	r3, #1
 800389a:	d007      	beq.n	80038ac <HAL_I2C_Mem_Read+0x80>
    {
      /* Enable I2C peripheral */
      __HAL_I2C_ENABLE(hi2c);
 800389c:	68fb      	ldr	r3, [r7, #12]
 800389e:	681b      	ldr	r3, [r3, #0]
 80038a0:	681a      	ldr	r2, [r3, #0]
 80038a2:	68fb      	ldr	r3, [r7, #12]
 80038a4:	681b      	ldr	r3, [r3, #0]
 80038a6:	f042 0201 	orr.w	r2, r2, #1
 80038aa:	601a      	str	r2, [r3, #0]
    }

    /* Disable Pos */
    CLEAR_BIT(hi2c->Instance->CR1, I2C_CR1_POS);
 80038ac:	68fb      	ldr	r3, [r7, #12]
 80038ae:	681b      	ldr	r3, [r3, #0]
 80038b0:	681a      	ldr	r2, [r3, #0]
 80038b2:	68fb      	ldr	r3, [r7, #12]
 80038b4:	681b      	ldr	r3, [r3, #0]
 80038b6:	f422 6200 	bic.w	r2, r2, #2048	@ 0x800
 80038ba:	601a      	str	r2, [r3, #0]

    hi2c->State     = HAL_I2C_STATE_BUSY_RX;
 80038bc:	68fb      	ldr	r3, [r7, #12]
 80038be:	2222      	movs	r2, #34	@ 0x22
 80038c0:	f883 203d 	strb.w	r2, [r3, #61]	@ 0x3d
    hi2c->Mode      = HAL_I2C_MODE_MEM;
 80038c4:	68fb      	ldr	r3, [r7, #12]
 80038c6:	2240      	movs	r2, #64	@ 0x40
 80038c8:	f883 203e 	strb.w	r2, [r3, #62]	@ 0x3e
    hi2c->ErrorCode = HAL_I2C_ERROR_NONE;
 80038cc:	68fb      	ldr	r3, [r7, #12]
 80038ce:	2200      	movs	r2, #0
 80038d0:	641a      	str	r2, [r3, #64]	@ 0x40

    /* Prepare transfer parameters */
    hi2c->pBuffPtr    = pData;
 80038d2:	68fb      	ldr	r3, [r7, #12]
 80038d4:	6b3a      	ldr	r2, [r7, #48]	@ 0x30
 80038d6:	625a      	str	r2, [r3, #36]	@ 0x24
    hi2c->XferCount   = Size;
 80038d8:	68fb      	ldr	r3, [r7, #12]
 80038da:	8eba      	ldrh	r2, [r7, #52]	@ 0x34
 80038dc:	855a      	strh	r2, [r3, #42]	@ 0x2a
    hi2c->XferSize    = hi2c->XferCount;
 80038de:	68fb      	ldr	r3, [r7, #12]
 80038e0:	8d5b      	ldrh	r3, [r3, #42]	@ 0x2a
 80038e2:	b29a      	uxth	r2, r3
 80038e4:	68fb      	ldr	r3, [r7, #12]
 80038e6:	851a      	strh	r2, [r3, #40]	@ 0x28
    hi2c->XferOptions = I2C_NO_OPTION_FRAME;
 80038e8:	68fb      	ldr	r3, [r7, #12]
 80038ea:	4a62      	ldr	r2, [pc, #392]	@ (8003a74 <HAL_I2C_Mem_Read+0x248>)
 80038ec:	62da      	str	r2, [r3, #44]	@ 0x2c

    /* Send Slave Address and Memory Address */
    if (I2C_RequestMemoryRead(hi2c, DevAddress, MemAddress, MemAddSize, Timeout, tickstart) != HAL_OK)
 80038ee:	88f8      	ldrh	r0, [r7, #6]
 80038f0:	893a      	ldrh	r2, [r7, #8]
 80038f2:	8979      	ldrh	r1, [r7, #10]
 80038f4:	6a7b      	ldr	r3, [r7, #36]	@ 0x24
 80038f6:	9301      	str	r3, [sp, #4]
 80038f8:	6bbb      	ldr	r3, [r7, #56]	@ 0x38
 80038fa:	9300      	str	r3, [sp, #0]
 80038fc:	4603      	mov	r3, r0
 80038fe:	68f8      	ldr	r0, [r7, #12]
 8003900:	f000 fa92 	bl	8003e28 <I2C_RequestMemoryRead>
 8003904:	4603      	mov	r3, r0
 8003906:	2b00      	cmp	r3, #0
 8003908:	d001      	beq.n	800390e <HAL_I2C_Mem_Read+0xe2>
    {
      return HAL_ERROR;
 800390a:	2301      	movs	r3, #1
 800390c:	e1ec      	b.n	8003ce8 <HAL_I2C_Mem_Read+0x4bc>
    }

    if (hi2c->XferSize == 0U)
 800390e:	68fb      	ldr	r3, [r7, #12]
 8003910:	8d1b      	ldrh	r3, [r3, #40]	@ 0x28
 8003912:	2b00      	cmp	r3, #0
 8003914:	d113      	bne.n	800393e <HAL_I2C_Mem_Read+0x112>
    {
      /* Clear ADDR flag */
      __HAL_I2C_CLEAR_ADDRFLAG(hi2c);
 8003916:	2300      	movs	r3, #0
 8003918:	61fb      	str	r3, [r7, #28]
 800391a:	68fb      	ldr	r3, [r7, #12]
 800391c:	681b      	ldr	r3, [r3, #0]
 800391e:	695b      	ldr	r3, [r3, #20]
 8003920:	61fb      	str	r3, [r7, #28]
 8003922:	68fb      	ldr	r3, [r7, #12]
 8003924:	681b      	ldr	r3, [r3, #0]
 8003926:	699b      	ldr	r3, [r3, #24]
 8003928:	61fb      	str	r3, [r7, #28]
 800392a:	69fb      	ldr	r3, [r7, #28]

      /* Generate Stop */
      SET_BIT(hi2c->Instance->CR1, I2C_CR1_STOP);
 800392c:	68fb      	ldr	r3, [r7, #12]
 800392e:	681b      	ldr	r3, [r3, #0]
 8003930:	681a      	ldr	r2, [r3, #0]
 8003932:	68fb      	ldr	r3, [r7, #12]
 8003934:	681b      	ldr	r3, [r3, #0]
 8003936:	f442 7200 	orr.w	r2, r2, #512	@ 0x200
 800393a:	601a      	str	r2, [r3, #0]
 800393c:	e1c0      	b.n	8003cc0 <HAL_I2C_Mem_Read+0x494>
    }
    else if (hi2c->XferSize == 1U)
 800393e:	68fb      	ldr	r3, [r7, #12]
 8003940:	8d1b      	ldrh	r3, [r3, #40]	@ 0x28
 8003942:	2b01      	cmp	r3, #1
 8003944:	d11e      	bne.n	8003984 <HAL_I2C_Mem_Read+0x158>
    {
      /* Disable Acknowledge */
      CLEAR_BIT(hi2c->Instance->CR1, I2C_CR1_ACK);
 8003946:	68fb      	ldr	r3, [r7, #12]
 8003948:	681b      	ldr	r3, [r3, #0]
 800394a:	681a      	ldr	r2, [r3, #0]
 800394c:	68fb      	ldr	r3, [r7, #12]
 800394e:	681b      	ldr	r3, [r3, #0]
 8003950:	f422 6280 	bic.w	r2, r2, #1024	@ 0x400
 8003954:	601a      	str	r2, [r3, #0]
  __ASM volatile ("cpsid i" : : : "memory");
 8003956:	b672      	cpsid	i
}
 8003958:	bf00      	nop
      /* Disable all active IRQs around ADDR clearing and STOP programming because the EV6_3
         software sequence must complete before the current byte end of transfer */
      __disable_irq();

      /* Clear ADDR flag */
      __HAL_I2C_CLEAR_ADDRFLAG(hi2c);
 800395a:	2300      	movs	r3, #0
 800395c:	61bb      	str	r3, [r7, #24]
 800395e:	68fb      	ldr	r3, [r7, #12]
 8003960:	681b      	ldr	r3, [r3, #0]
 8003962:	695b      	ldr	r3, [r3, #20]
 8003964:	61bb      	str	r3, [r7, #24]
 8003966:	68fb      	ldr	r3, [r7, #12]
 8003968:	681b      	ldr	r3, [r3, #0]
 800396a:	699b      	ldr	r3, [r3, #24]
 800396c:	61bb      	str	r3, [r7, #24]
 800396e:	69bb      	ldr	r3, [r7, #24]

      /* Generate Stop */
      SET_BIT(hi2c->Instance->CR1, I2C_CR1_STOP);
 8003970:	68fb      	ldr	r3, [r7, #12]
 8003972:	681b      	ldr	r3, [r3, #0]
 8003974:	681a      	ldr	r2, [r3, #0]
 8003976:	68fb      	ldr	r3, [r7, #12]
 8003978:	681b      	ldr	r3, [r3, #0]
 800397a:	f442 7200 	orr.w	r2, r2, #512	@ 0x200
 800397e:	601a      	str	r2, [r3, #0]
  __ASM volatile ("cpsie i" : : : "memory");
 8003980:	b662      	cpsie	i
}
 8003982:	e035      	b.n	80039f0 <HAL_I2C_Mem_Read+0x1c4>

      /* Re-enable IRQs */
      __enable_irq();
    }
    else if (hi2c->XferSize == 2U)
 8003984:	68fb      	ldr	r3, [r7, #12]
 8003986:	8d1b      	ldrh	r3, [r3, #40]	@ 0x28
 8003988:	2b02      	cmp	r3, #2
 800398a:	d11e      	bne.n	80039ca <HAL_I2C_Mem_Read+0x19e>
    {
      /* Enable Pos */
      SET_BIT(hi2c->Instance->CR1, I2C_CR1_POS);
 800398c:	68fb      	ldr	r3, [r7, #12]
 800398e:	681b      	ldr	r3, [r3, #0]
 8003990:	681a      	ldr	r2, [r3, #0]
 8003992:	68fb      	ldr	r3, [r7, #12]
 8003994:	681b      	ldr	r3, [r3, #0]
 8003996:	f442 6200 	orr.w	r2, r2, #2048	@ 0x800
 800399a:	601a      	str	r2, [r3, #0]
  __ASM volatile ("cpsid i" : : : "memory");
 800399c:	b672      	cpsid	i
}
 800399e:	bf00      	nop
      /* Disable all active IRQs around ADDR clearing and STOP programming because the EV6_3
         software sequence must complete before the current byte end of transfer */
      __disable_irq();

      /* Clear ADDR flag */
      __HAL_I2C_CLEAR_ADDRFLAG(hi2c);
 80039a0:	2300      	movs	r3, #0
 80039a2:	617b      	str	r3, [r7, #20]
 80039a4:	68fb      	ldr	r3, [r7, #12]
 80039a6:	681b      	ldr	r3, [r3, #0]
 80039a8:	695b      	ldr	r3, [r3, #20]
 80039aa:	617b      	str	r3, [r7, #20]
 80039ac:	68fb      	ldr	r3, [r7, #12]
 80039ae:	681b      	ldr	r3, [r3, #0]
 80039b0:	699b      	ldr	r3, [r3, #24]
 80039b2:	617b      	str	r3, [r7, #20]
 80039b4:	697b      	ldr	r3, [r7, #20]

      /* Disable Acknowledge */
      CLEAR_BIT(hi2c->Instance->CR1, I2C_CR1_ACK);
 80039b6:	68fb      	ldr	r3, [r7, #12]
 80039b8:	681b      	ldr	r3, [r3, #0]
 80039ba:	681a      	ldr	r2, [r3, #0]
 80039bc:	68fb      	ldr	r3, [r7, #12]
 80039be:	681b      	ldr	r3, [r3, #0]
 80039c0:	f422 6280 	bic.w	r2, r2, #1024	@ 0x400
 80039c4:	601a      	str	r2, [r3, #0]
  __ASM volatile ("cpsie i" : : : "memory");
 80039c6:	b662      	cpsie	i
}
 80039c8:	e012      	b.n	80039f0 <HAL_I2C_Mem_Read+0x1c4>
      __enable_irq();
    }
    else
    {
      /* Enable Acknowledge */
      SET_BIT(hi2c->Instance->CR1, I2C_CR1_ACK);
 80039ca:	68fb      	ldr	r3, [r7, #12]
 80039cc:	681b      	ldr	r3, [r3, #0]
 80039ce:	681a      	ldr	r2, [r3, #0]
 80039d0:	68fb      	ldr	r3, [r7, #12]
 80039d2:	681b      	ldr	r3, [r3, #0]
 80039d4:	f442 6280 	orr.w	r2, r2, #1024	@ 0x400
 80039d8:	601a      	str	r2, [r3, #0]
      /* Clear ADDR flag */
      __HAL_I2C_CLEAR_ADDRFLAG(hi2c);
 80039da:	2300      	movs	r3, #0
 80039dc:	613b      	str	r3, [r7, #16]
 80039de:	68fb      	ldr	r3, [r7, #12]
 80039e0:	681b      	ldr	r3, [r3, #0]
 80039e2:	695b      	ldr	r3, [r3, #20]
 80039e4:	613b      	str	r3, [r7, #16]
 80039e6:	68fb      	ldr	r3, [r7, #12]
 80039e8:	681b      	ldr	r3, [r3, #0]
 80039ea:	699b      	ldr	r3, [r3, #24]
 80039ec:	613b      	str	r3, [r7, #16]
 80039ee:	693b      	ldr	r3, [r7, #16]
    }

    while (hi2c->XferSize > 0U)
 80039f0:	e166      	b.n	8003cc0 <HAL_I2C_Mem_Read+0x494>
    {
      if (hi2c->XferSize <= 3U)
 80039f2:	68fb      	ldr	r3, [r7, #12]
 80039f4:	8d1b      	ldrh	r3, [r3, #40]	@ 0x28
 80039f6:	2b03      	cmp	r3, #3
 80039f8:	f200 811f 	bhi.w	8003c3a <HAL_I2C_Mem_Read+0x40e>
      {
        /* One byte */
        if (hi2c->XferSize == 1U)
 80039fc:	68fb      	ldr	r3, [r7, #12]
 80039fe:	8d1b      	ldrh	r3, [r3, #40]	@ 0x28
 8003a00:	2b01      	cmp	r3, #1
 8003a02:	d123      	bne.n	8003a4c <HAL_I2C_Mem_Read+0x220>
        {
          /* Wait until RXNE flag is set */
          if (I2C_WaitOnRXNEFlagUntilTimeout(hi2c, Timeout, tickstart) != HAL_OK)
 8003a04:	6a7a      	ldr	r2, [r7, #36]	@ 0x24
 8003a06:	6bb9      	ldr	r1, [r7, #56]	@ 0x38
 8003a08:	68f8      	ldr	r0, [r7, #12]
 8003a0a:	f000 fc9f 	bl	800434c <I2C_WaitOnRXNEFlagUntilTimeout>
 8003a0e:	4603      	mov	r3, r0
 8003a10:	2b00      	cmp	r3, #0
 8003a12:	d001      	beq.n	8003a18 <HAL_I2C_Mem_Read+0x1ec>
          {
            return HAL_ERROR;
 8003a14:	2301      	movs	r3, #1
 8003a16:	e167      	b.n	8003ce8 <HAL_I2C_Mem_Read+0x4bc>
          }

          /* Read data from DR */
          *hi2c->pBuffPtr = (uint8_t)hi2c->Instance->DR;
 8003a18:	68fb      	ldr	r3, [r7, #12]
 8003a1a:	681b      	ldr	r3, [r3, #0]
 8003a1c:	691a      	ldr	r2, [r3, #16]
 8003a1e:	68fb      	ldr	r3, [r7, #12]
 8003a20:	6a5b      	ldr	r3, [r3, #36]	@ 0x24
 8003a22:	b2d2      	uxtb	r2, r2
 8003a24:	701a      	strb	r2, [r3, #0]

          /* Increment Buffer pointer */
          hi2c->pBuffPtr++;
 8003a26:	68fb      	ldr	r3, [r7, #12]
 8003a28:	6a5b      	ldr	r3, [r3, #36]	@ 0x24
 8003a2a:	1c5a      	adds	r2, r3, #1
 8003a2c:	68fb      	ldr	r3, [r7, #12]
 8003a2e:	625a      	str	r2, [r3, #36]	@ 0x24

          /* Update counter */
          hi2c->XferSize--;
 8003a30:	68fb      	ldr	r3, [r7, #12]
 8003a32:	8d1b      	ldrh	r3, [r3, #40]	@ 0x28
 8003a34:	3b01      	subs	r3, #1
 8003a36:	b29a      	uxth	r2, r3
 8003a38:	68fb      	ldr	r3, [r7, #12]
 8003a3a:	851a      	strh	r2, [r3, #40]	@ 0x28
          hi2c->XferCount--;
 8003a3c:	68fb      	ldr	r3, [r7, #12]
 8003a3e:	8d5b      	ldrh	r3, [r3, #42]	@ 0x2a
 8003a40:	b29b      	uxth	r3, r3
 8003a42:	3b01      	subs	r3, #1
 8003a44:	b29a      	uxth	r2, r3
 8003a46:	68fb      	ldr	r3, [r7, #12]
 8003a48:	855a      	strh	r2, [r3, #42]	@ 0x2a
 8003a4a:	e139      	b.n	8003cc0 <HAL_I2C_Mem_Read+0x494>
        }
        /* Two bytes */
        else if (hi2c->XferSize == 2U)
 8003a4c:	68fb      	ldr	r3, [r7, #12]
 8003a4e:	8d1b      	ldrh	r3, [r3, #40]	@ 0x28
 8003a50:	2b02      	cmp	r3, #2
 8003a52:	d152      	bne.n	8003afa <HAL_I2C_Mem_Read+0x2ce>
        {
          /* Wait until BTF flag is set */
          if (I2C_WaitOnFlagUntilTimeout(hi2c, I2C_FLAG_BTF, RESET, Timeout, tickstart) != HAL_OK)
 8003a54:	6a7b      	ldr	r3, [r7, #36]	@ 0x24
 8003a56:	9300      	str	r3, [sp, #0]
 8003a58:	6bbb      	ldr	r3, [r7, #56]	@ 0x38
 8003a5a:	2200      	movs	r2, #0
 8003a5c:	4906      	ldr	r1, [pc, #24]	@ (8003a78 <HAL_I2C_Mem_Read+0x24c>)
 8003a5e:	68f8      	ldr	r0, [r7, #12]
 8003a60:	f000 faca 	bl	8003ff8 <I2C_WaitOnFlagUntilTimeout>
 8003a64:	4603      	mov	r3, r0
 8003a66:	2b00      	cmp	r3, #0
 8003a68:	d008      	beq.n	8003a7c <HAL_I2C_Mem_Read+0x250>
          {
            return HAL_ERROR;
 8003a6a:	2301      	movs	r3, #1
 8003a6c:	e13c      	b.n	8003ce8 <HAL_I2C_Mem_Read+0x4bc>
 8003a6e:	bf00      	nop
 8003a70:	00100002 	.word	0x00100002
 8003a74:	ffff0000 	.word	0xffff0000
 8003a78:	00010004 	.word	0x00010004
  __ASM volatile ("cpsid i" : : : "memory");
 8003a7c:	b672      	cpsid	i
}
 8003a7e:	bf00      	nop
          /* Disable all active IRQs around ADDR clearing and STOP programming because the EV6_3
             software sequence must complete before the current byte end of transfer */
          __disable_irq();

          /* Generate Stop */
          SET_BIT(hi2c->Instance->CR1, I2C_CR1_STOP);
 8003a80:	68fb      	ldr	r3, [r7, #12]
 8003a82:	681b      	ldr	r3, [r3, #0]
 8003a84:	681a      	ldr	r2, [r3, #0]
 8003a86:	68fb      	ldr	r3, [r7, #12]
 8003a88:	681b      	ldr	r3, [r3, #0]
 8003a8a:	f442 7200 	orr.w	r2, r2, #512	@ 0x200
 8003a8e:	601a      	str	r2, [r3, #0]

          /* Read data from DR */
          *hi2c->pBuffPtr = (uint8_t)hi2c->Instance->DR;
 8003a90:	68fb      	ldr	r3, [r7, #12]
 8003a92:	681b      	ldr	r3, [r3, #0]
 8003a94:	691a      	ldr	r2, [r3, #16]
 8003a96:	68fb      	ldr	r3, [r7, #12]
 8003a98:	6a5b      	ldr	r3, [r3, #36]	@ 0x24
 8003a9a:	b2d2      	uxtb	r2, r2
 8003a9c:	701a      	strb	r2, [r3, #0]

          /* Increment Buffer pointer */
          hi2c->pBuffPtr++;
 8003a9e:	68fb      	ldr	r3, [r7, #12]
 8003aa0:	6a5b      	ldr	r3, [r3, #36]	@ 0x24
 8003aa2:	1c5a      	adds	r2, r3, #1
 8003aa4:	68fb      	ldr	r3, [r7, #12]
 8003aa6:	625a      	str	r2, [r3, #36]	@ 0x24

          /* Update counter */
          hi2c->XferSize--;
 8003aa8:	68fb      	ldr	r3, [r7, #12]
 8003aaa:	8d1b      	ldrh	r3, [r3, #40]	@ 0x28
 8003aac:	3b01      	subs	r3, #1
 8003aae:	b29a      	uxth	r2, r3
 8003ab0:	68fb      	ldr	r3, [r7, #12]
 8003ab2:	851a      	strh	r2, [r3, #40]	@ 0x28
          hi2c->XferCount--;
 8003ab4:	68fb      	ldr	r3, [r7, #12]
 8003ab6:	8d5b      	ldrh	r3, [r3, #42]	@ 0x2a
 8003ab8:	b29b      	uxth	r3, r3
 8003aba:	3b01      	subs	r3, #1
 8003abc:	b29a      	uxth	r2, r3
 8003abe:	68fb      	ldr	r3, [r7, #12]
 8003ac0:	855a      	strh	r2, [r3, #42]	@ 0x2a
  __ASM volatile ("cpsie i" : : : "memory");
 8003ac2:	b662      	cpsie	i
}
 8003ac4:	bf00      	nop

          /* Re-enable IRQs */
          __enable_irq();

          /* Read data from DR */
          *hi2c->pBuffPtr = (uint8_t)hi2c->Instance->DR;
 8003ac6:	68fb      	ldr	r3, [r7, #12]
 8003ac8:	681b      	ldr	r3, [r3, #0]
 8003aca:	691a      	ldr	r2, [r3, #16]
 8003acc:	68fb      	ldr	r3, [r7, #12]
 8003ace:	6a5b      	ldr	r3, [r3, #36]	@ 0x24
 8003ad0:	b2d2      	uxtb	r2, r2
 8003ad2:	701a      	strb	r2, [r3, #0]

          /* Increment Buffer pointer */
          hi2c->pBuffPtr++;
 8003ad4:	68fb      	ldr	r3, [r7, #12]
 8003ad6:	6a5b      	ldr	r3, [r3, #36]	@ 0x24
 8003ad8:	1c5a      	adds	r2, r3, #1
 8003ada:	68fb      	ldr	r3, [r7, #12]
 8003adc:	625a      	str	r2, [r3, #36]	@ 0x24

          /* Update counter */
          hi2c->XferSize--;
 8003ade:	68fb      	ldr	r3, [r7, #12]
 8003ae0:	8d1b      	ldrh	r3, [r3, #40]	@ 0x28
 8003ae2:	3b01      	subs	r3, #1
 8003ae4:	b29a      	uxth	r2, r3
 8003ae6:	68fb      	ldr	r3, [r7, #12]
 8003ae8:	851a      	strh	r2, [r3, #40]	@ 0x28
          hi2c->XferCount--;
 8003aea:	68fb      	ldr	r3, [r7, #12]
 8003aec:	8d5b      	ldrh	r3, [r3, #42]	@ 0x2a
 8003aee:	b29b      	uxth	r3, r3
 8003af0:	3b01      	subs	r3, #1
 8003af2:	b29a      	uxth	r2, r3
 8003af4:	68fb      	ldr	r3, [r7, #12]
 8003af6:	855a      	strh	r2, [r3, #42]	@ 0x2a
 8003af8:	e0e2      	b.n	8003cc0 <HAL_I2C_Mem_Read+0x494>
        }
        /* 3 Last bytes */
        else
        {
          /* Wait until BTF flag is set */
          if (I2C_WaitOnFlagUntilTimeout(hi2c, I2C_FLAG_BTF, RESET, Timeout, tickstart) != HAL_OK)
 8003afa:	6a7b      	ldr	r3, [r7, #36]	@ 0x24
 8003afc:	9300      	str	r3, [sp, #0]
 8003afe:	6bbb      	ldr	r3, [r7, #56]	@ 0x38
 8003b00:	2200      	movs	r2, #0
 8003b02:	497b      	ldr	r1, [pc, #492]	@ (8003cf0 <HAL_I2C_Mem_Read+0x4c4>)
 8003b04:	68f8      	ldr	r0, [r7, #12]
 8003b06:	f000 fa77 	bl	8003ff8 <I2C_WaitOnFlagUntilTimeout>
 8003b0a:	4603      	mov	r3, r0
 8003b0c:	2b00      	cmp	r3, #0
 8003b0e:	d001      	beq.n	8003b14 <HAL_I2C_Mem_Read+0x2e8>
          {
            return HAL_ERROR;
 8003b10:	2301      	movs	r3, #1
 8003b12:	e0e9      	b.n	8003ce8 <HAL_I2C_Mem_Read+0x4bc>
          }

          /* Disable Acknowledge */
          CLEAR_BIT(hi2c->Instance->CR1, I2C_CR1_ACK);
 8003b14:	68fb      	ldr	r3, [r7, #12]
 8003b16:	681b      	ldr	r3, [r3, #0]
 8003b18:	681a      	ldr	r2, [r3, #0]
 8003b1a:	68fb      	ldr	r3, [r7, #12]
 8003b1c:	681b      	ldr	r3, [r3, #0]
 8003b1e:	f422 6280 	bic.w	r2, r2, #1024	@ 0x400
 8003b22:	601a      	str	r2, [r3, #0]
  __ASM volatile ("cpsid i" : : : "memory");
 8003b24:	b672      	cpsid	i
}
 8003b26:	bf00      	nop
          /* Disable all active IRQs around ADDR clearing and STOP programming because the EV6_3
             software sequence must complete before the current byte end of transfer */
          __disable_irq();

          /* Read data from DR */
          *hi2c->pBuffPtr = (uint8_t)hi2c->Instance->DR;
 8003b28:	68fb      	ldr	r3, [r7, #12]
 8003b2a:	681b      	ldr	r3, [r3, #0]
 8003b2c:	691a      	ldr	r2, [r3, #16]
 8003b2e:	68fb      	ldr	r3, [r7, #12]
 8003b30:	6a5b      	ldr	r3, [r3, #36]	@ 0x24
 8003b32:	b2d2      	uxtb	r2, r2
 8003b34:	701a      	strb	r2, [r3, #0]

          /* Increment Buffer pointer */
          hi2c->pBuffPtr++;
 8003b36:	68fb      	ldr	r3, [r7, #12]
 8003b38:	6a5b      	ldr	r3, [r3, #36]	@ 0x24
 8003b3a:	1c5a      	adds	r2, r3, #1
 8003b3c:	68fb      	ldr	r3, [r7, #12]
 8003b3e:	625a      	str	r2, [r3, #36]	@ 0x24

          /* Update counter */
          hi2c->XferSize--;
 8003b40:	68fb      	ldr	r3, [r7, #12]
 8003b42:	8d1b      	ldrh	r3, [r3, #40]	@ 0x28
 8003b44:	3b01      	subs	r3, #1
 8003b46:	b29a      	uxth	r2, r3
 8003b48:	68fb      	ldr	r3, [r7, #12]
 8003b4a:	851a      	strh	r2, [r3, #40]	@ 0x28
          hi2c->XferCount--;
 8003b4c:	68fb      	ldr	r3, [r7, #12]
 8003b4e:	8d5b      	ldrh	r3, [r3, #42]	@ 0x2a
 8003b50:	b29b      	uxth	r3, r3
 8003b52:	3b01      	subs	r3, #1
 8003b54:	b29a      	uxth	r2, r3
 8003b56:	68fb      	ldr	r3, [r7, #12]
 8003b58:	855a      	strh	r2, [r3, #42]	@ 0x2a

          /* Wait until BTF flag is set */
          count = I2C_TIMEOUT_FLAG * (SystemCoreClock / 25U / 1000U);
 8003b5a:	4b66      	ldr	r3, [pc, #408]	@ (8003cf4 <HAL_I2C_Mem_Read+0x4c8>)
 8003b5c:	681b      	ldr	r3, [r3, #0]
 8003b5e:	08db      	lsrs	r3, r3, #3
 8003b60:	4a65      	ldr	r2, [pc, #404]	@ (8003cf8 <HAL_I2C_Mem_Read+0x4cc>)
 8003b62:	fba2 2303 	umull	r2, r3, r2, r3
 8003b66:	0a1a      	lsrs	r2, r3, #8
 8003b68:	4613      	mov	r3, r2
 8003b6a:	009b      	lsls	r3, r3, #2
 8003b6c:	4413      	add	r3, r2
 8003b6e:	00da      	lsls	r2, r3, #3
 8003b70:	1ad3      	subs	r3, r2, r3
 8003b72:	623b      	str	r3, [r7, #32]
          do
          {
            count--;
 8003b74:	6a3b      	ldr	r3, [r7, #32]
 8003b76:	3b01      	subs	r3, #1
 8003b78:	623b      	str	r3, [r7, #32]
            if (count == 0U)
 8003b7a:	6a3b      	ldr	r3, [r7, #32]
 8003b7c:	2b00      	cmp	r3, #0
 8003b7e:	d118      	bne.n	8003bb2 <HAL_I2C_Mem_Read+0x386>
            {
              hi2c->PreviousState       = I2C_STATE_NONE;
 8003b80:	68fb      	ldr	r3, [r7, #12]
 8003b82:	2200      	movs	r2, #0
 8003b84:	631a      	str	r2, [r3, #48]	@ 0x30
              hi2c->State               = HAL_I2C_STATE_READY;
 8003b86:	68fb      	ldr	r3, [r7, #12]
 8003b88:	2220      	movs	r2, #32
 8003b8a:	f883 203d 	strb.w	r2, [r3, #61]	@ 0x3d
              hi2c->Mode                = HAL_I2C_MODE_NONE;
 8003b8e:	68fb      	ldr	r3, [r7, #12]
 8003b90:	2200      	movs	r2, #0
 8003b92:	f883 203e 	strb.w	r2, [r3, #62]	@ 0x3e
              hi2c->ErrorCode           |= HAL_I2C_ERROR_TIMEOUT;
 8003b96:	68fb      	ldr	r3, [r7, #12]
 8003b98:	6c1b      	ldr	r3, [r3, #64]	@ 0x40
 8003b9a:	f043 0220 	orr.w	r2, r3, #32
 8003b9e:	68fb      	ldr	r3, [r7, #12]
 8003ba0:	641a      	str	r2, [r3, #64]	@ 0x40
  __ASM volatile ("cpsie i" : : : "memory");
 8003ba2:	b662      	cpsie	i
}
 8003ba4:	bf00      	nop

              /* Re-enable IRQs */
              __enable_irq();

              /* Process Unlocked */
              __HAL_UNLOCK(hi2c);
 8003ba6:	68fb      	ldr	r3, [r7, #12]
 8003ba8:	2200      	movs	r2, #0
 8003baa:	f883 203c 	strb.w	r2, [r3, #60]	@ 0x3c

              return HAL_ERROR;
 8003bae:	2301      	movs	r3, #1
 8003bb0:	e09a      	b.n	8003ce8 <HAL_I2C_Mem_Read+0x4bc>
            }
          }
          while (__HAL_I2C_GET_FLAG(hi2c, I2C_FLAG_BTF) == RESET);
 8003bb2:	68fb      	ldr	r3, [r7, #12]
 8003bb4:	681b      	ldr	r3, [r3, #0]
 8003bb6:	695b      	ldr	r3, [r3, #20]
 8003bb8:	f003 0304 	and.w	r3, r3, #4
 8003bbc:	2b04      	cmp	r3, #4
 8003bbe:	d1d9      	bne.n	8003b74 <HAL_I2C_Mem_Read+0x348>

          /* Generate Stop */
          SET_BIT(hi2c->Instance->CR1, I2C_CR1_STOP);
 8003bc0:	68fb      	ldr	r3, [r7, #12]
 8003bc2:	681b      	ldr	r3, [r3, #0]
 8003bc4:	681a      	ldr	r2, [r3, #0]
 8003bc6:	68fb      	ldr	r3, [r7, #12]
 8003bc8:	681b      	ldr	r3, [r3, #0]
 8003bca:	f442 7200 	orr.w	r2, r2, #512	@ 0x200
 8003bce:	601a      	str	r2, [r3, #0]

          /* Read data from DR */
          *hi2c->pBuffPtr = (uint8_t)hi2c->Instance->DR;
 8003bd0:	68fb      	ldr	r3, [r7, #12]
 8003bd2:	681b      	ldr	r3, [r3, #0]
 8003bd4:	691a      	ldr	r2, [r3, #16]
 8003bd6:	68fb      	ldr	r3, [r7, #12]
 8003bd8:	6a5b      	ldr	r3, [r3, #36]	@ 0x24
 8003bda:	b2d2      	uxtb	r2, r2
 8003bdc:	701a      	strb	r2, [r3, #0]

          /* Increment Buffer pointer */
          hi2c->pBuffPtr++;
 8003bde:	68fb      	ldr	r3, [r7, #12]
 8003be0:	6a5b      	ldr	r3, [r3, #36]	@ 0x24
 8003be2:	1c5a      	adds	r2, r3, #1
 8003be4:	68fb      	ldr	r3, [r7, #12]
 8003be6:	625a      	str	r2, [r3, #36]	@ 0x24

          /* Update counter */
          hi2c->XferSize--;
 8003be8:	68fb      	ldr	r3, [r7, #12]
 8003bea:	8d1b      	ldrh	r3, [r3, #40]	@ 0x28
 8003bec:	3b01      	subs	r3, #1
 8003bee:	b29a      	uxth	r2, r3
 8003bf0:	68fb      	ldr	r3, [r7, #12]
 8003bf2:	851a      	strh	r2, [r3, #40]	@ 0x28
          hi2c->XferCount--;
 8003bf4:	68fb      	ldr	r3, [r7, #12]
 8003bf6:	8d5b      	ldrh	r3, [r3, #42]	@ 0x2a
 8003bf8:	b29b      	uxth	r3, r3
 8003bfa:	3b01      	subs	r3, #1
 8003bfc:	b29a      	uxth	r2, r3
 8003bfe:	68fb      	ldr	r3, [r7, #12]
 8003c00:	855a      	strh	r2, [r3, #42]	@ 0x2a
  __ASM volatile ("cpsie i" : : : "memory");
 8003c02:	b662      	cpsie	i
}
 8003c04:	bf00      	nop

          /* Re-enable IRQs */
          __enable_irq();

          /* Read data from DR */
          *hi2c->pBuffPtr = (uint8_t)hi2c->Instance->DR;
 8003c06:	68fb      	ldr	r3, [r7, #12]
 8003c08:	681b      	ldr	r3, [r3, #0]
 8003c0a:	691a      	ldr	r2, [r3, #16]
 8003c0c:	68fb      	ldr	r3, [r7, #12]
 8003c0e:	6a5b      	ldr	r3, [r3, #36]	@ 0x24
 8003c10:	b2d2      	uxtb	r2, r2
 8003c12:	701a      	strb	r2, [r3, #0]

          /* Increment Buffer pointer */
          hi2c->pBuffPtr++;
 8003c14:	68fb      	ldr	r3, [r7, #12]
 8003c16:	6a5b      	ldr	r3, [r3, #36]	@ 0x24
 8003c18:	1c5a      	adds	r2, r3, #1
 8003c1a:	68fb      	ldr	r3, [r7, #12]
 8003c1c:	625a      	str	r2, [r3, #36]	@ 0x24

          /* Update counter */
          hi2c->XferSize--;
 8003c1e:	68fb      	ldr	r3, [r7, #12]
 8003c20:	8d1b      	ldrh	r3, [r3, #40]	@ 0x28
 8003c22:	3b01      	subs	r3, #1
 8003c24:	b29a      	uxth	r2, r3
 8003c26:	68fb      	ldr	r3, [r7, #12]
 8003c28:	851a      	strh	r2, [r3, #40]	@ 0x28
          hi2c->XferCount--;
 8003c2a:	68fb      	ldr	r3, [r7, #12]
 8003c2c:	8d5b      	ldrh	r3, [r3, #42]	@ 0x2a
 8003c2e:	b29b      	uxth	r3, r3
 8003c30:	3b01      	subs	r3, #1
 8003c32:	b29a      	uxth	r2, r3
 8003c34:	68fb      	ldr	r3, [r7, #12]
 8003c36:	855a      	strh	r2, [r3, #42]	@ 0x2a
 8003c38:	e042      	b.n	8003cc0 <HAL_I2C_Mem_Read+0x494>
        }
      }
      else
      {
        /* Wait until RXNE flag is set */
        if (I2C_WaitOnRXNEFlagUntilTimeout(hi2c, Timeout, tickstart) != HAL_OK)
 8003c3a:	6a7a      	ldr	r2, [r7, #36]	@ 0x24
 8003c3c:	6bb9      	ldr	r1, [r7, #56]	@ 0x38
 8003c3e:	68f8      	ldr	r0, [r7, #12]
 8003c40:	f000 fb84 	bl	800434c <I2C_WaitOnRXNEFlagUntilTimeout>
 8003c44:	4603      	mov	r3, r0
 8003c46:	2b00      	cmp	r3, #0
 8003c48:	d001      	beq.n	8003c4e <HAL_I2C_Mem_Read+0x422>
        {
          return HAL_ERROR;
 8003c4a:	2301      	movs	r3, #1
 8003c4c:	e04c      	b.n	8003ce8 <HAL_I2C_Mem_Read+0x4bc>
        }

        /* Read data from DR */
        *hi2c->pBuffPtr = (uint8_t)hi2c->Instance->DR;
 8003c4e:	68fb      	ldr	r3, [r7, #12]
 8003c50:	681b      	ldr	r3, [r3, #0]
 8003c52:	691a      	ldr	r2, [r3, #16]
 8003c54:	68fb      	ldr	r3, [r7, #12]
 8003c56:	6a5b      	ldr	r3, [r3, #36]	@ 0x24
 8003c58:	b2d2      	uxtb	r2, r2
 8003c5a:	701a      	strb	r2, [r3, #0]

        /* Increment Buffer pointer */
        hi2c->pBuffPtr++;
 8003c5c:	68fb      	ldr	r3, [r7, #12]
 8003c5e:	6a5b      	ldr	r3, [r3, #36]	@ 0x24
 8003c60:	1c5a      	adds	r2, r3, #1
 8003c62:	68fb      	ldr	r3, [r7, #12]
 8003c64:	625a      	str	r2, [r3, #36]	@ 0x24

        /* Update counter */
        hi2c->XferSize--;
 8003c66:	68fb      	ldr	r3, [r7, #12]
 8003c68:	8d1b      	ldrh	r3, [r3, #40]	@ 0x28
 8003c6a:	3b01      	subs	r3, #1
 8003c6c:	b29a      	uxth	r2, r3
 8003c6e:	68fb      	ldr	r3, [r7, #12]
 8003c70:	851a      	strh	r2, [r3, #40]	@ 0x28
        hi2c->XferCount--;
 8003c72:	68fb      	ldr	r3, [r7, #12]
 8003c74:	8d5b      	ldrh	r3, [r3, #42]	@ 0x2a
 8003c76:	b29b      	uxth	r3, r3
 8003c78:	3b01      	subs	r3, #1
 8003c7a:	b29a      	uxth	r2, r3
 8003c7c:	68fb      	ldr	r3, [r7, #12]
 8003c7e:	855a      	strh	r2, [r3, #42]	@ 0x2a

        if (__HAL_I2C_GET_FLAG(hi2c, I2C_FLAG_BTF) == SET)
 8003c80:	68fb      	ldr	r3, [r7, #12]
 8003c82:	681b      	ldr	r3, [r3, #0]
 8003c84:	695b      	ldr	r3, [r3, #20]
 8003c86:	f003 0304 	and.w	r3, r3, #4
 8003c8a:	2b04      	cmp	r3, #4
 8003c8c:	d118      	bne.n	8003cc0 <HAL_I2C_Mem_Read+0x494>
        {
          /* Read data from DR */
          *hi2c->pBuffPtr = (uint8_t)hi2c->Instance->DR;
 8003c8e:	68fb      	ldr	r3, [r7, #12]
 8003c90:	681b      	ldr	r3, [r3, #0]
 8003c92:	691a      	ldr	r2, [r3, #16]
 8003c94:	68fb      	ldr	r3, [r7, #12]
 8003c96:	6a5b      	ldr	r3, [r3, #36]	@ 0x24
 8003c98:	b2d2      	uxtb	r2, r2
 8003c9a:	701a      	strb	r2, [r3, #0]

          /* Increment Buffer pointer */
          hi2c->pBuffPtr++;
 8003c9c:	68fb      	ldr	r3, [r7, #12]
 8003c9e:	6a5b      	ldr	r3, [r3, #36]	@ 0x24
 8003ca0:	1c5a      	adds	r2, r3, #1
 8003ca2:	68fb      	ldr	r3, [r7, #12]
 8003ca4:	625a      	str	r2, [r3, #36]	@ 0x24

          /* Update counter */
          hi2c->XferSize--;
 8003ca6:	68fb      	ldr	r3, [r7, #12]
 8003ca8:	8d1b      	ldrh	r3, [r3, #40]	@ 0x28
 8003caa:	3b01      	subs	r3, #1
 8003cac:	b29a      	uxth	r2, r3
 8003cae:	68fb      	ldr	r3, [r7, #12]
 8003cb0:	851a      	strh	r2, [r3, #40]	@ 0x28
          hi2c->XferCount--;
 8003cb2:	68fb      	ldr	r3, [r7, #12]
 8003cb4:	8d5b      	ldrh	r3, [r3, #42]	@ 0x2a
 8003cb6:	b29b      	uxth	r3, r3
 8003cb8:	3b01      	subs	r3, #1
 8003cba:	b29a      	uxth	r2, r3
 8003cbc:	68fb      	ldr	r3, [r7, #12]
 8003cbe:	855a      	strh	r2, [r3, #42]	@ 0x2a
    while (hi2c->XferSize > 0U)
 8003cc0:	68fb      	ldr	r3, [r7, #12]
 8003cc2:	8d1b      	ldrh	r3, [r3, #40]	@ 0x28
 8003cc4:	2b00      	cmp	r3, #0
 8003cc6:	f47f ae94 	bne.w	80039f2 <HAL_I2C_Mem_Read+0x1c6>
        }
      }
    }

    hi2c->State = HAL_I2C_STATE_READY;
 8003cca:	68fb      	ldr	r3, [r7, #12]
 8003ccc:	2220      	movs	r2, #32
 8003cce:	f883 203d 	strb.w	r2, [r3, #61]	@ 0x3d
    hi2c->Mode = HAL_I2C_MODE_NONE;
 8003cd2:	68fb      	ldr	r3, [r7, #12]
 8003cd4:	2200      	movs	r2, #0
 8003cd6:	f883 203e 	strb.w	r2, [r3, #62]	@ 0x3e

    /* Process Unlocked */
    __HAL_UNLOCK(hi2c);
 8003cda:	68fb      	ldr	r3, [r7, #12]
 8003cdc:	2200      	movs	r2, #0
 8003cde:	f883 203c 	strb.w	r2, [r3, #60]	@ 0x3c

    return HAL_OK;
 8003ce2:	2300      	movs	r3, #0
 8003ce4:	e000      	b.n	8003ce8 <HAL_I2C_Mem_Read+0x4bc>
  }
  else
  {
    return HAL_BUSY;
 8003ce6:	2302      	movs	r3, #2
  }
}
 8003ce8:	4618      	mov	r0, r3
 8003cea:	3728      	adds	r7, #40	@ 0x28
 8003cec:	46bd      	mov	sp, r7
 8003cee:	bd80      	pop	{r7, pc}
 8003cf0:	00010004 	.word	0x00010004
 8003cf4:	20000090 	.word	0x20000090
 8003cf8:	14f8b589 	.word	0x14f8b589

08003cfc <I2C_RequestMemoryWrite>:
  * @param  Timeout Timeout duration
  * @param  Tickstart Tick start value
  * @retval HAL status
  */
static HAL_StatusTypeDef I2C_RequestMemoryWrite(I2C_HandleTypeDef *hi2c, uint16_t DevAddress, uint16_t MemAddress, uint16_t MemAddSize, uint32_t Timeout, uint32_t Tickstart)
{
 8003cfc:	b580      	push	{r7, lr}
 8003cfe:	b088      	sub	sp, #32
 8003d00:	af02      	add	r7, sp, #8
 8003d02:	60f8      	str	r0, [r7, #12]
 8003d04:	4608      	mov	r0, r1
 8003d06:	4611      	mov	r1, r2
 8003d08:	461a      	mov	r2, r3
 8003d0a:	4603      	mov	r3, r0
 8003d0c:	817b      	strh	r3, [r7, #10]
 8003d0e:	460b      	mov	r3, r1
 8003d10:	813b      	strh	r3, [r7, #8]
 8003d12:	4613      	mov	r3, r2
 8003d14:	80fb      	strh	r3, [r7, #6]
  /* Generate Start */
  SET_BIT(hi2c->Instance->CR1, I2C_CR1_START);
 8003d16:	68fb      	ldr	r3, [r7, #12]
 8003d18:	681b      	ldr	r3, [r3, #0]
 8003d1a:	681a      	ldr	r2, [r3, #0]
 8003d1c:	68fb      	ldr	r3, [r7, #12]
 8003d1e:	681b      	ldr	r3, [r3, #0]
 8003d20:	f442 7280 	orr.w	r2, r2, #256	@ 0x100
 8003d24:	601a      	str	r2, [r3, #0]

  /* Wait until SB flag is set */
  if (I2C_WaitOnFlagUntilTimeout(hi2c, I2C_FLAG_SB, RESET, Timeout, Tickstart) != HAL_OK)
 8003d26:	6a7b      	ldr	r3, [r7, #36]	@ 0x24
 8003d28:	9300      	str	r3, [sp, #0]
 8003d2a:	6a3b      	ldr	r3, [r7, #32]
 8003d2c:	2200      	movs	r2, #0
 8003d2e:	f04f 1101 	mov.w	r1, #65537	@ 0x10001
 8003d32:	68f8      	ldr	r0, [r7, #12]
 8003d34:	f000 f960 	bl	8003ff8 <I2C_WaitOnFlagUntilTimeout>
 8003d38:	4603      	mov	r3, r0
 8003d3a:	2b00      	cmp	r3, #0
 8003d3c:	d00d      	beq.n	8003d5a <I2C_RequestMemoryWrite+0x5e>
  {
    if (READ_BIT(hi2c->Instance->CR1, I2C_CR1_START) == I2C_CR1_START)
 8003d3e:	68fb      	ldr	r3, [r7, #12]
 8003d40:	681b      	ldr	r3, [r3, #0]
 8003d42:	681b      	ldr	r3, [r3, #0]
 8003d44:	f403 7380 	and.w	r3, r3, #256	@ 0x100
 8003d48:	f5b3 7f80 	cmp.w	r3, #256	@ 0x100
 8003d4c:	d103      	bne.n	8003d56 <I2C_RequestMemoryWrite+0x5a>
    {
      hi2c->ErrorCode = HAL_I2C_WRONG_START;
 8003d4e:	68fb      	ldr	r3, [r7, #12]
 8003d50:	f44f 7200 	mov.w	r2, #512	@ 0x200
 8003d54:	641a      	str	r2, [r3, #64]	@ 0x40
    }
    return HAL_TIMEOUT;
 8003d56:	2303      	movs	r3, #3
 8003d58:	e05f      	b.n	8003e1a <I2C_RequestMemoryWrite+0x11e>
  }

  /* Send slave address */
  hi2c->Instance->DR = I2C_7BIT_ADD_WRITE(DevAddress);
 8003d5a:	897b      	ldrh	r3, [r7, #10]
 8003d5c:	b2db      	uxtb	r3, r3
 8003d5e:	461a      	mov	r2, r3
 8003d60:	68fb      	ldr	r3, [r7, #12]
 8003d62:	681b      	ldr	r3, [r3, #0]
 8003d64:	f002 02fe 	and.w	r2, r2, #254	@ 0xfe
 8003d68:	611a      	str	r2, [r3, #16]

  /* Wait until ADDR flag is set */
  if (I2C_WaitOnMasterAddressFlagUntilTimeout(hi2c, I2C_FLAG_ADDR, Timeout, Tickstart) != HAL_OK)
 8003d6a:	6a7b      	ldr	r3, [r7, #36]	@ 0x24
 8003d6c:	6a3a      	ldr	r2, [r7, #32]
 8003d6e:	492d      	ldr	r1, [pc, #180]	@ (8003e24 <I2C_RequestMemoryWrite+0x128>)
 8003d70:	68f8      	ldr	r0, [r7, #12]
 8003d72:	f000 f9bb 	bl	80040ec <I2C_WaitOnMasterAddressFlagUntilTimeout>
 8003d76:	4603      	mov	r3, r0
 8003d78:	2b00      	cmp	r3, #0
 8003d7a:	d001      	beq.n	8003d80 <I2C_RequestMemoryWrite+0x84>
  {
    return HAL_ERROR;
 8003d7c:	2301      	movs	r3, #1
 8003d7e:	e04c      	b.n	8003e1a <I2C_RequestMemoryWrite+0x11e>
  }

  /* Clear ADDR flag */
  __HAL_I2C_CLEAR_ADDRFLAG(hi2c);
 8003d80:	2300      	movs	r3, #0
 8003d82:	617b      	str	r3, [r7, #20]
 8003d84:	68fb      	ldr	r3, [r7, #12]
 8003d86:	681b      	ldr	r3, [r3, #0]
 8003d88:	695b      	ldr	r3, [r3, #20]
 8003d8a:	617b      	str	r3, [r7, #20]
 8003d8c:	68fb      	ldr	r3, [r7, #12]
 8003d8e:	681b      	ldr	r3, [r3, #0]
 8003d90:	699b      	ldr	r3, [r3, #24]
 8003d92:	617b      	str	r3, [r7, #20]
 8003d94:	697b      	ldr	r3, [r7, #20]

  /* Wait until TXE flag is set */
  if (I2C_WaitOnTXEFlagUntilTimeout(hi2c, Timeout, Tickstart) != HAL_OK)
 8003d96:	6a7a      	ldr	r2, [r7, #36]	@ 0x24
 8003d98:	6a39      	ldr	r1, [r7, #32]
 8003d9a:	68f8      	ldr	r0, [r7, #12]
 8003d9c:	f000 fa46 	bl	800422c <I2C_WaitOnTXEFlagUntilTimeout>
 8003da0:	4603      	mov	r3, r0
 8003da2:	2b00      	cmp	r3, #0
 8003da4:	d00d      	beq.n	8003dc2 <I2C_RequestMemoryWrite+0xc6>
  {
    if (hi2c->ErrorCode == HAL_I2C_ERROR_AF)
 8003da6:	68fb      	ldr	r3, [r7, #12]
 8003da8:	6c1b      	ldr	r3, [r3, #64]	@ 0x40
 8003daa:	2b04      	cmp	r3, #4
 8003dac:	d107      	bne.n	8003dbe <I2C_RequestMemoryWrite+0xc2>
    {
      /* Generate Stop */
      SET_BIT(hi2c->Instance->CR1, I2C_CR1_STOP);
 8003dae:	68fb      	ldr	r3, [r7, #12]
 8003db0:	681b      	ldr	r3, [r3, #0]
 8003db2:	681a      	ldr	r2, [r3, #0]
 8003db4:	68fb      	ldr	r3, [r7, #12]
 8003db6:	681b      	ldr	r3, [r3, #0]
 8003db8:	f442 7200 	orr.w	r2, r2, #512	@ 0x200
 8003dbc:	601a      	str	r2, [r3, #0]
    }
    return HAL_ERROR;
 8003dbe:	2301      	movs	r3, #1
 8003dc0:	e02b      	b.n	8003e1a <I2C_RequestMemoryWrite+0x11e>
  }

  /* If Memory address size is 8Bit */
  if (MemAddSize == I2C_MEMADD_SIZE_8BIT)
 8003dc2:	88fb      	ldrh	r3, [r7, #6]
 8003dc4:	2b01      	cmp	r3, #1
 8003dc6:	d105      	bne.n	8003dd4 <I2C_RequestMemoryWrite+0xd8>
  {
    /* Send Memory Address */
    hi2c->Instance->DR = I2C_MEM_ADD_LSB(MemAddress);
 8003dc8:	893b      	ldrh	r3, [r7, #8]
 8003dca:	b2da      	uxtb	r2, r3
 8003dcc:	68fb      	ldr	r3, [r7, #12]
 8003dce:	681b      	ldr	r3, [r3, #0]
 8003dd0:	611a      	str	r2, [r3, #16]
 8003dd2:	e021      	b.n	8003e18 <I2C_RequestMemoryWrite+0x11c>
  }
  /* If Memory address size is 16Bit */
  else
  {
    /* Send MSB of Memory Address */
    hi2c->Instance->DR = I2C_MEM_ADD_MSB(MemAddress);
 8003dd4:	893b      	ldrh	r3, [r7, #8]
 8003dd6:	0a1b      	lsrs	r3, r3, #8
 8003dd8:	b29b      	uxth	r3, r3
 8003dda:	b2da      	uxtb	r2, r3
 8003ddc:	68fb      	ldr	r3, [r7, #12]
 8003dde:	681b      	ldr	r3, [r3, #0]
 8003de0:	611a      	str	r2, [r3, #16]

    /* Wait until TXE flag is set */
    if (I2C_WaitOnTXEFlagUntilTimeout(hi2c, Timeout, Tickstart) != HAL_OK)
 8003de2:	6a7a      	ldr	r2, [r7, #36]	@ 0x24
 8003de4:	6a39      	ldr	r1, [r7, #32]
 8003de6:	68f8      	ldr	r0, [r7, #12]
 8003de8:	f000 fa20 	bl	800422c <I2C_WaitOnTXEFlagUntilTimeout>
 8003dec:	4603      	mov	r3, r0
 8003dee:	2b00      	cmp	r3, #0
 8003df0:	d00d      	beq.n	8003e0e <I2C_RequestMemoryWrite+0x112>
    {
      if (hi2c->ErrorCode == HAL_I2C_ERROR_AF)
 8003df2:	68fb      	ldr	r3, [r7, #12]
 8003df4:	6c1b      	ldr	r3, [r3, #64]	@ 0x40
 8003df6:	2b04      	cmp	r3, #4
 8003df8:	d107      	bne.n	8003e0a <I2C_RequestMemoryWrite+0x10e>
      {
        /* Generate Stop */
        SET_BIT(hi2c->Instance->CR1, I2C_CR1_STOP);
 8003dfa:	68fb      	ldr	r3, [r7, #12]
 8003dfc:	681b      	ldr	r3, [r3, #0]
 8003dfe:	681a      	ldr	r2, [r3, #0]
 8003e00:	68fb      	ldr	r3, [r7, #12]
 8003e02:	681b      	ldr	r3, [r3, #0]
 8003e04:	f442 7200 	orr.w	r2, r2, #512	@ 0x200
 8003e08:	601a      	str	r2, [r3, #0]
      }
      return HAL_ERROR;
 8003e0a:	2301      	movs	r3, #1
 8003e0c:	e005      	b.n	8003e1a <I2C_RequestMemoryWrite+0x11e>
    }

    /* Send LSB of Memory Address */
    hi2c->Instance->DR = I2C_MEM_ADD_LSB(MemAddress);
 8003e0e:	893b      	ldrh	r3, [r7, #8]
 8003e10:	b2da      	uxtb	r2, r3
 8003e12:	68fb      	ldr	r3, [r7, #12]
 8003e14:	681b      	ldr	r3, [r3, #0]
 8003e16:	611a      	str	r2, [r3, #16]
  }

  return HAL_OK;
 8003e18:	2300      	movs	r3, #0
}
 8003e1a:	4618      	mov	r0, r3
 8003e1c:	3718      	adds	r7, #24
 8003e1e:	46bd      	mov	sp, r7
 8003e20:	bd80      	pop	{r7, pc}
 8003e22:	bf00      	nop
 8003e24:	00010002 	.word	0x00010002

08003e28 <I2C_RequestMemoryRead>:
  * @param  Timeout Timeout duration
  * @param  Tickstart Tick start value
  * @retval HAL status
  */
static HAL_StatusTypeDef I2C_RequestMemoryRead(I2C_HandleTypeDef *hi2c, uint16_t DevAddress, uint16_t MemAddress, uint16_t MemAddSize, uint32_t Timeout, uint32_t Tickstart)
{
 8003e28:	b580      	push	{r7, lr}
 8003e2a:	b088      	sub	sp, #32
 8003e2c:	af02      	add	r7, sp, #8
 8003e2e:	60f8      	str	r0, [r7, #12]
 8003e30:	4608      	mov	r0, r1
 8003e32:	4611      	mov	r1, r2
 8003e34:	461a      	mov	r2, r3
 8003e36:	4603      	mov	r3, r0
 8003e38:	817b      	strh	r3, [r7, #10]
 8003e3a:	460b      	mov	r3, r1
 8003e3c:	813b      	strh	r3, [r7, #8]
 8003e3e:	4613      	mov	r3, r2
 8003e40:	80fb      	strh	r3, [r7, #6]
  /* Enable Acknowledge */
  SET_BIT(hi2c->Instance->CR1, I2C_CR1_ACK);
 8003e42:	68fb      	ldr	r3, [r7, #12]
 8003e44:	681b      	ldr	r3, [r3, #0]
 8003e46:	681a      	ldr	r2, [r3, #0]
 8003e48:	68fb      	ldr	r3, [r7, #12]
 8003e4a:	681b      	ldr	r3, [r3, #0]
 8003e4c:	f442 6280 	orr.w	r2, r2, #1024	@ 0x400
 8003e50:	601a      	str	r2, [r3, #0]

  /* Generate Start */
  SET_BIT(hi2c->Instance->CR1, I2C_CR1_START);
 8003e52:	68fb      	ldr	r3, [r7, #12]
 8003e54:	681b      	ldr	r3, [r3, #0]
 8003e56:	681a      	ldr	r2, [r3, #0]
 8003e58:	68fb      	ldr	r3, [r7, #12]
 8003e5a:	681b      	ldr	r3, [r3, #0]
 8003e5c:	f442 7280 	orr.w	r2, r2, #256	@ 0x100
 8003e60:	601a      	str	r2, [r3, #0]

  /* Wait until SB flag is set */
  if (I2C_WaitOnFlagUntilTimeout(hi2c, I2C_FLAG_SB, RESET, Timeout, Tickstart) != HAL_OK)
 8003e62:	6a7b      	ldr	r3, [r7, #36]	@ 0x24
 8003e64:	9300      	str	r3, [sp, #0]
 8003e66:	6a3b      	ldr	r3, [r7, #32]
 8003e68:	2200      	movs	r2, #0
 8003e6a:	f04f 1101 	mov.w	r1, #65537	@ 0x10001
 8003e6e:	68f8      	ldr	r0, [r7, #12]
 8003e70:	f000 f8c2 	bl	8003ff8 <I2C_WaitOnFlagUntilTimeout>
 8003e74:	4603      	mov	r3, r0
 8003e76:	2b00      	cmp	r3, #0
 8003e78:	d00d      	beq.n	8003e96 <I2C_RequestMemoryRead+0x6e>
  {
    if (READ_BIT(hi2c->Instance->CR1, I2C_CR1_START) == I2C_CR1_START)
 8003e7a:	68fb      	ldr	r3, [r7, #12]
 8003e7c:	681b      	ldr	r3, [r3, #0]
 8003e7e:	681b      	ldr	r3, [r3, #0]
 8003e80:	f403 7380 	and.w	r3, r3, #256	@ 0x100
 8003e84:	f5b3 7f80 	cmp.w	r3, #256	@ 0x100
 8003e88:	d103      	bne.n	8003e92 <I2C_RequestMemoryRead+0x6a>
    {
      hi2c->ErrorCode = HAL_I2C_WRONG_START;
 8003e8a:	68fb      	ldr	r3, [r7, #12]
 8003e8c:	f44f 7200 	mov.w	r2, #512	@ 0x200
 8003e90:	641a      	str	r2, [r3, #64]	@ 0x40
    }
    return HAL_TIMEOUT;
 8003e92:	2303      	movs	r3, #3
 8003e94:	e0aa      	b.n	8003fec <I2C_RequestMemoryRead+0x1c4>
  }

  /* Send slave address */
  hi2c->Instance->DR = I2C_7BIT_ADD_WRITE(DevAddress);
 8003e96:	897b      	ldrh	r3, [r7, #10]
 8003e98:	b2db      	uxtb	r3, r3
 8003e9a:	461a      	mov	r2, r3
 8003e9c:	68fb      	ldr	r3, [r7, #12]
 8003e9e:	681b      	ldr	r3, [r3, #0]
 8003ea0:	f002 02fe 	and.w	r2, r2, #254	@ 0xfe
 8003ea4:	611a      	str	r2, [r3, #16]

  /* Wait until ADDR flag is set */
  if (I2C_WaitOnMasterAddressFlagUntilTimeout(hi2c, I2C_FLAG_ADDR, Timeout, Tickstart) != HAL_OK)
 8003ea6:	6a7b      	ldr	r3, [r7, #36]	@ 0x24
 8003ea8:	6a3a      	ldr	r2, [r7, #32]
 8003eaa:	4952      	ldr	r1, [pc, #328]	@ (8003ff4 <I2C_RequestMemoryRead+0x1cc>)
 8003eac:	68f8      	ldr	r0, [r7, #12]
 8003eae:	f000 f91d 	bl	80040ec <I2C_WaitOnMasterAddressFlagUntilTimeout>
 8003eb2:	4603      	mov	r3, r0
 8003eb4:	2b00      	cmp	r3, #0
 8003eb6:	d001      	beq.n	8003ebc <I2C_RequestMemoryRead+0x94>
  {
    return HAL_ERROR;
 8003eb8:	2301      	movs	r3, #1
 8003eba:	e097      	b.n	8003fec <I2C_RequestMemoryRead+0x1c4>
  }

  /* Clear ADDR flag */
  __HAL_I2C_CLEAR_ADDRFLAG(hi2c);
 8003ebc:	2300      	movs	r3, #0
 8003ebe:	617b      	str	r3, [r7, #20]
 8003ec0:	68fb      	ldr	r3, [r7, #12]
 8003ec2:	681b      	ldr	r3, [r3, #0]
 8003ec4:	695b      	ldr	r3, [r3, #20]
 8003ec6:	617b      	str	r3, [r7, #20]
 8003ec8:	68fb      	ldr	r3, [r7, #12]
 8003eca:	681b      	ldr	r3, [r3, #0]
 8003ecc:	699b      	ldr	r3, [r3, #24]
 8003ece:	617b      	str	r3, [r7, #20]
 8003ed0:	697b      	ldr	r3, [r7, #20]

  /* Wait until TXE flag is set */
  if (I2C_WaitOnTXEFlagUntilTimeout(hi2c, Timeout, Tickstart) != HAL_OK)
 8003ed2:	6a7a      	ldr	r2, [r7, #36]	@ 0x24
 8003ed4:	6a39      	ldr	r1, [r7, #32]
 8003ed6:	68f8      	ldr	r0, [r7, #12]
 8003ed8:	f000 f9a8 	bl	800422c <I2C_WaitOnTXEFlagUntilTimeout>
 8003edc:	4603      	mov	r3, r0
 8003ede:	2b00      	cmp	r3, #0
 8003ee0:	d00d      	beq.n	8003efe <I2C_RequestMemoryRead+0xd6>
  {
    if (hi2c->ErrorCode == HAL_I2C_ERROR_AF)
 8003ee2:	68fb      	ldr	r3, [r7, #12]
 8003ee4:	6c1b      	ldr	r3, [r3, #64]	@ 0x40
 8003ee6:	2b04      	cmp	r3, #4
 8003ee8:	d107      	bne.n	8003efa <I2C_RequestMemoryRead+0xd2>
    {
      /* Generate Stop */
      SET_BIT(hi2c->Instance->CR1, I2C_CR1_STOP);
 8003eea:	68fb      	ldr	r3, [r7, #12]
 8003eec:	681b      	ldr	r3, [r3, #0]
 8003eee:	681a      	ldr	r2, [r3, #0]
 8003ef0:	68fb      	ldr	r3, [r7, #12]
 8003ef2:	681b      	ldr	r3, [r3, #0]
 8003ef4:	f442 7200 	orr.w	r2, r2, #512	@ 0x200
 8003ef8:	601a      	str	r2, [r3, #0]
    }
    return HAL_ERROR;
 8003efa:	2301      	movs	r3, #1
 8003efc:	e076      	b.n	8003fec <I2C_RequestMemoryRead+0x1c4>
  }

  /* If Memory address size is 8Bit */
  if (MemAddSize == I2C_MEMADD_SIZE_8BIT)
 8003efe:	88fb      	ldrh	r3, [r7, #6]
 8003f00:	2b01      	cmp	r3, #1
 8003f02:	d105      	bne.n	8003f10 <I2C_RequestMemoryRead+0xe8>
  {
    /* Send Memory Address */
    hi2c->Instance->DR = I2C_MEM_ADD_LSB(MemAddress);
 8003f04:	893b      	ldrh	r3, [r7, #8]
 8003f06:	b2da      	uxtb	r2, r3
 8003f08:	68fb      	ldr	r3, [r7, #12]
 8003f0a:	681b      	ldr	r3, [r3, #0]
 8003f0c:	611a      	str	r2, [r3, #16]
 8003f0e:	e021      	b.n	8003f54 <I2C_RequestMemoryRead+0x12c>
  }
  /* If Memory address size is 16Bit */
  else
  {
    /* Send MSB of Memory Address */
    hi2c->Instance->DR = I2C_MEM_ADD_MSB(MemAddress);
 8003f10:	893b      	ldrh	r3, [r7, #8]
 8003f12:	0a1b      	lsrs	r3, r3, #8
 8003f14:	b29b      	uxth	r3, r3
 8003f16:	b2da      	uxtb	r2, r3
 8003f18:	68fb      	ldr	r3, [r7, #12]
 8003f1a:	681b      	ldr	r3, [r3, #0]
 8003f1c:	611a      	str	r2, [r3, #16]

    /* Wait until TXE flag is set */
    if (I2C_WaitOnTXEFlagUntilTimeout(hi2c, Timeout, Tickstart) != HAL_OK)
 8003f1e:	6a7a      	ldr	r2, [r7, #36]	@ 0x24
 8003f20:	6a39      	ldr	r1, [r7, #32]
 8003f22:	68f8      	ldr	r0, [r7, #12]
 8003f24:	f000 f982 	bl	800422c <I2C_WaitOnTXEFlagUntilTimeout>
 8003f28:	4603      	mov	r3, r0
 8003f2a:	2b00      	cmp	r3, #0
 8003f2c:	d00d      	beq.n	8003f4a <I2C_RequestMemoryRead+0x122>
    {
      if (hi2c->ErrorCode == HAL_I2C_ERROR_AF)
 8003f2e:	68fb      	ldr	r3, [r7, #12]
 8003f30:	6c1b      	ldr	r3, [r3, #64]	@ 0x40
 8003f32:	2b04      	cmp	r3, #4
 8003f34:	d107      	bne.n	8003f46 <I2C_RequestMemoryRead+0x11e>
      {
        /* Generate Stop */
        SET_BIT(hi2c->Instance->CR1, I2C_CR1_STOP);
 8003f36:	68fb      	ldr	r3, [r7, #12]
 8003f38:	681b      	ldr	r3, [r3, #0]
 8003f3a:	681a      	ldr	r2, [r3, #0]
 8003f3c:	68fb      	ldr	r3, [r7, #12]
 8003f3e:	681b      	ldr	r3, [r3, #0]
 8003f40:	f442 7200 	orr.w	r2, r2, #512	@ 0x200
 8003f44:	601a      	str	r2, [r3, #0]
      }
      return HAL_ERROR;
 8003f46:	2301      	movs	r3, #1
 8003f48:	e050      	b.n	8003fec <I2C_RequestMemoryRead+0x1c4>
    }

    /* Send LSB of Memory Address */
    hi2c->Instance->DR = I2C_MEM_ADD_LSB(MemAddress);
 8003f4a:	893b      	ldrh	r3, [r7, #8]
 8003f4c:	b2da      	uxtb	r2, r3
 8003f4e:	68fb      	ldr	r3, [r7, #12]
 8003f50:	681b      	ldr	r3, [r3, #0]
 8003f52:	611a      	str	r2, [r3, #16]
  }

  /* Wait until TXE flag is set */
  if (I2C_WaitOnTXEFlagUntilTimeout(hi2c, Timeout, Tickstart) != HAL_OK)
 8003f54:	6a7a      	ldr	r2, [r7, #36]	@ 0x24
 8003f56:	6a39      	ldr	r1, [r7, #32]
 8003f58:	68f8      	ldr	r0, [r7, #12]
 8003f5a:	f000 f967 	bl	800422c <I2C_WaitOnTXEFlagUntilTimeout>
 8003f5e:	4603      	mov	r3, r0
 8003f60:	2b00      	cmp	r3, #0
 8003f62:	d00d      	beq.n	8003f80 <I2C_RequestMemoryRead+0x158>
  {
    if (hi2c->ErrorCode == HAL_I2C_ERROR_AF)
 8003f64:	68fb      	ldr	r3, [r7, #12]
 8003f66:	6c1b      	ldr	r3, [r3, #64]	@ 0x40
 8003f68:	2b04      	cmp	r3, #4
 8003f6a:	d107      	bne.n	8003f7c <I2C_RequestMemoryRead+0x154>
    {
      /* Generate Stop */
      SET_BIT(hi2c->Instance->CR1, I2C_CR1_STOP);
 8003f6c:	68fb      	ldr	r3, [r7, #12]
 8003f6e:	681b      	ldr	r3, [r3, #0]
 8003f70:	681a      	ldr	r2, [r3, #0]
 8003f72:	68fb      	ldr	r3, [r7, #12]
 8003f74:	681b      	ldr	r3, [r3, #0]
 8003f76:	f442 7200 	orr.w	r2, r2, #512	@ 0x200
 8003f7a:	601a      	str	r2, [r3, #0]
    }
    return HAL_ERROR;
 8003f7c:	2301      	movs	r3, #1
 8003f7e:	e035      	b.n	8003fec <I2C_RequestMemoryRead+0x1c4>
  }

  /* Generate Restart */
  SET_BIT(hi2c->Instance->CR1, I2C_CR1_START);
 8003f80:	68fb      	ldr	r3, [r7, #12]
 8003f82:	681b      	ldr	r3, [r3, #0]
 8003f84:	681a      	ldr	r2, [r3, #0]
 8003f86:	68fb      	ldr	r3, [r7, #12]
 8003f88:	681b      	ldr	r3, [r3, #0]
 8003f8a:	f442 7280 	orr.w	r2, r2, #256	@ 0x100
 8003f8e:	601a      	str	r2, [r3, #0]

  /* Wait until SB flag is set */
  if (I2C_WaitOnFlagUntilTimeout(hi2c, I2C_FLAG_SB, RESET, Timeout, Tickstart) != HAL_OK)
 8003f90:	6a7b      	ldr	r3, [r7, #36]	@ 0x24
 8003f92:	9300      	str	r3, [sp, #0]
 8003f94:	6a3b      	ldr	r3, [r7, #32]
 8003f96:	2200      	movs	r2, #0
 8003f98:	f04f 1101 	mov.w	r1, #65537	@ 0x10001
 8003f9c:	68f8      	ldr	r0, [r7, #12]
 8003f9e:	f000 f82b 	bl	8003ff8 <I2C_WaitOnFlagUntilTimeout>
 8003fa2:	4603      	mov	r3, r0
 8003fa4:	2b00      	cmp	r3, #0
 8003fa6:	d00d      	beq.n	8003fc4 <I2C_RequestMemoryRead+0x19c>
  {
    if (READ_BIT(hi2c->Instance->CR1, I2C_CR1_START) == I2C_CR1_START)
 8003fa8:	68fb      	ldr	r3, [r7, #12]
 8003faa:	681b      	ldr	r3, [r3, #0]
 8003fac:	681b      	ldr	r3, [r3, #0]
 8003fae:	f403 7380 	and.w	r3, r3, #256	@ 0x100
 8003fb2:	f5b3 7f80 	cmp.w	r3, #256	@ 0x100
 8003fb6:	d103      	bne.n	8003fc0 <I2C_RequestMemoryRead+0x198>
    {
      hi2c->ErrorCode = HAL_I2C_WRONG_START;
 8003fb8:	68fb      	ldr	r3, [r7, #12]
 8003fba:	f44f 7200 	mov.w	r2, #512	@ 0x200
 8003fbe:	641a      	str	r2, [r3, #64]	@ 0x40
    }
    return HAL_TIMEOUT;
 8003fc0:	2303      	movs	r3, #3
 8003fc2:	e013      	b.n	8003fec <I2C_RequestMemoryRead+0x1c4>
  }

  /* Send slave address */
  hi2c->Instance->DR = I2C_7BIT_ADD_READ(DevAddress);
 8003fc4:	897b      	ldrh	r3, [r7, #10]
 8003fc6:	b2db      	uxtb	r3, r3
 8003fc8:	f043 0301 	orr.w	r3, r3, #1
 8003fcc:	b2da      	uxtb	r2, r3
 8003fce:	68fb      	ldr	r3, [r7, #12]
 8003fd0:	681b      	ldr	r3, [r3, #0]
 8003fd2:	611a      	str	r2, [r3, #16]

  /* Wait until ADDR flag is set */
  if (I2C_WaitOnMasterAddressFlagUntilTimeout(hi2c, I2C_FLAG_ADDR, Timeout, Tickstart) != HAL_OK)
 8003fd4:	6a7b      	ldr	r3, [r7, #36]	@ 0x24
 8003fd6:	6a3a      	ldr	r2, [r7, #32]
 8003fd8:	4906      	ldr	r1, [pc, #24]	@ (8003ff4 <I2C_RequestMemoryRead+0x1cc>)
 8003fda:	68f8      	ldr	r0, [r7, #12]
 8003fdc:	f000 f886 	bl	80040ec <I2C_WaitOnMasterAddressFlagUntilTimeout>
 8003fe0:	4603      	mov	r3, r0
 8003fe2:	2b00      	cmp	r3, #0
 8003fe4:	d001      	beq.n	8003fea <I2C_RequestMemoryRead+0x1c2>
  {
    return HAL_ERROR;
 8003fe6:	2301      	movs	r3, #1
 8003fe8:	e000      	b.n	8003fec <I2C_RequestMemoryRead+0x1c4>
  }

  return HAL_OK;
 8003fea:	2300      	movs	r3, #0
}
 8003fec:	4618      	mov	r0, r3
 8003fee:	3718      	adds	r7, #24
 8003ff0:	46bd      	mov	sp, r7
 8003ff2:	bd80      	pop	{r7, pc}
 8003ff4:	00010002 	.word	0x00010002

08003ff8 <I2C_WaitOnFlagUntilTimeout>:
  * @param  Timeout Timeout duration
  * @param  Tickstart Tick start value
  * @retval HAL status
  */
static HAL_StatusTypeDef I2C_WaitOnFlagUntilTimeout(I2C_HandleTypeDef *hi2c, uint32_t Flag, FlagStatus Status, uint32_t Timeout, uint32_t Tickstart)
{
 8003ff8:	b580      	push	{r7, lr}
 8003ffa:	b084      	sub	sp, #16
 8003ffc:	af00      	add	r7, sp, #0
 8003ffe:	60f8      	str	r0, [r7, #12]
 8004000:	60b9      	str	r1, [r7, #8]
 8004002:	603b      	str	r3, [r7, #0]
 8004004:	4613      	mov	r3, r2
 8004006:	71fb      	strb	r3, [r7, #7]
  /* Wait until flag is set */
  while (__HAL_I2C_GET_FLAG(hi2c, Flag) == Status)
 8004008:	e048      	b.n	800409c <I2C_WaitOnFlagUntilTimeout+0xa4>
  {
    /* Check for the Timeout */
    if (Timeout != HAL_MAX_DELAY)
 800400a:	683b      	ldr	r3, [r7, #0]
 800400c:	f1b3 3fff 	cmp.w	r3, #4294967295
 8004010:	d044      	beq.n	800409c <I2C_WaitOnFlagUntilTimeout+0xa4>
    {
      if (((HAL_GetTick() - Tickstart) > Timeout) || (Timeout == 0U))
 8004012:	f7fe ff19 	bl	8002e48 <HAL_GetTick>
 8004016:	4602      	mov	r2, r0
 8004018:	69bb      	ldr	r3, [r7, #24]
 800401a:	1ad3      	subs	r3, r2, r3
 800401c:	683a      	ldr	r2, [r7, #0]
 800401e:	429a      	cmp	r2, r3
 8004020:	d302      	bcc.n	8004028 <I2C_WaitOnFlagUntilTimeout+0x30>
 8004022:	683b      	ldr	r3, [r7, #0]
 8004024:	2b00      	cmp	r3, #0
 8004026:	d139      	bne.n	800409c <I2C_WaitOnFlagUntilTimeout+0xa4>
      {
        if ((__HAL_I2C_GET_FLAG(hi2c, Flag) == Status))
 8004028:	68bb      	ldr	r3, [r7, #8]
 800402a:	0c1b      	lsrs	r3, r3, #16
 800402c:	b2db      	uxtb	r3, r3
 800402e:	2b01      	cmp	r3, #1
 8004030:	d10d      	bne.n	800404e <I2C_WaitOnFlagUntilTimeout+0x56>
 8004032:	68fb      	ldr	r3, [r7, #12]
 8004034:	681b      	ldr	r3, [r3, #0]
 8004036:	695b      	ldr	r3, [r3, #20]
 8004038:	43da      	mvns	r2, r3
 800403a:	68bb      	ldr	r3, [r7, #8]
 800403c:	4013      	ands	r3, r2
 800403e:	b29b      	uxth	r3, r3
 8004040:	2b00      	cmp	r3, #0
 8004042:	bf0c      	ite	eq
 8004044:	2301      	moveq	r3, #1
 8004046:	2300      	movne	r3, #0
 8004048:	b2db      	uxtb	r3, r3
 800404a:	461a      	mov	r2, r3
 800404c:	e00c      	b.n	8004068 <I2C_WaitOnFlagUntilTimeout+0x70>
 800404e:	68fb      	ldr	r3, [r7, #12]
 8004050:	681b      	ldr	r3, [r3, #0]
 8004052:	699b      	ldr	r3, [r3, #24]
 8004054:	43da      	mvns	r2, r3
 8004056:	68bb      	ldr	r3, [r7, #8]
 8004058:	4013      	ands	r3, r2
 800405a:	b29b      	uxth	r3, r3
 800405c:	2b00      	cmp	r3, #0
 800405e:	bf0c      	ite	eq
 8004060:	2301      	moveq	r3, #1
 8004062:	2300      	movne	r3, #0
 8004064:	b2db      	uxtb	r3, r3
 8004066:	461a      	mov	r2, r3
 8004068:	79fb      	ldrb	r3, [r7, #7]
 800406a:	429a      	cmp	r2, r3
 800406c:	d116      	bne.n	800409c <I2C_WaitOnFlagUntilTimeout+0xa4>
        {
          hi2c->PreviousState     = I2C_STATE_NONE;
 800406e:	68fb      	ldr	r3, [r7, #12]
 8004070:	2200      	movs	r2, #0
 8004072:	631a      	str	r2, [r3, #48]	@ 0x30
          hi2c->State             = HAL_I2C_STATE_READY;
 8004074:	68fb      	ldr	r3, [r7, #12]
 8004076:	2220      	movs	r2, #32
 8004078:	f883 203d 	strb.w	r2, [r3, #61]	@ 0x3d
          hi2c->Mode              = HAL_I2C_MODE_NONE;
 800407c:	68fb      	ldr	r3, [r7, #12]
 800407e:	2200      	movs	r2, #0
 8004080:	f883 203e 	strb.w	r2, [r3, #62]	@ 0x3e
          hi2c->ErrorCode         |= HAL_I2C_ERROR_TIMEOUT;
 8004084:	68fb      	ldr	r3, [r7, #12]
 8004086:	6c1b      	ldr	r3, [r3, #64]	@ 0x40
 8004088:	f043 0220 	orr.w	r2, r3, #32
 800408c:	68fb      	ldr	r3, [r7, #12]
 800408e:	641a      	str	r2, [r3, #64]	@ 0x40

          /* Process Unlocked */
          __HAL_UNLOCK(hi2c);
 8004090:	68fb      	ldr	r3, [r7, #12]
 8004092:	2200      	movs	r2, #0
 8004094:	f883 203c 	strb.w	r2, [r3, #60]	@ 0x3c

          return HAL_ERROR;
 8004098:	2301      	movs	r3, #1
 800409a:	e023      	b.n	80040e4 <I2C_WaitOnFlagUntilTimeout+0xec>
  while (__HAL_I2C_GET_FLAG(hi2c, Flag) == Status)
 800409c:	68bb      	ldr	r3, [r7, #8]
 800409e:	0c1b      	lsrs	r3, r3, #16
 80040a0:	b2db      	uxtb	r3, r3
 80040a2:	2b01      	cmp	r3, #1
 80040a4:	d10d      	bne.n	80040c2 <I2C_WaitOnFlagUntilTimeout+0xca>
 80040a6:	68fb      	ldr	r3, [r7, #12]
 80040a8:	681b      	ldr	r3, [r3, #0]
 80040aa:	695b      	ldr	r3, [r3, #20]
 80040ac:	43da      	mvns	r2, r3
 80040ae:	68bb      	ldr	r3, [r7, #8]
 80040b0:	4013      	ands	r3, r2
 80040b2:	b29b      	uxth	r3, r3
 80040b4:	2b00      	cmp	r3, #0
 80040b6:	bf0c      	ite	eq
 80040b8:	2301      	moveq	r3, #1
 80040ba:	2300      	movne	r3, #0
 80040bc:	b2db      	uxtb	r3, r3
 80040be:	461a      	mov	r2, r3
 80040c0:	e00c      	b.n	80040dc <I2C_WaitOnFlagUntilTimeout+0xe4>
 80040c2:	68fb      	ldr	r3, [r7, #12]
 80040c4:	681b      	ldr	r3, [r3, #0]
 80040c6:	699b      	ldr	r3, [r3, #24]
 80040c8:	43da      	mvns	r2, r3
 80040ca:	68bb      	ldr	r3, [r7, #8]
 80040cc:	4013      	ands	r3, r2
 80040ce:	b29b      	uxth	r3, r3
 80040d0:	2b00      	cmp	r3, #0
 80040d2:	bf0c      	ite	eq
 80040d4:	2301      	moveq	r3, #1
 80040d6:	2300      	movne	r3, #0
 80040d8:	b2db      	uxtb	r3, r3
 80040da:	461a      	mov	r2, r3
 80040dc:	79fb      	ldrb	r3, [r7, #7]
 80040de:	429a      	cmp	r2, r3
 80040e0:	d093      	beq.n	800400a <I2C_WaitOnFlagUntilTimeout+0x12>
        }
      }
    }
  }
  return HAL_OK;
 80040e2:	2300      	movs	r3, #0
}
 80040e4:	4618      	mov	r0, r3
 80040e6:	3710      	adds	r7, #16
 80040e8:	46bd      	mov	sp, r7
 80040ea:	bd80      	pop	{r7, pc}

080040ec <I2C_WaitOnMasterAddressFlagUntilTimeout>:
  * @param  Timeout Timeout duration
  * @param  Tickstart Tick start value
  * @retval HAL status
  */
static HAL_StatusTypeDef I2C_WaitOnMasterAddressFlagUntilTimeout(I2C_HandleTypeDef *hi2c, uint32_t Flag, uint32_t Timeout, uint32_t Tickstart)
{
 80040ec:	b580      	push	{r7, lr}
 80040ee:	b084      	sub	sp, #16
 80040f0:	af00      	add	r7, sp, #0
 80040f2:	60f8      	str	r0, [r7, #12]
 80040f4:	60b9      	str	r1, [r7, #8]
 80040f6:	607a      	str	r2, [r7, #4]
 80040f8:	603b      	str	r3, [r7, #0]
  while (__HAL_I2C_GET_FLAG(hi2c, Flag) == RESET)
 80040fa:	e071      	b.n	80041e0 <I2C_WaitOnMasterAddressFlagUntilTimeout+0xf4>
  {
    if (__HAL_I2C_GET_FLAG(hi2c, I2C_FLAG_AF) == SET)
 80040fc:	68fb      	ldr	r3, [r7, #12]
 80040fe:	681b      	ldr	r3, [r3, #0]
 8004100:	695b      	ldr	r3, [r3, #20]
 8004102:	f403 6380 	and.w	r3, r3, #1024	@ 0x400
 8004106:	f5b3 6f80 	cmp.w	r3, #1024	@ 0x400
 800410a:	d123      	bne.n	8004154 <I2C_WaitOnMasterAddressFlagUntilTimeout+0x68>
    {
      /* Generate Stop */
      SET_BIT(hi2c->Instance->CR1, I2C_CR1_STOP);
 800410c:	68fb      	ldr	r3, [r7, #12]
 800410e:	681b      	ldr	r3, [r3, #0]
 8004110:	681a      	ldr	r2, [r3, #0]
 8004112:	68fb      	ldr	r3, [r7, #12]
 8004114:	681b      	ldr	r3, [r3, #0]
 8004116:	f442 7200 	orr.w	r2, r2, #512	@ 0x200
 800411a:	601a      	str	r2, [r3, #0]

      /* Clear AF Flag */
      __HAL_I2C_CLEAR_FLAG(hi2c, I2C_FLAG_AF);
 800411c:	68fb      	ldr	r3, [r7, #12]
 800411e:	681b      	ldr	r3, [r3, #0]
 8004120:	f46f 6280 	mvn.w	r2, #1024	@ 0x400
 8004124:	615a      	str	r2, [r3, #20]

      hi2c->PreviousState       = I2C_STATE_NONE;
 8004126:	68fb      	ldr	r3, [r7, #12]
 8004128:	2200      	movs	r2, #0
 800412a:	631a      	str	r2, [r3, #48]	@ 0x30
      hi2c->State               = HAL_I2C_STATE_READY;
 800412c:	68fb      	ldr	r3, [r7, #12]
 800412e:	2220      	movs	r2, #32
 8004130:	f883 203d 	strb.w	r2, [r3, #61]	@ 0x3d
      hi2c->Mode                = HAL_I2C_MODE_NONE;
 8004134:	68fb      	ldr	r3, [r7, #12]
 8004136:	2200      	movs	r2, #0
 8004138:	f883 203e 	strb.w	r2, [r3, #62]	@ 0x3e
      hi2c->ErrorCode           |= HAL_I2C_ERROR_AF;
 800413c:	68fb      	ldr	r3, [r7, #12]
 800413e:	6c1b      	ldr	r3, [r3, #64]	@ 0x40
 8004140:	f043 0204 	orr.w	r2, r3, #4
 8004144:	68fb      	ldr	r3, [r7, #12]
 8004146:	641a      	str	r2, [r3, #64]	@ 0x40

      /* Process Unlocked */
      __HAL_UNLOCK(hi2c);
 8004148:	68fb      	ldr	r3, [r7, #12]
 800414a:	2200      	movs	r2, #0
 800414c:	f883 203c 	strb.w	r2, [r3, #60]	@ 0x3c

      return HAL_ERROR;
 8004150:	2301      	movs	r3, #1
 8004152:	e067      	b.n	8004224 <I2C_WaitOnMasterAddressFlagUntilTimeout+0x138>
    }

    /* Check for the Timeout */
    if (Timeout != HAL_MAX_DELAY)
 8004154:	687b      	ldr	r3, [r7, #4]
 8004156:	f1b3 3fff 	cmp.w	r3, #4294967295
 800415a:	d041      	beq.n	80041e0 <I2C_WaitOnMasterAddressFlagUntilTimeout+0xf4>
    {
      if (((HAL_GetTick() - Tickstart) > Timeout) || (Timeout == 0U))
 800415c:	f7fe fe74 	bl	8002e48 <HAL_GetTick>
 8004160:	4602      	mov	r2, r0
 8004162:	683b      	ldr	r3, [r7, #0]
 8004164:	1ad3      	subs	r3, r2, r3
 8004166:	687a      	ldr	r2, [r7, #4]
 8004168:	429a      	cmp	r2, r3
 800416a:	d302      	bcc.n	8004172 <I2C_WaitOnMasterAddressFlagUntilTimeout+0x86>
 800416c:	687b      	ldr	r3, [r7, #4]
 800416e:	2b00      	cmp	r3, #0
 8004170:	d136      	bne.n	80041e0 <I2C_WaitOnMasterAddressFlagUntilTimeout+0xf4>
      {
        if ((__HAL_I2C_GET_FLAG(hi2c, Flag) == RESET))
 8004172:	68bb      	ldr	r3, [r7, #8]
 8004174:	0c1b      	lsrs	r3, r3, #16
 8004176:	b2db      	uxtb	r3, r3
 8004178:	2b01      	cmp	r3, #1
 800417a:	d10c      	bne.n	8004196 <I2C_WaitOnMasterAddressFlagUntilTimeout+0xaa>
 800417c:	68fb      	ldr	r3, [r7, #12]
 800417e:	681b      	ldr	r3, [r3, #0]
 8004180:	695b      	ldr	r3, [r3, #20]
 8004182:	43da      	mvns	r2, r3
 8004184:	68bb      	ldr	r3, [r7, #8]
 8004186:	4013      	ands	r3, r2
 8004188:	b29b      	uxth	r3, r3
 800418a:	2b00      	cmp	r3, #0
 800418c:	bf14      	ite	ne
 800418e:	2301      	movne	r3, #1
 8004190:	2300      	moveq	r3, #0
 8004192:	b2db      	uxtb	r3, r3
 8004194:	e00b      	b.n	80041ae <I2C_WaitOnMasterAddressFlagUntilTimeout+0xc2>
 8004196:	68fb      	ldr	r3, [r7, #12]
 8004198:	681b      	ldr	r3, [r3, #0]
 800419a:	699b      	ldr	r3, [r3, #24]
 800419c:	43da      	mvns	r2, r3
 800419e:	68bb      	ldr	r3, [r7, #8]
 80041a0:	4013      	ands	r3, r2
 80041a2:	b29b      	uxth	r3, r3
 80041a4:	2b00      	cmp	r3, #0
 80041a6:	bf14      	ite	ne
 80041a8:	2301      	movne	r3, #1
 80041aa:	2300      	moveq	r3, #0
 80041ac:	b2db      	uxtb	r3, r3
 80041ae:	2b00      	cmp	r3, #0
 80041b0:	d016      	beq.n	80041e0 <I2C_WaitOnMasterAddressFlagUntilTimeout+0xf4>
        {
          hi2c->PreviousState       = I2C_STATE_NONE;
 80041b2:	68fb      	ldr	r3, [r7, #12]
 80041b4:	2200      	movs	r2, #0
 80041b6:	631a      	str	r2, [r3, #48]	@ 0x30
          hi2c->State               = HAL_I2C_STATE_READY;
 80041b8:	68fb      	ldr	r3, [r7, #12]
 80041ba:	2220      	movs	r2, #32
 80041bc:	f883 203d 	strb.w	r2, [r3, #61]	@ 0x3d
          hi2c->Mode                = HAL_I2C_MODE_NONE;
 80041c0:	68fb      	ldr	r3, [r7, #12]
 80041c2:	2200      	movs	r2, #0
 80041c4:	f883 203e 	strb.w	r2, [r3, #62]	@ 0x3e
          hi2c->ErrorCode           |= HAL_I2C_ERROR_TIMEOUT;
 80041c8:	68fb      	ldr	r3, [r7, #12]
 80041ca:	6c1b      	ldr	r3, [r3, #64]	@ 0x40
 80041cc:	f043 0220 	orr.w	r2, r3, #32
 80041d0:	68fb      	ldr	r3, [r7, #12]
 80041d2:	641a      	str	r2, [r3, #64]	@ 0x40

          /* Process Unlocked */
          __HAL_UNLOCK(hi2c);
 80041d4:	68fb      	ldr	r3, [r7, #12]
 80041d6:	2200      	movs	r2, #0
 80041d8:	f883 203c 	strb.w	r2, [r3, #60]	@ 0x3c

          return HAL_ERROR;
 80041dc:	2301      	movs	r3, #1
 80041de:	e021      	b.n	8004224 <I2C_WaitOnMasterAddressFlagUntilTimeout+0x138>
  while (__HAL_I2C_GET_FLAG(hi2c, Flag) == RESET)
 80041e0:	68bb      	ldr	r3, [r7, #8]
 80041e2:	0c1b      	lsrs	r3, r3, #16
 80041e4:	b2db      	uxtb	r3, r3
 80041e6:	2b01      	cmp	r3, #1
 80041e8:	d10c      	bne.n	8004204 <I2C_WaitOnMasterAddressFlagUntilTimeout+0x118>
 80041ea:	68fb      	ldr	r3, [r7, #12]
 80041ec:	681b      	ldr	r3, [r3, #0]
 80041ee:	695b      	ldr	r3, [r3, #20]
 80041f0:	43da      	mvns	r2, r3
 80041f2:	68bb      	ldr	r3, [r7, #8]
 80041f4:	4013      	ands	r3, r2
 80041f6:	b29b      	uxth	r3, r3
 80041f8:	2b00      	cmp	r3, #0
 80041fa:	bf14      	ite	ne
 80041fc:	2301      	movne	r3, #1
 80041fe:	2300      	moveq	r3, #0
 8004200:	b2db      	uxtb	r3, r3
 8004202:	e00b      	b.n	800421c <I2C_WaitOnMasterAddressFlagUntilTimeout+0x130>
 8004204:	68fb      	ldr	r3, [r7, #12]
 8004206:	681b      	ldr	r3, [r3, #0]
 8004208:	699b      	ldr	r3, [r3, #24]
 800420a:	43da      	mvns	r2, r3
 800420c:	68bb      	ldr	r3, [r7, #8]
 800420e:	4013      	ands	r3, r2
 8004210:	b29b      	uxth	r3, r3
 8004212:	2b00      	cmp	r3, #0
 8004214:	bf14      	ite	ne
 8004216:	2301      	movne	r3, #1
 8004218:	2300      	moveq	r3, #0
 800421a:	b2db      	uxtb	r3, r3
 800421c:	2b00      	cmp	r3, #0
 800421e:	f47f af6d 	bne.w	80040fc <I2C_WaitOnMasterAddressFlagUntilTimeout+0x10>
        }
      }
    }
  }
  return HAL_OK;
 8004222:	2300      	movs	r3, #0
}
 8004224:	4618      	mov	r0, r3
 8004226:	3710      	adds	r7, #16
 8004228:	46bd      	mov	sp, r7
 800422a:	bd80      	pop	{r7, pc}

0800422c <I2C_WaitOnTXEFlagUntilTimeout>:
  * @param  Timeout Timeout duration
  * @param  Tickstart Tick start value
  * @retval HAL status
  */
static HAL_StatusTypeDef I2C_WaitOnTXEFlagUntilTimeout(I2C_HandleTypeDef *hi2c, uint32_t Timeout, uint32_t Tickstart)
{
 800422c:	b580      	push	{r7, lr}
 800422e:	b084      	sub	sp, #16
 8004230:	af00      	add	r7, sp, #0
 8004232:	60f8      	str	r0, [r7, #12]
 8004234:	60b9      	str	r1, [r7, #8]
 8004236:	607a      	str	r2, [r7, #4]
  while (__HAL_I2C_GET_FLAG(hi2c, I2C_FLAG_TXE) == RESET)
 8004238:	e034      	b.n	80042a4 <I2C_WaitOnTXEFlagUntilTimeout+0x78>
  {
    /* Check if a NACK is detected */
    if (I2C_IsAcknowledgeFailed(hi2c) != HAL_OK)
 800423a:	68f8      	ldr	r0, [r7, #12]
 800423c:	f000 f8e3 	bl	8004406 <I2C_IsAcknowledgeFailed>
 8004240:	4603      	mov	r3, r0
 8004242:	2b00      	cmp	r3, #0
 8004244:	d001      	beq.n	800424a <I2C_WaitOnTXEFlagUntilTimeout+0x1e>
    {
      return HAL_ERROR;
 8004246:	2301      	movs	r3, #1
 8004248:	e034      	b.n	80042b4 <I2C_WaitOnTXEFlagUntilTimeout+0x88>
    }

    /* Check for the Timeout */
    if (Timeout != HAL_MAX_DELAY)
 800424a:	68bb      	ldr	r3, [r7, #8]
 800424c:	f1b3 3fff 	cmp.w	r3, #4294967295
 8004250:	d028      	beq.n	80042a4 <I2C_WaitOnTXEFlagUntilTimeout+0x78>
    {
      if (((HAL_GetTick() - Tickstart) > Timeout) || (Timeout == 0U))
 8004252:	f7fe fdf9 	bl	8002e48 <HAL_GetTick>
 8004256:	4602      	mov	r2, r0
 8004258:	687b      	ldr	r3, [r7, #4]
 800425a:	1ad3      	subs	r3, r2, r3
 800425c:	68ba      	ldr	r2, [r7, #8]
 800425e:	429a      	cmp	r2, r3
 8004260:	d302      	bcc.n	8004268 <I2C_WaitOnTXEFlagUntilTimeout+0x3c>
 8004262:	68bb      	ldr	r3, [r7, #8]
 8004264:	2b00      	cmp	r3, #0
 8004266:	d11d      	bne.n	80042a4 <I2C_WaitOnTXEFlagUntilTimeout+0x78>
      {
        if ((__HAL_I2C_GET_FLAG(hi2c, I2C_FLAG_TXE) == RESET))
 8004268:	68fb      	ldr	r3, [r7, #12]
 800426a:	681b      	ldr	r3, [r3, #0]
 800426c:	695b      	ldr	r3, [r3, #20]
 800426e:	f003 0380 	and.w	r3, r3, #128	@ 0x80
 8004272:	2b80      	cmp	r3, #128	@ 0x80
 8004274:	d016      	beq.n	80042a4 <I2C_WaitOnTXEFlagUntilTimeout+0x78>
        {
          hi2c->PreviousState       = I2C_STATE_NONE;
 8004276:	68fb      	ldr	r3, [r7, #12]
 8004278:	2200      	movs	r2, #0
 800427a:	631a      	str	r2, [r3, #48]	@ 0x30
          hi2c->State               = HAL_I2C_STATE_READY;
 800427c:	68fb      	ldr	r3, [r7, #12]
 800427e:	2220      	movs	r2, #32
 8004280:	f883 203d 	strb.w	r2, [r3, #61]	@ 0x3d
          hi2c->Mode                = HAL_I2C_MODE_NONE;
 8004284:	68fb      	ldr	r3, [r7, #12]
 8004286:	2200      	movs	r2, #0
 8004288:	f883 203e 	strb.w	r2, [r3, #62]	@ 0x3e
          hi2c->ErrorCode           |= HAL_I2C_ERROR_TIMEOUT;
 800428c:	68fb      	ldr	r3, [r7, #12]
 800428e:	6c1b      	ldr	r3, [r3, #64]	@ 0x40
 8004290:	f043 0220 	orr.w	r2, r3, #32
 8004294:	68fb      	ldr	r3, [r7, #12]
 8004296:	641a      	str	r2, [r3, #64]	@ 0x40

          /* Process Unlocked */
          __HAL_UNLOCK(hi2c);
 8004298:	68fb      	ldr	r3, [r7, #12]
 800429a:	2200      	movs	r2, #0
 800429c:	f883 203c 	strb.w	r2, [r3, #60]	@ 0x3c

          return HAL_ERROR;
 80042a0:	2301      	movs	r3, #1
 80042a2:	e007      	b.n	80042b4 <I2C_WaitOnTXEFlagUntilTimeout+0x88>
  while (__HAL_I2C_GET_FLAG(hi2c, I2C_FLAG_TXE) == RESET)
 80042a4:	68fb      	ldr	r3, [r7, #12]
 80042a6:	681b      	ldr	r3, [r3, #0]
 80042a8:	695b      	ldr	r3, [r3, #20]
 80042aa:	f003 0380 	and.w	r3, r3, #128	@ 0x80
 80042ae:	2b80      	cmp	r3, #128	@ 0x80
 80042b0:	d1c3      	bne.n	800423a <I2C_WaitOnTXEFlagUntilTimeout+0xe>
        }
      }
    }
  }
  return HAL_OK;
 80042b2:	2300      	movs	r3, #0
}
 80042b4:	4618      	mov	r0, r3
 80042b6:	3710      	adds	r7, #16
 80042b8:	46bd      	mov	sp, r7
 80042ba:	bd80      	pop	{r7, pc}

080042bc <I2C_WaitOnBTFFlagUntilTimeout>:
  * @param  Timeout Timeout duration
  * @param  Tickstart Tick start value
  * @retval HAL status
  */
static HAL_StatusTypeDef I2C_WaitOnBTFFlagUntilTimeout(I2C_HandleTypeDef *hi2c, uint32_t Timeout, uint32_t Tickstart)
{
 80042bc:	b580      	push	{r7, lr}
 80042be:	b084      	sub	sp, #16
 80042c0:	af00      	add	r7, sp, #0
 80042c2:	60f8      	str	r0, [r7, #12]
 80042c4:	60b9      	str	r1, [r7, #8]
 80042c6:	607a      	str	r2, [r7, #4]
  while (__HAL_I2C_GET_FLAG(hi2c, I2C_FLAG_BTF) == RESET)
 80042c8:	e034      	b.n	8004334 <I2C_WaitOnBTFFlagUntilTimeout+0x78>
  {
    /* Check if a NACK is detected */
    if (I2C_IsAcknowledgeFailed(hi2c) != HAL_OK)
 80042ca:	68f8      	ldr	r0, [r7, #12]
 80042cc:	f000 f89b 	bl	8004406 <I2C_IsAcknowledgeFailed>
 80042d0:	4603      	mov	r3, r0
 80042d2:	2b00      	cmp	r3, #0
 80042d4:	d001      	beq.n	80042da <I2C_WaitOnBTFFlagUntilTimeout+0x1e>
    {
      return HAL_ERROR;
 80042d6:	2301      	movs	r3, #1
 80042d8:	e034      	b.n	8004344 <I2C_WaitOnBTFFlagUntilTimeout+0x88>
    }

    /* Check for the Timeout */
    if (Timeout != HAL_MAX_DELAY)
 80042da:	68bb      	ldr	r3, [r7, #8]
 80042dc:	f1b3 3fff 	cmp.w	r3, #4294967295
 80042e0:	d028      	beq.n	8004334 <I2C_WaitOnBTFFlagUntilTimeout+0x78>
    {
      if (((HAL_GetTick() - Tickstart) > Timeout) || (Timeout == 0U))
 80042e2:	f7fe fdb1 	bl	8002e48 <HAL_GetTick>
 80042e6:	4602      	mov	r2, r0
 80042e8:	687b      	ldr	r3, [r7, #4]
 80042ea:	1ad3      	subs	r3, r2, r3
 80042ec:	68ba      	ldr	r2, [r7, #8]
 80042ee:	429a      	cmp	r2, r3
 80042f0:	d302      	bcc.n	80042f8 <I2C_WaitOnBTFFlagUntilTimeout+0x3c>
 80042f2:	68bb      	ldr	r3, [r7, #8]
 80042f4:	2b00      	cmp	r3, #0
 80042f6:	d11d      	bne.n	8004334 <I2C_WaitOnBTFFlagUntilTimeout+0x78>
      {
        if ((__HAL_I2C_GET_FLAG(hi2c, I2C_FLAG_BTF) == RESET))
 80042f8:	68fb      	ldr	r3, [r7, #12]
 80042fa:	681b      	ldr	r3, [r3, #0]
 80042fc:	695b      	ldr	r3, [r3, #20]
 80042fe:	f003 0304 	and.w	r3, r3, #4
 8004302:	2b04      	cmp	r3, #4
 8004304:	d016      	beq.n	8004334 <I2C_WaitOnBTFFlagUntilTimeout+0x78>
        {
          hi2c->PreviousState       = I2C_STATE_NONE;
 8004306:	68fb      	ldr	r3, [r7, #12]
 8004308:	2200      	movs	r2, #0
 800430a:	631a      	str	r2, [r3, #48]	@ 0x30
          hi2c->State               = HAL_I2C_STATE_READY;
 800430c:	68fb      	ldr	r3, [r7, #12]
 800430e:	2220      	movs	r2, #32
 8004310:	f883 203d 	strb.w	r2, [r3, #61]	@ 0x3d
          hi2c->Mode                = HAL_I2C_MODE_NONE;
 8004314:	68fb      	ldr	r3, [r7, #12]
 8004316:	2200      	movs	r2, #0
 8004318:	f883 203e 	strb.w	r2, [r3, #62]	@ 0x3e
          hi2c->ErrorCode           |= HAL_I2C_ERROR_TIMEOUT;
 800431c:	68fb      	ldr	r3, [r7, #12]
 800431e:	6c1b      	ldr	r3, [r3, #64]	@ 0x40
 8004320:	f043 0220 	orr.w	r2, r3, #32
 8004324:	68fb      	ldr	r3, [r7, #12]
 8004326:	641a      	str	r2, [r3, #64]	@ 0x40

          /* Process Unlocked */
          __HAL_UNLOCK(hi2c);
 8004328:	68fb      	ldr	r3, [r7, #12]
 800432a:	2200      	movs	r2, #0
 800432c:	f883 203c 	strb.w	r2, [r3, #60]	@ 0x3c

          return HAL_ERROR;
 8004330:	2301      	movs	r3, #1
 8004332:	e007      	b.n	8004344 <I2C_WaitOnBTFFlagUntilTimeout+0x88>
  while (__HAL_I2C_GET_FLAG(hi2c, I2C_FLAG_BTF) == RESET)
 8004334:	68fb      	ldr	r3, [r7, #12]
 8004336:	681b      	ldr	r3, [r3, #0]
 8004338:	695b      	ldr	r3, [r3, #20]
 800433a:	f003 0304 	and.w	r3, r3, #4
 800433e:	2b04      	cmp	r3, #4
 8004340:	d1c3      	bne.n	80042ca <I2C_WaitOnBTFFlagUntilTimeout+0xe>
        }
      }
    }
  }
  return HAL_OK;
 8004342:	2300      	movs	r3, #0
}
 8004344:	4618      	mov	r0, r3
 8004346:	3710      	adds	r7, #16
 8004348:	46bd      	mov	sp, r7
 800434a:	bd80      	pop	{r7, pc}

0800434c <I2C_WaitOnRXNEFlagUntilTimeout>:
  * @param  Timeout Timeout duration
  * @param  Tickstart Tick start value
  * @retval HAL status
  */
static HAL_StatusTypeDef I2C_WaitOnRXNEFlagUntilTimeout(I2C_HandleTypeDef *hi2c, uint32_t Timeout, uint32_t Tickstart)
{
 800434c:	b580      	push	{r7, lr}
 800434e:	b084      	sub	sp, #16
 8004350:	af00      	add	r7, sp, #0
 8004352:	60f8      	str	r0, [r7, #12]
 8004354:	60b9      	str	r1, [r7, #8]
 8004356:	607a      	str	r2, [r7, #4]

  while (__HAL_I2C_GET_FLAG(hi2c, I2C_FLAG_RXNE) == RESET)
 8004358:	e049      	b.n	80043ee <I2C_WaitOnRXNEFlagUntilTimeout+0xa2>
  {
    /* Check if a STOPF is detected */
    if (__HAL_I2C_GET_FLAG(hi2c, I2C_FLAG_STOPF) == SET)
 800435a:	68fb      	ldr	r3, [r7, #12]
 800435c:	681b      	ldr	r3, [r3, #0]
 800435e:	695b      	ldr	r3, [r3, #20]
 8004360:	f003 0310 	and.w	r3, r3, #16
 8004364:	2b10      	cmp	r3, #16
 8004366:	d119      	bne.n	800439c <I2C_WaitOnRXNEFlagUntilTimeout+0x50>
    {
      /* Clear STOP Flag */
      __HAL_I2C_CLEAR_FLAG(hi2c, I2C_FLAG_STOPF);
 8004368:	68fb      	ldr	r3, [r7, #12]
 800436a:	681b      	ldr	r3, [r3, #0]
 800436c:	f06f 0210 	mvn.w	r2, #16
 8004370:	615a      	str	r2, [r3, #20]

      hi2c->PreviousState       = I2C_STATE_NONE;
 8004372:	68fb      	ldr	r3, [r7, #12]
 8004374:	2200      	movs	r2, #0
 8004376:	631a      	str	r2, [r3, #48]	@ 0x30
      hi2c->State               = HAL_I2C_STATE_READY;
 8004378:	68fb      	ldr	r3, [r7, #12]
 800437a:	2220      	movs	r2, #32
 800437c:	f883 203d 	strb.w	r2, [r3, #61]	@ 0x3d
      hi2c->Mode                = HAL_I2C_MODE_NONE;
 8004380:	68fb      	ldr	r3, [r7, #12]
 8004382:	2200      	movs	r2, #0
 8004384:	f883 203e 	strb.w	r2, [r3, #62]	@ 0x3e
      hi2c->ErrorCode           |= HAL_I2C_ERROR_NONE;
 8004388:	68fb      	ldr	r3, [r7, #12]
 800438a:	6c1a      	ldr	r2, [r3, #64]	@ 0x40
 800438c:	68fb      	ldr	r3, [r7, #12]
 800438e:	641a      	str	r2, [r3, #64]	@ 0x40

      /* Process Unlocked */
      __HAL_UNLOCK(hi2c);
 8004390:	68fb      	ldr	r3, [r7, #12]
 8004392:	2200      	movs	r2, #0
 8004394:	f883 203c 	strb.w	r2, [r3, #60]	@ 0x3c

      return HAL_ERROR;
 8004398:	2301      	movs	r3, #1
 800439a:	e030      	b.n	80043fe <I2C_WaitOnRXNEFlagUntilTimeout+0xb2>
    }

    /* Check for the Timeout */
    if (((HAL_GetTick() - Tickstart) > Timeout) || (Timeout == 0U))
 800439c:	f7fe fd54 	bl	8002e48 <HAL_GetTick>
 80043a0:	4602      	mov	r2, r0
 80043a2:	687b      	ldr	r3, [r7, #4]
 80043a4:	1ad3      	subs	r3, r2, r3
 80043a6:	68ba      	ldr	r2, [r7, #8]
 80043a8:	429a      	cmp	r2, r3
 80043aa:	d302      	bcc.n	80043b2 <I2C_WaitOnRXNEFlagUntilTimeout+0x66>
 80043ac:	68bb      	ldr	r3, [r7, #8]
 80043ae:	2b00      	cmp	r3, #0
 80043b0:	d11d      	bne.n	80043ee <I2C_WaitOnRXNEFlagUntilTimeout+0xa2>
    {
      if ((__HAL_I2C_GET_FLAG(hi2c, I2C_FLAG_RXNE) == RESET))
 80043b2:	68fb      	ldr	r3, [r7, #12]
 80043b4:	681b      	ldr	r3, [r3, #0]
 80043b6:	695b      	ldr	r3, [r3, #20]
 80043b8:	f003 0340 	and.w	r3, r3, #64	@ 0x40
 80043bc:	2b40      	cmp	r3, #64	@ 0x40
 80043be:	d016      	beq.n	80043ee <I2C_WaitOnRXNEFlagUntilTimeout+0xa2>
      {
        hi2c->PreviousState       = I2C_STATE_NONE;
 80043c0:	68fb      	ldr	r3, [r7, #12]
 80043c2:	2200      	movs	r2, #0
 80043c4:	631a      	str	r2, [r3, #48]	@ 0x30
        hi2c->State               = HAL_I2C_STATE_READY;
 80043c6:	68fb      	ldr	r3, [r7, #12]
 80043c8:	2220      	movs	r2, #32
 80043ca:	f883 203d 	strb.w	r2, [r3, #61]	@ 0x3d
        hi2c->Mode                = HAL_I2C_MODE_NONE;
 80043ce:	68fb      	ldr	r3, [r7, #12]
 80043d0:	2200      	movs	r2, #0
 80043d2:	f883 203e 	strb.w	r2, [r3, #62]	@ 0x3e
        hi2c->ErrorCode           |= HAL_I2C_ERROR_TIMEOUT;
 80043d6:	68fb      	ldr	r3, [r7, #12]
 80043d8:	6c1b      	ldr	r3, [r3, #64]	@ 0x40
 80043da:	f043 0220 	orr.w	r2, r3, #32
 80043de:	68fb      	ldr	r3, [r7, #12]
 80043e0:	641a      	str	r2, [r3, #64]	@ 0x40

        /* Process Unlocked */
        __HAL_UNLOCK(hi2c);
 80043e2:	68fb      	ldr	r3, [r7, #12]
 80043e4:	2200      	movs	r2, #0
 80043e6:	f883 203c 	strb.w	r2, [r3, #60]	@ 0x3c

        return HAL_ERROR;
 80043ea:	2301      	movs	r3, #1
 80043ec:	e007      	b.n	80043fe <I2C_WaitOnRXNEFlagUntilTimeout+0xb2>
  while (__HAL_I2C_GET_FLAG(hi2c, I2C_FLAG_RXNE) == RESET)
 80043ee:	68fb      	ldr	r3, [r7, #12]
 80043f0:	681b      	ldr	r3, [r3, #0]
 80043f2:	695b      	ldr	r3, [r3, #20]
 80043f4:	f003 0340 	and.w	r3, r3, #64	@ 0x40
 80043f8:	2b40      	cmp	r3, #64	@ 0x40
 80043fa:	d1ae      	bne.n	800435a <I2C_WaitOnRXNEFlagUntilTimeout+0xe>
      }
    }
  }
  return HAL_OK;
 80043fc:	2300      	movs	r3, #0
}
 80043fe:	4618      	mov	r0, r3
 8004400:	3710      	adds	r7, #16
 8004402:	46bd      	mov	sp, r7
 8004404:	bd80      	pop	{r7, pc}

08004406 <I2C_IsAcknowledgeFailed>:
  * @param  hi2c Pointer to a I2C_HandleTypeDef structure that contains
  *                the configuration information for the specified I2C.
  * @retval HAL status
  */
static HAL_StatusTypeDef I2C_IsAcknowledgeFailed(I2C_HandleTypeDef *hi2c)
{
 8004406:	b480      	push	{r7}
 8004408:	b083      	sub	sp, #12
 800440a:	af00      	add	r7, sp, #0
 800440c:	6078      	str	r0, [r7, #4]
  if (__HAL_I2C_GET_FLAG(hi2c, I2C_FLAG_AF) == SET)
 800440e:	687b      	ldr	r3, [r7, #4]
 8004410:	681b      	ldr	r3, [r3, #0]
 8004412:	695b      	ldr	r3, [r3, #20]
 8004414:	f403 6380 	and.w	r3, r3, #1024	@ 0x400
 8004418:	f5b3 6f80 	cmp.w	r3, #1024	@ 0x400
 800441c:	d11b      	bne.n	8004456 <I2C_IsAcknowledgeFailed+0x50>
  {
    /* Clear NACKF Flag */
    __HAL_I2C_CLEAR_FLAG(hi2c, I2C_FLAG_AF);
 800441e:	687b      	ldr	r3, [r7, #4]
 8004420:	681b      	ldr	r3, [r3, #0]
 8004422:	f46f 6280 	mvn.w	r2, #1024	@ 0x400
 8004426:	615a      	str	r2, [r3, #20]

    hi2c->PreviousState       = I2C_STATE_NONE;
 8004428:	687b      	ldr	r3, [r7, #4]
 800442a:	2200      	movs	r2, #0
 800442c:	631a      	str	r2, [r3, #48]	@ 0x30
    hi2c->State               = HAL_I2C_STATE_READY;
 800442e:	687b      	ldr	r3, [r7, #4]
 8004430:	2220      	movs	r2, #32
 8004432:	f883 203d 	strb.w	r2, [r3, #61]	@ 0x3d
    hi2c->Mode                = HAL_I2C_MODE_NONE;
 8004436:	687b      	ldr	r3, [r7, #4]
 8004438:	2200      	movs	r2, #0
 800443a:	f883 203e 	strb.w	r2, [r3, #62]	@ 0x3e
    hi2c->ErrorCode           |= HAL_I2C_ERROR_AF;
 800443e:	687b      	ldr	r3, [r7, #4]
 8004440:	6c1b      	ldr	r3, [r3, #64]	@ 0x40
 8004442:	f043 0204 	orr.w	r2, r3, #4
 8004446:	687b      	ldr	r3, [r7, #4]
 8004448:	641a      	str	r2, [r3, #64]	@ 0x40

    /* Process Unlocked */
    __HAL_UNLOCK(hi2c);
 800444a:	687b      	ldr	r3, [r7, #4]
 800444c:	2200      	movs	r2, #0
 800444e:	f883 203c 	strb.w	r2, [r3, #60]	@ 0x3c

    return HAL_ERROR;
 8004452:	2301      	movs	r3, #1
 8004454:	e000      	b.n	8004458 <I2C_IsAcknowledgeFailed+0x52>
  }
  return HAL_OK;
 8004456:	2300      	movs	r3, #0
}
 8004458:	4618      	mov	r0, r3
 800445a:	370c      	adds	r7, #12
 800445c:	46bd      	mov	sp, r7
 800445e:	bc80      	pop	{r7}
 8004460:	4770      	bx	lr
	...

08004464 <HAL_RCC_OscConfig>:
  *         supported by this macro. User should request a transition to HSE Off
  *         first and then HSE On or HSE Bypass.
  * @retval HAL status
  */
HAL_StatusTypeDef HAL_RCC_OscConfig(RCC_OscInitTypeDef  *RCC_OscInitStruct)
{
 8004464:	b580      	push	{r7, lr}
 8004466:	b086      	sub	sp, #24
 8004468:	af00      	add	r7, sp, #0
 800446a:	6078      	str	r0, [r7, #4]
  uint32_t tickstart;
  uint32_t pll_config;

  /* Check Null pointer */
  if (RCC_OscInitStruct == NULL)
 800446c:	687b      	ldr	r3, [r7, #4]
 800446e:	2b00      	cmp	r3, #0
 8004470:	d101      	bne.n	8004476 <HAL_RCC_OscConfig+0x12>
  {
    return HAL_ERROR;
 8004472:	2301      	movs	r3, #1
 8004474:	e272      	b.n	800495c <HAL_RCC_OscConfig+0x4f8>

  /* Check the parameters */
  assert_param(IS_RCC_OSCILLATORTYPE(RCC_OscInitStruct->OscillatorType));

  /*------------------------------- HSE Configuration ------------------------*/
  if (((RCC_OscInitStruct->OscillatorType) & RCC_OSCILLATORTYPE_HSE) == RCC_OSCILLATORTYPE_HSE)
 8004476:	687b      	ldr	r3, [r7, #4]
 8004478:	681b      	ldr	r3, [r3, #0]
 800447a:	f003 0301 	and.w	r3, r3, #1
 800447e:	2b00      	cmp	r3, #0
 8004480:	f000 8087 	beq.w	8004592 <HAL_RCC_OscConfig+0x12e>
  {
    /* Check the parameters */
    assert_param(IS_RCC_HSE(RCC_OscInitStruct->HSEState));

    /* When the HSE is used as system clock or clock source for PLL in these cases it is not allowed to be disabled */
    if ((__HAL_RCC_GET_SYSCLK_SOURCE() == RCC_SYSCLKSOURCE_STATUS_HSE)
 8004484:	4b92      	ldr	r3, [pc, #584]	@ (80046d0 <HAL_RCC_OscConfig+0x26c>)
 8004486:	685b      	ldr	r3, [r3, #4]
 8004488:	f003 030c 	and.w	r3, r3, #12
 800448c:	2b04      	cmp	r3, #4
 800448e:	d00c      	beq.n	80044aa <HAL_RCC_OscConfig+0x46>
        || ((__HAL_RCC_GET_SYSCLK_SOURCE() == RCC_SYSCLKSOURCE_STATUS_PLLCLK) && (__HAL_RCC_GET_PLL_OSCSOURCE() == RCC_PLLSOURCE_HSE)))
 8004490:	4b8f      	ldr	r3, [pc, #572]	@ (80046d0 <HAL_RCC_OscConfig+0x26c>)
 8004492:	685b      	ldr	r3, [r3, #4]
 8004494:	f003 030c 	and.w	r3, r3, #12
 8004498:	2b08      	cmp	r3, #8
 800449a:	d112      	bne.n	80044c2 <HAL_RCC_OscConfig+0x5e>
 800449c:	4b8c      	ldr	r3, [pc, #560]	@ (80046d0 <HAL_RCC_OscConfig+0x26c>)
 800449e:	685b      	ldr	r3, [r3, #4]
 80044a0:	f403 3380 	and.w	r3, r3, #65536	@ 0x10000
 80044a4:	f5b3 3f80 	cmp.w	r3, #65536	@ 0x10000
 80044a8:	d10b      	bne.n	80044c2 <HAL_RCC_OscConfig+0x5e>
    {
      if ((__HAL_RCC_GET_FLAG(RCC_FLAG_HSERDY) != RESET) && (RCC_OscInitStruct->HSEState == RCC_HSE_OFF))
 80044aa:	4b89      	ldr	r3, [pc, #548]	@ (80046d0 <HAL_RCC_OscConfig+0x26c>)
 80044ac:	681b      	ldr	r3, [r3, #0]
 80044ae:	f403 3300 	and.w	r3, r3, #131072	@ 0x20000
 80044b2:	2b00      	cmp	r3, #0
 80044b4:	d06c      	beq.n	8004590 <HAL_RCC_OscConfig+0x12c>
 80044b6:	687b      	ldr	r3, [r7, #4]
 80044b8:	685b      	ldr	r3, [r3, #4]
 80044ba:	2b00      	cmp	r3, #0
 80044bc:	d168      	bne.n	8004590 <HAL_RCC_OscConfig+0x12c>
      {
        return HAL_ERROR;
 80044be:	2301      	movs	r3, #1
 80044c0:	e24c      	b.n	800495c <HAL_RCC_OscConfig+0x4f8>
      }
    }
    else
    {
      /* Set the new HSE configuration ---------------------------------------*/
      __HAL_RCC_HSE_CONFIG(RCC_OscInitStruct->HSEState);
 80044c2:	687b      	ldr	r3, [r7, #4]
 80044c4:	685b      	ldr	r3, [r3, #4]
 80044c6:	f5b3 3f80 	cmp.w	r3, #65536	@ 0x10000
 80044ca:	d106      	bne.n	80044da <HAL_RCC_OscConfig+0x76>
 80044cc:	4b80      	ldr	r3, [pc, #512]	@ (80046d0 <HAL_RCC_OscConfig+0x26c>)
 80044ce:	681b      	ldr	r3, [r3, #0]
 80044d0:	4a7f      	ldr	r2, [pc, #508]	@ (80046d0 <HAL_RCC_OscConfig+0x26c>)
 80044d2:	f443 3380 	orr.w	r3, r3, #65536	@ 0x10000
 80044d6:	6013      	str	r3, [r2, #0]
 80044d8:	e02e      	b.n	8004538 <HAL_RCC_OscConfig+0xd4>
 80044da:	687b      	ldr	r3, [r7, #4]
 80044dc:	685b      	ldr	r3, [r3, #4]
 80044de:	2b00      	cmp	r3, #0
 80044e0:	d10c      	bne.n	80044fc <HAL_RCC_OscConfig+0x98>
 80044e2:	4b7b      	ldr	r3, [pc, #492]	@ (80046d0 <HAL_RCC_OscConfig+0x26c>)
 80044e4:	681b      	ldr	r3, [r3, #0]
 80044e6:	4a7a      	ldr	r2, [pc, #488]	@ (80046d0 <HAL_RCC_OscConfig+0x26c>)
 80044e8:	f423 3380 	bic.w	r3, r3, #65536	@ 0x10000
 80044ec:	6013      	str	r3, [r2, #0]
 80044ee:	4b78      	ldr	r3, [pc, #480]	@ (80046d0 <HAL_RCC_OscConfig+0x26c>)
 80044f0:	681b      	ldr	r3, [r3, #0]
 80044f2:	4a77      	ldr	r2, [pc, #476]	@ (80046d0 <HAL_RCC_OscConfig+0x26c>)
 80044f4:	f423 2380 	bic.w	r3, r3, #262144	@ 0x40000
 80044f8:	6013      	str	r3, [r2, #0]
 80044fa:	e01d      	b.n	8004538 <HAL_RCC_OscConfig+0xd4>
 80044fc:	687b      	ldr	r3, [r7, #4]
 80044fe:	685b      	ldr	r3, [r3, #4]
 8004500:	f5b3 2fa0 	cmp.w	r3, #327680	@ 0x50000
 8004504:	d10c      	bne.n	8004520 <HAL_RCC_OscConfig+0xbc>
 8004506:	4b72      	ldr	r3, [pc, #456]	@ (80046d0 <HAL_RCC_OscConfig+0x26c>)
 8004508:	681b      	ldr	r3, [r3, #0]
 800450a:	4a71      	ldr	r2, [pc, #452]	@ (80046d0 <HAL_RCC_OscConfig+0x26c>)
 800450c:	f443 2380 	orr.w	r3, r3, #262144	@ 0x40000
 8004510:	6013      	str	r3, [r2, #0]
 8004512:	4b6f      	ldr	r3, [pc, #444]	@ (80046d0 <HAL_RCC_OscConfig+0x26c>)
 8004514:	681b      	ldr	r3, [r3, #0]
 8004516:	4a6e      	ldr	r2, [pc, #440]	@ (80046d0 <HAL_RCC_OscConfig+0x26c>)
 8004518:	f443 3380 	orr.w	r3, r3, #65536	@ 0x10000
 800451c:	6013      	str	r3, [r2, #0]
 800451e:	e00b      	b.n	8004538 <HAL_RCC_OscConfig+0xd4>
 8004520:	4b6b      	ldr	r3, [pc, #428]	@ (80046d0 <HAL_RCC_OscConfig+0x26c>)
 8004522:	681b      	ldr	r3, [r3, #0]
 8004524:	4a6a      	ldr	r2, [pc, #424]	@ (80046d0 <HAL_RCC_OscConfig+0x26c>)
 8004526:	f423 3380 	bic.w	r3, r3, #65536	@ 0x10000
 800452a:	6013      	str	r3, [r2, #0]
 800452c:	4b68      	ldr	r3, [pc, #416]	@ (80046d0 <HAL_RCC_OscConfig+0x26c>)
 800452e:	681b      	ldr	r3, [r3, #0]
 8004530:	4a67      	ldr	r2, [pc, #412]	@ (80046d0 <HAL_RCC_OscConfig+0x26c>)
 8004532:	f423 2380 	bic.w	r3, r3, #262144	@ 0x40000
 8004536:	6013      	str	r3, [r2, #0]


      /* Check the HSE State */
      if (RCC_OscInitStruct->HSEState != RCC_HSE_OFF)
 8004538:	687b      	ldr	r3, [r7, #4]
 800453a:	685b      	ldr	r3, [r3, #4]
 800453c:	2b00      	cmp	r3, #0
 800453e:	d013      	beq.n	8004568 <HAL_RCC_OscConfig+0x104>
      {
        /* Get Start Tick */
        tickstart = HAL_GetTick();
 8004540:	f7fe fc82 	bl	8002e48 <HAL_GetTick>
 8004544:	6138      	str	r0, [r7, #16]

        /* Wait till HSE is ready */
        while (__HAL_RCC_GET_FLAG(RCC_FLAG_HSERDY) == RESET)
 8004546:	e008      	b.n	800455a <HAL_RCC_OscConfig+0xf6>
        {
          if ((HAL_GetTick() - tickstart) > HSE_TIMEOUT_VALUE)
 8004548:	f7fe fc7e 	bl	8002e48 <HAL_GetTick>
 800454c:	4602      	mov	r2, r0
 800454e:	693b      	ldr	r3, [r7, #16]
 8004550:	1ad3      	subs	r3, r2, r3
 8004552:	2b64      	cmp	r3, #100	@ 0x64
 8004554:	d901      	bls.n	800455a <HAL_RCC_OscConfig+0xf6>
          {
            return HAL_TIMEOUT;
 8004556:	2303      	movs	r3, #3
 8004558:	e200      	b.n	800495c <HAL_RCC_OscConfig+0x4f8>
        while (__HAL_RCC_GET_FLAG(RCC_FLAG_HSERDY) == RESET)
 800455a:	4b5d      	ldr	r3, [pc, #372]	@ (80046d0 <HAL_RCC_OscConfig+0x26c>)
 800455c:	681b      	ldr	r3, [r3, #0]
 800455e:	f403 3300 	and.w	r3, r3, #131072	@ 0x20000
 8004562:	2b00      	cmp	r3, #0
 8004564:	d0f0      	beq.n	8004548 <HAL_RCC_OscConfig+0xe4>
 8004566:	e014      	b.n	8004592 <HAL_RCC_OscConfig+0x12e>
        }
      }
      else
      {
        /* Get Start Tick */
        tickstart = HAL_GetTick();
 8004568:	f7fe fc6e 	bl	8002e48 <HAL_GetTick>
 800456c:	6138      	str	r0, [r7, #16]

        /* Wait till HSE is disabled */
        while (__HAL_RCC_GET_FLAG(RCC_FLAG_HSERDY) != RESET)
 800456e:	e008      	b.n	8004582 <HAL_RCC_OscConfig+0x11e>
        {
          if ((HAL_GetTick() - tickstart) > HSE_TIMEOUT_VALUE)
 8004570:	f7fe fc6a 	bl	8002e48 <HAL_GetTick>
 8004574:	4602      	mov	r2, r0
 8004576:	693b      	ldr	r3, [r7, #16]
 8004578:	1ad3      	subs	r3, r2, r3
 800457a:	2b64      	cmp	r3, #100	@ 0x64
 800457c:	d901      	bls.n	8004582 <HAL_RCC_OscConfig+0x11e>
          {
            return HAL_TIMEOUT;
 800457e:	2303      	movs	r3, #3
 8004580:	e1ec      	b.n	800495c <HAL_RCC_OscConfig+0x4f8>
        while (__HAL_RCC_GET_FLAG(RCC_FLAG_HSERDY) != RESET)
 8004582:	4b53      	ldr	r3, [pc, #332]	@ (80046d0 <HAL_RCC_OscConfig+0x26c>)
 8004584:	681b      	ldr	r3, [r3, #0]
 8004586:	f403 3300 	and.w	r3, r3, #131072	@ 0x20000
 800458a:	2b00      	cmp	r3, #0
 800458c:	d1f0      	bne.n	8004570 <HAL_RCC_OscConfig+0x10c>
 800458e:	e000      	b.n	8004592 <HAL_RCC_OscConfig+0x12e>
      if ((__HAL_RCC_GET_FLAG(RCC_FLAG_HSERDY) != RESET) && (RCC_OscInitStruct->HSEState == RCC_HSE_OFF))
 8004590:	bf00      	nop
        }
      }
    }
  }
  /*----------------------------- HSI Configuration --------------------------*/
  if (((RCC_OscInitStruct->OscillatorType) & RCC_OSCILLATORTYPE_HSI) == RCC_OSCILLATORTYPE_HSI)
 8004592:	687b      	ldr	r3, [r7, #4]
 8004594:	681b      	ldr	r3, [r3, #0]
 8004596:	f003 0302 	and.w	r3, r3, #2
 800459a:	2b00      	cmp	r3, #0
 800459c:	d063      	beq.n	8004666 <HAL_RCC_OscConfig+0x202>
    /* Check the parameters */
    assert_param(IS_RCC_HSI(RCC_OscInitStruct->HSIState));
    assert_param(IS_RCC_CALIBRATION_VALUE(RCC_OscInitStruct->HSICalibrationValue));

    /* Check if HSI is used as system clock or as PLL source when PLL is selected as system clock */
    if ((__HAL_RCC_GET_SYSCLK_SOURCE() == RCC_SYSCLKSOURCE_STATUS_HSI)
 800459e:	4b4c      	ldr	r3, [pc, #304]	@ (80046d0 <HAL_RCC_OscConfig+0x26c>)
 80045a0:	685b      	ldr	r3, [r3, #4]
 80045a2:	f003 030c 	and.w	r3, r3, #12
 80045a6:	2b00      	cmp	r3, #0
 80045a8:	d00b      	beq.n	80045c2 <HAL_RCC_OscConfig+0x15e>
        || ((__HAL_RCC_GET_SYSCLK_SOURCE() == RCC_SYSCLKSOURCE_STATUS_PLLCLK) && (__HAL_RCC_GET_PLL_OSCSOURCE() == RCC_PLLSOURCE_HSI_DIV2)))
 80045aa:	4b49      	ldr	r3, [pc, #292]	@ (80046d0 <HAL_RCC_OscConfig+0x26c>)
 80045ac:	685b      	ldr	r3, [r3, #4]
 80045ae:	f003 030c 	and.w	r3, r3, #12
 80045b2:	2b08      	cmp	r3, #8
 80045b4:	d11c      	bne.n	80045f0 <HAL_RCC_OscConfig+0x18c>
 80045b6:	4b46      	ldr	r3, [pc, #280]	@ (80046d0 <HAL_RCC_OscConfig+0x26c>)
 80045b8:	685b      	ldr	r3, [r3, #4]
 80045ba:	f403 3380 	and.w	r3, r3, #65536	@ 0x10000
 80045be:	2b00      	cmp	r3, #0
 80045c0:	d116      	bne.n	80045f0 <HAL_RCC_OscConfig+0x18c>
    {
      /* When HSI is used as system clock it will not disabled */
      if ((__HAL_RCC_GET_FLAG(RCC_FLAG_HSIRDY) != RESET) && (RCC_OscInitStruct->HSIState != RCC_HSI_ON))
 80045c2:	4b43      	ldr	r3, [pc, #268]	@ (80046d0 <HAL_RCC_OscConfig+0x26c>)
 80045c4:	681b      	ldr	r3, [r3, #0]
 80045c6:	f003 0302 	and.w	r3, r3, #2
 80045ca:	2b00      	cmp	r3, #0
 80045cc:	d005      	beq.n	80045da <HAL_RCC_OscConfig+0x176>
 80045ce:	687b      	ldr	r3, [r7, #4]
 80045d0:	691b      	ldr	r3, [r3, #16]
 80045d2:	2b01      	cmp	r3, #1
 80045d4:	d001      	beq.n	80045da <HAL_RCC_OscConfig+0x176>
      {
        return HAL_ERROR;
 80045d6:	2301      	movs	r3, #1
 80045d8:	e1c0      	b.n	800495c <HAL_RCC_OscConfig+0x4f8>
      }
      /* Otherwise, just the calibration is allowed */
      else
      {
        /* Adjusts the Internal High Speed oscillator (HSI) calibration value.*/
        __HAL_RCC_HSI_CALIBRATIONVALUE_ADJUST(RCC_OscInitStruct->HSICalibrationValue);
 80045da:	4b3d      	ldr	r3, [pc, #244]	@ (80046d0 <HAL_RCC_OscConfig+0x26c>)
 80045dc:	681b      	ldr	r3, [r3, #0]
 80045de:	f023 02f8 	bic.w	r2, r3, #248	@ 0xf8
 80045e2:	687b      	ldr	r3, [r7, #4]
 80045e4:	695b      	ldr	r3, [r3, #20]
 80045e6:	00db      	lsls	r3, r3, #3
 80045e8:	4939      	ldr	r1, [pc, #228]	@ (80046d0 <HAL_RCC_OscConfig+0x26c>)
 80045ea:	4313      	orrs	r3, r2
 80045ec:	600b      	str	r3, [r1, #0]
      if ((__HAL_RCC_GET_FLAG(RCC_FLAG_HSIRDY) != RESET) && (RCC_OscInitStruct->HSIState != RCC_HSI_ON))
 80045ee:	e03a      	b.n	8004666 <HAL_RCC_OscConfig+0x202>
      }
    }
    else
    {
      /* Check the HSI State */
      if (RCC_OscInitStruct->HSIState != RCC_HSI_OFF)
 80045f0:	687b      	ldr	r3, [r7, #4]
 80045f2:	691b      	ldr	r3, [r3, #16]
 80045f4:	2b00      	cmp	r3, #0
 80045f6:	d020      	beq.n	800463a <HAL_RCC_OscConfig+0x1d6>
      {
        /* Enable the Internal High Speed oscillator (HSI). */
        __HAL_RCC_HSI_ENABLE();
 80045f8:	4b36      	ldr	r3, [pc, #216]	@ (80046d4 <HAL_RCC_OscConfig+0x270>)
 80045fa:	2201      	movs	r2, #1
 80045fc:	601a      	str	r2, [r3, #0]

        /* Get Start Tick */
        tickstart = HAL_GetTick();
 80045fe:	f7fe fc23 	bl	8002e48 <HAL_GetTick>
 8004602:	6138      	str	r0, [r7, #16]

        /* Wait till HSI is ready */
        while (__HAL_RCC_GET_FLAG(RCC_FLAG_HSIRDY) == RESET)
 8004604:	e008      	b.n	8004618 <HAL_RCC_OscConfig+0x1b4>
        {
          if ((HAL_GetTick() - tickstart) > HSI_TIMEOUT_VALUE)
 8004606:	f7fe fc1f 	bl	8002e48 <HAL_GetTick>
 800460a:	4602      	mov	r2, r0
 800460c:	693b      	ldr	r3, [r7, #16]
 800460e:	1ad3      	subs	r3, r2, r3
 8004610:	2b02      	cmp	r3, #2
 8004612:	d901      	bls.n	8004618 <HAL_RCC_OscConfig+0x1b4>
          {
            return HAL_TIMEOUT;
 8004614:	2303      	movs	r3, #3
 8004616:	e1a1      	b.n	800495c <HAL_RCC_OscConfig+0x4f8>
        while (__HAL_RCC_GET_FLAG(RCC_FLAG_HSIRDY) == RESET)
 8004618:	4b2d      	ldr	r3, [pc, #180]	@ (80046d0 <HAL_RCC_OscConfig+0x26c>)
 800461a:	681b      	ldr	r3, [r3, #0]
 800461c:	f003 0302 	and.w	r3, r3, #2
 8004620:	2b00      	cmp	r3, #0
 8004622:	d0f0      	beq.n	8004606 <HAL_RCC_OscConfig+0x1a2>
          }
        }

        /* Adjusts the Internal High Speed oscillator (HSI) calibration value.*/
        __HAL_RCC_HSI_CALIBRATIONVALUE_ADJUST(RCC_OscInitStruct->HSICalibrationValue);
 8004624:	4b2a      	ldr	r3, [pc, #168]	@ (80046d0 <HAL_RCC_OscConfig+0x26c>)
 8004626:	681b      	ldr	r3, [r3, #0]
 8004628:	f023 02f8 	bic.w	r2, r3, #248	@ 0xf8
 800462c:	687b      	ldr	r3, [r7, #4]
 800462e:	695b      	ldr	r3, [r3, #20]
 8004630:	00db      	lsls	r3, r3, #3
 8004632:	4927      	ldr	r1, [pc, #156]	@ (80046d0 <HAL_RCC_OscConfig+0x26c>)
 8004634:	4313      	orrs	r3, r2
 8004636:	600b      	str	r3, [r1, #0]
 8004638:	e015      	b.n	8004666 <HAL_RCC_OscConfig+0x202>
      }
      else
      {
        /* Disable the Internal High Speed oscillator (HSI). */
        __HAL_RCC_HSI_DISABLE();
 800463a:	4b26      	ldr	r3, [pc, #152]	@ (80046d4 <HAL_RCC_OscConfig+0x270>)
 800463c:	2200      	movs	r2, #0
 800463e:	601a      	str	r2, [r3, #0]

        /* Get Start Tick */
        tickstart = HAL_GetTick();
 8004640:	f7fe fc02 	bl	8002e48 <HAL_GetTick>
 8004644:	6138      	str	r0, [r7, #16]

        /* Wait till HSI is disabled */
        while (__HAL_RCC_GET_FLAG(RCC_FLAG_HSIRDY) != RESET)
 8004646:	e008      	b.n	800465a <HAL_RCC_OscConfig+0x1f6>
        {
          if ((HAL_GetTick() - tickstart) > HSI_TIMEOUT_VALUE)
 8004648:	f7fe fbfe 	bl	8002e48 <HAL_GetTick>
 800464c:	4602      	mov	r2, r0
 800464e:	693b      	ldr	r3, [r7, #16]
 8004650:	1ad3      	subs	r3, r2, r3
 8004652:	2b02      	cmp	r3, #2
 8004654:	d901      	bls.n	800465a <HAL_RCC_OscConfig+0x1f6>
          {
            return HAL_TIMEOUT;
 8004656:	2303      	movs	r3, #3
 8004658:	e180      	b.n	800495c <HAL_RCC_OscConfig+0x4f8>
        while (__HAL_RCC_GET_FLAG(RCC_FLAG_HSIRDY) != RESET)
 800465a:	4b1d      	ldr	r3, [pc, #116]	@ (80046d0 <HAL_RCC_OscConfig+0x26c>)
 800465c:	681b      	ldr	r3, [r3, #0]
 800465e:	f003 0302 	and.w	r3, r3, #2
 8004662:	2b00      	cmp	r3, #0
 8004664:	d1f0      	bne.n	8004648 <HAL_RCC_OscConfig+0x1e4>
        }
      }
    }
  }
  /*------------------------------ LSI Configuration -------------------------*/
  if (((RCC_OscInitStruct->OscillatorType) & RCC_OSCILLATORTYPE_LSI) == RCC_OSCILLATORTYPE_LSI)
 8004666:	687b      	ldr	r3, [r7, #4]
 8004668:	681b      	ldr	r3, [r3, #0]
 800466a:	f003 0308 	and.w	r3, r3, #8
 800466e:	2b00      	cmp	r3, #0
 8004670:	d03a      	beq.n	80046e8 <HAL_RCC_OscConfig+0x284>
  {
    /* Check the parameters */
    assert_param(IS_RCC_LSI(RCC_OscInitStruct->LSIState));

    /* Check the LSI State */
    if (RCC_OscInitStruct->LSIState != RCC_LSI_OFF)
 8004672:	687b      	ldr	r3, [r7, #4]
 8004674:	699b      	ldr	r3, [r3, #24]
 8004676:	2b00      	cmp	r3, #0
 8004678:	d019      	beq.n	80046ae <HAL_RCC_OscConfig+0x24a>
    {
      /* Enable the Internal Low Speed oscillator (LSI). */
      __HAL_RCC_LSI_ENABLE();
 800467a:	4b17      	ldr	r3, [pc, #92]	@ (80046d8 <HAL_RCC_OscConfig+0x274>)
 800467c:	2201      	movs	r2, #1
 800467e:	601a      	str	r2, [r3, #0]

      /* Get Start Tick */
      tickstart = HAL_GetTick();
 8004680:	f7fe fbe2 	bl	8002e48 <HAL_GetTick>
 8004684:	6138      	str	r0, [r7, #16]

      /* Wait till LSI is ready */
      while (__HAL_RCC_GET_FLAG(RCC_FLAG_LSIRDY) == RESET)
 8004686:	e008      	b.n	800469a <HAL_RCC_OscConfig+0x236>
      {
        if ((HAL_GetTick() - tickstart) > LSI_TIMEOUT_VALUE)
 8004688:	f7fe fbde 	bl	8002e48 <HAL_GetTick>
 800468c:	4602      	mov	r2, r0
 800468e:	693b      	ldr	r3, [r7, #16]
 8004690:	1ad3      	subs	r3, r2, r3
 8004692:	2b02      	cmp	r3, #2
 8004694:	d901      	bls.n	800469a <HAL_RCC_OscConfig+0x236>
        {
          return HAL_TIMEOUT;
 8004696:	2303      	movs	r3, #3
 8004698:	e160      	b.n	800495c <HAL_RCC_OscConfig+0x4f8>
      while (__HAL_RCC_GET_FLAG(RCC_FLAG_LSIRDY) == RESET)
 800469a:	4b0d      	ldr	r3, [pc, #52]	@ (80046d0 <HAL_RCC_OscConfig+0x26c>)
 800469c:	6a5b      	ldr	r3, [r3, #36]	@ 0x24
 800469e:	f003 0302 	and.w	r3, r3, #2
 80046a2:	2b00      	cmp	r3, #0
 80046a4:	d0f0      	beq.n	8004688 <HAL_RCC_OscConfig+0x224>
        }
      }
      /*  To have a fully stabilized clock in the specified range, a software delay of 1ms
          should be added.*/
      RCC_Delay(1);
 80046a6:	2001      	movs	r0, #1
 80046a8:	f000 face 	bl	8004c48 <RCC_Delay>
 80046ac:	e01c      	b.n	80046e8 <HAL_RCC_OscConfig+0x284>
    }
    else
    {
      /* Disable the Internal Low Speed oscillator (LSI). */
      __HAL_RCC_LSI_DISABLE();
 80046ae:	4b0a      	ldr	r3, [pc, #40]	@ (80046d8 <HAL_RCC_OscConfig+0x274>)
 80046b0:	2200      	movs	r2, #0
 80046b2:	601a      	str	r2, [r3, #0]

      /* Get Start Tick */
      tickstart = HAL_GetTick();
 80046b4:	f7fe fbc8 	bl	8002e48 <HAL_GetTick>
 80046b8:	6138      	str	r0, [r7, #16]

      /* Wait till LSI is disabled */
      while (__HAL_RCC_GET_FLAG(RCC_FLAG_LSIRDY) != RESET)
 80046ba:	e00f      	b.n	80046dc <HAL_RCC_OscConfig+0x278>
      {
        if ((HAL_GetTick() - tickstart) > LSI_TIMEOUT_VALUE)
 80046bc:	f7fe fbc4 	bl	8002e48 <HAL_GetTick>
 80046c0:	4602      	mov	r2, r0
 80046c2:	693b      	ldr	r3, [r7, #16]
 80046c4:	1ad3      	subs	r3, r2, r3
 80046c6:	2b02      	cmp	r3, #2
 80046c8:	d908      	bls.n	80046dc <HAL_RCC_OscConfig+0x278>
        {
          return HAL_TIMEOUT;
 80046ca:	2303      	movs	r3, #3
 80046cc:	e146      	b.n	800495c <HAL_RCC_OscConfig+0x4f8>
 80046ce:	bf00      	nop
 80046d0:	40021000 	.word	0x40021000
 80046d4:	42420000 	.word	0x42420000
 80046d8:	42420480 	.word	0x42420480
      while (__HAL_RCC_GET_FLAG(RCC_FLAG_LSIRDY) != RESET)
 80046dc:	4b92      	ldr	r3, [pc, #584]	@ (8004928 <HAL_RCC_OscConfig+0x4c4>)
 80046de:	6a5b      	ldr	r3, [r3, #36]	@ 0x24
 80046e0:	f003 0302 	and.w	r3, r3, #2
 80046e4:	2b00      	cmp	r3, #0
 80046e6:	d1e9      	bne.n	80046bc <HAL_RCC_OscConfig+0x258>
        }
      }
    }
  }
  /*------------------------------ LSE Configuration -------------------------*/
  if (((RCC_OscInitStruct->OscillatorType) & RCC_OSCILLATORTYPE_LSE) == RCC_OSCILLATORTYPE_LSE)
 80046e8:	687b      	ldr	r3, [r7, #4]
 80046ea:	681b      	ldr	r3, [r3, #0]
 80046ec:	f003 0304 	and.w	r3, r3, #4
 80046f0:	2b00      	cmp	r3, #0
 80046f2:	f000 80a6 	beq.w	8004842 <HAL_RCC_OscConfig+0x3de>
  {
    FlagStatus       pwrclkchanged = RESET;
 80046f6:	2300      	movs	r3, #0
 80046f8:	75fb      	strb	r3, [r7, #23]
    /* Check the parameters */
    assert_param(IS_RCC_LSE(RCC_OscInitStruct->LSEState));

    /* Update LSE configuration in Backup Domain control register    */
    /* Requires to enable write access to Backup Domain of necessary */
    if (__HAL_RCC_PWR_IS_CLK_DISABLED())
 80046fa:	4b8b      	ldr	r3, [pc, #556]	@ (8004928 <HAL_RCC_OscConfig+0x4c4>)
 80046fc:	69db      	ldr	r3, [r3, #28]
 80046fe:	f003 5380 	and.w	r3, r3, #268435456	@ 0x10000000
 8004702:	2b00      	cmp	r3, #0
 8004704:	d10d      	bne.n	8004722 <HAL_RCC_OscConfig+0x2be>
    {
      __HAL_RCC_PWR_CLK_ENABLE();
 8004706:	4b88      	ldr	r3, [pc, #544]	@ (8004928 <HAL_RCC_OscConfig+0x4c4>)
 8004708:	69db      	ldr	r3, [r3, #28]
 800470a:	4a87      	ldr	r2, [pc, #540]	@ (8004928 <HAL_RCC_OscConfig+0x4c4>)
 800470c:	f043 5380 	orr.w	r3, r3, #268435456	@ 0x10000000
 8004710:	61d3      	str	r3, [r2, #28]
 8004712:	4b85      	ldr	r3, [pc, #532]	@ (8004928 <HAL_RCC_OscConfig+0x4c4>)
 8004714:	69db      	ldr	r3, [r3, #28]
 8004716:	f003 5380 	and.w	r3, r3, #268435456	@ 0x10000000
 800471a:	60bb      	str	r3, [r7, #8]
 800471c:	68bb      	ldr	r3, [r7, #8]
      pwrclkchanged = SET;
 800471e:	2301      	movs	r3, #1
 8004720:	75fb      	strb	r3, [r7, #23]
    }

    if (HAL_IS_BIT_CLR(PWR->CR, PWR_CR_DBP))
 8004722:	4b82      	ldr	r3, [pc, #520]	@ (800492c <HAL_RCC_OscConfig+0x4c8>)
 8004724:	681b      	ldr	r3, [r3, #0]
 8004726:	f403 7380 	and.w	r3, r3, #256	@ 0x100
 800472a:	2b00      	cmp	r3, #0
 800472c:	d118      	bne.n	8004760 <HAL_RCC_OscConfig+0x2fc>
    {
      /* Enable write access to Backup domain */
      SET_BIT(PWR->CR, PWR_CR_DBP);
 800472e:	4b7f      	ldr	r3, [pc, #508]	@ (800492c <HAL_RCC_OscConfig+0x4c8>)
 8004730:	681b      	ldr	r3, [r3, #0]
 8004732:	4a7e      	ldr	r2, [pc, #504]	@ (800492c <HAL_RCC_OscConfig+0x4c8>)
 8004734:	f443 7380 	orr.w	r3, r3, #256	@ 0x100
 8004738:	6013      	str	r3, [r2, #0]

      /* Wait for Backup domain Write protection disable */
      tickstart = HAL_GetTick();
 800473a:	f7fe fb85 	bl	8002e48 <HAL_GetTick>
 800473e:	6138      	str	r0, [r7, #16]

      while (HAL_IS_BIT_CLR(PWR->CR, PWR_CR_DBP))
 8004740:	e008      	b.n	8004754 <HAL_RCC_OscConfig+0x2f0>
      {
        if ((HAL_GetTick() - tickstart) > RCC_DBP_TIMEOUT_VALUE)
 8004742:	f7fe fb81 	bl	8002e48 <HAL_GetTick>
 8004746:	4602      	mov	r2, r0
 8004748:	693b      	ldr	r3, [r7, #16]
 800474a:	1ad3      	subs	r3, r2, r3
 800474c:	2b64      	cmp	r3, #100	@ 0x64
 800474e:	d901      	bls.n	8004754 <HAL_RCC_OscConfig+0x2f0>
        {
          return HAL_TIMEOUT;
 8004750:	2303      	movs	r3, #3
 8004752:	e103      	b.n	800495c <HAL_RCC_OscConfig+0x4f8>
      while (HAL_IS_BIT_CLR(PWR->CR, PWR_CR_DBP))
 8004754:	4b75      	ldr	r3, [pc, #468]	@ (800492c <HAL_RCC_OscConfig+0x4c8>)
 8004756:	681b      	ldr	r3, [r3, #0]
 8004758:	f403 7380 	and.w	r3, r3, #256	@ 0x100
 800475c:	2b00      	cmp	r3, #0
 800475e:	d0f0      	beq.n	8004742 <HAL_RCC_OscConfig+0x2de>
        }
      }
    }

    /* Set the new LSE configuration -----------------------------------------*/
    __HAL_RCC_LSE_CONFIG(RCC_OscInitStruct->LSEState);
 8004760:	687b      	ldr	r3, [r7, #4]
 8004762:	68db      	ldr	r3, [r3, #12]
 8004764:	2b01      	cmp	r3, #1
 8004766:	d106      	bne.n	8004776 <HAL_RCC_OscConfig+0x312>
 8004768:	4b6f      	ldr	r3, [pc, #444]	@ (8004928 <HAL_RCC_OscConfig+0x4c4>)
 800476a:	6a1b      	ldr	r3, [r3, #32]
 800476c:	4a6e      	ldr	r2, [pc, #440]	@ (8004928 <HAL_RCC_OscConfig+0x4c4>)
 800476e:	f043 0301 	orr.w	r3, r3, #1
 8004772:	6213      	str	r3, [r2, #32]
 8004774:	e02d      	b.n	80047d2 <HAL_RCC_OscConfig+0x36e>
 8004776:	687b      	ldr	r3, [r7, #4]
 8004778:	68db      	ldr	r3, [r3, #12]
 800477a:	2b00      	cmp	r3, #0
 800477c:	d10c      	bne.n	8004798 <HAL_RCC_OscConfig+0x334>
 800477e:	4b6a      	ldr	r3, [pc, #424]	@ (8004928 <HAL_RCC_OscConfig+0x4c4>)
 8004780:	6a1b      	ldr	r3, [r3, #32]
 8004782:	4a69      	ldr	r2, [pc, #420]	@ (8004928 <HAL_RCC_OscConfig+0x4c4>)
 8004784:	f023 0301 	bic.w	r3, r3, #1
 8004788:	6213      	str	r3, [r2, #32]
 800478a:	4b67      	ldr	r3, [pc, #412]	@ (8004928 <HAL_RCC_OscConfig+0x4c4>)
 800478c:	6a1b      	ldr	r3, [r3, #32]
 800478e:	4a66      	ldr	r2, [pc, #408]	@ (8004928 <HAL_RCC_OscConfig+0x4c4>)
 8004790:	f023 0304 	bic.w	r3, r3, #4
 8004794:	6213      	str	r3, [r2, #32]
 8004796:	e01c      	b.n	80047d2 <HAL_RCC_OscConfig+0x36e>
 8004798:	687b      	ldr	r3, [r7, #4]
 800479a:	68db      	ldr	r3, [r3, #12]
 800479c:	2b05      	cmp	r3, #5
 800479e:	d10c      	bne.n	80047ba <HAL_RCC_OscConfig+0x356>
 80047a0:	4b61      	ldr	r3, [pc, #388]	@ (8004928 <HAL_RCC_OscConfig+0x4c4>)
 80047a2:	6a1b      	ldr	r3, [r3, #32]
 80047a4:	4a60      	ldr	r2, [pc, #384]	@ (8004928 <HAL_RCC_OscConfig+0x4c4>)
 80047a6:	f043 0304 	orr.w	r3, r3, #4
 80047aa:	6213      	str	r3, [r2, #32]
 80047ac:	4b5e      	ldr	r3, [pc, #376]	@ (8004928 <HAL_RCC_OscConfig+0x4c4>)
 80047ae:	6a1b      	ldr	r3, [r3, #32]
 80047b0:	4a5d      	ldr	r2, [pc, #372]	@ (8004928 <HAL_RCC_OscConfig+0x4c4>)
 80047b2:	f043 0301 	orr.w	r3, r3, #1
 80047b6:	6213      	str	r3, [r2, #32]
 80047b8:	e00b      	b.n	80047d2 <HAL_RCC_OscConfig+0x36e>
 80047ba:	4b5b      	ldr	r3, [pc, #364]	@ (8004928 <HAL_RCC_OscConfig+0x4c4>)
 80047bc:	6a1b      	ldr	r3, [r3, #32]
 80047be:	4a5a      	ldr	r2, [pc, #360]	@ (8004928 <HAL_RCC_OscConfig+0x4c4>)
 80047c0:	f023 0301 	bic.w	r3, r3, #1
 80047c4:	6213      	str	r3, [r2, #32]
 80047c6:	4b58      	ldr	r3, [pc, #352]	@ (8004928 <HAL_RCC_OscConfig+0x4c4>)
 80047c8:	6a1b      	ldr	r3, [r3, #32]
 80047ca:	4a57      	ldr	r2, [pc, #348]	@ (8004928 <HAL_RCC_OscConfig+0x4c4>)
 80047cc:	f023 0304 	bic.w	r3, r3, #4
 80047d0:	6213      	str	r3, [r2, #32]
    /* Check the LSE State */
    if (RCC_OscInitStruct->LSEState != RCC_LSE_OFF)
 80047d2:	687b      	ldr	r3, [r7, #4]
 80047d4:	68db      	ldr	r3, [r3, #12]
 80047d6:	2b00      	cmp	r3, #0
 80047d8:	d015      	beq.n	8004806 <HAL_RCC_OscConfig+0x3a2>
    {
      /* Get Start Tick */
      tickstart = HAL_GetTick();
 80047da:	f7fe fb35 	bl	8002e48 <HAL_GetTick>
 80047de:	6138      	str	r0, [r7, #16]

      /* Wait till LSE is ready */
      while (__HAL_RCC_GET_FLAG(RCC_FLAG_LSERDY) == RESET)
 80047e0:	e00a      	b.n	80047f8 <HAL_RCC_OscConfig+0x394>
      {
        if ((HAL_GetTick() - tickstart) > RCC_LSE_TIMEOUT_VALUE)
 80047e2:	f7fe fb31 	bl	8002e48 <HAL_GetTick>
 80047e6:	4602      	mov	r2, r0
 80047e8:	693b      	ldr	r3, [r7, #16]
 80047ea:	1ad3      	subs	r3, r2, r3
 80047ec:	f241 3288 	movw	r2, #5000	@ 0x1388
 80047f0:	4293      	cmp	r3, r2
 80047f2:	d901      	bls.n	80047f8 <HAL_RCC_OscConfig+0x394>
        {
          return HAL_TIMEOUT;
 80047f4:	2303      	movs	r3, #3
 80047f6:	e0b1      	b.n	800495c <HAL_RCC_OscConfig+0x4f8>
      while (__HAL_RCC_GET_FLAG(RCC_FLAG_LSERDY) == RESET)
 80047f8:	4b4b      	ldr	r3, [pc, #300]	@ (8004928 <HAL_RCC_OscConfig+0x4c4>)
 80047fa:	6a1b      	ldr	r3, [r3, #32]
 80047fc:	f003 0302 	and.w	r3, r3, #2
 8004800:	2b00      	cmp	r3, #0
 8004802:	d0ee      	beq.n	80047e2 <HAL_RCC_OscConfig+0x37e>
 8004804:	e014      	b.n	8004830 <HAL_RCC_OscConfig+0x3cc>
      }
    }
    else
    {
      /* Get Start Tick */
      tickstart = HAL_GetTick();
 8004806:	f7fe fb1f 	bl	8002e48 <HAL_GetTick>
 800480a:	6138      	str	r0, [r7, #16]

      /* Wait till LSE is disabled */
      while (__HAL_RCC_GET_FLAG(RCC_FLAG_LSERDY) != RESET)
 800480c:	e00a      	b.n	8004824 <HAL_RCC_OscConfig+0x3c0>
      {
        if ((HAL_GetTick() - tickstart) > RCC_LSE_TIMEOUT_VALUE)
 800480e:	f7fe fb1b 	bl	8002e48 <HAL_GetTick>
 8004812:	4602      	mov	r2, r0
 8004814:	693b      	ldr	r3, [r7, #16]
 8004816:	1ad3      	subs	r3, r2, r3
 8004818:	f241 3288 	movw	r2, #5000	@ 0x1388
 800481c:	4293      	cmp	r3, r2
 800481e:	d901      	bls.n	8004824 <HAL_RCC_OscConfig+0x3c0>
        {
          return HAL_TIMEOUT;
 8004820:	2303      	movs	r3, #3
 8004822:	e09b      	b.n	800495c <HAL_RCC_OscConfig+0x4f8>
      while (__HAL_RCC_GET_FLAG(RCC_FLAG_LSERDY) != RESET)
 8004824:	4b40      	ldr	r3, [pc, #256]	@ (8004928 <HAL_RCC_OscConfig+0x4c4>)
 8004826:	6a1b      	ldr	r3, [r3, #32]
 8004828:	f003 0302 	and.w	r3, r3, #2
 800482c:	2b00      	cmp	r3, #0
 800482e:	d1ee      	bne.n	800480e <HAL_RCC_OscConfig+0x3aa>
        }
      }
    }

    /* Require to disable power clock if necessary */
    if (pwrclkchanged == SET)
 8004830:	7dfb      	ldrb	r3, [r7, #23]
 8004832:	2b01      	cmp	r3, #1
 8004834:	d105      	bne.n	8004842 <HAL_RCC_OscConfig+0x3de>
    {
      __HAL_RCC_PWR_CLK_DISABLE();
 8004836:	4b3c      	ldr	r3, [pc, #240]	@ (8004928 <HAL_RCC_OscConfig+0x4c4>)
 8004838:	69db      	ldr	r3, [r3, #28]
 800483a:	4a3b      	ldr	r2, [pc, #236]	@ (8004928 <HAL_RCC_OscConfig+0x4c4>)
 800483c:	f023 5380 	bic.w	r3, r3, #268435456	@ 0x10000000
 8004840:	61d3      	str	r3, [r2, #28]

#endif /* RCC_CR_PLL2ON */
  /*-------------------------------- PLL Configuration -----------------------*/
  /* Check the parameters */
  assert_param(IS_RCC_PLL(RCC_OscInitStruct->PLL.PLLState));
  if ((RCC_OscInitStruct->PLL.PLLState) != RCC_PLL_NONE)
 8004842:	687b      	ldr	r3, [r7, #4]
 8004844:	69db      	ldr	r3, [r3, #28]
 8004846:	2b00      	cmp	r3, #0
 8004848:	f000 8087 	beq.w	800495a <HAL_RCC_OscConfig+0x4f6>
  {
    /* Check if the PLL is used as system clock or not */
    if (__HAL_RCC_GET_SYSCLK_SOURCE() != RCC_SYSCLKSOURCE_STATUS_PLLCLK)
 800484c:	4b36      	ldr	r3, [pc, #216]	@ (8004928 <HAL_RCC_OscConfig+0x4c4>)
 800484e:	685b      	ldr	r3, [r3, #4]
 8004850:	f003 030c 	and.w	r3, r3, #12
 8004854:	2b08      	cmp	r3, #8
 8004856:	d061      	beq.n	800491c <HAL_RCC_OscConfig+0x4b8>
    {
      if ((RCC_OscInitStruct->PLL.PLLState) == RCC_PLL_ON)
 8004858:	687b      	ldr	r3, [r7, #4]
 800485a:	69db      	ldr	r3, [r3, #28]
 800485c:	2b02      	cmp	r3, #2
 800485e:	d146      	bne.n	80048ee <HAL_RCC_OscConfig+0x48a>
        /* Check the parameters */
        assert_param(IS_RCC_PLLSOURCE(RCC_OscInitStruct->PLL.PLLSource));
        assert_param(IS_RCC_PLL_MUL(RCC_OscInitStruct->PLL.PLLMUL));

        /* Disable the main PLL. */
        __HAL_RCC_PLL_DISABLE();
 8004860:	4b33      	ldr	r3, [pc, #204]	@ (8004930 <HAL_RCC_OscConfig+0x4cc>)
 8004862:	2200      	movs	r2, #0
 8004864:	601a      	str	r2, [r3, #0]

        /* Get Start Tick */
        tickstart = HAL_GetTick();
 8004866:	f7fe faef 	bl	8002e48 <HAL_GetTick>
 800486a:	6138      	str	r0, [r7, #16]

        /* Wait till PLL is disabled */
        while (__HAL_RCC_GET_FLAG(RCC_FLAG_PLLRDY)  != RESET)
 800486c:	e008      	b.n	8004880 <HAL_RCC_OscConfig+0x41c>
        {
          if ((HAL_GetTick() - tickstart) > PLL_TIMEOUT_VALUE)
 800486e:	f7fe faeb 	bl	8002e48 <HAL_GetTick>
 8004872:	4602      	mov	r2, r0
 8004874:	693b      	ldr	r3, [r7, #16]
 8004876:	1ad3      	subs	r3, r2, r3
 8004878:	2b02      	cmp	r3, #2
 800487a:	d901      	bls.n	8004880 <HAL_RCC_OscConfig+0x41c>
          {
            return HAL_TIMEOUT;
 800487c:	2303      	movs	r3, #3
 800487e:	e06d      	b.n	800495c <HAL_RCC_OscConfig+0x4f8>
        while (__HAL_RCC_GET_FLAG(RCC_FLAG_PLLRDY)  != RESET)
 8004880:	4b29      	ldr	r3, [pc, #164]	@ (8004928 <HAL_RCC_OscConfig+0x4c4>)
 8004882:	681b      	ldr	r3, [r3, #0]
 8004884:	f003 7300 	and.w	r3, r3, #33554432	@ 0x2000000
 8004888:	2b00      	cmp	r3, #0
 800488a:	d1f0      	bne.n	800486e <HAL_RCC_OscConfig+0x40a>
          }
        }

        /* Configure the HSE prediv factor --------------------------------*/
        /* It can be written only when the PLL is disabled. Not used in PLL source is different than HSE */
        if (RCC_OscInitStruct->PLL.PLLSource == RCC_PLLSOURCE_HSE)
 800488c:	687b      	ldr	r3, [r7, #4]
 800488e:	6a1b      	ldr	r3, [r3, #32]
 8004890:	f5b3 3f80 	cmp.w	r3, #65536	@ 0x10000
 8004894:	d108      	bne.n	80048a8 <HAL_RCC_OscConfig+0x444>
          /* Set PREDIV1 source */
          SET_BIT(RCC->CFGR2, RCC_OscInitStruct->Prediv1Source);
#endif /* RCC_CFGR2_PREDIV1SRC */

          /* Set PREDIV1 Value */
          __HAL_RCC_HSE_PREDIV_CONFIG(RCC_OscInitStruct->HSEPredivValue);
 8004896:	4b24      	ldr	r3, [pc, #144]	@ (8004928 <HAL_RCC_OscConfig+0x4c4>)
 8004898:	685b      	ldr	r3, [r3, #4]
 800489a:	f423 3200 	bic.w	r2, r3, #131072	@ 0x20000
 800489e:	687b      	ldr	r3, [r7, #4]
 80048a0:	689b      	ldr	r3, [r3, #8]
 80048a2:	4921      	ldr	r1, [pc, #132]	@ (8004928 <HAL_RCC_OscConfig+0x4c4>)
 80048a4:	4313      	orrs	r3, r2
 80048a6:	604b      	str	r3, [r1, #4]
        }

        /* Configure the main PLL clock source and multiplication factors. */
        __HAL_RCC_PLL_CONFIG(RCC_OscInitStruct->PLL.PLLSource,
 80048a8:	4b1f      	ldr	r3, [pc, #124]	@ (8004928 <HAL_RCC_OscConfig+0x4c4>)
 80048aa:	685b      	ldr	r3, [r3, #4]
 80048ac:	f423 1274 	bic.w	r2, r3, #3997696	@ 0x3d0000
 80048b0:	687b      	ldr	r3, [r7, #4]
 80048b2:	6a19      	ldr	r1, [r3, #32]
 80048b4:	687b      	ldr	r3, [r7, #4]
 80048b6:	6a5b      	ldr	r3, [r3, #36]	@ 0x24
 80048b8:	430b      	orrs	r3, r1
 80048ba:	491b      	ldr	r1, [pc, #108]	@ (8004928 <HAL_RCC_OscConfig+0x4c4>)
 80048bc:	4313      	orrs	r3, r2
 80048be:	604b      	str	r3, [r1, #4]
                             RCC_OscInitStruct->PLL.PLLMUL);
        /* Enable the main PLL. */
        __HAL_RCC_PLL_ENABLE();
 80048c0:	4b1b      	ldr	r3, [pc, #108]	@ (8004930 <HAL_RCC_OscConfig+0x4cc>)
 80048c2:	2201      	movs	r2, #1
 80048c4:	601a      	str	r2, [r3, #0]

        /* Get Start Tick */
        tickstart = HAL_GetTick();
 80048c6:	f7fe fabf 	bl	8002e48 <HAL_GetTick>
 80048ca:	6138      	str	r0, [r7, #16]

        /* Wait till PLL is ready */
        while (__HAL_RCC_GET_FLAG(RCC_FLAG_PLLRDY)  == RESET)
 80048cc:	e008      	b.n	80048e0 <HAL_RCC_OscConfig+0x47c>
        {
          if ((HAL_GetTick() - tickstart) > PLL_TIMEOUT_VALUE)
 80048ce:	f7fe fabb 	bl	8002e48 <HAL_GetTick>
 80048d2:	4602      	mov	r2, r0
 80048d4:	693b      	ldr	r3, [r7, #16]
 80048d6:	1ad3      	subs	r3, r2, r3
 80048d8:	2b02      	cmp	r3, #2
 80048da:	d901      	bls.n	80048e0 <HAL_RCC_OscConfig+0x47c>
          {
            return HAL_TIMEOUT;
 80048dc:	2303      	movs	r3, #3
 80048de:	e03d      	b.n	800495c <HAL_RCC_OscConfig+0x4f8>
        while (__HAL_RCC_GET_FLAG(RCC_FLAG_PLLRDY)  == RESET)
 80048e0:	4b11      	ldr	r3, [pc, #68]	@ (8004928 <HAL_RCC_OscConfig+0x4c4>)
 80048e2:	681b      	ldr	r3, [r3, #0]
 80048e4:	f003 7300 	and.w	r3, r3, #33554432	@ 0x2000000
 80048e8:	2b00      	cmp	r3, #0
 80048ea:	d0f0      	beq.n	80048ce <HAL_RCC_OscConfig+0x46a>
 80048ec:	e035      	b.n	800495a <HAL_RCC_OscConfig+0x4f6>
        }
      }
      else
      {
        /* Disable the main PLL. */
        __HAL_RCC_PLL_DISABLE();
 80048ee:	4b10      	ldr	r3, [pc, #64]	@ (8004930 <HAL_RCC_OscConfig+0x4cc>)
 80048f0:	2200      	movs	r2, #0
 80048f2:	601a      	str	r2, [r3, #0]

        /* Get Start Tick */
        tickstart = HAL_GetTick();
 80048f4:	f7fe faa8 	bl	8002e48 <HAL_GetTick>
 80048f8:	6138      	str	r0, [r7, #16]

        /* Wait till PLL is disabled */
        while (__HAL_RCC_GET_FLAG(RCC_FLAG_PLLRDY)  != RESET)
 80048fa:	e008      	b.n	800490e <HAL_RCC_OscConfig+0x4aa>
        {
          if ((HAL_GetTick() - tickstart) > PLL_TIMEOUT_VALUE)
 80048fc:	f7fe faa4 	bl	8002e48 <HAL_GetTick>
 8004900:	4602      	mov	r2, r0
 8004902:	693b      	ldr	r3, [r7, #16]
 8004904:	1ad3      	subs	r3, r2, r3
 8004906:	2b02      	cmp	r3, #2
 8004908:	d901      	bls.n	800490e <HAL_RCC_OscConfig+0x4aa>
          {
            return HAL_TIMEOUT;
 800490a:	2303      	movs	r3, #3
 800490c:	e026      	b.n	800495c <HAL_RCC_OscConfig+0x4f8>
        while (__HAL_RCC_GET_FLAG(RCC_FLAG_PLLRDY)  != RESET)
 800490e:	4b06      	ldr	r3, [pc, #24]	@ (8004928 <HAL_RCC_OscConfig+0x4c4>)
 8004910:	681b      	ldr	r3, [r3, #0]
 8004912:	f003 7300 	and.w	r3, r3, #33554432	@ 0x2000000
 8004916:	2b00      	cmp	r3, #0
 8004918:	d1f0      	bne.n	80048fc <HAL_RCC_OscConfig+0x498>
 800491a:	e01e      	b.n	800495a <HAL_RCC_OscConfig+0x4f6>
      }
    }
    else
    {
      /* Check if there is a request to disable the PLL used as System clock source */
      if ((RCC_OscInitStruct->PLL.PLLState) == RCC_PLL_OFF)
 800491c:	687b      	ldr	r3, [r7, #4]
 800491e:	69db      	ldr	r3, [r3, #28]
 8004920:	2b01      	cmp	r3, #1
 8004922:	d107      	bne.n	8004934 <HAL_RCC_OscConfig+0x4d0>
      {
        return HAL_ERROR;
 8004924:	2301      	movs	r3, #1
 8004926:	e019      	b.n	800495c <HAL_RCC_OscConfig+0x4f8>
 8004928:	40021000 	.word	0x40021000
 800492c:	40007000 	.word	0x40007000
 8004930:	42420060 	.word	0x42420060
      }
      else
      {
        /* Do not return HAL_ERROR if request repeats the current configuration */
        pll_config = RCC->CFGR;
 8004934:	4b0b      	ldr	r3, [pc, #44]	@ (8004964 <HAL_RCC_OscConfig+0x500>)
 8004936:	685b      	ldr	r3, [r3, #4]
 8004938:	60fb      	str	r3, [r7, #12]
        if ((READ_BIT(pll_config, RCC_CFGR_PLLSRC) != RCC_OscInitStruct->PLL.PLLSource) ||
 800493a:	68fb      	ldr	r3, [r7, #12]
 800493c:	f403 3280 	and.w	r2, r3, #65536	@ 0x10000
 8004940:	687b      	ldr	r3, [r7, #4]
 8004942:	6a1b      	ldr	r3, [r3, #32]
 8004944:	429a      	cmp	r2, r3
 8004946:	d106      	bne.n	8004956 <HAL_RCC_OscConfig+0x4f2>
            (READ_BIT(pll_config, RCC_CFGR_PLLMULL) != RCC_OscInitStruct->PLL.PLLMUL))
 8004948:	68fb      	ldr	r3, [r7, #12]
 800494a:	f403 1270 	and.w	r2, r3, #3932160	@ 0x3c0000
 800494e:	687b      	ldr	r3, [r7, #4]
 8004950:	6a5b      	ldr	r3, [r3, #36]	@ 0x24
        if ((READ_BIT(pll_config, RCC_CFGR_PLLSRC) != RCC_OscInitStruct->PLL.PLLSource) ||
 8004952:	429a      	cmp	r2, r3
 8004954:	d001      	beq.n	800495a <HAL_RCC_OscConfig+0x4f6>
        {
          return HAL_ERROR;
 8004956:	2301      	movs	r3, #1
 8004958:	e000      	b.n	800495c <HAL_RCC_OscConfig+0x4f8>
        }
      }
    }
  }

  return HAL_OK;
 800495a:	2300      	movs	r3, #0
}
 800495c:	4618      	mov	r0, r3
 800495e:	3718      	adds	r7, #24
 8004960:	46bd      	mov	sp, r7
 8004962:	bd80      	pop	{r7, pc}
 8004964:	40021000 	.word	0x40021000

08004968 <HAL_RCC_ClockConfig>:
  *         You can use @ref HAL_RCC_GetClockConfig() function to know which clock is
  *         currently used as system clock source.
  * @retval HAL status
  */
HAL_StatusTypeDef HAL_RCC_ClockConfig(RCC_ClkInitTypeDef  *RCC_ClkInitStruct, uint32_t FLatency)
{
 8004968:	b580      	push	{r7, lr}
 800496a:	b084      	sub	sp, #16
 800496c:	af00      	add	r7, sp, #0
 800496e:	6078      	str	r0, [r7, #4]
 8004970:	6039      	str	r1, [r7, #0]
  uint32_t tickstart;

  /* Check Null pointer */
  if (RCC_ClkInitStruct == NULL)
 8004972:	687b      	ldr	r3, [r7, #4]
 8004974:	2b00      	cmp	r3, #0
 8004976:	d101      	bne.n	800497c <HAL_RCC_ClockConfig+0x14>
  {
    return HAL_ERROR;
 8004978:	2301      	movs	r3, #1
 800497a:	e0d0      	b.n	8004b1e <HAL_RCC_ClockConfig+0x1b6>
  must be correctly programmed according to the frequency of the CPU clock
    (HCLK) of the device. */

#if defined(FLASH_ACR_LATENCY)
  /* Increasing the number of wait states because of higher CPU frequency */
  if (FLatency > __HAL_FLASH_GET_LATENCY())
 800497c:	4b6a      	ldr	r3, [pc, #424]	@ (8004b28 <HAL_RCC_ClockConfig+0x1c0>)
 800497e:	681b      	ldr	r3, [r3, #0]
 8004980:	f003 0307 	and.w	r3, r3, #7
 8004984:	683a      	ldr	r2, [r7, #0]
 8004986:	429a      	cmp	r2, r3
 8004988:	d910      	bls.n	80049ac <HAL_RCC_ClockConfig+0x44>
  {
    /* Program the new number of wait states to the LATENCY bits in the FLASH_ACR register */
    __HAL_FLASH_SET_LATENCY(FLatency);
 800498a:	4b67      	ldr	r3, [pc, #412]	@ (8004b28 <HAL_RCC_ClockConfig+0x1c0>)
 800498c:	681b      	ldr	r3, [r3, #0]
 800498e:	f023 0207 	bic.w	r2, r3, #7
 8004992:	4965      	ldr	r1, [pc, #404]	@ (8004b28 <HAL_RCC_ClockConfig+0x1c0>)
 8004994:	683b      	ldr	r3, [r7, #0]
 8004996:	4313      	orrs	r3, r2
 8004998:	600b      	str	r3, [r1, #0]

    /* Check that the new number of wait states is taken into account to access the Flash
    memory by reading the FLASH_ACR register */
    if (__HAL_FLASH_GET_LATENCY() != FLatency)
 800499a:	4b63      	ldr	r3, [pc, #396]	@ (8004b28 <HAL_RCC_ClockConfig+0x1c0>)
 800499c:	681b      	ldr	r3, [r3, #0]
 800499e:	f003 0307 	and.w	r3, r3, #7
 80049a2:	683a      	ldr	r2, [r7, #0]
 80049a4:	429a      	cmp	r2, r3
 80049a6:	d001      	beq.n	80049ac <HAL_RCC_ClockConfig+0x44>
  {
    return HAL_ERROR;
 80049a8:	2301      	movs	r3, #1
 80049aa:	e0b8      	b.n	8004b1e <HAL_RCC_ClockConfig+0x1b6>
  }
}

#endif /* FLASH_ACR_LATENCY */
/*-------------------------- HCLK Configuration --------------------------*/
if (((RCC_ClkInitStruct->ClockType) & RCC_CLOCKTYPE_HCLK) == RCC_CLOCKTYPE_HCLK)
 80049ac:	687b      	ldr	r3, [r7, #4]
 80049ae:	681b      	ldr	r3, [r3, #0]
 80049b0:	f003 0302 	and.w	r3, r3, #2
 80049b4:	2b00      	cmp	r3, #0
 80049b6:	d020      	beq.n	80049fa <HAL_RCC_ClockConfig+0x92>
  {
    /* Set the highest APBx dividers in order to ensure that we do not go through
    a non-spec phase whatever we decrease or increase HCLK. */
    if (((RCC_ClkInitStruct->ClockType) & RCC_CLOCKTYPE_PCLK1) == RCC_CLOCKTYPE_PCLK1)
 80049b8:	687b      	ldr	r3, [r7, #4]
 80049ba:	681b      	ldr	r3, [r3, #0]
 80049bc:	f003 0304 	and.w	r3, r3, #4
 80049c0:	2b00      	cmp	r3, #0
 80049c2:	d005      	beq.n	80049d0 <HAL_RCC_ClockConfig+0x68>
    {
      MODIFY_REG(RCC->CFGR, RCC_CFGR_PPRE1, RCC_HCLK_DIV16);
 80049c4:	4b59      	ldr	r3, [pc, #356]	@ (8004b2c <HAL_RCC_ClockConfig+0x1c4>)
 80049c6:	685b      	ldr	r3, [r3, #4]
 80049c8:	4a58      	ldr	r2, [pc, #352]	@ (8004b2c <HAL_RCC_ClockConfig+0x1c4>)
 80049ca:	f443 63e0 	orr.w	r3, r3, #1792	@ 0x700
 80049ce:	6053      	str	r3, [r2, #4]
    }

    if (((RCC_ClkInitStruct->ClockType) & RCC_CLOCKTYPE_PCLK2) == RCC_CLOCKTYPE_PCLK2)
 80049d0:	687b      	ldr	r3, [r7, #4]
 80049d2:	681b      	ldr	r3, [r3, #0]
 80049d4:	f003 0308 	and.w	r3, r3, #8
 80049d8:	2b00      	cmp	r3, #0
 80049da:	d005      	beq.n	80049e8 <HAL_RCC_ClockConfig+0x80>
    {
      MODIFY_REG(RCC->CFGR, RCC_CFGR_PPRE2, (RCC_HCLK_DIV16 << 3));
 80049dc:	4b53      	ldr	r3, [pc, #332]	@ (8004b2c <HAL_RCC_ClockConfig+0x1c4>)
 80049de:	685b      	ldr	r3, [r3, #4]
 80049e0:	4a52      	ldr	r2, [pc, #328]	@ (8004b2c <HAL_RCC_ClockConfig+0x1c4>)
 80049e2:	f443 5360 	orr.w	r3, r3, #14336	@ 0x3800
 80049e6:	6053      	str	r3, [r2, #4]
    }

    /* Set the new HCLK clock divider */
    assert_param(IS_RCC_HCLK(RCC_ClkInitStruct->AHBCLKDivider));
    MODIFY_REG(RCC->CFGR, RCC_CFGR_HPRE, RCC_ClkInitStruct->AHBCLKDivider);
 80049e8:	4b50      	ldr	r3, [pc, #320]	@ (8004b2c <HAL_RCC_ClockConfig+0x1c4>)
 80049ea:	685b      	ldr	r3, [r3, #4]
 80049ec:	f023 02f0 	bic.w	r2, r3, #240	@ 0xf0
 80049f0:	687b      	ldr	r3, [r7, #4]
 80049f2:	689b      	ldr	r3, [r3, #8]
 80049f4:	494d      	ldr	r1, [pc, #308]	@ (8004b2c <HAL_RCC_ClockConfig+0x1c4>)
 80049f6:	4313      	orrs	r3, r2
 80049f8:	604b      	str	r3, [r1, #4]
  }

  /*------------------------- SYSCLK Configuration ---------------------------*/
  if (((RCC_ClkInitStruct->ClockType) & RCC_CLOCKTYPE_SYSCLK) == RCC_CLOCKTYPE_SYSCLK)
 80049fa:	687b      	ldr	r3, [r7, #4]
 80049fc:	681b      	ldr	r3, [r3, #0]
 80049fe:	f003 0301 	and.w	r3, r3, #1
 8004a02:	2b00      	cmp	r3, #0
 8004a04:	d040      	beq.n	8004a88 <HAL_RCC_ClockConfig+0x120>
  {
    assert_param(IS_RCC_SYSCLKSOURCE(RCC_ClkInitStruct->SYSCLKSource));

    /* HSE is selected as System Clock Source */
    if (RCC_ClkInitStruct->SYSCLKSource == RCC_SYSCLKSOURCE_HSE)
 8004a06:	687b      	ldr	r3, [r7, #4]
 8004a08:	685b      	ldr	r3, [r3, #4]
 8004a0a:	2b01      	cmp	r3, #1
 8004a0c:	d107      	bne.n	8004a1e <HAL_RCC_ClockConfig+0xb6>
    {
      /* Check the HSE ready flag */
      if (__HAL_RCC_GET_FLAG(RCC_FLAG_HSERDY) == RESET)
 8004a0e:	4b47      	ldr	r3, [pc, #284]	@ (8004b2c <HAL_RCC_ClockConfig+0x1c4>)
 8004a10:	681b      	ldr	r3, [r3, #0]
 8004a12:	f403 3300 	and.w	r3, r3, #131072	@ 0x20000
 8004a16:	2b00      	cmp	r3, #0
 8004a18:	d115      	bne.n	8004a46 <HAL_RCC_ClockConfig+0xde>
      {
        return HAL_ERROR;
 8004a1a:	2301      	movs	r3, #1
 8004a1c:	e07f      	b.n	8004b1e <HAL_RCC_ClockConfig+0x1b6>
      }
    }
    /* PLL is selected as System Clock Source */
    else if (RCC_ClkInitStruct->SYSCLKSource == RCC_SYSCLKSOURCE_PLLCLK)
 8004a1e:	687b      	ldr	r3, [r7, #4]
 8004a20:	685b      	ldr	r3, [r3, #4]
 8004a22:	2b02      	cmp	r3, #2
 8004a24:	d107      	bne.n	8004a36 <HAL_RCC_ClockConfig+0xce>
    {
      /* Check the PLL ready flag */
      if (__HAL_RCC_GET_FLAG(RCC_FLAG_PLLRDY) == RESET)
 8004a26:	4b41      	ldr	r3, [pc, #260]	@ (8004b2c <HAL_RCC_ClockConfig+0x1c4>)
 8004a28:	681b      	ldr	r3, [r3, #0]
 8004a2a:	f003 7300 	and.w	r3, r3, #33554432	@ 0x2000000
 8004a2e:	2b00      	cmp	r3, #0
 8004a30:	d109      	bne.n	8004a46 <HAL_RCC_ClockConfig+0xde>
      {
        return HAL_ERROR;
 8004a32:	2301      	movs	r3, #1
 8004a34:	e073      	b.n	8004b1e <HAL_RCC_ClockConfig+0x1b6>
    }
    /* HSI is selected as System Clock Source */
    else
    {
      /* Check the HSI ready flag */
      if (__HAL_RCC_GET_FLAG(RCC_FLAG_HSIRDY) == RESET)
 8004a36:	4b3d      	ldr	r3, [pc, #244]	@ (8004b2c <HAL_RCC_ClockConfig+0x1c4>)
 8004a38:	681b      	ldr	r3, [r3, #0]
 8004a3a:	f003 0302 	and.w	r3, r3, #2
 8004a3e:	2b00      	cmp	r3, #0
 8004a40:	d101      	bne.n	8004a46 <HAL_RCC_ClockConfig+0xde>
      {
        return HAL_ERROR;
 8004a42:	2301      	movs	r3, #1
 8004a44:	e06b      	b.n	8004b1e <HAL_RCC_ClockConfig+0x1b6>
      }
    }
    __HAL_RCC_SYSCLK_CONFIG(RCC_ClkInitStruct->SYSCLKSource);
 8004a46:	4b39      	ldr	r3, [pc, #228]	@ (8004b2c <HAL_RCC_ClockConfig+0x1c4>)
 8004a48:	685b      	ldr	r3, [r3, #4]
 8004a4a:	f023 0203 	bic.w	r2, r3, #3
 8004a4e:	687b      	ldr	r3, [r7, #4]
 8004a50:	685b      	ldr	r3, [r3, #4]
 8004a52:	4936      	ldr	r1, [pc, #216]	@ (8004b2c <HAL_RCC_ClockConfig+0x1c4>)
 8004a54:	4313      	orrs	r3, r2
 8004a56:	604b      	str	r3, [r1, #4]

    /* Get Start Tick */
    tickstart = HAL_GetTick();
 8004a58:	f7fe f9f6 	bl	8002e48 <HAL_GetTick>
 8004a5c:	60f8      	str	r0, [r7, #12]

    while (__HAL_RCC_GET_SYSCLK_SOURCE() != (RCC_ClkInitStruct->SYSCLKSource << RCC_CFGR_SWS_Pos))
 8004a5e:	e00a      	b.n	8004a76 <HAL_RCC_ClockConfig+0x10e>
    {
      if ((HAL_GetTick() - tickstart) > CLOCKSWITCH_TIMEOUT_VALUE)
 8004a60:	f7fe f9f2 	bl	8002e48 <HAL_GetTick>
 8004a64:	4602      	mov	r2, r0
 8004a66:	68fb      	ldr	r3, [r7, #12]
 8004a68:	1ad3      	subs	r3, r2, r3
 8004a6a:	f241 3288 	movw	r2, #5000	@ 0x1388
 8004a6e:	4293      	cmp	r3, r2
 8004a70:	d901      	bls.n	8004a76 <HAL_RCC_ClockConfig+0x10e>
      {
        return HAL_TIMEOUT;
 8004a72:	2303      	movs	r3, #3
 8004a74:	e053      	b.n	8004b1e <HAL_RCC_ClockConfig+0x1b6>
    while (__HAL_RCC_GET_SYSCLK_SOURCE() != (RCC_ClkInitStruct->SYSCLKSource << RCC_CFGR_SWS_Pos))
 8004a76:	4b2d      	ldr	r3, [pc, #180]	@ (8004b2c <HAL_RCC_ClockConfig+0x1c4>)
 8004a78:	685b      	ldr	r3, [r3, #4]
 8004a7a:	f003 020c 	and.w	r2, r3, #12
 8004a7e:	687b      	ldr	r3, [r7, #4]
 8004a80:	685b      	ldr	r3, [r3, #4]
 8004a82:	009b      	lsls	r3, r3, #2
 8004a84:	429a      	cmp	r2, r3
 8004a86:	d1eb      	bne.n	8004a60 <HAL_RCC_ClockConfig+0xf8>
    }
  }

#if defined(FLASH_ACR_LATENCY)
  /* Decreasing the number of wait states because of lower CPU frequency */
  if (FLatency < __HAL_FLASH_GET_LATENCY())
 8004a88:	4b27      	ldr	r3, [pc, #156]	@ (8004b28 <HAL_RCC_ClockConfig+0x1c0>)
 8004a8a:	681b      	ldr	r3, [r3, #0]
 8004a8c:	f003 0307 	and.w	r3, r3, #7
 8004a90:	683a      	ldr	r2, [r7, #0]
 8004a92:	429a      	cmp	r2, r3
 8004a94:	d210      	bcs.n	8004ab8 <HAL_RCC_ClockConfig+0x150>
  {
    /* Program the new number of wait states to the LATENCY bits in the FLASH_ACR register */
    __HAL_FLASH_SET_LATENCY(FLatency);
 8004a96:	4b24      	ldr	r3, [pc, #144]	@ (8004b28 <HAL_RCC_ClockConfig+0x1c0>)
 8004a98:	681b      	ldr	r3, [r3, #0]
 8004a9a:	f023 0207 	bic.w	r2, r3, #7
 8004a9e:	4922      	ldr	r1, [pc, #136]	@ (8004b28 <HAL_RCC_ClockConfig+0x1c0>)
 8004aa0:	683b      	ldr	r3, [r7, #0]
 8004aa2:	4313      	orrs	r3, r2
 8004aa4:	600b      	str	r3, [r1, #0]

    /* Check that the new number of wait states is taken into account to access the Flash
    memory by reading the FLASH_ACR register */
    if (__HAL_FLASH_GET_LATENCY() != FLatency)
 8004aa6:	4b20      	ldr	r3, [pc, #128]	@ (8004b28 <HAL_RCC_ClockConfig+0x1c0>)
 8004aa8:	681b      	ldr	r3, [r3, #0]
 8004aaa:	f003 0307 	and.w	r3, r3, #7
 8004aae:	683a      	ldr	r2, [r7, #0]
 8004ab0:	429a      	cmp	r2, r3
 8004ab2:	d001      	beq.n	8004ab8 <HAL_RCC_ClockConfig+0x150>
  {
    return HAL_ERROR;
 8004ab4:	2301      	movs	r3, #1
 8004ab6:	e032      	b.n	8004b1e <HAL_RCC_ClockConfig+0x1b6>
  }
}
#endif /* FLASH_ACR_LATENCY */

/*-------------------------- PCLK1 Configuration ---------------------------*/
if (((RCC_ClkInitStruct->ClockType) & RCC_CLOCKTYPE_PCLK1) == RCC_CLOCKTYPE_PCLK1)
 8004ab8:	687b      	ldr	r3, [r7, #4]
 8004aba:	681b      	ldr	r3, [r3, #0]
 8004abc:	f003 0304 	and.w	r3, r3, #4
 8004ac0:	2b00      	cmp	r3, #0
 8004ac2:	d008      	beq.n	8004ad6 <HAL_RCC_ClockConfig+0x16e>
  {
    assert_param(IS_RCC_PCLK(RCC_ClkInitStruct->APB1CLKDivider));
    MODIFY_REG(RCC->CFGR, RCC_CFGR_PPRE1, RCC_ClkInitStruct->APB1CLKDivider);
 8004ac4:	4b19      	ldr	r3, [pc, #100]	@ (8004b2c <HAL_RCC_ClockConfig+0x1c4>)
 8004ac6:	685b      	ldr	r3, [r3, #4]
 8004ac8:	f423 62e0 	bic.w	r2, r3, #1792	@ 0x700
 8004acc:	687b      	ldr	r3, [r7, #4]
 8004ace:	68db      	ldr	r3, [r3, #12]
 8004ad0:	4916      	ldr	r1, [pc, #88]	@ (8004b2c <HAL_RCC_ClockConfig+0x1c4>)
 8004ad2:	4313      	orrs	r3, r2
 8004ad4:	604b      	str	r3, [r1, #4]
  }

  /*-------------------------- PCLK2 Configuration ---------------------------*/
  if (((RCC_ClkInitStruct->ClockType) & RCC_CLOCKTYPE_PCLK2) == RCC_CLOCKTYPE_PCLK2)
 8004ad6:	687b      	ldr	r3, [r7, #4]
 8004ad8:	681b      	ldr	r3, [r3, #0]
 8004ada:	f003 0308 	and.w	r3, r3, #8
 8004ade:	2b00      	cmp	r3, #0
 8004ae0:	d009      	beq.n	8004af6 <HAL_RCC_ClockConfig+0x18e>
  {
    assert_param(IS_RCC_PCLK(RCC_ClkInitStruct->APB2CLKDivider));
    MODIFY_REG(RCC->CFGR, RCC_CFGR_PPRE2, ((RCC_ClkInitStruct->APB2CLKDivider) << 3));
 8004ae2:	4b12      	ldr	r3, [pc, #72]	@ (8004b2c <HAL_RCC_ClockConfig+0x1c4>)
 8004ae4:	685b      	ldr	r3, [r3, #4]
 8004ae6:	f423 5260 	bic.w	r2, r3, #14336	@ 0x3800
 8004aea:	687b      	ldr	r3, [r7, #4]
 8004aec:	691b      	ldr	r3, [r3, #16]
 8004aee:	00db      	lsls	r3, r3, #3
 8004af0:	490e      	ldr	r1, [pc, #56]	@ (8004b2c <HAL_RCC_ClockConfig+0x1c4>)
 8004af2:	4313      	orrs	r3, r2
 8004af4:	604b      	str	r3, [r1, #4]
  }

  /* Update the SystemCoreClock global variable */
  SystemCoreClock = HAL_RCC_GetSysClockFreq() >> AHBPrescTable[(RCC->CFGR & RCC_CFGR_HPRE) >> RCC_CFGR_HPRE_Pos];
 8004af6:	f000 f821 	bl	8004b3c <HAL_RCC_GetSysClockFreq>
 8004afa:	4602      	mov	r2, r0
 8004afc:	4b0b      	ldr	r3, [pc, #44]	@ (8004b2c <HAL_RCC_ClockConfig+0x1c4>)
 8004afe:	685b      	ldr	r3, [r3, #4]
 8004b00:	091b      	lsrs	r3, r3, #4
 8004b02:	f003 030f 	and.w	r3, r3, #15
 8004b06:	490a      	ldr	r1, [pc, #40]	@ (8004b30 <HAL_RCC_ClockConfig+0x1c8>)
 8004b08:	5ccb      	ldrb	r3, [r1, r3]
 8004b0a:	fa22 f303 	lsr.w	r3, r2, r3
 8004b0e:	4a09      	ldr	r2, [pc, #36]	@ (8004b34 <HAL_RCC_ClockConfig+0x1cc>)
 8004b10:	6013      	str	r3, [r2, #0]

  /* Configure the source of time base considering new system clocks settings*/
  HAL_InitTick(uwTickPrio);
 8004b12:	4b09      	ldr	r3, [pc, #36]	@ (8004b38 <HAL_RCC_ClockConfig+0x1d0>)
 8004b14:	681b      	ldr	r3, [r3, #0]
 8004b16:	4618      	mov	r0, r3
 8004b18:	f7fe f954 	bl	8002dc4 <HAL_InitTick>

  return HAL_OK;
 8004b1c:	2300      	movs	r3, #0
}
 8004b1e:	4618      	mov	r0, r3
 8004b20:	3710      	adds	r7, #16
 8004b22:	46bd      	mov	sp, r7
 8004b24:	bd80      	pop	{r7, pc}
 8004b26:	bf00      	nop
 8004b28:	40022000 	.word	0x40022000
 8004b2c:	40021000 	.word	0x40021000
 8004b30:	08006448 	.word	0x08006448
 8004b34:	20000090 	.word	0x20000090
 8004b38:	20000094 	.word	0x20000094

08004b3c <HAL_RCC_GetSysClockFreq>:
  *         right SYSCLK value. Otherwise, any configuration based on this function will be incorrect.
  *
  * @retval SYSCLK frequency
  */
uint32_t HAL_RCC_GetSysClockFreq(void)
{
 8004b3c:	b480      	push	{r7}
 8004b3e:	b087      	sub	sp, #28
 8004b40:	af00      	add	r7, sp, #0
#else
  static const uint8_t aPredivFactorTable[2U] = {1, 2};
#endif /*RCC_CFGR2_PREDIV1*/

#endif
  uint32_t tmpreg = 0U, prediv = 0U, pllclk = 0U, pllmul = 0U;
 8004b42:	2300      	movs	r3, #0
 8004b44:	60fb      	str	r3, [r7, #12]
 8004b46:	2300      	movs	r3, #0
 8004b48:	60bb      	str	r3, [r7, #8]
 8004b4a:	2300      	movs	r3, #0
 8004b4c:	617b      	str	r3, [r7, #20]
 8004b4e:	2300      	movs	r3, #0
 8004b50:	607b      	str	r3, [r7, #4]
  uint32_t sysclockfreq = 0U;
 8004b52:	2300      	movs	r3, #0
 8004b54:	613b      	str	r3, [r7, #16]
#if defined(RCC_CFGR2_PREDIV1SRC)
  uint32_t prediv2 = 0U, pll2mul = 0U;
#endif /*RCC_CFGR2_PREDIV1SRC*/

  tmpreg = RCC->CFGR;
 8004b56:	4b1e      	ldr	r3, [pc, #120]	@ (8004bd0 <HAL_RCC_GetSysClockFreq+0x94>)
 8004b58:	685b      	ldr	r3, [r3, #4]
 8004b5a:	60fb      	str	r3, [r7, #12]

  /* Get SYSCLK source -------------------------------------------------------*/
  switch (tmpreg & RCC_CFGR_SWS)
 8004b5c:	68fb      	ldr	r3, [r7, #12]
 8004b5e:	f003 030c 	and.w	r3, r3, #12
 8004b62:	2b04      	cmp	r3, #4
 8004b64:	d002      	beq.n	8004b6c <HAL_RCC_GetSysClockFreq+0x30>
 8004b66:	2b08      	cmp	r3, #8
 8004b68:	d003      	beq.n	8004b72 <HAL_RCC_GetSysClockFreq+0x36>
 8004b6a:	e027      	b.n	8004bbc <HAL_RCC_GetSysClockFreq+0x80>
  {
    case RCC_SYSCLKSOURCE_STATUS_HSE:  /* HSE used as system clock */
    {
      sysclockfreq = HSE_VALUE;
 8004b6c:	4b19      	ldr	r3, [pc, #100]	@ (8004bd4 <HAL_RCC_GetSysClockFreq+0x98>)
 8004b6e:	613b      	str	r3, [r7, #16]
      break;
 8004b70:	e027      	b.n	8004bc2 <HAL_RCC_GetSysClockFreq+0x86>
    }
    case RCC_SYSCLKSOURCE_STATUS_PLLCLK:  /* PLL used as system clock */
    {
      pllmul = aPLLMULFactorTable[(uint32_t)(tmpreg & RCC_CFGR_PLLMULL) >> RCC_CFGR_PLLMULL_Pos];
 8004b72:	68fb      	ldr	r3, [r7, #12]
 8004b74:	0c9b      	lsrs	r3, r3, #18
 8004b76:	f003 030f 	and.w	r3, r3, #15
 8004b7a:	4a17      	ldr	r2, [pc, #92]	@ (8004bd8 <HAL_RCC_GetSysClockFreq+0x9c>)
 8004b7c:	5cd3      	ldrb	r3, [r2, r3]
 8004b7e:	607b      	str	r3, [r7, #4]
      if ((tmpreg & RCC_CFGR_PLLSRC) != RCC_PLLSOURCE_HSI_DIV2)
 8004b80:	68fb      	ldr	r3, [r7, #12]
 8004b82:	f403 3380 	and.w	r3, r3, #65536	@ 0x10000
 8004b86:	2b00      	cmp	r3, #0
 8004b88:	d010      	beq.n	8004bac <HAL_RCC_GetSysClockFreq+0x70>
      {
#if defined(RCC_CFGR2_PREDIV1)
        prediv = aPredivFactorTable[(uint32_t)(RCC->CFGR2 & RCC_CFGR2_PREDIV1) >> RCC_CFGR2_PREDIV1_Pos];
#else
        prediv = aPredivFactorTable[(uint32_t)(RCC->CFGR & RCC_CFGR_PLLXTPRE) >> RCC_CFGR_PLLXTPRE_Pos];
 8004b8a:	4b11      	ldr	r3, [pc, #68]	@ (8004bd0 <HAL_RCC_GetSysClockFreq+0x94>)
 8004b8c:	685b      	ldr	r3, [r3, #4]
 8004b8e:	0c5b      	lsrs	r3, r3, #17
 8004b90:	f003 0301 	and.w	r3, r3, #1
 8004b94:	4a11      	ldr	r2, [pc, #68]	@ (8004bdc <HAL_RCC_GetSysClockFreq+0xa0>)
 8004b96:	5cd3      	ldrb	r3, [r2, r3]
 8004b98:	60bb      	str	r3, [r7, #8]
        {
          pllclk = pllclk / 2;
        }
#else
        /* HSE used as PLL clock source : PLLCLK = HSE/PREDIV1 * PLLMUL */
        pllclk = (uint32_t)((HSE_VALUE  * pllmul) / prediv);
 8004b9a:	687b      	ldr	r3, [r7, #4]
 8004b9c:	4a0d      	ldr	r2, [pc, #52]	@ (8004bd4 <HAL_RCC_GetSysClockFreq+0x98>)
 8004b9e:	fb03 f202 	mul.w	r2, r3, r2
 8004ba2:	68bb      	ldr	r3, [r7, #8]
 8004ba4:	fbb2 f3f3 	udiv	r3, r2, r3
 8004ba8:	617b      	str	r3, [r7, #20]
 8004baa:	e004      	b.n	8004bb6 <HAL_RCC_GetSysClockFreq+0x7a>
#endif /*RCC_CFGR2_PREDIV1SRC*/
      }
      else
      {
        /* HSI used as PLL clock source : PLLCLK = HSI/2 * PLLMUL */
        pllclk = (uint32_t)((HSI_VALUE >> 1) * pllmul);
 8004bac:	687b      	ldr	r3, [r7, #4]
 8004bae:	4a0c      	ldr	r2, [pc, #48]	@ (8004be0 <HAL_RCC_GetSysClockFreq+0xa4>)
 8004bb0:	fb02 f303 	mul.w	r3, r2, r3
 8004bb4:	617b      	str	r3, [r7, #20]
      }
      sysclockfreq = pllclk;
 8004bb6:	697b      	ldr	r3, [r7, #20]
 8004bb8:	613b      	str	r3, [r7, #16]
      break;
 8004bba:	e002      	b.n	8004bc2 <HAL_RCC_GetSysClockFreq+0x86>
    }
    case RCC_SYSCLKSOURCE_STATUS_HSI:  /* HSI used as system clock source */
    default: /* HSI used as system clock */
    {
      sysclockfreq = HSI_VALUE;
 8004bbc:	4b05      	ldr	r3, [pc, #20]	@ (8004bd4 <HAL_RCC_GetSysClockFreq+0x98>)
 8004bbe:	613b      	str	r3, [r7, #16]
      break;
 8004bc0:	bf00      	nop
    }
  }
  return sysclockfreq;
 8004bc2:	693b      	ldr	r3, [r7, #16]
}
 8004bc4:	4618      	mov	r0, r3
 8004bc6:	371c      	adds	r7, #28
 8004bc8:	46bd      	mov	sp, r7
 8004bca:	bc80      	pop	{r7}
 8004bcc:	4770      	bx	lr
 8004bce:	bf00      	nop
 8004bd0:	40021000 	.word	0x40021000
 8004bd4:	007a1200 	.word	0x007a1200
 8004bd8:	08006460 	.word	0x08006460
 8004bdc:	08006470 	.word	0x08006470
 8004be0:	003d0900 	.word	0x003d0900

08004be4 <HAL_RCC_GetHCLKFreq>:
  * @note   The SystemCoreClock CMSIS variable is used to store System Clock Frequency
  *         and updated within this function
  * @retval HCLK frequency
  */
uint32_t HAL_RCC_GetHCLKFreq(void)
{
 8004be4:	b480      	push	{r7}
 8004be6:	af00      	add	r7, sp, #0
  return SystemCoreClock;
 8004be8:	4b02      	ldr	r3, [pc, #8]	@ (8004bf4 <HAL_RCC_GetHCLKFreq+0x10>)
 8004bea:	681b      	ldr	r3, [r3, #0]
}
 8004bec:	4618      	mov	r0, r3
 8004bee:	46bd      	mov	sp, r7
 8004bf0:	bc80      	pop	{r7}
 8004bf2:	4770      	bx	lr
 8004bf4:	20000090 	.word	0x20000090

08004bf8 <HAL_RCC_GetPCLK1Freq>:
  * @note   Each time PCLK1 changes, this function must be called to update the
  *         right PCLK1 value. Otherwise, any configuration based on this function will be incorrect.
  * @retval PCLK1 frequency
  */
uint32_t HAL_RCC_GetPCLK1Freq(void)
{
 8004bf8:	b580      	push	{r7, lr}
 8004bfa:	af00      	add	r7, sp, #0
  /* Get HCLK source and Compute PCLK1 frequency ---------------------------*/
  return (HAL_RCC_GetHCLKFreq() >> APBPrescTable[(RCC->CFGR & RCC_CFGR_PPRE1) >> RCC_CFGR_PPRE1_Pos]);
 8004bfc:	f7ff fff2 	bl	8004be4 <HAL_RCC_GetHCLKFreq>
 8004c00:	4602      	mov	r2, r0
 8004c02:	4b05      	ldr	r3, [pc, #20]	@ (8004c18 <HAL_RCC_GetPCLK1Freq+0x20>)
 8004c04:	685b      	ldr	r3, [r3, #4]
 8004c06:	0a1b      	lsrs	r3, r3, #8
 8004c08:	f003 0307 	and.w	r3, r3, #7
 8004c0c:	4903      	ldr	r1, [pc, #12]	@ (8004c1c <HAL_RCC_GetPCLK1Freq+0x24>)
 8004c0e:	5ccb      	ldrb	r3, [r1, r3]
 8004c10:	fa22 f303 	lsr.w	r3, r2, r3
}
 8004c14:	4618      	mov	r0, r3
 8004c16:	bd80      	pop	{r7, pc}
 8004c18:	40021000 	.word	0x40021000
 8004c1c:	08006458 	.word	0x08006458

08004c20 <HAL_RCC_GetPCLK2Freq>:
  * @note   Each time PCLK2 changes, this function must be called to update the
  *         right PCLK2 value. Otherwise, any configuration based on this function will be incorrect.
  * @retval PCLK2 frequency
  */
uint32_t HAL_RCC_GetPCLK2Freq(void)
{
 8004c20:	b580      	push	{r7, lr}
 8004c22:	af00      	add	r7, sp, #0
  /* Get HCLK source and Compute PCLK2 frequency ---------------------------*/
  return (HAL_RCC_GetHCLKFreq() >> APBPrescTable[(RCC->CFGR & RCC_CFGR_PPRE2) >> RCC_CFGR_PPRE2_Pos]);
 8004c24:	f7ff ffde 	bl	8004be4 <HAL_RCC_GetHCLKFreq>
 8004c28:	4602      	mov	r2, r0
 8004c2a:	4b05      	ldr	r3, [pc, #20]	@ (8004c40 <HAL_RCC_GetPCLK2Freq+0x20>)
 8004c2c:	685b      	ldr	r3, [r3, #4]
 8004c2e:	0adb      	lsrs	r3, r3, #11
 8004c30:	f003 0307 	and.w	r3, r3, #7
 8004c34:	4903      	ldr	r1, [pc, #12]	@ (8004c44 <HAL_RCC_GetPCLK2Freq+0x24>)
 8004c36:	5ccb      	ldrb	r3, [r1, r3]
 8004c38:	fa22 f303 	lsr.w	r3, r2, r3
}
 8004c3c:	4618      	mov	r0, r3
 8004c3e:	bd80      	pop	{r7, pc}
 8004c40:	40021000 	.word	0x40021000
 8004c44:	08006458 	.word	0x08006458

08004c48 <RCC_Delay>:
  * @brief  This function provides delay (in milliseconds) based on CPU cycles method.
  * @param  mdelay: specifies the delay time length, in milliseconds.
  * @retval None
  */
static void RCC_Delay(uint32_t mdelay)
{
 8004c48:	b480      	push	{r7}
 8004c4a:	b085      	sub	sp, #20
 8004c4c:	af00      	add	r7, sp, #0
 8004c4e:	6078      	str	r0, [r7, #4]
  __IO uint32_t Delay = mdelay * (SystemCoreClock / 8U / 1000U);
 8004c50:	4b0a      	ldr	r3, [pc, #40]	@ (8004c7c <RCC_Delay+0x34>)
 8004c52:	681b      	ldr	r3, [r3, #0]
 8004c54:	4a0a      	ldr	r2, [pc, #40]	@ (8004c80 <RCC_Delay+0x38>)
 8004c56:	fba2 2303 	umull	r2, r3, r2, r3
 8004c5a:	0a5b      	lsrs	r3, r3, #9
 8004c5c:	687a      	ldr	r2, [r7, #4]
 8004c5e:	fb02 f303 	mul.w	r3, r2, r3
 8004c62:	60fb      	str	r3, [r7, #12]
  do
  {
    __NOP();
 8004c64:	bf00      	nop
  }
  while (Delay --);
 8004c66:	68fb      	ldr	r3, [r7, #12]
 8004c68:	1e5a      	subs	r2, r3, #1
 8004c6a:	60fa      	str	r2, [r7, #12]
 8004c6c:	2b00      	cmp	r3, #0
 8004c6e:	d1f9      	bne.n	8004c64 <RCC_Delay+0x1c>
}
 8004c70:	bf00      	nop
 8004c72:	bf00      	nop
 8004c74:	3714      	adds	r7, #20
 8004c76:	46bd      	mov	sp, r7
 8004c78:	bc80      	pop	{r7}
 8004c7a:	4770      	bx	lr
 8004c7c:	20000090 	.word	0x20000090
 8004c80:	10624dd3 	.word	0x10624dd3

08004c84 <HAL_TIM_Base_Init>:
  *         Ex: call @ref HAL_TIM_Base_DeInit() before HAL_TIM_Base_Init()
  * @param  htim TIM Base handle
  * @retval HAL status
  */
HAL_StatusTypeDef HAL_TIM_Base_Init(TIM_HandleTypeDef *htim)
{
 8004c84:	b580      	push	{r7, lr}
 8004c86:	b082      	sub	sp, #8
 8004c88:	af00      	add	r7, sp, #0
 8004c8a:	6078      	str	r0, [r7, #4]
  /* Check the TIM handle allocation */
  if (htim == NULL)
 8004c8c:	687b      	ldr	r3, [r7, #4]
 8004c8e:	2b00      	cmp	r3, #0
 8004c90:	d101      	bne.n	8004c96 <HAL_TIM_Base_Init+0x12>
  {
    return HAL_ERROR;
 8004c92:	2301      	movs	r3, #1
 8004c94:	e041      	b.n	8004d1a <HAL_TIM_Base_Init+0x96>
  assert_param(IS_TIM_COUNTER_MODE(htim->Init.CounterMode));
  assert_param(IS_TIM_CLOCKDIVISION_DIV(htim->Init.ClockDivision));
  assert_param(IS_TIM_PERIOD(htim->Init.Period));
  assert_param(IS_TIM_AUTORELOAD_PRELOAD(htim->Init.AutoReloadPreload));

  if (htim->State == HAL_TIM_STATE_RESET)
 8004c96:	687b      	ldr	r3, [r7, #4]
 8004c98:	f893 303d 	ldrb.w	r3, [r3, #61]	@ 0x3d
 8004c9c:	b2db      	uxtb	r3, r3
 8004c9e:	2b00      	cmp	r3, #0
 8004ca0:	d106      	bne.n	8004cb0 <HAL_TIM_Base_Init+0x2c>
  {
    /* Allocate lock resource and initialize it */
    htim->Lock = HAL_UNLOCKED;
 8004ca2:	687b      	ldr	r3, [r7, #4]
 8004ca4:	2200      	movs	r2, #0
 8004ca6:	f883 203c 	strb.w	r2, [r3, #60]	@ 0x3c
    }
    /* Init the low level hardware : GPIO, CLOCK, NVIC */
    htim->Base_MspInitCallback(htim);
#else
    /* Init the low level hardware : GPIO, CLOCK, NVIC */
    HAL_TIM_Base_MspInit(htim);
 8004caa:	6878      	ldr	r0, [r7, #4]
 8004cac:	f7fd ff08 	bl	8002ac0 <HAL_TIM_Base_MspInit>
#endif /* USE_HAL_TIM_REGISTER_CALLBACKS */
  }

  /* Set the TIM state */
  htim->State = HAL_TIM_STATE_BUSY;
 8004cb0:	687b      	ldr	r3, [r7, #4]
 8004cb2:	2202      	movs	r2, #2
 8004cb4:	f883 203d 	strb.w	r2, [r3, #61]	@ 0x3d

  /* Set the Time Base configuration */
  TIM_Base_SetConfig(htim->Instance, &htim->Init);
 8004cb8:	687b      	ldr	r3, [r7, #4]
 8004cba:	681a      	ldr	r2, [r3, #0]
 8004cbc:	687b      	ldr	r3, [r7, #4]
 8004cbe:	3304      	adds	r3, #4
 8004cc0:	4619      	mov	r1, r3
 8004cc2:	4610      	mov	r0, r2
 8004cc4:	f000 fc28 	bl	8005518 <TIM_Base_SetConfig>

  /* Initialize the DMA burst operation state */
  htim->DMABurstState = HAL_DMA_BURST_STATE_READY;
 8004cc8:	687b      	ldr	r3, [r7, #4]
 8004cca:	2201      	movs	r2, #1
 8004ccc:	f883 2046 	strb.w	r2, [r3, #70]	@ 0x46

  /* Initialize the TIM channels state */
  TIM_CHANNEL_STATE_SET_ALL(htim, HAL_TIM_CHANNEL_STATE_READY);
 8004cd0:	687b      	ldr	r3, [r7, #4]
 8004cd2:	2201      	movs	r2, #1
 8004cd4:	f883 203e 	strb.w	r2, [r3, #62]	@ 0x3e
 8004cd8:	687b      	ldr	r3, [r7, #4]
 8004cda:	2201      	movs	r2, #1
 8004cdc:	f883 203f 	strb.w	r2, [r3, #63]	@ 0x3f
 8004ce0:	687b      	ldr	r3, [r7, #4]
 8004ce2:	2201      	movs	r2, #1
 8004ce4:	f883 2040 	strb.w	r2, [r3, #64]	@ 0x40
 8004ce8:	687b      	ldr	r3, [r7, #4]
 8004cea:	2201      	movs	r2, #1
 8004cec:	f883 2041 	strb.w	r2, [r3, #65]	@ 0x41
  TIM_CHANNEL_N_STATE_SET_ALL(htim, HAL_TIM_CHANNEL_STATE_READY);
 8004cf0:	687b      	ldr	r3, [r7, #4]
 8004cf2:	2201      	movs	r2, #1
 8004cf4:	f883 2042 	strb.w	r2, [r3, #66]	@ 0x42
 8004cf8:	687b      	ldr	r3, [r7, #4]
 8004cfa:	2201      	movs	r2, #1
 8004cfc:	f883 2043 	strb.w	r2, [r3, #67]	@ 0x43
 8004d00:	687b      	ldr	r3, [r7, #4]
 8004d02:	2201      	movs	r2, #1
 8004d04:	f883 2044 	strb.w	r2, [r3, #68]	@ 0x44
 8004d08:	687b      	ldr	r3, [r7, #4]
 8004d0a:	2201      	movs	r2, #1
 8004d0c:	f883 2045 	strb.w	r2, [r3, #69]	@ 0x45

  /* Initialize the TIM state*/
  htim->State = HAL_TIM_STATE_READY;
 8004d10:	687b      	ldr	r3, [r7, #4]
 8004d12:	2201      	movs	r2, #1
 8004d14:	f883 203d 	strb.w	r2, [r3, #61]	@ 0x3d

  return HAL_OK;
 8004d18:	2300      	movs	r3, #0
}
 8004d1a:	4618      	mov	r0, r3
 8004d1c:	3708      	adds	r7, #8
 8004d1e:	46bd      	mov	sp, r7
 8004d20:	bd80      	pop	{r7, pc}
	...

08004d24 <HAL_TIM_Base_Start_IT>:
  * @brief  Starts the TIM Base generation in interrupt mode.
  * @param  htim TIM Base handle
  * @retval HAL status
  */
HAL_StatusTypeDef HAL_TIM_Base_Start_IT(TIM_HandleTypeDef *htim)
{
 8004d24:	b480      	push	{r7}
 8004d26:	b085      	sub	sp, #20
 8004d28:	af00      	add	r7, sp, #0
 8004d2a:	6078      	str	r0, [r7, #4]

  /* Check the parameters */
  assert_param(IS_TIM_INSTANCE(htim->Instance));

  /* Check the TIM state */
  if (htim->State != HAL_TIM_STATE_READY)
 8004d2c:	687b      	ldr	r3, [r7, #4]
 8004d2e:	f893 303d 	ldrb.w	r3, [r3, #61]	@ 0x3d
 8004d32:	b2db      	uxtb	r3, r3
 8004d34:	2b01      	cmp	r3, #1
 8004d36:	d001      	beq.n	8004d3c <HAL_TIM_Base_Start_IT+0x18>
  {
    return HAL_ERROR;
 8004d38:	2301      	movs	r3, #1
 8004d3a:	e03a      	b.n	8004db2 <HAL_TIM_Base_Start_IT+0x8e>
  }

  /* Set the TIM state */
  htim->State = HAL_TIM_STATE_BUSY;
 8004d3c:	687b      	ldr	r3, [r7, #4]
 8004d3e:	2202      	movs	r2, #2
 8004d40:	f883 203d 	strb.w	r2, [r3, #61]	@ 0x3d

  /* Enable the TIM Update interrupt */
  __HAL_TIM_ENABLE_IT(htim, TIM_IT_UPDATE);
 8004d44:	687b      	ldr	r3, [r7, #4]
 8004d46:	681b      	ldr	r3, [r3, #0]
 8004d48:	68da      	ldr	r2, [r3, #12]
 8004d4a:	687b      	ldr	r3, [r7, #4]
 8004d4c:	681b      	ldr	r3, [r3, #0]
 8004d4e:	f042 0201 	orr.w	r2, r2, #1
 8004d52:	60da      	str	r2, [r3, #12]

  /* Enable the Peripheral, except in trigger mode where enable is automatically done with trigger */
  if (IS_TIM_SLAVE_INSTANCE(htim->Instance))
 8004d54:	687b      	ldr	r3, [r7, #4]
 8004d56:	681b      	ldr	r3, [r3, #0]
 8004d58:	4a18      	ldr	r2, [pc, #96]	@ (8004dbc <HAL_TIM_Base_Start_IT+0x98>)
 8004d5a:	4293      	cmp	r3, r2
 8004d5c:	d00e      	beq.n	8004d7c <HAL_TIM_Base_Start_IT+0x58>
 8004d5e:	687b      	ldr	r3, [r7, #4]
 8004d60:	681b      	ldr	r3, [r3, #0]
 8004d62:	f1b3 4f80 	cmp.w	r3, #1073741824	@ 0x40000000
 8004d66:	d009      	beq.n	8004d7c <HAL_TIM_Base_Start_IT+0x58>
 8004d68:	687b      	ldr	r3, [r7, #4]
 8004d6a:	681b      	ldr	r3, [r3, #0]
 8004d6c:	4a14      	ldr	r2, [pc, #80]	@ (8004dc0 <HAL_TIM_Base_Start_IT+0x9c>)
 8004d6e:	4293      	cmp	r3, r2
 8004d70:	d004      	beq.n	8004d7c <HAL_TIM_Base_Start_IT+0x58>
 8004d72:	687b      	ldr	r3, [r7, #4]
 8004d74:	681b      	ldr	r3, [r3, #0]
 8004d76:	4a13      	ldr	r2, [pc, #76]	@ (8004dc4 <HAL_TIM_Base_Start_IT+0xa0>)
 8004d78:	4293      	cmp	r3, r2
 8004d7a:	d111      	bne.n	8004da0 <HAL_TIM_Base_Start_IT+0x7c>
  {
    tmpsmcr = htim->Instance->SMCR & TIM_SMCR_SMS;
 8004d7c:	687b      	ldr	r3, [r7, #4]
 8004d7e:	681b      	ldr	r3, [r3, #0]
 8004d80:	689b      	ldr	r3, [r3, #8]
 8004d82:	f003 0307 	and.w	r3, r3, #7
 8004d86:	60fb      	str	r3, [r7, #12]
    if (!IS_TIM_SLAVEMODE_TRIGGER_ENABLED(tmpsmcr))
 8004d88:	68fb      	ldr	r3, [r7, #12]
 8004d8a:	2b06      	cmp	r3, #6
 8004d8c:	d010      	beq.n	8004db0 <HAL_TIM_Base_Start_IT+0x8c>
    {
      __HAL_TIM_ENABLE(htim);
 8004d8e:	687b      	ldr	r3, [r7, #4]
 8004d90:	681b      	ldr	r3, [r3, #0]
 8004d92:	681a      	ldr	r2, [r3, #0]
 8004d94:	687b      	ldr	r3, [r7, #4]
 8004d96:	681b      	ldr	r3, [r3, #0]
 8004d98:	f042 0201 	orr.w	r2, r2, #1
 8004d9c:	601a      	str	r2, [r3, #0]
    if (!IS_TIM_SLAVEMODE_TRIGGER_ENABLED(tmpsmcr))
 8004d9e:	e007      	b.n	8004db0 <HAL_TIM_Base_Start_IT+0x8c>
    }
  }
  else
  {
    __HAL_TIM_ENABLE(htim);
 8004da0:	687b      	ldr	r3, [r7, #4]
 8004da2:	681b      	ldr	r3, [r3, #0]
 8004da4:	681a      	ldr	r2, [r3, #0]
 8004da6:	687b      	ldr	r3, [r7, #4]
 8004da8:	681b      	ldr	r3, [r3, #0]
 8004daa:	f042 0201 	orr.w	r2, r2, #1
 8004dae:	601a      	str	r2, [r3, #0]
  }

  /* Return function status */
  return HAL_OK;
 8004db0:	2300      	movs	r3, #0
}
 8004db2:	4618      	mov	r0, r3
 8004db4:	3714      	adds	r7, #20
 8004db6:	46bd      	mov	sp, r7
 8004db8:	bc80      	pop	{r7}
 8004dba:	4770      	bx	lr
 8004dbc:	40012c00 	.word	0x40012c00
 8004dc0:	40000400 	.word	0x40000400
 8004dc4:	40000800 	.word	0x40000800

08004dc8 <HAL_TIM_PWM_Init>:
  *         Ex: call @ref HAL_TIM_PWM_DeInit() before HAL_TIM_PWM_Init()
  * @param  htim TIM PWM handle
  * @retval HAL status
  */
HAL_StatusTypeDef HAL_TIM_PWM_Init(TIM_HandleTypeDef *htim)
{
 8004dc8:	b580      	push	{r7, lr}
 8004dca:	b082      	sub	sp, #8
 8004dcc:	af00      	add	r7, sp, #0
 8004dce:	6078      	str	r0, [r7, #4]
  /* Check the TIM handle allocation */
  if (htim == NULL)
 8004dd0:	687b      	ldr	r3, [r7, #4]
 8004dd2:	2b00      	cmp	r3, #0
 8004dd4:	d101      	bne.n	8004dda <HAL_TIM_PWM_Init+0x12>
  {
    return HAL_ERROR;
 8004dd6:	2301      	movs	r3, #1
 8004dd8:	e041      	b.n	8004e5e <HAL_TIM_PWM_Init+0x96>
  assert_param(IS_TIM_COUNTER_MODE(htim->Init.CounterMode));
  assert_param(IS_TIM_CLOCKDIVISION_DIV(htim->Init.ClockDivision));
  assert_param(IS_TIM_PERIOD(htim->Init.Period));
  assert_param(IS_TIM_AUTORELOAD_PRELOAD(htim->Init.AutoReloadPreload));

  if (htim->State == HAL_TIM_STATE_RESET)
 8004dda:	687b      	ldr	r3, [r7, #4]
 8004ddc:	f893 303d 	ldrb.w	r3, [r3, #61]	@ 0x3d
 8004de0:	b2db      	uxtb	r3, r3
 8004de2:	2b00      	cmp	r3, #0
 8004de4:	d106      	bne.n	8004df4 <HAL_TIM_PWM_Init+0x2c>
  {
    /* Allocate lock resource and initialize it */
    htim->Lock = HAL_UNLOCKED;
 8004de6:	687b      	ldr	r3, [r7, #4]
 8004de8:	2200      	movs	r2, #0
 8004dea:	f883 203c 	strb.w	r2, [r3, #60]	@ 0x3c
    }
    /* Init the low level hardware : GPIO, CLOCK, NVIC */
    htim->PWM_MspInitCallback(htim);
#else
    /* Init the low level hardware : GPIO, CLOCK, NVIC and DMA */
    HAL_TIM_PWM_MspInit(htim);
 8004dee:	6878      	ldr	r0, [r7, #4]
 8004df0:	f7fd fe8c 	bl	8002b0c <HAL_TIM_PWM_MspInit>
#endif /* USE_HAL_TIM_REGISTER_CALLBACKS */
  }

  /* Set the TIM state */
  htim->State = HAL_TIM_STATE_BUSY;
 8004df4:	687b      	ldr	r3, [r7, #4]
 8004df6:	2202      	movs	r2, #2
 8004df8:	f883 203d 	strb.w	r2, [r3, #61]	@ 0x3d

  /* Init the base time for the PWM */
  TIM_Base_SetConfig(htim->Instance, &htim->Init);
 8004dfc:	687b      	ldr	r3, [r7, #4]
 8004dfe:	681a      	ldr	r2, [r3, #0]
 8004e00:	687b      	ldr	r3, [r7, #4]
 8004e02:	3304      	adds	r3, #4
 8004e04:	4619      	mov	r1, r3
 8004e06:	4610      	mov	r0, r2
 8004e08:	f000 fb86 	bl	8005518 <TIM_Base_SetConfig>

  /* Initialize the DMA burst operation state */
  htim->DMABurstState = HAL_DMA_BURST_STATE_READY;
 8004e0c:	687b      	ldr	r3, [r7, #4]
 8004e0e:	2201      	movs	r2, #1
 8004e10:	f883 2046 	strb.w	r2, [r3, #70]	@ 0x46

  /* Initialize the TIM channels state */
  TIM_CHANNEL_STATE_SET_ALL(htim, HAL_TIM_CHANNEL_STATE_READY);
 8004e14:	687b      	ldr	r3, [r7, #4]
 8004e16:	2201      	movs	r2, #1
 8004e18:	f883 203e 	strb.w	r2, [r3, #62]	@ 0x3e
 8004e1c:	687b      	ldr	r3, [r7, #4]
 8004e1e:	2201      	movs	r2, #1
 8004e20:	f883 203f 	strb.w	r2, [r3, #63]	@ 0x3f
 8004e24:	687b      	ldr	r3, [r7, #4]
 8004e26:	2201      	movs	r2, #1
 8004e28:	f883 2040 	strb.w	r2, [r3, #64]	@ 0x40
 8004e2c:	687b      	ldr	r3, [r7, #4]
 8004e2e:	2201      	movs	r2, #1
 8004e30:	f883 2041 	strb.w	r2, [r3, #65]	@ 0x41
  TIM_CHANNEL_N_STATE_SET_ALL(htim, HAL_TIM_CHANNEL_STATE_READY);
 8004e34:	687b      	ldr	r3, [r7, #4]
 8004e36:	2201      	movs	r2, #1
 8004e38:	f883 2042 	strb.w	r2, [r3, #66]	@ 0x42
 8004e3c:	687b      	ldr	r3, [r7, #4]
 8004e3e:	2201      	movs	r2, #1
 8004e40:	f883 2043 	strb.w	r2, [r3, #67]	@ 0x43
 8004e44:	687b      	ldr	r3, [r7, #4]
 8004e46:	2201      	movs	r2, #1
 8004e48:	f883 2044 	strb.w	r2, [r3, #68]	@ 0x44
 8004e4c:	687b      	ldr	r3, [r7, #4]
 8004e4e:	2201      	movs	r2, #1
 8004e50:	f883 2045 	strb.w	r2, [r3, #69]	@ 0x45

  /* Initialize the TIM state*/
  htim->State = HAL_TIM_STATE_READY;
 8004e54:	687b      	ldr	r3, [r7, #4]
 8004e56:	2201      	movs	r2, #1
 8004e58:	f883 203d 	strb.w	r2, [r3, #61]	@ 0x3d

  return HAL_OK;
 8004e5c:	2300      	movs	r3, #0
}
 8004e5e:	4618      	mov	r0, r3
 8004e60:	3708      	adds	r7, #8
 8004e62:	46bd      	mov	sp, r7
 8004e64:	bd80      	pop	{r7, pc}
	...

08004e68 <HAL_TIM_PWM_Start>:
  *            @arg TIM_CHANNEL_3: TIM Channel 3 selected
  *            @arg TIM_CHANNEL_4: TIM Channel 4 selected
  * @retval HAL status
  */
HAL_StatusTypeDef HAL_TIM_PWM_Start(TIM_HandleTypeDef *htim, uint32_t Channel)
{
 8004e68:	b580      	push	{r7, lr}
 8004e6a:	b084      	sub	sp, #16
 8004e6c:	af00      	add	r7, sp, #0
 8004e6e:	6078      	str	r0, [r7, #4]
 8004e70:	6039      	str	r1, [r7, #0]

  /* Check the parameters */
  assert_param(IS_TIM_CCX_INSTANCE(htim->Instance, Channel));

  /* Check the TIM channel state */
  if (TIM_CHANNEL_STATE_GET(htim, Channel) != HAL_TIM_CHANNEL_STATE_READY)
 8004e72:	683b      	ldr	r3, [r7, #0]
 8004e74:	2b00      	cmp	r3, #0
 8004e76:	d109      	bne.n	8004e8c <HAL_TIM_PWM_Start+0x24>
 8004e78:	687b      	ldr	r3, [r7, #4]
 8004e7a:	f893 303e 	ldrb.w	r3, [r3, #62]	@ 0x3e
 8004e7e:	b2db      	uxtb	r3, r3
 8004e80:	2b01      	cmp	r3, #1
 8004e82:	bf14      	ite	ne
 8004e84:	2301      	movne	r3, #1
 8004e86:	2300      	moveq	r3, #0
 8004e88:	b2db      	uxtb	r3, r3
 8004e8a:	e022      	b.n	8004ed2 <HAL_TIM_PWM_Start+0x6a>
 8004e8c:	683b      	ldr	r3, [r7, #0]
 8004e8e:	2b04      	cmp	r3, #4
 8004e90:	d109      	bne.n	8004ea6 <HAL_TIM_PWM_Start+0x3e>
 8004e92:	687b      	ldr	r3, [r7, #4]
 8004e94:	f893 303f 	ldrb.w	r3, [r3, #63]	@ 0x3f
 8004e98:	b2db      	uxtb	r3, r3
 8004e9a:	2b01      	cmp	r3, #1
 8004e9c:	bf14      	ite	ne
 8004e9e:	2301      	movne	r3, #1
 8004ea0:	2300      	moveq	r3, #0
 8004ea2:	b2db      	uxtb	r3, r3
 8004ea4:	e015      	b.n	8004ed2 <HAL_TIM_PWM_Start+0x6a>
 8004ea6:	683b      	ldr	r3, [r7, #0]
 8004ea8:	2b08      	cmp	r3, #8
 8004eaa:	d109      	bne.n	8004ec0 <HAL_TIM_PWM_Start+0x58>
 8004eac:	687b      	ldr	r3, [r7, #4]
 8004eae:	f893 3040 	ldrb.w	r3, [r3, #64]	@ 0x40
 8004eb2:	b2db      	uxtb	r3, r3
 8004eb4:	2b01      	cmp	r3, #1
 8004eb6:	bf14      	ite	ne
 8004eb8:	2301      	movne	r3, #1
 8004eba:	2300      	moveq	r3, #0
 8004ebc:	b2db      	uxtb	r3, r3
 8004ebe:	e008      	b.n	8004ed2 <HAL_TIM_PWM_Start+0x6a>
 8004ec0:	687b      	ldr	r3, [r7, #4]
 8004ec2:	f893 3041 	ldrb.w	r3, [r3, #65]	@ 0x41
 8004ec6:	b2db      	uxtb	r3, r3
 8004ec8:	2b01      	cmp	r3, #1
 8004eca:	bf14      	ite	ne
 8004ecc:	2301      	movne	r3, #1
 8004ece:	2300      	moveq	r3, #0
 8004ed0:	b2db      	uxtb	r3, r3
 8004ed2:	2b00      	cmp	r3, #0
 8004ed4:	d001      	beq.n	8004eda <HAL_TIM_PWM_Start+0x72>
  {
    return HAL_ERROR;
 8004ed6:	2301      	movs	r3, #1
 8004ed8:	e05e      	b.n	8004f98 <HAL_TIM_PWM_Start+0x130>
  }

  /* Set the TIM channel state */
  TIM_CHANNEL_STATE_SET(htim, Channel, HAL_TIM_CHANNEL_STATE_BUSY);
 8004eda:	683b      	ldr	r3, [r7, #0]
 8004edc:	2b00      	cmp	r3, #0
 8004ede:	d104      	bne.n	8004eea <HAL_TIM_PWM_Start+0x82>
 8004ee0:	687b      	ldr	r3, [r7, #4]
 8004ee2:	2202      	movs	r2, #2
 8004ee4:	f883 203e 	strb.w	r2, [r3, #62]	@ 0x3e
 8004ee8:	e013      	b.n	8004f12 <HAL_TIM_PWM_Start+0xaa>
 8004eea:	683b      	ldr	r3, [r7, #0]
 8004eec:	2b04      	cmp	r3, #4
 8004eee:	d104      	bne.n	8004efa <HAL_TIM_PWM_Start+0x92>
 8004ef0:	687b      	ldr	r3, [r7, #4]
 8004ef2:	2202      	movs	r2, #2
 8004ef4:	f883 203f 	strb.w	r2, [r3, #63]	@ 0x3f
 8004ef8:	e00b      	b.n	8004f12 <HAL_TIM_PWM_Start+0xaa>
 8004efa:	683b      	ldr	r3, [r7, #0]
 8004efc:	2b08      	cmp	r3, #8
 8004efe:	d104      	bne.n	8004f0a <HAL_TIM_PWM_Start+0xa2>
 8004f00:	687b      	ldr	r3, [r7, #4]
 8004f02:	2202      	movs	r2, #2
 8004f04:	f883 2040 	strb.w	r2, [r3, #64]	@ 0x40
 8004f08:	e003      	b.n	8004f12 <HAL_TIM_PWM_Start+0xaa>
 8004f0a:	687b      	ldr	r3, [r7, #4]
 8004f0c:	2202      	movs	r2, #2
 8004f0e:	f883 2041 	strb.w	r2, [r3, #65]	@ 0x41

  /* Enable the Capture compare channel */
  TIM_CCxChannelCmd(htim->Instance, Channel, TIM_CCx_ENABLE);
 8004f12:	687b      	ldr	r3, [r7, #4]
 8004f14:	681b      	ldr	r3, [r3, #0]
 8004f16:	2201      	movs	r2, #1
 8004f18:	6839      	ldr	r1, [r7, #0]
 8004f1a:	4618      	mov	r0, r3
 8004f1c:	f000 fd7c 	bl	8005a18 <TIM_CCxChannelCmd>

  if (IS_TIM_BREAK_INSTANCE(htim->Instance) != RESET)
 8004f20:	687b      	ldr	r3, [r7, #4]
 8004f22:	681b      	ldr	r3, [r3, #0]
 8004f24:	4a1e      	ldr	r2, [pc, #120]	@ (8004fa0 <HAL_TIM_PWM_Start+0x138>)
 8004f26:	4293      	cmp	r3, r2
 8004f28:	d107      	bne.n	8004f3a <HAL_TIM_PWM_Start+0xd2>
  {
    /* Enable the main output */
    __HAL_TIM_MOE_ENABLE(htim);
 8004f2a:	687b      	ldr	r3, [r7, #4]
 8004f2c:	681b      	ldr	r3, [r3, #0]
 8004f2e:	6c5a      	ldr	r2, [r3, #68]	@ 0x44
 8004f30:	687b      	ldr	r3, [r7, #4]
 8004f32:	681b      	ldr	r3, [r3, #0]
 8004f34:	f442 4200 	orr.w	r2, r2, #32768	@ 0x8000
 8004f38:	645a      	str	r2, [r3, #68]	@ 0x44
  }

  /* Enable the Peripheral, except in trigger mode where enable is automatically done with trigger */
  if (IS_TIM_SLAVE_INSTANCE(htim->Instance))
 8004f3a:	687b      	ldr	r3, [r7, #4]
 8004f3c:	681b      	ldr	r3, [r3, #0]
 8004f3e:	4a18      	ldr	r2, [pc, #96]	@ (8004fa0 <HAL_TIM_PWM_Start+0x138>)
 8004f40:	4293      	cmp	r3, r2
 8004f42:	d00e      	beq.n	8004f62 <HAL_TIM_PWM_Start+0xfa>
 8004f44:	687b      	ldr	r3, [r7, #4]
 8004f46:	681b      	ldr	r3, [r3, #0]
 8004f48:	f1b3 4f80 	cmp.w	r3, #1073741824	@ 0x40000000
 8004f4c:	d009      	beq.n	8004f62 <HAL_TIM_PWM_Start+0xfa>
 8004f4e:	687b      	ldr	r3, [r7, #4]
 8004f50:	681b      	ldr	r3, [r3, #0]
 8004f52:	4a14      	ldr	r2, [pc, #80]	@ (8004fa4 <HAL_TIM_PWM_Start+0x13c>)
 8004f54:	4293      	cmp	r3, r2
 8004f56:	d004      	beq.n	8004f62 <HAL_TIM_PWM_Start+0xfa>
 8004f58:	687b      	ldr	r3, [r7, #4]
 8004f5a:	681b      	ldr	r3, [r3, #0]
 8004f5c:	4a12      	ldr	r2, [pc, #72]	@ (8004fa8 <HAL_TIM_PWM_Start+0x140>)
 8004f5e:	4293      	cmp	r3, r2
 8004f60:	d111      	bne.n	8004f86 <HAL_TIM_PWM_Start+0x11e>
  {
    tmpsmcr = htim->Instance->SMCR & TIM_SMCR_SMS;
 8004f62:	687b      	ldr	r3, [r7, #4]
 8004f64:	681b      	ldr	r3, [r3, #0]
 8004f66:	689b      	ldr	r3, [r3, #8]
 8004f68:	f003 0307 	and.w	r3, r3, #7
 8004f6c:	60fb      	str	r3, [r7, #12]
    if (!IS_TIM_SLAVEMODE_TRIGGER_ENABLED(tmpsmcr))
 8004f6e:	68fb      	ldr	r3, [r7, #12]
 8004f70:	2b06      	cmp	r3, #6
 8004f72:	d010      	beq.n	8004f96 <HAL_TIM_PWM_Start+0x12e>
    {
      __HAL_TIM_ENABLE(htim);
 8004f74:	687b      	ldr	r3, [r7, #4]
 8004f76:	681b      	ldr	r3, [r3, #0]
 8004f78:	681a      	ldr	r2, [r3, #0]
 8004f7a:	687b      	ldr	r3, [r7, #4]
 8004f7c:	681b      	ldr	r3, [r3, #0]
 8004f7e:	f042 0201 	orr.w	r2, r2, #1
 8004f82:	601a      	str	r2, [r3, #0]
    if (!IS_TIM_SLAVEMODE_TRIGGER_ENABLED(tmpsmcr))
 8004f84:	e007      	b.n	8004f96 <HAL_TIM_PWM_Start+0x12e>
    }
  }
  else
  {
    __HAL_TIM_ENABLE(htim);
 8004f86:	687b      	ldr	r3, [r7, #4]
 8004f88:	681b      	ldr	r3, [r3, #0]
 8004f8a:	681a      	ldr	r2, [r3, #0]
 8004f8c:	687b      	ldr	r3, [r7, #4]
 8004f8e:	681b      	ldr	r3, [r3, #0]
 8004f90:	f042 0201 	orr.w	r2, r2, #1
 8004f94:	601a      	str	r2, [r3, #0]
  }

  /* Return function status */
  return HAL_OK;
 8004f96:	2300      	movs	r3, #0
}
 8004f98:	4618      	mov	r0, r3
 8004f9a:	3710      	adds	r7, #16
 8004f9c:	46bd      	mov	sp, r7
 8004f9e:	bd80      	pop	{r7, pc}
 8004fa0:	40012c00 	.word	0x40012c00
 8004fa4:	40000400 	.word	0x40000400
 8004fa8:	40000800 	.word	0x40000800

08004fac <HAL_TIM_IRQHandler>:
  * @brief  This function handles TIM interrupts requests.
  * @param  htim TIM  handle
  * @retval None
  */
void HAL_TIM_IRQHandler(TIM_HandleTypeDef *htim)
{
 8004fac:	b580      	push	{r7, lr}
 8004fae:	b082      	sub	sp, #8
 8004fb0:	af00      	add	r7, sp, #0
 8004fb2:	6078      	str	r0, [r7, #4]
  /* Capture compare 1 event */
  if (__HAL_TIM_GET_FLAG(htim, TIM_FLAG_CC1) != RESET)
 8004fb4:	687b      	ldr	r3, [r7, #4]
 8004fb6:	681b      	ldr	r3, [r3, #0]
 8004fb8:	691b      	ldr	r3, [r3, #16]
 8004fba:	f003 0302 	and.w	r3, r3, #2
 8004fbe:	2b02      	cmp	r3, #2
 8004fc0:	d122      	bne.n	8005008 <HAL_TIM_IRQHandler+0x5c>
  {
    if (__HAL_TIM_GET_IT_SOURCE(htim, TIM_IT_CC1) != RESET)
 8004fc2:	687b      	ldr	r3, [r7, #4]
 8004fc4:	681b      	ldr	r3, [r3, #0]
 8004fc6:	68db      	ldr	r3, [r3, #12]
 8004fc8:	f003 0302 	and.w	r3, r3, #2
 8004fcc:	2b02      	cmp	r3, #2
 8004fce:	d11b      	bne.n	8005008 <HAL_TIM_IRQHandler+0x5c>
    {
      {
        __HAL_TIM_CLEAR_IT(htim, TIM_IT_CC1);
 8004fd0:	687b      	ldr	r3, [r7, #4]
 8004fd2:	681b      	ldr	r3, [r3, #0]
 8004fd4:	f06f 0202 	mvn.w	r2, #2
 8004fd8:	611a      	str	r2, [r3, #16]
        htim->Channel = HAL_TIM_ACTIVE_CHANNEL_1;
 8004fda:	687b      	ldr	r3, [r7, #4]
 8004fdc:	2201      	movs	r2, #1
 8004fde:	771a      	strb	r2, [r3, #28]

        /* Input capture event */
        if ((htim->Instance->CCMR1 & TIM_CCMR1_CC1S) != 0x00U)
 8004fe0:	687b      	ldr	r3, [r7, #4]
 8004fe2:	681b      	ldr	r3, [r3, #0]
 8004fe4:	699b      	ldr	r3, [r3, #24]
 8004fe6:	f003 0303 	and.w	r3, r3, #3
 8004fea:	2b00      	cmp	r3, #0
 8004fec:	d003      	beq.n	8004ff6 <HAL_TIM_IRQHandler+0x4a>
        {
#if (USE_HAL_TIM_REGISTER_CALLBACKS == 1)
          htim->IC_CaptureCallback(htim);
#else
          HAL_TIM_IC_CaptureCallback(htim);
 8004fee:	6878      	ldr	r0, [r7, #4]
 8004ff0:	f000 fa76 	bl	80054e0 <HAL_TIM_IC_CaptureCallback>
 8004ff4:	e005      	b.n	8005002 <HAL_TIM_IRQHandler+0x56>
        {
#if (USE_HAL_TIM_REGISTER_CALLBACKS == 1)
          htim->OC_DelayElapsedCallback(htim);
          htim->PWM_PulseFinishedCallback(htim);
#else
          HAL_TIM_OC_DelayElapsedCallback(htim);
 8004ff6:	6878      	ldr	r0, [r7, #4]
 8004ff8:	f000 fa69 	bl	80054ce <HAL_TIM_OC_DelayElapsedCallback>
          HAL_TIM_PWM_PulseFinishedCallback(htim);
 8004ffc:	6878      	ldr	r0, [r7, #4]
 8004ffe:	f000 fa78 	bl	80054f2 <HAL_TIM_PWM_PulseFinishedCallback>
#endif /* USE_HAL_TIM_REGISTER_CALLBACKS */
        }
        htim->Channel = HAL_TIM_ACTIVE_CHANNEL_CLEARED;
 8005002:	687b      	ldr	r3, [r7, #4]
 8005004:	2200      	movs	r2, #0
 8005006:	771a      	strb	r2, [r3, #28]
      }
    }
  }
  /* Capture compare 2 event */
  if (__HAL_TIM_GET_FLAG(htim, TIM_FLAG_CC2) != RESET)
 8005008:	687b      	ldr	r3, [r7, #4]
 800500a:	681b      	ldr	r3, [r3, #0]
 800500c:	691b      	ldr	r3, [r3, #16]
 800500e:	f003 0304 	and.w	r3, r3, #4
 8005012:	2b04      	cmp	r3, #4
 8005014:	d122      	bne.n	800505c <HAL_TIM_IRQHandler+0xb0>
  {
    if (__HAL_TIM_GET_IT_SOURCE(htim, TIM_IT_CC2) != RESET)
 8005016:	687b      	ldr	r3, [r7, #4]
 8005018:	681b      	ldr	r3, [r3, #0]
 800501a:	68db      	ldr	r3, [r3, #12]
 800501c:	f003 0304 	and.w	r3, r3, #4
 8005020:	2b04      	cmp	r3, #4
 8005022:	d11b      	bne.n	800505c <HAL_TIM_IRQHandler+0xb0>
    {
      __HAL_TIM_CLEAR_IT(htim, TIM_IT_CC2);
 8005024:	687b      	ldr	r3, [r7, #4]
 8005026:	681b      	ldr	r3, [r3, #0]
 8005028:	f06f 0204 	mvn.w	r2, #4
 800502c:	611a      	str	r2, [r3, #16]
      htim->Channel = HAL_TIM_ACTIVE_CHANNEL_2;
 800502e:	687b      	ldr	r3, [r7, #4]
 8005030:	2202      	movs	r2, #2
 8005032:	771a      	strb	r2, [r3, #28]
      /* Input capture event */
      if ((htim->Instance->CCMR1 & TIM_CCMR1_CC2S) != 0x00U)
 8005034:	687b      	ldr	r3, [r7, #4]
 8005036:	681b      	ldr	r3, [r3, #0]
 8005038:	699b      	ldr	r3, [r3, #24]
 800503a:	f403 7340 	and.w	r3, r3, #768	@ 0x300
 800503e:	2b00      	cmp	r3, #0
 8005040:	d003      	beq.n	800504a <HAL_TIM_IRQHandler+0x9e>
      {
#if (USE_HAL_TIM_REGISTER_CALLBACKS == 1)
        htim->IC_CaptureCallback(htim);
#else
        HAL_TIM_IC_CaptureCallback(htim);
 8005042:	6878      	ldr	r0, [r7, #4]
 8005044:	f000 fa4c 	bl	80054e0 <HAL_TIM_IC_CaptureCallback>
 8005048:	e005      	b.n	8005056 <HAL_TIM_IRQHandler+0xaa>
      {
#if (USE_HAL_TIM_REGISTER_CALLBACKS == 1)
        htim->OC_DelayElapsedCallback(htim);
        htim->PWM_PulseFinishedCallback(htim);
#else
        HAL_TIM_OC_DelayElapsedCallback(htim);
 800504a:	6878      	ldr	r0, [r7, #4]
 800504c:	f000 fa3f 	bl	80054ce <HAL_TIM_OC_DelayElapsedCallback>
        HAL_TIM_PWM_PulseFinishedCallback(htim);
 8005050:	6878      	ldr	r0, [r7, #4]
 8005052:	f000 fa4e 	bl	80054f2 <HAL_TIM_PWM_PulseFinishedCallback>
#endif /* USE_HAL_TIM_REGISTER_CALLBACKS */
      }
      htim->Channel = HAL_TIM_ACTIVE_CHANNEL_CLEARED;
 8005056:	687b      	ldr	r3, [r7, #4]
 8005058:	2200      	movs	r2, #0
 800505a:	771a      	strb	r2, [r3, #28]
    }
  }
  /* Capture compare 3 event */
  if (__HAL_TIM_GET_FLAG(htim, TIM_FLAG_CC3) != RESET)
 800505c:	687b      	ldr	r3, [r7, #4]
 800505e:	681b      	ldr	r3, [r3, #0]
 8005060:	691b      	ldr	r3, [r3, #16]
 8005062:	f003 0308 	and.w	r3, r3, #8
 8005066:	2b08      	cmp	r3, #8
 8005068:	d122      	bne.n	80050b0 <HAL_TIM_IRQHandler+0x104>
  {
    if (__HAL_TIM_GET_IT_SOURCE(htim, TIM_IT_CC3) != RESET)
 800506a:	687b      	ldr	r3, [r7, #4]
 800506c:	681b      	ldr	r3, [r3, #0]
 800506e:	68db      	ldr	r3, [r3, #12]
 8005070:	f003 0308 	and.w	r3, r3, #8
 8005074:	2b08      	cmp	r3, #8
 8005076:	d11b      	bne.n	80050b0 <HAL_TIM_IRQHandler+0x104>
    {
      __HAL_TIM_CLEAR_IT(htim, TIM_IT_CC3);
 8005078:	687b      	ldr	r3, [r7, #4]
 800507a:	681b      	ldr	r3, [r3, #0]
 800507c:	f06f 0208 	mvn.w	r2, #8
 8005080:	611a      	str	r2, [r3, #16]
      htim->Channel = HAL_TIM_ACTIVE_CHANNEL_3;
 8005082:	687b      	ldr	r3, [r7, #4]
 8005084:	2204      	movs	r2, #4
 8005086:	771a      	strb	r2, [r3, #28]
      /* Input capture event */
      if ((htim->Instance->CCMR2 & TIM_CCMR2_CC3S) != 0x00U)
 8005088:	687b      	ldr	r3, [r7, #4]
 800508a:	681b      	ldr	r3, [r3, #0]
 800508c:	69db      	ldr	r3, [r3, #28]
 800508e:	f003 0303 	and.w	r3, r3, #3
 8005092:	2b00      	cmp	r3, #0
 8005094:	d003      	beq.n	800509e <HAL_TIM_IRQHandler+0xf2>
      {
#if (USE_HAL_TIM_REGISTER_CALLBACKS == 1)
        htim->IC_CaptureCallback(htim);
#else
        HAL_TIM_IC_CaptureCallback(htim);
 8005096:	6878      	ldr	r0, [r7, #4]
 8005098:	f000 fa22 	bl	80054e0 <HAL_TIM_IC_CaptureCallback>
 800509c:	e005      	b.n	80050aa <HAL_TIM_IRQHandler+0xfe>
      {
#if (USE_HAL_TIM_REGISTER_CALLBACKS == 1)
        htim->OC_DelayElapsedCallback(htim);
        htim->PWM_PulseFinishedCallback(htim);
#else
        HAL_TIM_OC_DelayElapsedCallback(htim);
 800509e:	6878      	ldr	r0, [r7, #4]
 80050a0:	f000 fa15 	bl	80054ce <HAL_TIM_OC_DelayElapsedCallback>
        HAL_TIM_PWM_PulseFinishedCallback(htim);
 80050a4:	6878      	ldr	r0, [r7, #4]
 80050a6:	f000 fa24 	bl	80054f2 <HAL_TIM_PWM_PulseFinishedCallback>
#endif /* USE_HAL_TIM_REGISTER_CALLBACKS */
      }
      htim->Channel = HAL_TIM_ACTIVE_CHANNEL_CLEARED;
 80050aa:	687b      	ldr	r3, [r7, #4]
 80050ac:	2200      	movs	r2, #0
 80050ae:	771a      	strb	r2, [r3, #28]
    }
  }
  /* Capture compare 4 event */
  if (__HAL_TIM_GET_FLAG(htim, TIM_FLAG_CC4) != RESET)
 80050b0:	687b      	ldr	r3, [r7, #4]
 80050b2:	681b      	ldr	r3, [r3, #0]
 80050b4:	691b      	ldr	r3, [r3, #16]
 80050b6:	f003 0310 	and.w	r3, r3, #16
 80050ba:	2b10      	cmp	r3, #16
 80050bc:	d122      	bne.n	8005104 <HAL_TIM_IRQHandler+0x158>
  {
    if (__HAL_TIM_GET_IT_SOURCE(htim, TIM_IT_CC4) != RESET)
 80050be:	687b      	ldr	r3, [r7, #4]
 80050c0:	681b      	ldr	r3, [r3, #0]
 80050c2:	68db      	ldr	r3, [r3, #12]
 80050c4:	f003 0310 	and.w	r3, r3, #16
 80050c8:	2b10      	cmp	r3, #16
 80050ca:	d11b      	bne.n	8005104 <HAL_TIM_IRQHandler+0x158>
    {
      __HAL_TIM_CLEAR_IT(htim, TIM_IT_CC4);
 80050cc:	687b      	ldr	r3, [r7, #4]
 80050ce:	681b      	ldr	r3, [r3, #0]
 80050d0:	f06f 0210 	mvn.w	r2, #16
 80050d4:	611a      	str	r2, [r3, #16]
      htim->Channel = HAL_TIM_ACTIVE_CHANNEL_4;
 80050d6:	687b      	ldr	r3, [r7, #4]
 80050d8:	2208      	movs	r2, #8
 80050da:	771a      	strb	r2, [r3, #28]
      /* Input capture event */
      if ((htim->Instance->CCMR2 & TIM_CCMR2_CC4S) != 0x00U)
 80050dc:	687b      	ldr	r3, [r7, #4]
 80050de:	681b      	ldr	r3, [r3, #0]
 80050e0:	69db      	ldr	r3, [r3, #28]
 80050e2:	f403 7340 	and.w	r3, r3, #768	@ 0x300
 80050e6:	2b00      	cmp	r3, #0
 80050e8:	d003      	beq.n	80050f2 <HAL_TIM_IRQHandler+0x146>
      {
#if (USE_HAL_TIM_REGISTER_CALLBACKS == 1)
        htim->IC_CaptureCallback(htim);
#else
        HAL_TIM_IC_CaptureCallback(htim);
 80050ea:	6878      	ldr	r0, [r7, #4]
 80050ec:	f000 f9f8 	bl	80054e0 <HAL_TIM_IC_CaptureCallback>
 80050f0:	e005      	b.n	80050fe <HAL_TIM_IRQHandler+0x152>
      {
#if (USE_HAL_TIM_REGISTER_CALLBACKS == 1)
        htim->OC_DelayElapsedCallback(htim);
        htim->PWM_PulseFinishedCallback(htim);
#else
        HAL_TIM_OC_DelayElapsedCallback(htim);
 80050f2:	6878      	ldr	r0, [r7, #4]
 80050f4:	f000 f9eb 	bl	80054ce <HAL_TIM_OC_DelayElapsedCallback>
        HAL_TIM_PWM_PulseFinishedCallback(htim);
 80050f8:	6878      	ldr	r0, [r7, #4]
 80050fa:	f000 f9fa 	bl	80054f2 <HAL_TIM_PWM_PulseFinishedCallback>
#endif /* USE_HAL_TIM_REGISTER_CALLBACKS */
      }
      htim->Channel = HAL_TIM_ACTIVE_CHANNEL_CLEARED;
 80050fe:	687b      	ldr	r3, [r7, #4]
 8005100:	2200      	movs	r2, #0
 8005102:	771a      	strb	r2, [r3, #28]
    }
  }
  /* TIM Update event */
  if (__HAL_TIM_GET_FLAG(htim, TIM_FLAG_UPDATE) != RESET)
 8005104:	687b      	ldr	r3, [r7, #4]
 8005106:	681b      	ldr	r3, [r3, #0]
 8005108:	691b      	ldr	r3, [r3, #16]
 800510a:	f003 0301 	and.w	r3, r3, #1
 800510e:	2b01      	cmp	r3, #1
 8005110:	d10e      	bne.n	8005130 <HAL_TIM_IRQHandler+0x184>
  {
    if (__HAL_TIM_GET_IT_SOURCE(htim, TIM_IT_UPDATE) != RESET)
 8005112:	687b      	ldr	r3, [r7, #4]
 8005114:	681b      	ldr	r3, [r3, #0]
 8005116:	68db      	ldr	r3, [r3, #12]
 8005118:	f003 0301 	and.w	r3, r3, #1
 800511c:	2b01      	cmp	r3, #1
 800511e:	d107      	bne.n	8005130 <HAL_TIM_IRQHandler+0x184>
    {
      __HAL_TIM_CLEAR_IT(htim, TIM_IT_UPDATE);
 8005120:	687b      	ldr	r3, [r7, #4]
 8005122:	681b      	ldr	r3, [r3, #0]
 8005124:	f06f 0201 	mvn.w	r2, #1
 8005128:	611a      	str	r2, [r3, #16]
#if (USE_HAL_TIM_REGISTER_CALLBACKS == 1)
      htim->PeriodElapsedCallback(htim);
#else
      HAL_TIM_PeriodElapsedCallback(htim);
 800512a:	6878      	ldr	r0, [r7, #4]
 800512c:	f7fc ff3c 	bl	8001fa8 <HAL_TIM_PeriodElapsedCallback>
#endif /* USE_HAL_TIM_REGISTER_CALLBACKS */
    }
  }
  /* TIM Break input event */
  if (__HAL_TIM_GET_FLAG(htim, TIM_FLAG_BREAK) != RESET)
 8005130:	687b      	ldr	r3, [r7, #4]
 8005132:	681b      	ldr	r3, [r3, #0]
 8005134:	691b      	ldr	r3, [r3, #16]
 8005136:	f003 0380 	and.w	r3, r3, #128	@ 0x80
 800513a:	2b80      	cmp	r3, #128	@ 0x80
 800513c:	d10e      	bne.n	800515c <HAL_TIM_IRQHandler+0x1b0>
  {
    if (__HAL_TIM_GET_IT_SOURCE(htim, TIM_IT_BREAK) != RESET)
 800513e:	687b      	ldr	r3, [r7, #4]
 8005140:	681b      	ldr	r3, [r3, #0]
 8005142:	68db      	ldr	r3, [r3, #12]
 8005144:	f003 0380 	and.w	r3, r3, #128	@ 0x80
 8005148:	2b80      	cmp	r3, #128	@ 0x80
 800514a:	d107      	bne.n	800515c <HAL_TIM_IRQHandler+0x1b0>
    {
      __HAL_TIM_CLEAR_IT(htim, TIM_IT_BREAK);
 800514c:	687b      	ldr	r3, [r7, #4]
 800514e:	681b      	ldr	r3, [r3, #0]
 8005150:	f06f 0280 	mvn.w	r2, #128	@ 0x80
 8005154:	611a      	str	r2, [r3, #16]
#if (USE_HAL_TIM_REGISTER_CALLBACKS == 1)
      htim->BreakCallback(htim);
#else
      HAL_TIMEx_BreakCallback(htim);
 8005156:	6878      	ldr	r0, [r7, #4]
 8005158:	f000 fce9 	bl	8005b2e <HAL_TIMEx_BreakCallback>
#endif /* USE_HAL_TIM_REGISTER_CALLBACKS */
    }
  }
  /* TIM Trigger detection event */
  if (__HAL_TIM_GET_FLAG(htim, TIM_FLAG_TRIGGER) != RESET)
 800515c:	687b      	ldr	r3, [r7, #4]
 800515e:	681b      	ldr	r3, [r3, #0]
 8005160:	691b      	ldr	r3, [r3, #16]
 8005162:	f003 0340 	and.w	r3, r3, #64	@ 0x40
 8005166:	2b40      	cmp	r3, #64	@ 0x40
 8005168:	d10e      	bne.n	8005188 <HAL_TIM_IRQHandler+0x1dc>
  {
    if (__HAL_TIM_GET_IT_SOURCE(htim, TIM_IT_TRIGGER) != RESET)
 800516a:	687b      	ldr	r3, [r7, #4]
 800516c:	681b      	ldr	r3, [r3, #0]
 800516e:	68db      	ldr	r3, [r3, #12]
 8005170:	f003 0340 	and.w	r3, r3, #64	@ 0x40
 8005174:	2b40      	cmp	r3, #64	@ 0x40
 8005176:	d107      	bne.n	8005188 <HAL_TIM_IRQHandler+0x1dc>
    {
      __HAL_TIM_CLEAR_IT(htim, TIM_IT_TRIGGER);
 8005178:	687b      	ldr	r3, [r7, #4]
 800517a:	681b      	ldr	r3, [r3, #0]
 800517c:	f06f 0240 	mvn.w	r2, #64	@ 0x40
 8005180:	611a      	str	r2, [r3, #16]
#if (USE_HAL_TIM_REGISTER_CALLBACKS == 1)
      htim->TriggerCallback(htim);
#else
      HAL_TIM_TriggerCallback(htim);
 8005182:	6878      	ldr	r0, [r7, #4]
 8005184:	f000 f9be 	bl	8005504 <HAL_TIM_TriggerCallback>
#endif /* USE_HAL_TIM_REGISTER_CALLBACKS */
    }
  }
  /* TIM commutation event */
  if (__HAL_TIM_GET_FLAG(htim, TIM_FLAG_COM) != RESET)
 8005188:	687b      	ldr	r3, [r7, #4]
 800518a:	681b      	ldr	r3, [r3, #0]
 800518c:	691b      	ldr	r3, [r3, #16]
 800518e:	f003 0320 	and.w	r3, r3, #32
 8005192:	2b20      	cmp	r3, #32
 8005194:	d10e      	bne.n	80051b4 <HAL_TIM_IRQHandler+0x208>
  {
    if (__HAL_TIM_GET_IT_SOURCE(htim, TIM_IT_COM) != RESET)
 8005196:	687b      	ldr	r3, [r7, #4]
 8005198:	681b      	ldr	r3, [r3, #0]
 800519a:	68db      	ldr	r3, [r3, #12]
 800519c:	f003 0320 	and.w	r3, r3, #32
 80051a0:	2b20      	cmp	r3, #32
 80051a2:	d107      	bne.n	80051b4 <HAL_TIM_IRQHandler+0x208>
    {
      __HAL_TIM_CLEAR_IT(htim, TIM_FLAG_COM);
 80051a4:	687b      	ldr	r3, [r7, #4]
 80051a6:	681b      	ldr	r3, [r3, #0]
 80051a8:	f06f 0220 	mvn.w	r2, #32
 80051ac:	611a      	str	r2, [r3, #16]
#if (USE_HAL_TIM_REGISTER_CALLBACKS == 1)
      htim->CommutationCallback(htim);
#else
      HAL_TIMEx_CommutCallback(htim);
 80051ae:	6878      	ldr	r0, [r7, #4]
 80051b0:	f000 fcb4 	bl	8005b1c <HAL_TIMEx_CommutCallback>
#endif /* USE_HAL_TIM_REGISTER_CALLBACKS */
    }
  }
}
 80051b4:	bf00      	nop
 80051b6:	3708      	adds	r7, #8
 80051b8:	46bd      	mov	sp, r7
 80051ba:	bd80      	pop	{r7, pc}

080051bc <HAL_TIM_PWM_ConfigChannel>:
  * @retval HAL status
  */
HAL_StatusTypeDef HAL_TIM_PWM_ConfigChannel(TIM_HandleTypeDef *htim,
                                            const TIM_OC_InitTypeDef *sConfig,
                                            uint32_t Channel)
{
 80051bc:	b580      	push	{r7, lr}
 80051be:	b086      	sub	sp, #24
 80051c0:	af00      	add	r7, sp, #0
 80051c2:	60f8      	str	r0, [r7, #12]
 80051c4:	60b9      	str	r1, [r7, #8]
 80051c6:	607a      	str	r2, [r7, #4]
  HAL_StatusTypeDef status = HAL_OK;
 80051c8:	2300      	movs	r3, #0
 80051ca:	75fb      	strb	r3, [r7, #23]
  assert_param(IS_TIM_PWM_MODE(sConfig->OCMode));
  assert_param(IS_TIM_OC_POLARITY(sConfig->OCPolarity));
  assert_param(IS_TIM_FAST_STATE(sConfig->OCFastMode));

  /* Process Locked */
  __HAL_LOCK(htim);
 80051cc:	68fb      	ldr	r3, [r7, #12]
 80051ce:	f893 303c 	ldrb.w	r3, [r3, #60]	@ 0x3c
 80051d2:	2b01      	cmp	r3, #1
 80051d4:	d101      	bne.n	80051da <HAL_TIM_PWM_ConfigChannel+0x1e>
 80051d6:	2302      	movs	r3, #2
 80051d8:	e0ae      	b.n	8005338 <HAL_TIM_PWM_ConfigChannel+0x17c>
 80051da:	68fb      	ldr	r3, [r7, #12]
 80051dc:	2201      	movs	r2, #1
 80051de:	f883 203c 	strb.w	r2, [r3, #60]	@ 0x3c

  switch (Channel)
 80051e2:	687b      	ldr	r3, [r7, #4]
 80051e4:	2b0c      	cmp	r3, #12
 80051e6:	f200 809f 	bhi.w	8005328 <HAL_TIM_PWM_ConfigChannel+0x16c>
 80051ea:	a201      	add	r2, pc, #4	@ (adr r2, 80051f0 <HAL_TIM_PWM_ConfigChannel+0x34>)
 80051ec:	f852 f023 	ldr.w	pc, [r2, r3, lsl #2]
 80051f0:	08005225 	.word	0x08005225
 80051f4:	08005329 	.word	0x08005329
 80051f8:	08005329 	.word	0x08005329
 80051fc:	08005329 	.word	0x08005329
 8005200:	08005265 	.word	0x08005265
 8005204:	08005329 	.word	0x08005329
 8005208:	08005329 	.word	0x08005329
 800520c:	08005329 	.word	0x08005329
 8005210:	080052a7 	.word	0x080052a7
 8005214:	08005329 	.word	0x08005329
 8005218:	08005329 	.word	0x08005329
 800521c:	08005329 	.word	0x08005329
 8005220:	080052e7 	.word	0x080052e7
    {
      /* Check the parameters */
      assert_param(IS_TIM_CC1_INSTANCE(htim->Instance));

      /* Configure the Channel 1 in PWM mode */
      TIM_OC1_SetConfig(htim->Instance, sConfig);
 8005224:	68fb      	ldr	r3, [r7, #12]
 8005226:	681b      	ldr	r3, [r3, #0]
 8005228:	68b9      	ldr	r1, [r7, #8]
 800522a:	4618      	mov	r0, r3
 800522c:	f000 f9d6 	bl	80055dc <TIM_OC1_SetConfig>

      /* Set the Preload enable bit for channel1 */
      htim->Instance->CCMR1 |= TIM_CCMR1_OC1PE;
 8005230:	68fb      	ldr	r3, [r7, #12]
 8005232:	681b      	ldr	r3, [r3, #0]
 8005234:	699a      	ldr	r2, [r3, #24]
 8005236:	68fb      	ldr	r3, [r7, #12]
 8005238:	681b      	ldr	r3, [r3, #0]
 800523a:	f042 0208 	orr.w	r2, r2, #8
 800523e:	619a      	str	r2, [r3, #24]

      /* Configure the Output Fast mode */
      htim->Instance->CCMR1 &= ~TIM_CCMR1_OC1FE;
 8005240:	68fb      	ldr	r3, [r7, #12]
 8005242:	681b      	ldr	r3, [r3, #0]
 8005244:	699a      	ldr	r2, [r3, #24]
 8005246:	68fb      	ldr	r3, [r7, #12]
 8005248:	681b      	ldr	r3, [r3, #0]
 800524a:	f022 0204 	bic.w	r2, r2, #4
 800524e:	619a      	str	r2, [r3, #24]
      htim->Instance->CCMR1 |= sConfig->OCFastMode;
 8005250:	68fb      	ldr	r3, [r7, #12]
 8005252:	681b      	ldr	r3, [r3, #0]
 8005254:	6999      	ldr	r1, [r3, #24]
 8005256:	68bb      	ldr	r3, [r7, #8]
 8005258:	691a      	ldr	r2, [r3, #16]
 800525a:	68fb      	ldr	r3, [r7, #12]
 800525c:	681b      	ldr	r3, [r3, #0]
 800525e:	430a      	orrs	r2, r1
 8005260:	619a      	str	r2, [r3, #24]
      break;
 8005262:	e064      	b.n	800532e <HAL_TIM_PWM_ConfigChannel+0x172>
    {
      /* Check the parameters */
      assert_param(IS_TIM_CC2_INSTANCE(htim->Instance));

      /* Configure the Channel 2 in PWM mode */
      TIM_OC2_SetConfig(htim->Instance, sConfig);
 8005264:	68fb      	ldr	r3, [r7, #12]
 8005266:	681b      	ldr	r3, [r3, #0]
 8005268:	68b9      	ldr	r1, [r7, #8]
 800526a:	4618      	mov	r0, r3
 800526c:	f000 fa1c 	bl	80056a8 <TIM_OC2_SetConfig>

      /* Set the Preload enable bit for channel2 */
      htim->Instance->CCMR1 |= TIM_CCMR1_OC2PE;
 8005270:	68fb      	ldr	r3, [r7, #12]
 8005272:	681b      	ldr	r3, [r3, #0]
 8005274:	699a      	ldr	r2, [r3, #24]
 8005276:	68fb      	ldr	r3, [r7, #12]
 8005278:	681b      	ldr	r3, [r3, #0]
 800527a:	f442 6200 	orr.w	r2, r2, #2048	@ 0x800
 800527e:	619a      	str	r2, [r3, #24]

      /* Configure the Output Fast mode */
      htim->Instance->CCMR1 &= ~TIM_CCMR1_OC2FE;
 8005280:	68fb      	ldr	r3, [r7, #12]
 8005282:	681b      	ldr	r3, [r3, #0]
 8005284:	699a      	ldr	r2, [r3, #24]
 8005286:	68fb      	ldr	r3, [r7, #12]
 8005288:	681b      	ldr	r3, [r3, #0]
 800528a:	f422 6280 	bic.w	r2, r2, #1024	@ 0x400
 800528e:	619a      	str	r2, [r3, #24]
      htim->Instance->CCMR1 |= sConfig->OCFastMode << 8U;
 8005290:	68fb      	ldr	r3, [r7, #12]
 8005292:	681b      	ldr	r3, [r3, #0]
 8005294:	6999      	ldr	r1, [r3, #24]
 8005296:	68bb      	ldr	r3, [r7, #8]
 8005298:	691b      	ldr	r3, [r3, #16]
 800529a:	021a      	lsls	r2, r3, #8
 800529c:	68fb      	ldr	r3, [r7, #12]
 800529e:	681b      	ldr	r3, [r3, #0]
 80052a0:	430a      	orrs	r2, r1
 80052a2:	619a      	str	r2, [r3, #24]
      break;
 80052a4:	e043      	b.n	800532e <HAL_TIM_PWM_ConfigChannel+0x172>
    {
      /* Check the parameters */
      assert_param(IS_TIM_CC3_INSTANCE(htim->Instance));

      /* Configure the Channel 3 in PWM mode */
      TIM_OC3_SetConfig(htim->Instance, sConfig);
 80052a6:	68fb      	ldr	r3, [r7, #12]
 80052a8:	681b      	ldr	r3, [r3, #0]
 80052aa:	68b9      	ldr	r1, [r7, #8]
 80052ac:	4618      	mov	r0, r3
 80052ae:	f000 fa65 	bl	800577c <TIM_OC3_SetConfig>

      /* Set the Preload enable bit for channel3 */
      htim->Instance->CCMR2 |= TIM_CCMR2_OC3PE;
 80052b2:	68fb      	ldr	r3, [r7, #12]
 80052b4:	681b      	ldr	r3, [r3, #0]
 80052b6:	69da      	ldr	r2, [r3, #28]
 80052b8:	68fb      	ldr	r3, [r7, #12]
 80052ba:	681b      	ldr	r3, [r3, #0]
 80052bc:	f042 0208 	orr.w	r2, r2, #8
 80052c0:	61da      	str	r2, [r3, #28]

      /* Configure the Output Fast mode */
      htim->Instance->CCMR2 &= ~TIM_CCMR2_OC3FE;
 80052c2:	68fb      	ldr	r3, [r7, #12]
 80052c4:	681b      	ldr	r3, [r3, #0]
 80052c6:	69da      	ldr	r2, [r3, #28]
 80052c8:	68fb      	ldr	r3, [r7, #12]
 80052ca:	681b      	ldr	r3, [r3, #0]
 80052cc:	f022 0204 	bic.w	r2, r2, #4
 80052d0:	61da      	str	r2, [r3, #28]
      htim->Instance->CCMR2 |= sConfig->OCFastMode;
 80052d2:	68fb      	ldr	r3, [r7, #12]
 80052d4:	681b      	ldr	r3, [r3, #0]
 80052d6:	69d9      	ldr	r1, [r3, #28]
 80052d8:	68bb      	ldr	r3, [r7, #8]
 80052da:	691a      	ldr	r2, [r3, #16]
 80052dc:	68fb      	ldr	r3, [r7, #12]
 80052de:	681b      	ldr	r3, [r3, #0]
 80052e0:	430a      	orrs	r2, r1
 80052e2:	61da      	str	r2, [r3, #28]
      break;
 80052e4:	e023      	b.n	800532e <HAL_TIM_PWM_ConfigChannel+0x172>
    {
      /* Check the parameters */
      assert_param(IS_TIM_CC4_INSTANCE(htim->Instance));

      /* Configure the Channel 4 in PWM mode */
      TIM_OC4_SetConfig(htim->Instance, sConfig);
 80052e6:	68fb      	ldr	r3, [r7, #12]
 80052e8:	681b      	ldr	r3, [r3, #0]
 80052ea:	68b9      	ldr	r1, [r7, #8]
 80052ec:	4618      	mov	r0, r3
 80052ee:	f000 faaf 	bl	8005850 <TIM_OC4_SetConfig>

      /* Set the Preload enable bit for channel4 */
      htim->Instance->CCMR2 |= TIM_CCMR2_OC4PE;
 80052f2:	68fb      	ldr	r3, [r7, #12]
 80052f4:	681b      	ldr	r3, [r3, #0]
 80052f6:	69da      	ldr	r2, [r3, #28]
 80052f8:	68fb      	ldr	r3, [r7, #12]
 80052fa:	681b      	ldr	r3, [r3, #0]
 80052fc:	f442 6200 	orr.w	r2, r2, #2048	@ 0x800
 8005300:	61da      	str	r2, [r3, #28]

      /* Configure the Output Fast mode */
      htim->Instance->CCMR2 &= ~TIM_CCMR2_OC4FE;
 8005302:	68fb      	ldr	r3, [r7, #12]
 8005304:	681b      	ldr	r3, [r3, #0]
 8005306:	69da      	ldr	r2, [r3, #28]
 8005308:	68fb      	ldr	r3, [r7, #12]
 800530a:	681b      	ldr	r3, [r3, #0]
 800530c:	f422 6280 	bic.w	r2, r2, #1024	@ 0x400
 8005310:	61da      	str	r2, [r3, #28]
      htim->Instance->CCMR2 |= sConfig->OCFastMode << 8U;
 8005312:	68fb      	ldr	r3, [r7, #12]
 8005314:	681b      	ldr	r3, [r3, #0]
 8005316:	69d9      	ldr	r1, [r3, #28]
 8005318:	68bb      	ldr	r3, [r7, #8]
 800531a:	691b      	ldr	r3, [r3, #16]
 800531c:	021a      	lsls	r2, r3, #8
 800531e:	68fb      	ldr	r3, [r7, #12]
 8005320:	681b      	ldr	r3, [r3, #0]
 8005322:	430a      	orrs	r2, r1
 8005324:	61da      	str	r2, [r3, #28]
      break;
 8005326:	e002      	b.n	800532e <HAL_TIM_PWM_ConfigChannel+0x172>
    }

    default:
      status = HAL_ERROR;
 8005328:	2301      	movs	r3, #1
 800532a:	75fb      	strb	r3, [r7, #23]
      break;
 800532c:	bf00      	nop
  }

  __HAL_UNLOCK(htim);
 800532e:	68fb      	ldr	r3, [r7, #12]
 8005330:	2200      	movs	r2, #0
 8005332:	f883 203c 	strb.w	r2, [r3, #60]	@ 0x3c

  return status;
 8005336:	7dfb      	ldrb	r3, [r7, #23]
}
 8005338:	4618      	mov	r0, r3
 800533a:	3718      	adds	r7, #24
 800533c:	46bd      	mov	sp, r7
 800533e:	bd80      	pop	{r7, pc}

08005340 <HAL_TIM_ConfigClockSource>:
  * @param  sClockSourceConfig pointer to a TIM_ClockConfigTypeDef structure that
  *         contains the clock source information for the TIM peripheral.
  * @retval HAL status
  */
HAL_StatusTypeDef HAL_TIM_ConfigClockSource(TIM_HandleTypeDef *htim, const TIM_ClockConfigTypeDef *sClockSourceConfig)
{
 8005340:	b580      	push	{r7, lr}
 8005342:	b084      	sub	sp, #16
 8005344:	af00      	add	r7, sp, #0
 8005346:	6078      	str	r0, [r7, #4]
 8005348:	6039      	str	r1, [r7, #0]
  HAL_StatusTypeDef status = HAL_OK;
 800534a:	2300      	movs	r3, #0
 800534c:	73fb      	strb	r3, [r7, #15]
  uint32_t tmpsmcr;

  /* Process Locked */
  __HAL_LOCK(htim);
 800534e:	687b      	ldr	r3, [r7, #4]
 8005350:	f893 303c 	ldrb.w	r3, [r3, #60]	@ 0x3c
 8005354:	2b01      	cmp	r3, #1
 8005356:	d101      	bne.n	800535c <HAL_TIM_ConfigClockSource+0x1c>
 8005358:	2302      	movs	r3, #2
 800535a:	e0b4      	b.n	80054c6 <HAL_TIM_ConfigClockSource+0x186>
 800535c:	687b      	ldr	r3, [r7, #4]
 800535e:	2201      	movs	r2, #1
 8005360:	f883 203c 	strb.w	r2, [r3, #60]	@ 0x3c

  htim->State = HAL_TIM_STATE_BUSY;
 8005364:	687b      	ldr	r3, [r7, #4]
 8005366:	2202      	movs	r2, #2
 8005368:	f883 203d 	strb.w	r2, [r3, #61]	@ 0x3d

  /* Check the parameters */
  assert_param(IS_TIM_CLOCKSOURCE(sClockSourceConfig->ClockSource));

  /* Reset the SMS, TS, ECE, ETPS and ETRF bits */
  tmpsmcr = htim->Instance->SMCR;
 800536c:	687b      	ldr	r3, [r7, #4]
 800536e:	681b      	ldr	r3, [r3, #0]
 8005370:	689b      	ldr	r3, [r3, #8]
 8005372:	60bb      	str	r3, [r7, #8]
  tmpsmcr &= ~(TIM_SMCR_SMS | TIM_SMCR_TS);
 8005374:	68bb      	ldr	r3, [r7, #8]
 8005376:	f023 0377 	bic.w	r3, r3, #119	@ 0x77
 800537a:	60bb      	str	r3, [r7, #8]
  tmpsmcr &= ~(TIM_SMCR_ETF | TIM_SMCR_ETPS | TIM_SMCR_ECE | TIM_SMCR_ETP);
 800537c:	68bb      	ldr	r3, [r7, #8]
 800537e:	f423 437f 	bic.w	r3, r3, #65280	@ 0xff00
 8005382:	60bb      	str	r3, [r7, #8]
  htim->Instance->SMCR = tmpsmcr;
 8005384:	687b      	ldr	r3, [r7, #4]
 8005386:	681b      	ldr	r3, [r3, #0]
 8005388:	68ba      	ldr	r2, [r7, #8]
 800538a:	609a      	str	r2, [r3, #8]

  switch (sClockSourceConfig->ClockSource)
 800538c:	683b      	ldr	r3, [r7, #0]
 800538e:	681b      	ldr	r3, [r3, #0]
 8005390:	f5b3 5f00 	cmp.w	r3, #8192	@ 0x2000
 8005394:	d03e      	beq.n	8005414 <HAL_TIM_ConfigClockSource+0xd4>
 8005396:	f5b3 5f00 	cmp.w	r3, #8192	@ 0x2000
 800539a:	f200 8087 	bhi.w	80054ac <HAL_TIM_ConfigClockSource+0x16c>
 800539e:	f5b3 5f80 	cmp.w	r3, #4096	@ 0x1000
 80053a2:	f000 8086 	beq.w	80054b2 <HAL_TIM_ConfigClockSource+0x172>
 80053a6:	f5b3 5f80 	cmp.w	r3, #4096	@ 0x1000
 80053aa:	d87f      	bhi.n	80054ac <HAL_TIM_ConfigClockSource+0x16c>
 80053ac:	2b70      	cmp	r3, #112	@ 0x70
 80053ae:	d01a      	beq.n	80053e6 <HAL_TIM_ConfigClockSource+0xa6>
 80053b0:	2b70      	cmp	r3, #112	@ 0x70
 80053b2:	d87b      	bhi.n	80054ac <HAL_TIM_ConfigClockSource+0x16c>
 80053b4:	2b60      	cmp	r3, #96	@ 0x60
 80053b6:	d050      	beq.n	800545a <HAL_TIM_ConfigClockSource+0x11a>
 80053b8:	2b60      	cmp	r3, #96	@ 0x60
 80053ba:	d877      	bhi.n	80054ac <HAL_TIM_ConfigClockSource+0x16c>
 80053bc:	2b50      	cmp	r3, #80	@ 0x50
 80053be:	d03c      	beq.n	800543a <HAL_TIM_ConfigClockSource+0xfa>
 80053c0:	2b50      	cmp	r3, #80	@ 0x50
 80053c2:	d873      	bhi.n	80054ac <HAL_TIM_ConfigClockSource+0x16c>
 80053c4:	2b40      	cmp	r3, #64	@ 0x40
 80053c6:	d058      	beq.n	800547a <HAL_TIM_ConfigClockSource+0x13a>
 80053c8:	2b40      	cmp	r3, #64	@ 0x40
 80053ca:	d86f      	bhi.n	80054ac <HAL_TIM_ConfigClockSource+0x16c>
 80053cc:	2b30      	cmp	r3, #48	@ 0x30
 80053ce:	d064      	beq.n	800549a <HAL_TIM_ConfigClockSource+0x15a>
 80053d0:	2b30      	cmp	r3, #48	@ 0x30
 80053d2:	d86b      	bhi.n	80054ac <HAL_TIM_ConfigClockSource+0x16c>
 80053d4:	2b20      	cmp	r3, #32
 80053d6:	d060      	beq.n	800549a <HAL_TIM_ConfigClockSource+0x15a>
 80053d8:	2b20      	cmp	r3, #32
 80053da:	d867      	bhi.n	80054ac <HAL_TIM_ConfigClockSource+0x16c>
 80053dc:	2b00      	cmp	r3, #0
 80053de:	d05c      	beq.n	800549a <HAL_TIM_ConfigClockSource+0x15a>
 80053e0:	2b10      	cmp	r3, #16
 80053e2:	d05a      	beq.n	800549a <HAL_TIM_ConfigClockSource+0x15a>
 80053e4:	e062      	b.n	80054ac <HAL_TIM_ConfigClockSource+0x16c>
      assert_param(IS_TIM_CLOCKPRESCALER(sClockSourceConfig->ClockPrescaler));
      assert_param(IS_TIM_CLOCKPOLARITY(sClockSourceConfig->ClockPolarity));
      assert_param(IS_TIM_CLOCKFILTER(sClockSourceConfig->ClockFilter));

      /* Configure the ETR Clock source */
      TIM_ETR_SetConfig(htim->Instance,
 80053e6:	687b      	ldr	r3, [r7, #4]
 80053e8:	6818      	ldr	r0, [r3, #0]
                        sClockSourceConfig->ClockPrescaler,
 80053ea:	683b      	ldr	r3, [r7, #0]
 80053ec:	6899      	ldr	r1, [r3, #8]
                        sClockSourceConfig->ClockPolarity,
 80053ee:	683b      	ldr	r3, [r7, #0]
 80053f0:	685a      	ldr	r2, [r3, #4]
                        sClockSourceConfig->ClockFilter);
 80053f2:	683b      	ldr	r3, [r7, #0]
 80053f4:	68db      	ldr	r3, [r3, #12]
      TIM_ETR_SetConfig(htim->Instance,
 80053f6:	f000 faf0 	bl	80059da <TIM_ETR_SetConfig>

      /* Select the External clock mode1 and the ETRF trigger */
      tmpsmcr = htim->Instance->SMCR;
 80053fa:	687b      	ldr	r3, [r7, #4]
 80053fc:	681b      	ldr	r3, [r3, #0]
 80053fe:	689b      	ldr	r3, [r3, #8]
 8005400:	60bb      	str	r3, [r7, #8]
      tmpsmcr |= (TIM_SLAVEMODE_EXTERNAL1 | TIM_CLOCKSOURCE_ETRMODE1);
 8005402:	68bb      	ldr	r3, [r7, #8]
 8005404:	f043 0377 	orr.w	r3, r3, #119	@ 0x77
 8005408:	60bb      	str	r3, [r7, #8]
      /* Write to TIMx SMCR */
      htim->Instance->SMCR = tmpsmcr;
 800540a:	687b      	ldr	r3, [r7, #4]
 800540c:	681b      	ldr	r3, [r3, #0]
 800540e:	68ba      	ldr	r2, [r7, #8]
 8005410:	609a      	str	r2, [r3, #8]
      break;
 8005412:	e04f      	b.n	80054b4 <HAL_TIM_ConfigClockSource+0x174>
      assert_param(IS_TIM_CLOCKPRESCALER(sClockSourceConfig->ClockPrescaler));
      assert_param(IS_TIM_CLOCKPOLARITY(sClockSourceConfig->ClockPolarity));
      assert_param(IS_TIM_CLOCKFILTER(sClockSourceConfig->ClockFilter));

      /* Configure the ETR Clock source */
      TIM_ETR_SetConfig(htim->Instance,
 8005414:	687b      	ldr	r3, [r7, #4]
 8005416:	6818      	ldr	r0, [r3, #0]
                        sClockSourceConfig->ClockPrescaler,
 8005418:	683b      	ldr	r3, [r7, #0]
 800541a:	6899      	ldr	r1, [r3, #8]
                        sClockSourceConfig->ClockPolarity,
 800541c:	683b      	ldr	r3, [r7, #0]
 800541e:	685a      	ldr	r2, [r3, #4]
                        sClockSourceConfig->ClockFilter);
 8005420:	683b      	ldr	r3, [r7, #0]
 8005422:	68db      	ldr	r3, [r3, #12]
      TIM_ETR_SetConfig(htim->Instance,
 8005424:	f000 fad9 	bl	80059da <TIM_ETR_SetConfig>
      /* Enable the External clock mode2 */
      htim->Instance->SMCR |= TIM_SMCR_ECE;
 8005428:	687b      	ldr	r3, [r7, #4]
 800542a:	681b      	ldr	r3, [r3, #0]
 800542c:	689a      	ldr	r2, [r3, #8]
 800542e:	687b      	ldr	r3, [r7, #4]
 8005430:	681b      	ldr	r3, [r3, #0]
 8005432:	f442 4280 	orr.w	r2, r2, #16384	@ 0x4000
 8005436:	609a      	str	r2, [r3, #8]
      break;
 8005438:	e03c      	b.n	80054b4 <HAL_TIM_ConfigClockSource+0x174>

      /* Check TI1 input conditioning related parameters */
      assert_param(IS_TIM_CLOCKPOLARITY(sClockSourceConfig->ClockPolarity));
      assert_param(IS_TIM_CLOCKFILTER(sClockSourceConfig->ClockFilter));

      TIM_TI1_ConfigInputStage(htim->Instance,
 800543a:	687b      	ldr	r3, [r7, #4]
 800543c:	6818      	ldr	r0, [r3, #0]
                               sClockSourceConfig->ClockPolarity,
 800543e:	683b      	ldr	r3, [r7, #0]
 8005440:	6859      	ldr	r1, [r3, #4]
                               sClockSourceConfig->ClockFilter);
 8005442:	683b      	ldr	r3, [r7, #0]
 8005444:	68db      	ldr	r3, [r3, #12]
      TIM_TI1_ConfigInputStage(htim->Instance,
 8005446:	461a      	mov	r2, r3
 8005448:	f000 fa50 	bl	80058ec <TIM_TI1_ConfigInputStage>
      TIM_ITRx_SetConfig(htim->Instance, TIM_CLOCKSOURCE_TI1);
 800544c:	687b      	ldr	r3, [r7, #4]
 800544e:	681b      	ldr	r3, [r3, #0]
 8005450:	2150      	movs	r1, #80	@ 0x50
 8005452:	4618      	mov	r0, r3
 8005454:	f000 faa7 	bl	80059a6 <TIM_ITRx_SetConfig>
      break;
 8005458:	e02c      	b.n	80054b4 <HAL_TIM_ConfigClockSource+0x174>

      /* Check TI2 input conditioning related parameters */
      assert_param(IS_TIM_CLOCKPOLARITY(sClockSourceConfig->ClockPolarity));
      assert_param(IS_TIM_CLOCKFILTER(sClockSourceConfig->ClockFilter));

      TIM_TI2_ConfigInputStage(htim->Instance,
 800545a:	687b      	ldr	r3, [r7, #4]
 800545c:	6818      	ldr	r0, [r3, #0]
                               sClockSourceConfig->ClockPolarity,
 800545e:	683b      	ldr	r3, [r7, #0]
 8005460:	6859      	ldr	r1, [r3, #4]
                               sClockSourceConfig->ClockFilter);
 8005462:	683b      	ldr	r3, [r7, #0]
 8005464:	68db      	ldr	r3, [r3, #12]
      TIM_TI2_ConfigInputStage(htim->Instance,
 8005466:	461a      	mov	r2, r3
 8005468:	f000 fa6e 	bl	8005948 <TIM_TI2_ConfigInputStage>
      TIM_ITRx_SetConfig(htim->Instance, TIM_CLOCKSOURCE_TI2);
 800546c:	687b      	ldr	r3, [r7, #4]
 800546e:	681b      	ldr	r3, [r3, #0]
 8005470:	2160      	movs	r1, #96	@ 0x60
 8005472:	4618      	mov	r0, r3
 8005474:	f000 fa97 	bl	80059a6 <TIM_ITRx_SetConfig>
      break;
 8005478:	e01c      	b.n	80054b4 <HAL_TIM_ConfigClockSource+0x174>

      /* Check TI1 input conditioning related parameters */
      assert_param(IS_TIM_CLOCKPOLARITY(sClockSourceConfig->ClockPolarity));
      assert_param(IS_TIM_CLOCKFILTER(sClockSourceConfig->ClockFilter));

      TIM_TI1_ConfigInputStage(htim->Instance,
 800547a:	687b      	ldr	r3, [r7, #4]
 800547c:	6818      	ldr	r0, [r3, #0]
                               sClockSourceConfig->ClockPolarity,
 800547e:	683b      	ldr	r3, [r7, #0]
 8005480:	6859      	ldr	r1, [r3, #4]
                               sClockSourceConfig->ClockFilter);
 8005482:	683b      	ldr	r3, [r7, #0]
 8005484:	68db      	ldr	r3, [r3, #12]
      TIM_TI1_ConfigInputStage(htim->Instance,
 8005486:	461a      	mov	r2, r3
 8005488:	f000 fa30 	bl	80058ec <TIM_TI1_ConfigInputStage>
      TIM_ITRx_SetConfig(htim->Instance, TIM_CLOCKSOURCE_TI1ED);
 800548c:	687b      	ldr	r3, [r7, #4]
 800548e:	681b      	ldr	r3, [r3, #0]
 8005490:	2140      	movs	r1, #64	@ 0x40
 8005492:	4618      	mov	r0, r3
 8005494:	f000 fa87 	bl	80059a6 <TIM_ITRx_SetConfig>
      break;
 8005498:	e00c      	b.n	80054b4 <HAL_TIM_ConfigClockSource+0x174>
    case TIM_CLOCKSOURCE_ITR3:
    {
      /* Check whether or not the timer instance supports internal trigger input */
      assert_param(IS_TIM_CLOCKSOURCE_ITRX_INSTANCE(htim->Instance));

      TIM_ITRx_SetConfig(htim->Instance, sClockSourceConfig->ClockSource);
 800549a:	687b      	ldr	r3, [r7, #4]
 800549c:	681a      	ldr	r2, [r3, #0]
 800549e:	683b      	ldr	r3, [r7, #0]
 80054a0:	681b      	ldr	r3, [r3, #0]
 80054a2:	4619      	mov	r1, r3
 80054a4:	4610      	mov	r0, r2
 80054a6:	f000 fa7e 	bl	80059a6 <TIM_ITRx_SetConfig>
      break;
 80054aa:	e003      	b.n	80054b4 <HAL_TIM_ConfigClockSource+0x174>
    }

    default:
      status = HAL_ERROR;
 80054ac:	2301      	movs	r3, #1
 80054ae:	73fb      	strb	r3, [r7, #15]
      break;
 80054b0:	e000      	b.n	80054b4 <HAL_TIM_ConfigClockSource+0x174>
      break;
 80054b2:	bf00      	nop
  }
  htim->State = HAL_TIM_STATE_READY;
 80054b4:	687b      	ldr	r3, [r7, #4]
 80054b6:	2201      	movs	r2, #1
 80054b8:	f883 203d 	strb.w	r2, [r3, #61]	@ 0x3d

  __HAL_UNLOCK(htim);
 80054bc:	687b      	ldr	r3, [r7, #4]
 80054be:	2200      	movs	r2, #0
 80054c0:	f883 203c 	strb.w	r2, [r3, #60]	@ 0x3c

  return status;
 80054c4:	7bfb      	ldrb	r3, [r7, #15]
}
 80054c6:	4618      	mov	r0, r3
 80054c8:	3710      	adds	r7, #16
 80054ca:	46bd      	mov	sp, r7
 80054cc:	bd80      	pop	{r7, pc}

080054ce <HAL_TIM_OC_DelayElapsedCallback>:
  * @brief  Output Compare callback in non-blocking mode
  * @param  htim TIM OC handle
  * @retval None
  */
__weak void HAL_TIM_OC_DelayElapsedCallback(TIM_HandleTypeDef *htim)
{
 80054ce:	b480      	push	{r7}
 80054d0:	b083      	sub	sp, #12
 80054d2:	af00      	add	r7, sp, #0
 80054d4:	6078      	str	r0, [r7, #4]
  UNUSED(htim);

  /* NOTE : This function should not be modified, when the callback is needed,
            the HAL_TIM_OC_DelayElapsedCallback could be implemented in the user file
   */
}
 80054d6:	bf00      	nop
 80054d8:	370c      	adds	r7, #12
 80054da:	46bd      	mov	sp, r7
 80054dc:	bc80      	pop	{r7}
 80054de:	4770      	bx	lr

080054e0 <HAL_TIM_IC_CaptureCallback>:
  * @brief  Input Capture callback in non-blocking mode
  * @param  htim TIM IC handle
  * @retval None
  */
__weak void HAL_TIM_IC_CaptureCallback(TIM_HandleTypeDef *htim)
{
 80054e0:	b480      	push	{r7}
 80054e2:	b083      	sub	sp, #12
 80054e4:	af00      	add	r7, sp, #0
 80054e6:	6078      	str	r0, [r7, #4]
  UNUSED(htim);

  /* NOTE : This function should not be modified, when the callback is needed,
            the HAL_TIM_IC_CaptureCallback could be implemented in the user file
   */
}
 80054e8:	bf00      	nop
 80054ea:	370c      	adds	r7, #12
 80054ec:	46bd      	mov	sp, r7
 80054ee:	bc80      	pop	{r7}
 80054f0:	4770      	bx	lr

080054f2 <HAL_TIM_PWM_PulseFinishedCallback>:
  * @brief  PWM Pulse finished callback in non-blocking mode
  * @param  htim TIM handle
  * @retval None
  */
__weak void HAL_TIM_PWM_PulseFinishedCallback(TIM_HandleTypeDef *htim)
{
 80054f2:	b480      	push	{r7}
 80054f4:	b083      	sub	sp, #12
 80054f6:	af00      	add	r7, sp, #0
 80054f8:	6078      	str	r0, [r7, #4]
  UNUSED(htim);

  /* NOTE : This function should not be modified, when the callback is needed,
            the HAL_TIM_PWM_PulseFinishedCallback could be implemented in the user file
   */
}
 80054fa:	bf00      	nop
 80054fc:	370c      	adds	r7, #12
 80054fe:	46bd      	mov	sp, r7
 8005500:	bc80      	pop	{r7}
 8005502:	4770      	bx	lr

08005504 <HAL_TIM_TriggerCallback>:
  * @brief  Hall Trigger detection callback in non-blocking mode
  * @param  htim TIM handle
  * @retval None
  */
__weak void HAL_TIM_TriggerCallback(TIM_HandleTypeDef *htim)
{
 8005504:	b480      	push	{r7}
 8005506:	b083      	sub	sp, #12
 8005508:	af00      	add	r7, sp, #0
 800550a:	6078      	str	r0, [r7, #4]
  UNUSED(htim);

  /* NOTE : This function should not be modified, when the callback is needed,
            the HAL_TIM_TriggerCallback could be implemented in the user file
   */
}
 800550c:	bf00      	nop
 800550e:	370c      	adds	r7, #12
 8005510:	46bd      	mov	sp, r7
 8005512:	bc80      	pop	{r7}
 8005514:	4770      	bx	lr
	...

08005518 <TIM_Base_SetConfig>:
  * @param  TIMx TIM peripheral
  * @param  Structure TIM Base configuration structure
  * @retval None
  */
void TIM_Base_SetConfig(TIM_TypeDef *TIMx, const TIM_Base_InitTypeDef *Structure)
{
 8005518:	b480      	push	{r7}
 800551a:	b085      	sub	sp, #20
 800551c:	af00      	add	r7, sp, #0
 800551e:	6078      	str	r0, [r7, #4]
 8005520:	6039      	str	r1, [r7, #0]
  uint32_t tmpcr1;
  tmpcr1 = TIMx->CR1;
 8005522:	687b      	ldr	r3, [r7, #4]
 8005524:	681b      	ldr	r3, [r3, #0]
 8005526:	60fb      	str	r3, [r7, #12]

  /* Set TIM Time Base Unit parameters ---------------------------------------*/
  if (IS_TIM_COUNTER_MODE_SELECT_INSTANCE(TIMx))
 8005528:	687b      	ldr	r3, [r7, #4]
 800552a:	4a29      	ldr	r2, [pc, #164]	@ (80055d0 <TIM_Base_SetConfig+0xb8>)
 800552c:	4293      	cmp	r3, r2
 800552e:	d00b      	beq.n	8005548 <TIM_Base_SetConfig+0x30>
 8005530:	687b      	ldr	r3, [r7, #4]
 8005532:	f1b3 4f80 	cmp.w	r3, #1073741824	@ 0x40000000
 8005536:	d007      	beq.n	8005548 <TIM_Base_SetConfig+0x30>
 8005538:	687b      	ldr	r3, [r7, #4]
 800553a:	4a26      	ldr	r2, [pc, #152]	@ (80055d4 <TIM_Base_SetConfig+0xbc>)
 800553c:	4293      	cmp	r3, r2
 800553e:	d003      	beq.n	8005548 <TIM_Base_SetConfig+0x30>
 8005540:	687b      	ldr	r3, [r7, #4]
 8005542:	4a25      	ldr	r2, [pc, #148]	@ (80055d8 <TIM_Base_SetConfig+0xc0>)
 8005544:	4293      	cmp	r3, r2
 8005546:	d108      	bne.n	800555a <TIM_Base_SetConfig+0x42>
  {
    /* Select the Counter Mode */
    tmpcr1 &= ~(TIM_CR1_DIR | TIM_CR1_CMS);
 8005548:	68fb      	ldr	r3, [r7, #12]
 800554a:	f023 0370 	bic.w	r3, r3, #112	@ 0x70
 800554e:	60fb      	str	r3, [r7, #12]
    tmpcr1 |= Structure->CounterMode;
 8005550:	683b      	ldr	r3, [r7, #0]
 8005552:	685b      	ldr	r3, [r3, #4]
 8005554:	68fa      	ldr	r2, [r7, #12]
 8005556:	4313      	orrs	r3, r2
 8005558:	60fb      	str	r3, [r7, #12]
  }

  if (IS_TIM_CLOCK_DIVISION_INSTANCE(TIMx))
 800555a:	687b      	ldr	r3, [r7, #4]
 800555c:	4a1c      	ldr	r2, [pc, #112]	@ (80055d0 <TIM_Base_SetConfig+0xb8>)
 800555e:	4293      	cmp	r3, r2
 8005560:	d00b      	beq.n	800557a <TIM_Base_SetConfig+0x62>
 8005562:	687b      	ldr	r3, [r7, #4]
 8005564:	f1b3 4f80 	cmp.w	r3, #1073741824	@ 0x40000000
 8005568:	d007      	beq.n	800557a <TIM_Base_SetConfig+0x62>
 800556a:	687b      	ldr	r3, [r7, #4]
 800556c:	4a19      	ldr	r2, [pc, #100]	@ (80055d4 <TIM_Base_SetConfig+0xbc>)
 800556e:	4293      	cmp	r3, r2
 8005570:	d003      	beq.n	800557a <TIM_Base_SetConfig+0x62>
 8005572:	687b      	ldr	r3, [r7, #4]
 8005574:	4a18      	ldr	r2, [pc, #96]	@ (80055d8 <TIM_Base_SetConfig+0xc0>)
 8005576:	4293      	cmp	r3, r2
 8005578:	d108      	bne.n	800558c <TIM_Base_SetConfig+0x74>
  {
    /* Set the clock division */
    tmpcr1 &= ~TIM_CR1_CKD;
 800557a:	68fb      	ldr	r3, [r7, #12]
 800557c:	f423 7340 	bic.w	r3, r3, #768	@ 0x300
 8005580:	60fb      	str	r3, [r7, #12]
    tmpcr1 |= (uint32_t)Structure->ClockDivision;
 8005582:	683b      	ldr	r3, [r7, #0]
 8005584:	68db      	ldr	r3, [r3, #12]
 8005586:	68fa      	ldr	r2, [r7, #12]
 8005588:	4313      	orrs	r3, r2
 800558a:	60fb      	str	r3, [r7, #12]
  }

  /* Set the auto-reload preload */
  MODIFY_REG(tmpcr1, TIM_CR1_ARPE, Structure->AutoReloadPreload);
 800558c:	68fb      	ldr	r3, [r7, #12]
 800558e:	f023 0280 	bic.w	r2, r3, #128	@ 0x80
 8005592:	683b      	ldr	r3, [r7, #0]
 8005594:	695b      	ldr	r3, [r3, #20]
 8005596:	4313      	orrs	r3, r2
 8005598:	60fb      	str	r3, [r7, #12]

  TIMx->CR1 = tmpcr1;
 800559a:	687b      	ldr	r3, [r7, #4]
 800559c:	68fa      	ldr	r2, [r7, #12]
 800559e:	601a      	str	r2, [r3, #0]

  /* Set the Autoreload value */
  TIMx->ARR = (uint32_t)Structure->Period ;
 80055a0:	683b      	ldr	r3, [r7, #0]
 80055a2:	689a      	ldr	r2, [r3, #8]
 80055a4:	687b      	ldr	r3, [r7, #4]
 80055a6:	62da      	str	r2, [r3, #44]	@ 0x2c

  /* Set the Prescaler value */
  TIMx->PSC = Structure->Prescaler;
 80055a8:	683b      	ldr	r3, [r7, #0]
 80055aa:	681a      	ldr	r2, [r3, #0]
 80055ac:	687b      	ldr	r3, [r7, #4]
 80055ae:	629a      	str	r2, [r3, #40]	@ 0x28

  if (IS_TIM_REPETITION_COUNTER_INSTANCE(TIMx))
 80055b0:	687b      	ldr	r3, [r7, #4]
 80055b2:	4a07      	ldr	r2, [pc, #28]	@ (80055d0 <TIM_Base_SetConfig+0xb8>)
 80055b4:	4293      	cmp	r3, r2
 80055b6:	d103      	bne.n	80055c0 <TIM_Base_SetConfig+0xa8>
  {
    /* Set the Repetition Counter value */
    TIMx->RCR = Structure->RepetitionCounter;
 80055b8:	683b      	ldr	r3, [r7, #0]
 80055ba:	691a      	ldr	r2, [r3, #16]
 80055bc:	687b      	ldr	r3, [r7, #4]
 80055be:	631a      	str	r2, [r3, #48]	@ 0x30
  }

  /* Generate an update event to reload the Prescaler
     and the repetition counter (only for advanced timer) value immediately */
  TIMx->EGR = TIM_EGR_UG;
 80055c0:	687b      	ldr	r3, [r7, #4]
 80055c2:	2201      	movs	r2, #1
 80055c4:	615a      	str	r2, [r3, #20]
}
 80055c6:	bf00      	nop
 80055c8:	3714      	adds	r7, #20
 80055ca:	46bd      	mov	sp, r7
 80055cc:	bc80      	pop	{r7}
 80055ce:	4770      	bx	lr
 80055d0:	40012c00 	.word	0x40012c00
 80055d4:	40000400 	.word	0x40000400
 80055d8:	40000800 	.word	0x40000800

080055dc <TIM_OC1_SetConfig>:
  * @param  TIMx to select the TIM peripheral
  * @param  OC_Config The output configuration structure
  * @retval None
  */
static void TIM_OC1_SetConfig(TIM_TypeDef *TIMx, const TIM_OC_InitTypeDef *OC_Config)
{
 80055dc:	b480      	push	{r7}
 80055de:	b087      	sub	sp, #28
 80055e0:	af00      	add	r7, sp, #0
 80055e2:	6078      	str	r0, [r7, #4]
 80055e4:	6039      	str	r1, [r7, #0]
  uint32_t tmpccmrx;
  uint32_t tmpccer;
  uint32_t tmpcr2;

  /* Get the TIMx CCER register value */
  tmpccer = TIMx->CCER;
 80055e6:	687b      	ldr	r3, [r7, #4]
 80055e8:	6a1b      	ldr	r3, [r3, #32]
 80055ea:	617b      	str	r3, [r7, #20]

  /* Disable the Channel 1: Reset the CC1E Bit */
  TIMx->CCER &= ~TIM_CCER_CC1E;
 80055ec:	687b      	ldr	r3, [r7, #4]
 80055ee:	6a1b      	ldr	r3, [r3, #32]
 80055f0:	f023 0201 	bic.w	r2, r3, #1
 80055f4:	687b      	ldr	r3, [r7, #4]
 80055f6:	621a      	str	r2, [r3, #32]

  /* Get the TIMx CR2 register value */
  tmpcr2 =  TIMx->CR2;
 80055f8:	687b      	ldr	r3, [r7, #4]
 80055fa:	685b      	ldr	r3, [r3, #4]
 80055fc:	613b      	str	r3, [r7, #16]

  /* Get the TIMx CCMR1 register value */
  tmpccmrx = TIMx->CCMR1;
 80055fe:	687b      	ldr	r3, [r7, #4]
 8005600:	699b      	ldr	r3, [r3, #24]
 8005602:	60fb      	str	r3, [r7, #12]

  /* Reset the Output Compare Mode Bits */
  tmpccmrx &= ~TIM_CCMR1_OC1M;
 8005604:	68fb      	ldr	r3, [r7, #12]
 8005606:	f023 0370 	bic.w	r3, r3, #112	@ 0x70
 800560a:	60fb      	str	r3, [r7, #12]
  tmpccmrx &= ~TIM_CCMR1_CC1S;
 800560c:	68fb      	ldr	r3, [r7, #12]
 800560e:	f023 0303 	bic.w	r3, r3, #3
 8005612:	60fb      	str	r3, [r7, #12]
  /* Select the Output Compare Mode */
  tmpccmrx |= OC_Config->OCMode;
 8005614:	683b      	ldr	r3, [r7, #0]
 8005616:	681b      	ldr	r3, [r3, #0]
 8005618:	68fa      	ldr	r2, [r7, #12]
 800561a:	4313      	orrs	r3, r2
 800561c:	60fb      	str	r3, [r7, #12]

  /* Reset the Output Polarity level */
  tmpccer &= ~TIM_CCER_CC1P;
 800561e:	697b      	ldr	r3, [r7, #20]
 8005620:	f023 0302 	bic.w	r3, r3, #2
 8005624:	617b      	str	r3, [r7, #20]
  /* Set the Output Compare Polarity */
  tmpccer |= OC_Config->OCPolarity;
 8005626:	683b      	ldr	r3, [r7, #0]
 8005628:	689b      	ldr	r3, [r3, #8]
 800562a:	697a      	ldr	r2, [r7, #20]
 800562c:	4313      	orrs	r3, r2
 800562e:	617b      	str	r3, [r7, #20]

  if (IS_TIM_CCXN_INSTANCE(TIMx, TIM_CHANNEL_1))
 8005630:	687b      	ldr	r3, [r7, #4]
 8005632:	4a1c      	ldr	r2, [pc, #112]	@ (80056a4 <TIM_OC1_SetConfig+0xc8>)
 8005634:	4293      	cmp	r3, r2
 8005636:	d10c      	bne.n	8005652 <TIM_OC1_SetConfig+0x76>
  {
    /* Check parameters */
    assert_param(IS_TIM_OCN_POLARITY(OC_Config->OCNPolarity));

    /* Reset the Output N Polarity level */
    tmpccer &= ~TIM_CCER_CC1NP;
 8005638:	697b      	ldr	r3, [r7, #20]
 800563a:	f023 0308 	bic.w	r3, r3, #8
 800563e:	617b      	str	r3, [r7, #20]
    /* Set the Output N Polarity */
    tmpccer |= OC_Config->OCNPolarity;
 8005640:	683b      	ldr	r3, [r7, #0]
 8005642:	68db      	ldr	r3, [r3, #12]
 8005644:	697a      	ldr	r2, [r7, #20]
 8005646:	4313      	orrs	r3, r2
 8005648:	617b      	str	r3, [r7, #20]
    /* Reset the Output N State */
    tmpccer &= ~TIM_CCER_CC1NE;
 800564a:	697b      	ldr	r3, [r7, #20]
 800564c:	f023 0304 	bic.w	r3, r3, #4
 8005650:	617b      	str	r3, [r7, #20]
  }

  if (IS_TIM_BREAK_INSTANCE(TIMx))
 8005652:	687b      	ldr	r3, [r7, #4]
 8005654:	4a13      	ldr	r2, [pc, #76]	@ (80056a4 <TIM_OC1_SetConfig+0xc8>)
 8005656:	4293      	cmp	r3, r2
 8005658:	d111      	bne.n	800567e <TIM_OC1_SetConfig+0xa2>
    /* Check parameters */
    assert_param(IS_TIM_OCNIDLE_STATE(OC_Config->OCNIdleState));
    assert_param(IS_TIM_OCIDLE_STATE(OC_Config->OCIdleState));

    /* Reset the Output Compare and Output Compare N IDLE State */
    tmpcr2 &= ~TIM_CR2_OIS1;
 800565a:	693b      	ldr	r3, [r7, #16]
 800565c:	f423 7380 	bic.w	r3, r3, #256	@ 0x100
 8005660:	613b      	str	r3, [r7, #16]
    tmpcr2 &= ~TIM_CR2_OIS1N;
 8005662:	693b      	ldr	r3, [r7, #16]
 8005664:	f423 7300 	bic.w	r3, r3, #512	@ 0x200
 8005668:	613b      	str	r3, [r7, #16]
    /* Set the Output Idle state */
    tmpcr2 |= OC_Config->OCIdleState;
 800566a:	683b      	ldr	r3, [r7, #0]
 800566c:	695b      	ldr	r3, [r3, #20]
 800566e:	693a      	ldr	r2, [r7, #16]
 8005670:	4313      	orrs	r3, r2
 8005672:	613b      	str	r3, [r7, #16]
    /* Set the Output N Idle state */
    tmpcr2 |= OC_Config->OCNIdleState;
 8005674:	683b      	ldr	r3, [r7, #0]
 8005676:	699b      	ldr	r3, [r3, #24]
 8005678:	693a      	ldr	r2, [r7, #16]
 800567a:	4313      	orrs	r3, r2
 800567c:	613b      	str	r3, [r7, #16]
  }

  /* Write to TIMx CR2 */
  TIMx->CR2 = tmpcr2;
 800567e:	687b      	ldr	r3, [r7, #4]
 8005680:	693a      	ldr	r2, [r7, #16]
 8005682:	605a      	str	r2, [r3, #4]

  /* Write to TIMx CCMR1 */
  TIMx->CCMR1 = tmpccmrx;
 8005684:	687b      	ldr	r3, [r7, #4]
 8005686:	68fa      	ldr	r2, [r7, #12]
 8005688:	619a      	str	r2, [r3, #24]

  /* Set the Capture Compare Register value */
  TIMx->CCR1 = OC_Config->Pulse;
 800568a:	683b      	ldr	r3, [r7, #0]
 800568c:	685a      	ldr	r2, [r3, #4]
 800568e:	687b      	ldr	r3, [r7, #4]
 8005690:	635a      	str	r2, [r3, #52]	@ 0x34

  /* Write to TIMx CCER */
  TIMx->CCER = tmpccer;
 8005692:	687b      	ldr	r3, [r7, #4]
 8005694:	697a      	ldr	r2, [r7, #20]
 8005696:	621a      	str	r2, [r3, #32]
}
 8005698:	bf00      	nop
 800569a:	371c      	adds	r7, #28
 800569c:	46bd      	mov	sp, r7
 800569e:	bc80      	pop	{r7}
 80056a0:	4770      	bx	lr
 80056a2:	bf00      	nop
 80056a4:	40012c00 	.word	0x40012c00

080056a8 <TIM_OC2_SetConfig>:
  * @param  TIMx to select the TIM peripheral
  * @param  OC_Config The output configuration structure
  * @retval None
  */
void TIM_OC2_SetConfig(TIM_TypeDef *TIMx, const TIM_OC_InitTypeDef *OC_Config)
{
 80056a8:	b480      	push	{r7}
 80056aa:	b087      	sub	sp, #28
 80056ac:	af00      	add	r7, sp, #0
 80056ae:	6078      	str	r0, [r7, #4]
 80056b0:	6039      	str	r1, [r7, #0]
  uint32_t tmpccmrx;
  uint32_t tmpccer;
  uint32_t tmpcr2;

  /* Get the TIMx CCER register value */
  tmpccer = TIMx->CCER;
 80056b2:	687b      	ldr	r3, [r7, #4]
 80056b4:	6a1b      	ldr	r3, [r3, #32]
 80056b6:	617b      	str	r3, [r7, #20]

  /* Disable the Channel 2: Reset the CC2E Bit */
  TIMx->CCER &= ~TIM_CCER_CC2E;
 80056b8:	687b      	ldr	r3, [r7, #4]
 80056ba:	6a1b      	ldr	r3, [r3, #32]
 80056bc:	f023 0210 	bic.w	r2, r3, #16
 80056c0:	687b      	ldr	r3, [r7, #4]
 80056c2:	621a      	str	r2, [r3, #32]

  /* Get the TIMx CR2 register value */
  tmpcr2 =  TIMx->CR2;
 80056c4:	687b      	ldr	r3, [r7, #4]
 80056c6:	685b      	ldr	r3, [r3, #4]
 80056c8:	613b      	str	r3, [r7, #16]

  /* Get the TIMx CCMR1 register value */
  tmpccmrx = TIMx->CCMR1;
 80056ca:	687b      	ldr	r3, [r7, #4]
 80056cc:	699b      	ldr	r3, [r3, #24]
 80056ce:	60fb      	str	r3, [r7, #12]

  /* Reset the Output Compare mode and Capture/Compare selection Bits */
  tmpccmrx &= ~TIM_CCMR1_OC2M;
 80056d0:	68fb      	ldr	r3, [r7, #12]
 80056d2:	f423 43e0 	bic.w	r3, r3, #28672	@ 0x7000
 80056d6:	60fb      	str	r3, [r7, #12]
  tmpccmrx &= ~TIM_CCMR1_CC2S;
 80056d8:	68fb      	ldr	r3, [r7, #12]
 80056da:	f423 7340 	bic.w	r3, r3, #768	@ 0x300
 80056de:	60fb      	str	r3, [r7, #12]

  /* Select the Output Compare Mode */
  tmpccmrx |= (OC_Config->OCMode << 8U);
 80056e0:	683b      	ldr	r3, [r7, #0]
 80056e2:	681b      	ldr	r3, [r3, #0]
 80056e4:	021b      	lsls	r3, r3, #8
 80056e6:	68fa      	ldr	r2, [r7, #12]
 80056e8:	4313      	orrs	r3, r2
 80056ea:	60fb      	str	r3, [r7, #12]

  /* Reset the Output Polarity level */
  tmpccer &= ~TIM_CCER_CC2P;
 80056ec:	697b      	ldr	r3, [r7, #20]
 80056ee:	f023 0320 	bic.w	r3, r3, #32
 80056f2:	617b      	str	r3, [r7, #20]
  /* Set the Output Compare Polarity */
  tmpccer |= (OC_Config->OCPolarity << 4U);
 80056f4:	683b      	ldr	r3, [r7, #0]
 80056f6:	689b      	ldr	r3, [r3, #8]
 80056f8:	011b      	lsls	r3, r3, #4
 80056fa:	697a      	ldr	r2, [r7, #20]
 80056fc:	4313      	orrs	r3, r2
 80056fe:	617b      	str	r3, [r7, #20]

  if (IS_TIM_CCXN_INSTANCE(TIMx, TIM_CHANNEL_2))
 8005700:	687b      	ldr	r3, [r7, #4]
 8005702:	4a1d      	ldr	r2, [pc, #116]	@ (8005778 <TIM_OC2_SetConfig+0xd0>)
 8005704:	4293      	cmp	r3, r2
 8005706:	d10d      	bne.n	8005724 <TIM_OC2_SetConfig+0x7c>
  {
    assert_param(IS_TIM_OCN_POLARITY(OC_Config->OCNPolarity));

    /* Reset the Output N Polarity level */
    tmpccer &= ~TIM_CCER_CC2NP;
 8005708:	697b      	ldr	r3, [r7, #20]
 800570a:	f023 0380 	bic.w	r3, r3, #128	@ 0x80
 800570e:	617b      	str	r3, [r7, #20]
    /* Set the Output N Polarity */
    tmpccer |= (OC_Config->OCNPolarity << 4U);
 8005710:	683b      	ldr	r3, [r7, #0]
 8005712:	68db      	ldr	r3, [r3, #12]
 8005714:	011b      	lsls	r3, r3, #4
 8005716:	697a      	ldr	r2, [r7, #20]
 8005718:	4313      	orrs	r3, r2
 800571a:	617b      	str	r3, [r7, #20]
    /* Reset the Output N State */
    tmpccer &= ~TIM_CCER_CC2NE;
 800571c:	697b      	ldr	r3, [r7, #20]
 800571e:	f023 0340 	bic.w	r3, r3, #64	@ 0x40
 8005722:	617b      	str	r3, [r7, #20]

  }

  if (IS_TIM_BREAK_INSTANCE(TIMx))
 8005724:	687b      	ldr	r3, [r7, #4]
 8005726:	4a14      	ldr	r2, [pc, #80]	@ (8005778 <TIM_OC2_SetConfig+0xd0>)
 8005728:	4293      	cmp	r3, r2
 800572a:	d113      	bne.n	8005754 <TIM_OC2_SetConfig+0xac>
    /* Check parameters */
    assert_param(IS_TIM_OCNIDLE_STATE(OC_Config->OCNIdleState));
    assert_param(IS_TIM_OCIDLE_STATE(OC_Config->OCIdleState));

    /* Reset the Output Compare and Output Compare N IDLE State */
    tmpcr2 &= ~TIM_CR2_OIS2;
 800572c:	693b      	ldr	r3, [r7, #16]
 800572e:	f423 6380 	bic.w	r3, r3, #1024	@ 0x400
 8005732:	613b      	str	r3, [r7, #16]
    tmpcr2 &= ~TIM_CR2_OIS2N;
 8005734:	693b      	ldr	r3, [r7, #16]
 8005736:	f423 6300 	bic.w	r3, r3, #2048	@ 0x800
 800573a:	613b      	str	r3, [r7, #16]
    /* Set the Output Idle state */
    tmpcr2 |= (OC_Config->OCIdleState << 2U);
 800573c:	683b      	ldr	r3, [r7, #0]
 800573e:	695b      	ldr	r3, [r3, #20]
 8005740:	009b      	lsls	r3, r3, #2
 8005742:	693a      	ldr	r2, [r7, #16]
 8005744:	4313      	orrs	r3, r2
 8005746:	613b      	str	r3, [r7, #16]
    /* Set the Output N Idle state */
    tmpcr2 |= (OC_Config->OCNIdleState << 2U);
 8005748:	683b      	ldr	r3, [r7, #0]
 800574a:	699b      	ldr	r3, [r3, #24]
 800574c:	009b      	lsls	r3, r3, #2
 800574e:	693a      	ldr	r2, [r7, #16]
 8005750:	4313      	orrs	r3, r2
 8005752:	613b      	str	r3, [r7, #16]
  }

  /* Write to TIMx CR2 */
  TIMx->CR2 = tmpcr2;
 8005754:	687b      	ldr	r3, [r7, #4]
 8005756:	693a      	ldr	r2, [r7, #16]
 8005758:	605a      	str	r2, [r3, #4]

  /* Write to TIMx CCMR1 */
  TIMx->CCMR1 = tmpccmrx;
 800575a:	687b      	ldr	r3, [r7, #4]
 800575c:	68fa      	ldr	r2, [r7, #12]
 800575e:	619a      	str	r2, [r3, #24]

  /* Set the Capture Compare Register value */
  TIMx->CCR2 = OC_Config->Pulse;
 8005760:	683b      	ldr	r3, [r7, #0]
 8005762:	685a      	ldr	r2, [r3, #4]
 8005764:	687b      	ldr	r3, [r7, #4]
 8005766:	639a      	str	r2, [r3, #56]	@ 0x38

  /* Write to TIMx CCER */
  TIMx->CCER = tmpccer;
 8005768:	687b      	ldr	r3, [r7, #4]
 800576a:	697a      	ldr	r2, [r7, #20]
 800576c:	621a      	str	r2, [r3, #32]
}
 800576e:	bf00      	nop
 8005770:	371c      	adds	r7, #28
 8005772:	46bd      	mov	sp, r7
 8005774:	bc80      	pop	{r7}
 8005776:	4770      	bx	lr
 8005778:	40012c00 	.word	0x40012c00

0800577c <TIM_OC3_SetConfig>:
  * @param  TIMx to select the TIM peripheral
  * @param  OC_Config The output configuration structure
  * @retval None
  */
static void TIM_OC3_SetConfig(TIM_TypeDef *TIMx, const TIM_OC_InitTypeDef *OC_Config)
{
 800577c:	b480      	push	{r7}
 800577e:	b087      	sub	sp, #28
 8005780:	af00      	add	r7, sp, #0
 8005782:	6078      	str	r0, [r7, #4]
 8005784:	6039      	str	r1, [r7, #0]
  uint32_t tmpccmrx;
  uint32_t tmpccer;
  uint32_t tmpcr2;

  /* Get the TIMx CCER register value */
  tmpccer = TIMx->CCER;
 8005786:	687b      	ldr	r3, [r7, #4]
 8005788:	6a1b      	ldr	r3, [r3, #32]
 800578a:	617b      	str	r3, [r7, #20]

  /* Disable the Channel 3: Reset the CC2E Bit */
  TIMx->CCER &= ~TIM_CCER_CC3E;
 800578c:	687b      	ldr	r3, [r7, #4]
 800578e:	6a1b      	ldr	r3, [r3, #32]
 8005790:	f423 7280 	bic.w	r2, r3, #256	@ 0x100
 8005794:	687b      	ldr	r3, [r7, #4]
 8005796:	621a      	str	r2, [r3, #32]

  /* Get the TIMx CR2 register value */
  tmpcr2 =  TIMx->CR2;
 8005798:	687b      	ldr	r3, [r7, #4]
 800579a:	685b      	ldr	r3, [r3, #4]
 800579c:	613b      	str	r3, [r7, #16]

  /* Get the TIMx CCMR2 register value */
  tmpccmrx = TIMx->CCMR2;
 800579e:	687b      	ldr	r3, [r7, #4]
 80057a0:	69db      	ldr	r3, [r3, #28]
 80057a2:	60fb      	str	r3, [r7, #12]

  /* Reset the Output Compare mode and Capture/Compare selection Bits */
  tmpccmrx &= ~TIM_CCMR2_OC3M;
 80057a4:	68fb      	ldr	r3, [r7, #12]
 80057a6:	f023 0370 	bic.w	r3, r3, #112	@ 0x70
 80057aa:	60fb      	str	r3, [r7, #12]
  tmpccmrx &= ~TIM_CCMR2_CC3S;
 80057ac:	68fb      	ldr	r3, [r7, #12]
 80057ae:	f023 0303 	bic.w	r3, r3, #3
 80057b2:	60fb      	str	r3, [r7, #12]
  /* Select the Output Compare Mode */
  tmpccmrx |= OC_Config->OCMode;
 80057b4:	683b      	ldr	r3, [r7, #0]
 80057b6:	681b      	ldr	r3, [r3, #0]
 80057b8:	68fa      	ldr	r2, [r7, #12]
 80057ba:	4313      	orrs	r3, r2
 80057bc:	60fb      	str	r3, [r7, #12]

  /* Reset the Output Polarity level */
  tmpccer &= ~TIM_CCER_CC3P;
 80057be:	697b      	ldr	r3, [r7, #20]
 80057c0:	f423 7300 	bic.w	r3, r3, #512	@ 0x200
 80057c4:	617b      	str	r3, [r7, #20]
  /* Set the Output Compare Polarity */
  tmpccer |= (OC_Config->OCPolarity << 8U);
 80057c6:	683b      	ldr	r3, [r7, #0]
 80057c8:	689b      	ldr	r3, [r3, #8]
 80057ca:	021b      	lsls	r3, r3, #8
 80057cc:	697a      	ldr	r2, [r7, #20]
 80057ce:	4313      	orrs	r3, r2
 80057d0:	617b      	str	r3, [r7, #20]

  if (IS_TIM_CCXN_INSTANCE(TIMx, TIM_CHANNEL_3))
 80057d2:	687b      	ldr	r3, [r7, #4]
 80057d4:	4a1d      	ldr	r2, [pc, #116]	@ (800584c <TIM_OC3_SetConfig+0xd0>)
 80057d6:	4293      	cmp	r3, r2
 80057d8:	d10d      	bne.n	80057f6 <TIM_OC3_SetConfig+0x7a>
  {
    assert_param(IS_TIM_OCN_POLARITY(OC_Config->OCNPolarity));

    /* Reset the Output N Polarity level */
    tmpccer &= ~TIM_CCER_CC3NP;
 80057da:	697b      	ldr	r3, [r7, #20]
 80057dc:	f423 6300 	bic.w	r3, r3, #2048	@ 0x800
 80057e0:	617b      	str	r3, [r7, #20]
    /* Set the Output N Polarity */
    tmpccer |= (OC_Config->OCNPolarity << 8U);
 80057e2:	683b      	ldr	r3, [r7, #0]
 80057e4:	68db      	ldr	r3, [r3, #12]
 80057e6:	021b      	lsls	r3, r3, #8
 80057e8:	697a      	ldr	r2, [r7, #20]
 80057ea:	4313      	orrs	r3, r2
 80057ec:	617b      	str	r3, [r7, #20]
    /* Reset the Output N State */
    tmpccer &= ~TIM_CCER_CC3NE;
 80057ee:	697b      	ldr	r3, [r7, #20]
 80057f0:	f423 6380 	bic.w	r3, r3, #1024	@ 0x400
 80057f4:	617b      	str	r3, [r7, #20]
  }

  if (IS_TIM_BREAK_INSTANCE(TIMx))
 80057f6:	687b      	ldr	r3, [r7, #4]
 80057f8:	4a14      	ldr	r2, [pc, #80]	@ (800584c <TIM_OC3_SetConfig+0xd0>)
 80057fa:	4293      	cmp	r3, r2
 80057fc:	d113      	bne.n	8005826 <TIM_OC3_SetConfig+0xaa>
    /* Check parameters */
    assert_param(IS_TIM_OCNIDLE_STATE(OC_Config->OCNIdleState));
    assert_param(IS_TIM_OCIDLE_STATE(OC_Config->OCIdleState));

    /* Reset the Output Compare and Output Compare N IDLE State */
    tmpcr2 &= ~TIM_CR2_OIS3;
 80057fe:	693b      	ldr	r3, [r7, #16]
 8005800:	f423 5380 	bic.w	r3, r3, #4096	@ 0x1000
 8005804:	613b      	str	r3, [r7, #16]
    tmpcr2 &= ~TIM_CR2_OIS3N;
 8005806:	693b      	ldr	r3, [r7, #16]
 8005808:	f423 5300 	bic.w	r3, r3, #8192	@ 0x2000
 800580c:	613b      	str	r3, [r7, #16]
    /* Set the Output Idle state */
    tmpcr2 |= (OC_Config->OCIdleState << 4U);
 800580e:	683b      	ldr	r3, [r7, #0]
 8005810:	695b      	ldr	r3, [r3, #20]
 8005812:	011b      	lsls	r3, r3, #4
 8005814:	693a      	ldr	r2, [r7, #16]
 8005816:	4313      	orrs	r3, r2
 8005818:	613b      	str	r3, [r7, #16]
    /* Set the Output N Idle state */
    tmpcr2 |= (OC_Config->OCNIdleState << 4U);
 800581a:	683b      	ldr	r3, [r7, #0]
 800581c:	699b      	ldr	r3, [r3, #24]
 800581e:	011b      	lsls	r3, r3, #4
 8005820:	693a      	ldr	r2, [r7, #16]
 8005822:	4313      	orrs	r3, r2
 8005824:	613b      	str	r3, [r7, #16]
  }

  /* Write to TIMx CR2 */
  TIMx->CR2 = tmpcr2;
 8005826:	687b      	ldr	r3, [r7, #4]
 8005828:	693a      	ldr	r2, [r7, #16]
 800582a:	605a      	str	r2, [r3, #4]

  /* Write to TIMx CCMR2 */
  TIMx->CCMR2 = tmpccmrx;
 800582c:	687b      	ldr	r3, [r7, #4]
 800582e:	68fa      	ldr	r2, [r7, #12]
 8005830:	61da      	str	r2, [r3, #28]

  /* Set the Capture Compare Register value */
  TIMx->CCR3 = OC_Config->Pulse;
 8005832:	683b      	ldr	r3, [r7, #0]
 8005834:	685a      	ldr	r2, [r3, #4]
 8005836:	687b      	ldr	r3, [r7, #4]
 8005838:	63da      	str	r2, [r3, #60]	@ 0x3c

  /* Write to TIMx CCER */
  TIMx->CCER = tmpccer;
 800583a:	687b      	ldr	r3, [r7, #4]
 800583c:	697a      	ldr	r2, [r7, #20]
 800583e:	621a      	str	r2, [r3, #32]
}
 8005840:	bf00      	nop
 8005842:	371c      	adds	r7, #28
 8005844:	46bd      	mov	sp, r7
 8005846:	bc80      	pop	{r7}
 8005848:	4770      	bx	lr
 800584a:	bf00      	nop
 800584c:	40012c00 	.word	0x40012c00

08005850 <TIM_OC4_SetConfig>:
  * @param  TIMx to select the TIM peripheral
  * @param  OC_Config The output configuration structure
  * @retval None
  */
static void TIM_OC4_SetConfig(TIM_TypeDef *TIMx, const TIM_OC_InitTypeDef *OC_Config)
{
 8005850:	b480      	push	{r7}
 8005852:	b087      	sub	sp, #28
 8005854:	af00      	add	r7, sp, #0
 8005856:	6078      	str	r0, [r7, #4]
 8005858:	6039      	str	r1, [r7, #0]
  uint32_t tmpccmrx;
  uint32_t tmpccer;
  uint32_t tmpcr2;

  /* Get the TIMx CCER register value */
  tmpccer = TIMx->CCER;
 800585a:	687b      	ldr	r3, [r7, #4]
 800585c:	6a1b      	ldr	r3, [r3, #32]
 800585e:	613b      	str	r3, [r7, #16]

  /* Disable the Channel 4: Reset the CC4E Bit */
  TIMx->CCER &= ~TIM_CCER_CC4E;
 8005860:	687b      	ldr	r3, [r7, #4]
 8005862:	6a1b      	ldr	r3, [r3, #32]
 8005864:	f423 5280 	bic.w	r2, r3, #4096	@ 0x1000
 8005868:	687b      	ldr	r3, [r7, #4]
 800586a:	621a      	str	r2, [r3, #32]

  /* Get the TIMx CR2 register value */
  tmpcr2 =  TIMx->CR2;
 800586c:	687b      	ldr	r3, [r7, #4]
 800586e:	685b      	ldr	r3, [r3, #4]
 8005870:	617b      	str	r3, [r7, #20]

  /* Get the TIMx CCMR2 register value */
  tmpccmrx = TIMx->CCMR2;
 8005872:	687b      	ldr	r3, [r7, #4]
 8005874:	69db      	ldr	r3, [r3, #28]
 8005876:	60fb      	str	r3, [r7, #12]

  /* Reset the Output Compare mode and Capture/Compare selection Bits */
  tmpccmrx &= ~TIM_CCMR2_OC4M;
 8005878:	68fb      	ldr	r3, [r7, #12]
 800587a:	f423 43e0 	bic.w	r3, r3, #28672	@ 0x7000
 800587e:	60fb      	str	r3, [r7, #12]
  tmpccmrx &= ~TIM_CCMR2_CC4S;
 8005880:	68fb      	ldr	r3, [r7, #12]
 8005882:	f423 7340 	bic.w	r3, r3, #768	@ 0x300
 8005886:	60fb      	str	r3, [r7, #12]

  /* Select the Output Compare Mode */
  tmpccmrx |= (OC_Config->OCMode << 8U);
 8005888:	683b      	ldr	r3, [r7, #0]
 800588a:	681b      	ldr	r3, [r3, #0]
 800588c:	021b      	lsls	r3, r3, #8
 800588e:	68fa      	ldr	r2, [r7, #12]
 8005890:	4313      	orrs	r3, r2
 8005892:	60fb      	str	r3, [r7, #12]

  /* Reset the Output Polarity level */
  tmpccer &= ~TIM_CCER_CC4P;
 8005894:	693b      	ldr	r3, [r7, #16]
 8005896:	f423 5300 	bic.w	r3, r3, #8192	@ 0x2000
 800589a:	613b      	str	r3, [r7, #16]
  /* Set the Output Compare Polarity */
  tmpccer |= (OC_Config->OCPolarity << 12U);
 800589c:	683b      	ldr	r3, [r7, #0]
 800589e:	689b      	ldr	r3, [r3, #8]
 80058a0:	031b      	lsls	r3, r3, #12
 80058a2:	693a      	ldr	r2, [r7, #16]
 80058a4:	4313      	orrs	r3, r2
 80058a6:	613b      	str	r3, [r7, #16]

  if (IS_TIM_BREAK_INSTANCE(TIMx))
 80058a8:	687b      	ldr	r3, [r7, #4]
 80058aa:	4a0f      	ldr	r2, [pc, #60]	@ (80058e8 <TIM_OC4_SetConfig+0x98>)
 80058ac:	4293      	cmp	r3, r2
 80058ae:	d109      	bne.n	80058c4 <TIM_OC4_SetConfig+0x74>
  {
    /* Check parameters */
    assert_param(IS_TIM_OCIDLE_STATE(OC_Config->OCIdleState));

    /* Reset the Output Compare IDLE State */
    tmpcr2 &= ~TIM_CR2_OIS4;
 80058b0:	697b      	ldr	r3, [r7, #20]
 80058b2:	f423 4380 	bic.w	r3, r3, #16384	@ 0x4000
 80058b6:	617b      	str	r3, [r7, #20]

    /* Set the Output Idle state */
    tmpcr2 |= (OC_Config->OCIdleState << 6U);
 80058b8:	683b      	ldr	r3, [r7, #0]
 80058ba:	695b      	ldr	r3, [r3, #20]
 80058bc:	019b      	lsls	r3, r3, #6
 80058be:	697a      	ldr	r2, [r7, #20]
 80058c0:	4313      	orrs	r3, r2
 80058c2:	617b      	str	r3, [r7, #20]
  }

  /* Write to TIMx CR2 */
  TIMx->CR2 = tmpcr2;
 80058c4:	687b      	ldr	r3, [r7, #4]
 80058c6:	697a      	ldr	r2, [r7, #20]
 80058c8:	605a      	str	r2, [r3, #4]

  /* Write to TIMx CCMR2 */
  TIMx->CCMR2 = tmpccmrx;
 80058ca:	687b      	ldr	r3, [r7, #4]
 80058cc:	68fa      	ldr	r2, [r7, #12]
 80058ce:	61da      	str	r2, [r3, #28]

  /* Set the Capture Compare Register value */
  TIMx->CCR4 = OC_Config->Pulse;
 80058d0:	683b      	ldr	r3, [r7, #0]
 80058d2:	685a      	ldr	r2, [r3, #4]
 80058d4:	687b      	ldr	r3, [r7, #4]
 80058d6:	641a      	str	r2, [r3, #64]	@ 0x40

  /* Write to TIMx CCER */
  TIMx->CCER = tmpccer;
 80058d8:	687b      	ldr	r3, [r7, #4]
 80058da:	693a      	ldr	r2, [r7, #16]
 80058dc:	621a      	str	r2, [r3, #32]
}
 80058de:	bf00      	nop
 80058e0:	371c      	adds	r7, #28
 80058e2:	46bd      	mov	sp, r7
 80058e4:	bc80      	pop	{r7}
 80058e6:	4770      	bx	lr
 80058e8:	40012c00 	.word	0x40012c00

080058ec <TIM_TI1_ConfigInputStage>:
  * @param  TIM_ICFilter Specifies the Input Capture Filter.
  *          This parameter must be a value between 0x00 and 0x0F.
  * @retval None
  */
static void TIM_TI1_ConfigInputStage(TIM_TypeDef *TIMx, uint32_t TIM_ICPolarity, uint32_t TIM_ICFilter)
{
 80058ec:	b480      	push	{r7}
 80058ee:	b087      	sub	sp, #28
 80058f0:	af00      	add	r7, sp, #0
 80058f2:	60f8      	str	r0, [r7, #12]
 80058f4:	60b9      	str	r1, [r7, #8]
 80058f6:	607a      	str	r2, [r7, #4]
  uint32_t tmpccmr1;
  uint32_t tmpccer;

  /* Disable the Channel 1: Reset the CC1E Bit */
  tmpccer = TIMx->CCER;
 80058f8:	68fb      	ldr	r3, [r7, #12]
 80058fa:	6a1b      	ldr	r3, [r3, #32]
 80058fc:	617b      	str	r3, [r7, #20]
  TIMx->CCER &= ~TIM_CCER_CC1E;
 80058fe:	68fb      	ldr	r3, [r7, #12]
 8005900:	6a1b      	ldr	r3, [r3, #32]
 8005902:	f023 0201 	bic.w	r2, r3, #1
 8005906:	68fb      	ldr	r3, [r7, #12]
 8005908:	621a      	str	r2, [r3, #32]
  tmpccmr1 = TIMx->CCMR1;
 800590a:	68fb      	ldr	r3, [r7, #12]
 800590c:	699b      	ldr	r3, [r3, #24]
 800590e:	613b      	str	r3, [r7, #16]

  /* Set the filter */
  tmpccmr1 &= ~TIM_CCMR1_IC1F;
 8005910:	693b      	ldr	r3, [r7, #16]
 8005912:	f023 03f0 	bic.w	r3, r3, #240	@ 0xf0
 8005916:	613b      	str	r3, [r7, #16]
  tmpccmr1 |= (TIM_ICFilter << 4U);
 8005918:	687b      	ldr	r3, [r7, #4]
 800591a:	011b      	lsls	r3, r3, #4
 800591c:	693a      	ldr	r2, [r7, #16]
 800591e:	4313      	orrs	r3, r2
 8005920:	613b      	str	r3, [r7, #16]

  /* Select the Polarity and set the CC1E Bit */
  tmpccer &= ~(TIM_CCER_CC1P | TIM_CCER_CC1NP);
 8005922:	697b      	ldr	r3, [r7, #20]
 8005924:	f023 030a 	bic.w	r3, r3, #10
 8005928:	617b      	str	r3, [r7, #20]
  tmpccer |= TIM_ICPolarity;
 800592a:	697a      	ldr	r2, [r7, #20]
 800592c:	68bb      	ldr	r3, [r7, #8]
 800592e:	4313      	orrs	r3, r2
 8005930:	617b      	str	r3, [r7, #20]

  /* Write to TIMx CCMR1 and CCER registers */
  TIMx->CCMR1 = tmpccmr1;
 8005932:	68fb      	ldr	r3, [r7, #12]
 8005934:	693a      	ldr	r2, [r7, #16]
 8005936:	619a      	str	r2, [r3, #24]
  TIMx->CCER = tmpccer;
 8005938:	68fb      	ldr	r3, [r7, #12]
 800593a:	697a      	ldr	r2, [r7, #20]
 800593c:	621a      	str	r2, [r3, #32]
}
 800593e:	bf00      	nop
 8005940:	371c      	adds	r7, #28
 8005942:	46bd      	mov	sp, r7
 8005944:	bc80      	pop	{r7}
 8005946:	4770      	bx	lr

08005948 <TIM_TI2_ConfigInputStage>:
  * @param  TIM_ICFilter Specifies the Input Capture Filter.
  *          This parameter must be a value between 0x00 and 0x0F.
  * @retval None
  */
static void TIM_TI2_ConfigInputStage(TIM_TypeDef *TIMx, uint32_t TIM_ICPolarity, uint32_t TIM_ICFilter)
{
 8005948:	b480      	push	{r7}
 800594a:	b087      	sub	sp, #28
 800594c:	af00      	add	r7, sp, #0
 800594e:	60f8      	str	r0, [r7, #12]
 8005950:	60b9      	str	r1, [r7, #8]
 8005952:	607a      	str	r2, [r7, #4]
  uint32_t tmpccmr1;
  uint32_t tmpccer;

  /* Disable the Channel 2: Reset the CC2E Bit */
  tmpccer = TIMx->CCER;
 8005954:	68fb      	ldr	r3, [r7, #12]
 8005956:	6a1b      	ldr	r3, [r3, #32]
 8005958:	617b      	str	r3, [r7, #20]
  TIMx->CCER &= ~TIM_CCER_CC2E;
 800595a:	68fb      	ldr	r3, [r7, #12]
 800595c:	6a1b      	ldr	r3, [r3, #32]
 800595e:	f023 0210 	bic.w	r2, r3, #16
 8005962:	68fb      	ldr	r3, [r7, #12]
 8005964:	621a      	str	r2, [r3, #32]
  tmpccmr1 = TIMx->CCMR1;
 8005966:	68fb      	ldr	r3, [r7, #12]
 8005968:	699b      	ldr	r3, [r3, #24]
 800596a:	613b      	str	r3, [r7, #16]

  /* Set the filter */
  tmpccmr1 &= ~TIM_CCMR1_IC2F;
 800596c:	693b      	ldr	r3, [r7, #16]
 800596e:	f423 4370 	bic.w	r3, r3, #61440	@ 0xf000
 8005972:	613b      	str	r3, [r7, #16]
  tmpccmr1 |= (TIM_ICFilter << 12U);
 8005974:	687b      	ldr	r3, [r7, #4]
 8005976:	031b      	lsls	r3, r3, #12
 8005978:	693a      	ldr	r2, [r7, #16]
 800597a:	4313      	orrs	r3, r2
 800597c:	613b      	str	r3, [r7, #16]

  /* Select the Polarity and set the CC2E Bit */
  tmpccer &= ~(TIM_CCER_CC2P | TIM_CCER_CC2NP);
 800597e:	697b      	ldr	r3, [r7, #20]
 8005980:	f023 03a0 	bic.w	r3, r3, #160	@ 0xa0
 8005984:	617b      	str	r3, [r7, #20]
  tmpccer |= (TIM_ICPolarity << 4U);
 8005986:	68bb      	ldr	r3, [r7, #8]
 8005988:	011b      	lsls	r3, r3, #4
 800598a:	697a      	ldr	r2, [r7, #20]
 800598c:	4313      	orrs	r3, r2
 800598e:	617b      	str	r3, [r7, #20]

  /* Write to TIMx CCMR1 and CCER registers */
  TIMx->CCMR1 = tmpccmr1 ;
 8005990:	68fb      	ldr	r3, [r7, #12]
 8005992:	693a      	ldr	r2, [r7, #16]
 8005994:	619a      	str	r2, [r3, #24]
  TIMx->CCER = tmpccer;
 8005996:	68fb      	ldr	r3, [r7, #12]
 8005998:	697a      	ldr	r2, [r7, #20]
 800599a:	621a      	str	r2, [r3, #32]
}
 800599c:	bf00      	nop
 800599e:	371c      	adds	r7, #28
 80059a0:	46bd      	mov	sp, r7
 80059a2:	bc80      	pop	{r7}
 80059a4:	4770      	bx	lr

080059a6 <TIM_ITRx_SetConfig>:
  *            @arg TIM_TS_TI2FP2: Filtered Timer Input 2
  *            @arg TIM_TS_ETRF: External Trigger input
  * @retval None
  */
static void TIM_ITRx_SetConfig(TIM_TypeDef *TIMx, uint32_t InputTriggerSource)
{
 80059a6:	b480      	push	{r7}
 80059a8:	b085      	sub	sp, #20
 80059aa:	af00      	add	r7, sp, #0
 80059ac:	6078      	str	r0, [r7, #4]
 80059ae:	6039      	str	r1, [r7, #0]
  uint32_t tmpsmcr;

  /* Get the TIMx SMCR register value */
  tmpsmcr = TIMx->SMCR;
 80059b0:	687b      	ldr	r3, [r7, #4]
 80059b2:	689b      	ldr	r3, [r3, #8]
 80059b4:	60fb      	str	r3, [r7, #12]
  /* Reset the TS Bits */
  tmpsmcr &= ~TIM_SMCR_TS;
 80059b6:	68fb      	ldr	r3, [r7, #12]
 80059b8:	f023 0370 	bic.w	r3, r3, #112	@ 0x70
 80059bc:	60fb      	str	r3, [r7, #12]
  /* Set the Input Trigger source and the slave mode*/
  tmpsmcr |= (InputTriggerSource | TIM_SLAVEMODE_EXTERNAL1);
 80059be:	683a      	ldr	r2, [r7, #0]
 80059c0:	68fb      	ldr	r3, [r7, #12]
 80059c2:	4313      	orrs	r3, r2
 80059c4:	f043 0307 	orr.w	r3, r3, #7
 80059c8:	60fb      	str	r3, [r7, #12]
  /* Write to TIMx SMCR */
  TIMx->SMCR = tmpsmcr;
 80059ca:	687b      	ldr	r3, [r7, #4]
 80059cc:	68fa      	ldr	r2, [r7, #12]
 80059ce:	609a      	str	r2, [r3, #8]
}
 80059d0:	bf00      	nop
 80059d2:	3714      	adds	r7, #20
 80059d4:	46bd      	mov	sp, r7
 80059d6:	bc80      	pop	{r7}
 80059d8:	4770      	bx	lr

080059da <TIM_ETR_SetConfig>:
  *          This parameter must be a value between 0x00 and 0x0F
  * @retval None
  */
void TIM_ETR_SetConfig(TIM_TypeDef *TIMx, uint32_t TIM_ExtTRGPrescaler,
                       uint32_t TIM_ExtTRGPolarity, uint32_t ExtTRGFilter)
{
 80059da:	b480      	push	{r7}
 80059dc:	b087      	sub	sp, #28
 80059de:	af00      	add	r7, sp, #0
 80059e0:	60f8      	str	r0, [r7, #12]
 80059e2:	60b9      	str	r1, [r7, #8]
 80059e4:	607a      	str	r2, [r7, #4]
 80059e6:	603b      	str	r3, [r7, #0]
  uint32_t tmpsmcr;

  tmpsmcr = TIMx->SMCR;
 80059e8:	68fb      	ldr	r3, [r7, #12]
 80059ea:	689b      	ldr	r3, [r3, #8]
 80059ec:	617b      	str	r3, [r7, #20]

  /* Reset the ETR Bits */
  tmpsmcr &= ~(TIM_SMCR_ETF | TIM_SMCR_ETPS | TIM_SMCR_ECE | TIM_SMCR_ETP);
 80059ee:	697b      	ldr	r3, [r7, #20]
 80059f0:	f423 437f 	bic.w	r3, r3, #65280	@ 0xff00
 80059f4:	617b      	str	r3, [r7, #20]

  /* Set the Prescaler, the Filter value and the Polarity */
  tmpsmcr |= (uint32_t)(TIM_ExtTRGPrescaler | (TIM_ExtTRGPolarity | (ExtTRGFilter << 8U)));
 80059f6:	683b      	ldr	r3, [r7, #0]
 80059f8:	021a      	lsls	r2, r3, #8
 80059fa:	687b      	ldr	r3, [r7, #4]
 80059fc:	431a      	orrs	r2, r3
 80059fe:	68bb      	ldr	r3, [r7, #8]
 8005a00:	4313      	orrs	r3, r2
 8005a02:	697a      	ldr	r2, [r7, #20]
 8005a04:	4313      	orrs	r3, r2
 8005a06:	617b      	str	r3, [r7, #20]

  /* Write to TIMx SMCR */
  TIMx->SMCR = tmpsmcr;
 8005a08:	68fb      	ldr	r3, [r7, #12]
 8005a0a:	697a      	ldr	r2, [r7, #20]
 8005a0c:	609a      	str	r2, [r3, #8]
}
 8005a0e:	bf00      	nop
 8005a10:	371c      	adds	r7, #28
 8005a12:	46bd      	mov	sp, r7
 8005a14:	bc80      	pop	{r7}
 8005a16:	4770      	bx	lr

08005a18 <TIM_CCxChannelCmd>:
  * @param  ChannelState specifies the TIM Channel CCxE bit new state.
  *          This parameter can be: TIM_CCx_ENABLE or TIM_CCx_DISABLE.
  * @retval None
  */
void TIM_CCxChannelCmd(TIM_TypeDef *TIMx, uint32_t Channel, uint32_t ChannelState)
{
 8005a18:	b480      	push	{r7}
 8005a1a:	b087      	sub	sp, #28
 8005a1c:	af00      	add	r7, sp, #0
 8005a1e:	60f8      	str	r0, [r7, #12]
 8005a20:	60b9      	str	r1, [r7, #8]
 8005a22:	607a      	str	r2, [r7, #4]

  /* Check the parameters */
  assert_param(IS_TIM_CC1_INSTANCE(TIMx));
  assert_param(IS_TIM_CHANNELS(Channel));

  tmp = TIM_CCER_CC1E << (Channel & 0x1FU); /* 0x1FU = 31 bits max shift */
 8005a24:	68bb      	ldr	r3, [r7, #8]
 8005a26:	f003 031f 	and.w	r3, r3, #31
 8005a2a:	2201      	movs	r2, #1
 8005a2c:	fa02 f303 	lsl.w	r3, r2, r3
 8005a30:	617b      	str	r3, [r7, #20]

  /* Reset the CCxE Bit */
  TIMx->CCER &= ~tmp;
 8005a32:	68fb      	ldr	r3, [r7, #12]
 8005a34:	6a1a      	ldr	r2, [r3, #32]
 8005a36:	697b      	ldr	r3, [r7, #20]
 8005a38:	43db      	mvns	r3, r3
 8005a3a:	401a      	ands	r2, r3
 8005a3c:	68fb      	ldr	r3, [r7, #12]
 8005a3e:	621a      	str	r2, [r3, #32]

  /* Set or reset the CCxE Bit */
  TIMx->CCER |= (uint32_t)(ChannelState << (Channel & 0x1FU)); /* 0x1FU = 31 bits max shift */
 8005a40:	68fb      	ldr	r3, [r7, #12]
 8005a42:	6a1a      	ldr	r2, [r3, #32]
 8005a44:	68bb      	ldr	r3, [r7, #8]
 8005a46:	f003 031f 	and.w	r3, r3, #31
 8005a4a:	6879      	ldr	r1, [r7, #4]
 8005a4c:	fa01 f303 	lsl.w	r3, r1, r3
 8005a50:	431a      	orrs	r2, r3
 8005a52:	68fb      	ldr	r3, [r7, #12]
 8005a54:	621a      	str	r2, [r3, #32]
}
 8005a56:	bf00      	nop
 8005a58:	371c      	adds	r7, #28
 8005a5a:	46bd      	mov	sp, r7
 8005a5c:	bc80      	pop	{r7}
 8005a5e:	4770      	bx	lr

08005a60 <HAL_TIMEx_MasterConfigSynchronization>:
  *         mode.
  * @retval HAL status
  */
HAL_StatusTypeDef HAL_TIMEx_MasterConfigSynchronization(TIM_HandleTypeDef *htim,
                                                        const TIM_MasterConfigTypeDef *sMasterConfig)
{
 8005a60:	b480      	push	{r7}
 8005a62:	b085      	sub	sp, #20
 8005a64:	af00      	add	r7, sp, #0
 8005a66:	6078      	str	r0, [r7, #4]
 8005a68:	6039      	str	r1, [r7, #0]
  assert_param(IS_TIM_MASTER_INSTANCE(htim->Instance));
  assert_param(IS_TIM_TRGO_SOURCE(sMasterConfig->MasterOutputTrigger));
  assert_param(IS_TIM_MSM_STATE(sMasterConfig->MasterSlaveMode));

  /* Check input state */
  __HAL_LOCK(htim);
 8005a6a:	687b      	ldr	r3, [r7, #4]
 8005a6c:	f893 303c 	ldrb.w	r3, [r3, #60]	@ 0x3c
 8005a70:	2b01      	cmp	r3, #1
 8005a72:	d101      	bne.n	8005a78 <HAL_TIMEx_MasterConfigSynchronization+0x18>
 8005a74:	2302      	movs	r3, #2
 8005a76:	e046      	b.n	8005b06 <HAL_TIMEx_MasterConfigSynchronization+0xa6>
 8005a78:	687b      	ldr	r3, [r7, #4]
 8005a7a:	2201      	movs	r2, #1
 8005a7c:	f883 203c 	strb.w	r2, [r3, #60]	@ 0x3c

  /* Change the handler state */
  htim->State = HAL_TIM_STATE_BUSY;
 8005a80:	687b      	ldr	r3, [r7, #4]
 8005a82:	2202      	movs	r2, #2
 8005a84:	f883 203d 	strb.w	r2, [r3, #61]	@ 0x3d

  /* Get the TIMx CR2 register value */
  tmpcr2 = htim->Instance->CR2;
 8005a88:	687b      	ldr	r3, [r7, #4]
 8005a8a:	681b      	ldr	r3, [r3, #0]
 8005a8c:	685b      	ldr	r3, [r3, #4]
 8005a8e:	60fb      	str	r3, [r7, #12]

  /* Get the TIMx SMCR register value */
  tmpsmcr = htim->Instance->SMCR;
 8005a90:	687b      	ldr	r3, [r7, #4]
 8005a92:	681b      	ldr	r3, [r3, #0]
 8005a94:	689b      	ldr	r3, [r3, #8]
 8005a96:	60bb      	str	r3, [r7, #8]

  /* Reset the MMS Bits */
  tmpcr2 &= ~TIM_CR2_MMS;
 8005a98:	68fb      	ldr	r3, [r7, #12]
 8005a9a:	f023 0370 	bic.w	r3, r3, #112	@ 0x70
 8005a9e:	60fb      	str	r3, [r7, #12]
  /* Select the TRGO source */
  tmpcr2 |=  sMasterConfig->MasterOutputTrigger;
 8005aa0:	683b      	ldr	r3, [r7, #0]
 8005aa2:	681b      	ldr	r3, [r3, #0]
 8005aa4:	68fa      	ldr	r2, [r7, #12]
 8005aa6:	4313      	orrs	r3, r2
 8005aa8:	60fb      	str	r3, [r7, #12]

  /* Update TIMx CR2 */
  htim->Instance->CR2 = tmpcr2;
 8005aaa:	687b      	ldr	r3, [r7, #4]
 8005aac:	681b      	ldr	r3, [r3, #0]
 8005aae:	68fa      	ldr	r2, [r7, #12]
 8005ab0:	605a      	str	r2, [r3, #4]

  if (IS_TIM_SLAVE_INSTANCE(htim->Instance))
 8005ab2:	687b      	ldr	r3, [r7, #4]
 8005ab4:	681b      	ldr	r3, [r3, #0]
 8005ab6:	4a16      	ldr	r2, [pc, #88]	@ (8005b10 <HAL_TIMEx_MasterConfigSynchronization+0xb0>)
 8005ab8:	4293      	cmp	r3, r2
 8005aba:	d00e      	beq.n	8005ada <HAL_TIMEx_MasterConfigSynchronization+0x7a>
 8005abc:	687b      	ldr	r3, [r7, #4]
 8005abe:	681b      	ldr	r3, [r3, #0]
 8005ac0:	f1b3 4f80 	cmp.w	r3, #1073741824	@ 0x40000000
 8005ac4:	d009      	beq.n	8005ada <HAL_TIMEx_MasterConfigSynchronization+0x7a>
 8005ac6:	687b      	ldr	r3, [r7, #4]
 8005ac8:	681b      	ldr	r3, [r3, #0]
 8005aca:	4a12      	ldr	r2, [pc, #72]	@ (8005b14 <HAL_TIMEx_MasterConfigSynchronization+0xb4>)
 8005acc:	4293      	cmp	r3, r2
 8005ace:	d004      	beq.n	8005ada <HAL_TIMEx_MasterConfigSynchronization+0x7a>
 8005ad0:	687b      	ldr	r3, [r7, #4]
 8005ad2:	681b      	ldr	r3, [r3, #0]
 8005ad4:	4a10      	ldr	r2, [pc, #64]	@ (8005b18 <HAL_TIMEx_MasterConfigSynchronization+0xb8>)
 8005ad6:	4293      	cmp	r3, r2
 8005ad8:	d10c      	bne.n	8005af4 <HAL_TIMEx_MasterConfigSynchronization+0x94>
  {
    /* Reset the MSM Bit */
    tmpsmcr &= ~TIM_SMCR_MSM;
 8005ada:	68bb      	ldr	r3, [r7, #8]
 8005adc:	f023 0380 	bic.w	r3, r3, #128	@ 0x80
 8005ae0:	60bb      	str	r3, [r7, #8]
    /* Set master mode */
    tmpsmcr |= sMasterConfig->MasterSlaveMode;
 8005ae2:	683b      	ldr	r3, [r7, #0]
 8005ae4:	685b      	ldr	r3, [r3, #4]
 8005ae6:	68ba      	ldr	r2, [r7, #8]
 8005ae8:	4313      	orrs	r3, r2
 8005aea:	60bb      	str	r3, [r7, #8]

    /* Update TIMx SMCR */
    htim->Instance->SMCR = tmpsmcr;
 8005aec:	687b      	ldr	r3, [r7, #4]
 8005aee:	681b      	ldr	r3, [r3, #0]
 8005af0:	68ba      	ldr	r2, [r7, #8]
 8005af2:	609a      	str	r2, [r3, #8]
  }

  /* Change the htim state */
  htim->State = HAL_TIM_STATE_READY;
 8005af4:	687b      	ldr	r3, [r7, #4]
 8005af6:	2201      	movs	r2, #1
 8005af8:	f883 203d 	strb.w	r2, [r3, #61]	@ 0x3d

  __HAL_UNLOCK(htim);
 8005afc:	687b      	ldr	r3, [r7, #4]
 8005afe:	2200      	movs	r2, #0
 8005b00:	f883 203c 	strb.w	r2, [r3, #60]	@ 0x3c

  return HAL_OK;
 8005b04:	2300      	movs	r3, #0
}
 8005b06:	4618      	mov	r0, r3
 8005b08:	3714      	adds	r7, #20
 8005b0a:	46bd      	mov	sp, r7
 8005b0c:	bc80      	pop	{r7}
 8005b0e:	4770      	bx	lr
 8005b10:	40012c00 	.word	0x40012c00
 8005b14:	40000400 	.word	0x40000400
 8005b18:	40000800 	.word	0x40000800

08005b1c <HAL_TIMEx_CommutCallback>:
  * @brief  Hall commutation changed callback in non-blocking mode
  * @param  htim TIM handle
  * @retval None
  */
__weak void HAL_TIMEx_CommutCallback(TIM_HandleTypeDef *htim)
{
 8005b1c:	b480      	push	{r7}
 8005b1e:	b083      	sub	sp, #12
 8005b20:	af00      	add	r7, sp, #0
 8005b22:	6078      	str	r0, [r7, #4]
  UNUSED(htim);

  /* NOTE : This function should not be modified, when the callback is needed,
            the HAL_TIMEx_CommutCallback could be implemented in the user file
   */
}
 8005b24:	bf00      	nop
 8005b26:	370c      	adds	r7, #12
 8005b28:	46bd      	mov	sp, r7
 8005b2a:	bc80      	pop	{r7}
 8005b2c:	4770      	bx	lr

08005b2e <HAL_TIMEx_BreakCallback>:
  * @brief  Hall Break detection callback in non-blocking mode
  * @param  htim TIM handle
  * @retval None
  */
__weak void HAL_TIMEx_BreakCallback(TIM_HandleTypeDef *htim)
{
 8005b2e:	b480      	push	{r7}
 8005b30:	b083      	sub	sp, #12
 8005b32:	af00      	add	r7, sp, #0
 8005b34:	6078      	str	r0, [r7, #4]
  UNUSED(htim);

  /* NOTE : This function should not be modified, when the callback is needed,
            the HAL_TIMEx_BreakCallback could be implemented in the user file
   */
}
 8005b36:	bf00      	nop
 8005b38:	370c      	adds	r7, #12
 8005b3a:	46bd      	mov	sp, r7
 8005b3c:	bc80      	pop	{r7}
 8005b3e:	4770      	bx	lr

08005b40 <HAL_UART_Init>:
  * @param  huart  Pointer to a UART_HandleTypeDef structure that contains
  *                the configuration information for the specified UART module.
  * @retval HAL status
  */
HAL_StatusTypeDef HAL_UART_Init(UART_HandleTypeDef *huart)
{
 8005b40:	b580      	push	{r7, lr}
 8005b42:	b082      	sub	sp, #8
 8005b44:	af00      	add	r7, sp, #0
 8005b46:	6078      	str	r0, [r7, #4]
  /* Check the UART handle allocation */
  if (huart == NULL)
 8005b48:	687b      	ldr	r3, [r7, #4]
 8005b4a:	2b00      	cmp	r3, #0
 8005b4c:	d101      	bne.n	8005b52 <HAL_UART_Init+0x12>
  {
    return HAL_ERROR;
 8005b4e:	2301      	movs	r3, #1
 8005b50:	e042      	b.n	8005bd8 <HAL_UART_Init+0x98>
  assert_param(IS_UART_WORD_LENGTH(huart->Init.WordLength));
#if defined(USART_CR1_OVER8)
  assert_param(IS_UART_OVERSAMPLING(huart->Init.OverSampling));
#endif /* USART_CR1_OVER8 */

  if (huart->gState == HAL_UART_STATE_RESET)
 8005b52:	687b      	ldr	r3, [r7, #4]
 8005b54:	f893 3041 	ldrb.w	r3, [r3, #65]	@ 0x41
 8005b58:	b2db      	uxtb	r3, r3
 8005b5a:	2b00      	cmp	r3, #0
 8005b5c:	d106      	bne.n	8005b6c <HAL_UART_Init+0x2c>
  {
    /* Allocate lock resource and initialize it */
    huart->Lock = HAL_UNLOCKED;
 8005b5e:	687b      	ldr	r3, [r7, #4]
 8005b60:	2200      	movs	r2, #0
 8005b62:	f883 2040 	strb.w	r2, [r3, #64]	@ 0x40

    /* Init the low level hardware */
    huart->MspInitCallback(huart);
#else
    /* Init the low level hardware : GPIO, CLOCK */
    HAL_UART_MspInit(huart);
 8005b66:	6878      	ldr	r0, [r7, #4]
 8005b68:	f7fd f868 	bl	8002c3c <HAL_UART_MspInit>
#endif /* (USE_HAL_UART_REGISTER_CALLBACKS) */
  }

  huart->gState = HAL_UART_STATE_BUSY;
 8005b6c:	687b      	ldr	r3, [r7, #4]
 8005b6e:	2224      	movs	r2, #36	@ 0x24
 8005b70:	f883 2041 	strb.w	r2, [r3, #65]	@ 0x41

  /* Disable the peripheral */
  __HAL_UART_DISABLE(huart);
 8005b74:	687b      	ldr	r3, [r7, #4]
 8005b76:	681b      	ldr	r3, [r3, #0]
 8005b78:	68da      	ldr	r2, [r3, #12]
 8005b7a:	687b      	ldr	r3, [r7, #4]
 8005b7c:	681b      	ldr	r3, [r3, #0]
 8005b7e:	f422 5200 	bic.w	r2, r2, #8192	@ 0x2000
 8005b82:	60da      	str	r2, [r3, #12]

  /* Set the UART Communication parameters */
  UART_SetConfig(huart);
 8005b84:	6878      	ldr	r0, [r7, #4]
 8005b86:	f000 f82b 	bl	8005be0 <UART_SetConfig>

  /* In asynchronous mode, the following bits must be kept cleared:
     - LINEN and CLKEN bits in the USART_CR2 register,
     - SCEN, HDSEL and IREN  bits in the USART_CR3 register.*/
  CLEAR_BIT(huart->Instance->CR2, (USART_CR2_LINEN | USART_CR2_CLKEN));
 8005b8a:	687b      	ldr	r3, [r7, #4]
 8005b8c:	681b      	ldr	r3, [r3, #0]
 8005b8e:	691a      	ldr	r2, [r3, #16]
 8005b90:	687b      	ldr	r3, [r7, #4]
 8005b92:	681b      	ldr	r3, [r3, #0]
 8005b94:	f422 4290 	bic.w	r2, r2, #18432	@ 0x4800
 8005b98:	611a      	str	r2, [r3, #16]
  CLEAR_BIT(huart->Instance->CR3, (USART_CR3_SCEN | USART_CR3_HDSEL | USART_CR3_IREN));
 8005b9a:	687b      	ldr	r3, [r7, #4]
 8005b9c:	681b      	ldr	r3, [r3, #0]
 8005b9e:	695a      	ldr	r2, [r3, #20]
 8005ba0:	687b      	ldr	r3, [r7, #4]
 8005ba2:	681b      	ldr	r3, [r3, #0]
 8005ba4:	f022 022a 	bic.w	r2, r2, #42	@ 0x2a
 8005ba8:	615a      	str	r2, [r3, #20]

  /* Enable the peripheral */
  __HAL_UART_ENABLE(huart);
 8005baa:	687b      	ldr	r3, [r7, #4]
 8005bac:	681b      	ldr	r3, [r3, #0]
 8005bae:	68da      	ldr	r2, [r3, #12]
 8005bb0:	687b      	ldr	r3, [r7, #4]
 8005bb2:	681b      	ldr	r3, [r3, #0]
 8005bb4:	f442 5200 	orr.w	r2, r2, #8192	@ 0x2000
 8005bb8:	60da      	str	r2, [r3, #12]

  /* Initialize the UART state */
  huart->ErrorCode = HAL_UART_ERROR_NONE;
 8005bba:	687b      	ldr	r3, [r7, #4]
 8005bbc:	2200      	movs	r2, #0
 8005bbe:	645a      	str	r2, [r3, #68]	@ 0x44
  huart->gState = HAL_UART_STATE_READY;
 8005bc0:	687b      	ldr	r3, [r7, #4]
 8005bc2:	2220      	movs	r2, #32
 8005bc4:	f883 2041 	strb.w	r2, [r3, #65]	@ 0x41
  huart->RxState = HAL_UART_STATE_READY;
 8005bc8:	687b      	ldr	r3, [r7, #4]
 8005bca:	2220      	movs	r2, #32
 8005bcc:	f883 2042 	strb.w	r2, [r3, #66]	@ 0x42
  huart->RxEventType = HAL_UART_RXEVENT_TC;
 8005bd0:	687b      	ldr	r3, [r7, #4]
 8005bd2:	2200      	movs	r2, #0
 8005bd4:	635a      	str	r2, [r3, #52]	@ 0x34

  return HAL_OK;
 8005bd6:	2300      	movs	r3, #0
}
 8005bd8:	4618      	mov	r0, r3
 8005bda:	3708      	adds	r7, #8
 8005bdc:	46bd      	mov	sp, r7
 8005bde:	bd80      	pop	{r7, pc}

08005be0 <UART_SetConfig>:
  * @param  huart  Pointer to a UART_HandleTypeDef structure that contains
  *                the configuration information for the specified UART module.
  * @retval None
  */
static void UART_SetConfig(UART_HandleTypeDef *huart)
{
 8005be0:	b580      	push	{r7, lr}
 8005be2:	b084      	sub	sp, #16
 8005be4:	af00      	add	r7, sp, #0
 8005be6:	6078      	str	r0, [r7, #4]
  assert_param(IS_UART_MODE(huart->Init.Mode));

  /*-------------------------- USART CR2 Configuration -----------------------*/
  /* Configure the UART Stop Bits: Set STOP[13:12] bits
     according to huart->Init.StopBits value */
  MODIFY_REG(huart->Instance->CR2, USART_CR2_STOP, huart->Init.StopBits);
 8005be8:	687b      	ldr	r3, [r7, #4]
 8005bea:	681b      	ldr	r3, [r3, #0]
 8005bec:	691b      	ldr	r3, [r3, #16]
 8005bee:	f423 5140 	bic.w	r1, r3, #12288	@ 0x3000
 8005bf2:	687b      	ldr	r3, [r7, #4]
 8005bf4:	68da      	ldr	r2, [r3, #12]
 8005bf6:	687b      	ldr	r3, [r7, #4]
 8005bf8:	681b      	ldr	r3, [r3, #0]
 8005bfa:	430a      	orrs	r2, r1
 8005bfc:	611a      	str	r2, [r3, #16]
  tmpreg = (uint32_t)huart->Init.WordLength | huart->Init.Parity | huart->Init.Mode | huart->Init.OverSampling;
  MODIFY_REG(huart->Instance->CR1,
             (uint32_t)(USART_CR1_M | USART_CR1_PCE | USART_CR1_PS | USART_CR1_TE | USART_CR1_RE | USART_CR1_OVER8),
             tmpreg);
#else
  tmpreg = (uint32_t)huart->Init.WordLength | huart->Init.Parity | huart->Init.Mode;
 8005bfe:	687b      	ldr	r3, [r7, #4]
 8005c00:	689a      	ldr	r2, [r3, #8]
 8005c02:	687b      	ldr	r3, [r7, #4]
 8005c04:	691b      	ldr	r3, [r3, #16]
 8005c06:	431a      	orrs	r2, r3
 8005c08:	687b      	ldr	r3, [r7, #4]
 8005c0a:	695b      	ldr	r3, [r3, #20]
 8005c0c:	4313      	orrs	r3, r2
 8005c0e:	60bb      	str	r3, [r7, #8]
  MODIFY_REG(huart->Instance->CR1,
 8005c10:	687b      	ldr	r3, [r7, #4]
 8005c12:	681b      	ldr	r3, [r3, #0]
 8005c14:	68db      	ldr	r3, [r3, #12]
 8005c16:	f423 53b0 	bic.w	r3, r3, #5632	@ 0x1600
 8005c1a:	f023 030c 	bic.w	r3, r3, #12
 8005c1e:	687a      	ldr	r2, [r7, #4]
 8005c20:	6812      	ldr	r2, [r2, #0]
 8005c22:	68b9      	ldr	r1, [r7, #8]
 8005c24:	430b      	orrs	r3, r1
 8005c26:	60d3      	str	r3, [r2, #12]
             tmpreg);
#endif /* USART_CR1_OVER8 */

  /*-------------------------- USART CR3 Configuration -----------------------*/
  /* Configure the UART HFC: Set CTSE and RTSE bits according to huart->Init.HwFlowCtl value */
  MODIFY_REG(huart->Instance->CR3, (USART_CR3_RTSE | USART_CR3_CTSE), huart->Init.HwFlowCtl);
 8005c28:	687b      	ldr	r3, [r7, #4]
 8005c2a:	681b      	ldr	r3, [r3, #0]
 8005c2c:	695b      	ldr	r3, [r3, #20]
 8005c2e:	f423 7140 	bic.w	r1, r3, #768	@ 0x300
 8005c32:	687b      	ldr	r3, [r7, #4]
 8005c34:	699a      	ldr	r2, [r3, #24]
 8005c36:	687b      	ldr	r3, [r7, #4]
 8005c38:	681b      	ldr	r3, [r3, #0]
 8005c3a:	430a      	orrs	r2, r1
 8005c3c:	615a      	str	r2, [r3, #20]


  if(huart->Instance == USART1)
 8005c3e:	687b      	ldr	r3, [r7, #4]
 8005c40:	681b      	ldr	r3, [r3, #0]
 8005c42:	4a2c      	ldr	r2, [pc, #176]	@ (8005cf4 <UART_SetConfig+0x114>)
 8005c44:	4293      	cmp	r3, r2
 8005c46:	d103      	bne.n	8005c50 <UART_SetConfig+0x70>
  {
    pclk = HAL_RCC_GetPCLK2Freq();
 8005c48:	f7fe ffea 	bl	8004c20 <HAL_RCC_GetPCLK2Freq>
 8005c4c:	60f8      	str	r0, [r7, #12]
 8005c4e:	e002      	b.n	8005c56 <UART_SetConfig+0x76>
  }
  else
  {
    pclk = HAL_RCC_GetPCLK1Freq();
 8005c50:	f7fe ffd2 	bl	8004bf8 <HAL_RCC_GetPCLK1Freq>
 8005c54:	60f8      	str	r0, [r7, #12]
  else
  {
    huart->Instance->BRR = UART_BRR_SAMPLING16(pclk, huart->Init.BaudRate);
  }
#else
  huart->Instance->BRR = UART_BRR_SAMPLING16(pclk, huart->Init.BaudRate);
 8005c56:	68fa      	ldr	r2, [r7, #12]
 8005c58:	4613      	mov	r3, r2
 8005c5a:	009b      	lsls	r3, r3, #2
 8005c5c:	4413      	add	r3, r2
 8005c5e:	009a      	lsls	r2, r3, #2
 8005c60:	441a      	add	r2, r3
 8005c62:	687b      	ldr	r3, [r7, #4]
 8005c64:	685b      	ldr	r3, [r3, #4]
 8005c66:	009b      	lsls	r3, r3, #2
 8005c68:	fbb2 f3f3 	udiv	r3, r2, r3
 8005c6c:	4a22      	ldr	r2, [pc, #136]	@ (8005cf8 <UART_SetConfig+0x118>)
 8005c6e:	fba2 2303 	umull	r2, r3, r2, r3
 8005c72:	095b      	lsrs	r3, r3, #5
 8005c74:	0119      	lsls	r1, r3, #4
 8005c76:	68fa      	ldr	r2, [r7, #12]
 8005c78:	4613      	mov	r3, r2
 8005c7a:	009b      	lsls	r3, r3, #2
 8005c7c:	4413      	add	r3, r2
 8005c7e:	009a      	lsls	r2, r3, #2
 8005c80:	441a      	add	r2, r3
 8005c82:	687b      	ldr	r3, [r7, #4]
 8005c84:	685b      	ldr	r3, [r3, #4]
 8005c86:	009b      	lsls	r3, r3, #2
 8005c88:	fbb2 f2f3 	udiv	r2, r2, r3
 8005c8c:	4b1a      	ldr	r3, [pc, #104]	@ (8005cf8 <UART_SetConfig+0x118>)
 8005c8e:	fba3 0302 	umull	r0, r3, r3, r2
 8005c92:	095b      	lsrs	r3, r3, #5
 8005c94:	2064      	movs	r0, #100	@ 0x64
 8005c96:	fb00 f303 	mul.w	r3, r0, r3
 8005c9a:	1ad3      	subs	r3, r2, r3
 8005c9c:	011b      	lsls	r3, r3, #4
 8005c9e:	3332      	adds	r3, #50	@ 0x32
 8005ca0:	4a15      	ldr	r2, [pc, #84]	@ (8005cf8 <UART_SetConfig+0x118>)
 8005ca2:	fba2 2303 	umull	r2, r3, r2, r3
 8005ca6:	095b      	lsrs	r3, r3, #5
 8005ca8:	f003 03f0 	and.w	r3, r3, #240	@ 0xf0
 8005cac:	4419      	add	r1, r3
 8005cae:	68fa      	ldr	r2, [r7, #12]
 8005cb0:	4613      	mov	r3, r2
 8005cb2:	009b      	lsls	r3, r3, #2
 8005cb4:	4413      	add	r3, r2
 8005cb6:	009a      	lsls	r2, r3, #2
 8005cb8:	441a      	add	r2, r3
 8005cba:	687b      	ldr	r3, [r7, #4]
 8005cbc:	685b      	ldr	r3, [r3, #4]
 8005cbe:	009b      	lsls	r3, r3, #2
 8005cc0:	fbb2 f2f3 	udiv	r2, r2, r3
 8005cc4:	4b0c      	ldr	r3, [pc, #48]	@ (8005cf8 <UART_SetConfig+0x118>)
 8005cc6:	fba3 0302 	umull	r0, r3, r3, r2
 8005cca:	095b      	lsrs	r3, r3, #5
 8005ccc:	2064      	movs	r0, #100	@ 0x64
 8005cce:	fb00 f303 	mul.w	r3, r0, r3
 8005cd2:	1ad3      	subs	r3, r2, r3
 8005cd4:	011b      	lsls	r3, r3, #4
 8005cd6:	3332      	adds	r3, #50	@ 0x32
 8005cd8:	4a07      	ldr	r2, [pc, #28]	@ (8005cf8 <UART_SetConfig+0x118>)
 8005cda:	fba2 2303 	umull	r2, r3, r2, r3
 8005cde:	095b      	lsrs	r3, r3, #5
 8005ce0:	f003 020f 	and.w	r2, r3, #15
 8005ce4:	687b      	ldr	r3, [r7, #4]
 8005ce6:	681b      	ldr	r3, [r3, #0]
 8005ce8:	440a      	add	r2, r1
 8005cea:	609a      	str	r2, [r3, #8]
#endif /* USART_CR1_OVER8 */
}
 8005cec:	bf00      	nop
 8005cee:	3710      	adds	r7, #16
 8005cf0:	46bd      	mov	sp, r7
 8005cf2:	bd80      	pop	{r7, pc}
 8005cf4:	40013800 	.word	0x40013800
 8005cf8:	51eb851f 	.word	0x51eb851f

08005cfc <memset>:
 8005cfc:	4603      	mov	r3, r0
 8005cfe:	4402      	add	r2, r0
 8005d00:	4293      	cmp	r3, r2
 8005d02:	d100      	bne.n	8005d06 <memset+0xa>
 8005d04:	4770      	bx	lr
 8005d06:	f803 1b01 	strb.w	r1, [r3], #1
 8005d0a:	e7f9      	b.n	8005d00 <memset+0x4>

08005d0c <__errno>:
 8005d0c:	4b01      	ldr	r3, [pc, #4]	@ (8005d14 <__errno+0x8>)
 8005d0e:	6818      	ldr	r0, [r3, #0]
 8005d10:	4770      	bx	lr
 8005d12:	bf00      	nop
 8005d14:	2000009c 	.word	0x2000009c

08005d18 <__libc_init_array>:
 8005d18:	b570      	push	{r4, r5, r6, lr}
 8005d1a:	2600      	movs	r6, #0
 8005d1c:	4d0c      	ldr	r5, [pc, #48]	@ (8005d50 <__libc_init_array+0x38>)
 8005d1e:	4c0d      	ldr	r4, [pc, #52]	@ (8005d54 <__libc_init_array+0x3c>)
 8005d20:	1b64      	subs	r4, r4, r5
 8005d22:	10a4      	asrs	r4, r4, #2
 8005d24:	42a6      	cmp	r6, r4
 8005d26:	d109      	bne.n	8005d3c <__libc_init_array+0x24>
 8005d28:	f000 fb80 	bl	800642c <_init>
 8005d2c:	2600      	movs	r6, #0
 8005d2e:	4d0a      	ldr	r5, [pc, #40]	@ (8005d58 <__libc_init_array+0x40>)
 8005d30:	4c0a      	ldr	r4, [pc, #40]	@ (8005d5c <__libc_init_array+0x44>)
 8005d32:	1b64      	subs	r4, r4, r5
 8005d34:	10a4      	asrs	r4, r4, #2
 8005d36:	42a6      	cmp	r6, r4
 8005d38:	d105      	bne.n	8005d46 <__libc_init_array+0x2e>
 8005d3a:	bd70      	pop	{r4, r5, r6, pc}
 8005d3c:	f855 3b04 	ldr.w	r3, [r5], #4
 8005d40:	4798      	blx	r3
 8005d42:	3601      	adds	r6, #1
 8005d44:	e7ee      	b.n	8005d24 <__libc_init_array+0xc>
 8005d46:	f855 3b04 	ldr.w	r3, [r5], #4
 8005d4a:	4798      	blx	r3
 8005d4c:	3601      	adds	r6, #1
 8005d4e:	e7f2      	b.n	8005d36 <__libc_init_array+0x1e>
 8005d50:	080064e8 	.word	0x080064e8
 8005d54:	080064e8 	.word	0x080064e8
 8005d58:	080064e8 	.word	0x080064e8
 8005d5c:	080064ec 	.word	0x080064ec

08005d60 <atan2>:
 8005d60:	f000 ba92 	b.w	8006288 <__ieee754_atan2>

08005d64 <sqrt>:
 8005d64:	b5f8      	push	{r3, r4, r5, r6, r7, lr}
 8005d66:	4606      	mov	r6, r0
 8005d68:	460f      	mov	r7, r1
 8005d6a:	f000 f9b5 	bl	80060d8 <__ieee754_sqrt>
 8005d6e:	4632      	mov	r2, r6
 8005d70:	4604      	mov	r4, r0
 8005d72:	460d      	mov	r5, r1
 8005d74:	463b      	mov	r3, r7
 8005d76:	4630      	mov	r0, r6
 8005d78:	4639      	mov	r1, r7
 8005d7a:	f7fa fe3f 	bl	80009fc <__aeabi_dcmpun>
 8005d7e:	b990      	cbnz	r0, 8005da6 <sqrt+0x42>
 8005d80:	2200      	movs	r2, #0
 8005d82:	2300      	movs	r3, #0
 8005d84:	4630      	mov	r0, r6
 8005d86:	4639      	mov	r1, r7
 8005d88:	f7fa fe10 	bl	80009ac <__aeabi_dcmplt>
 8005d8c:	b158      	cbz	r0, 8005da6 <sqrt+0x42>
 8005d8e:	f7ff ffbd 	bl	8005d0c <__errno>
 8005d92:	2321      	movs	r3, #33	@ 0x21
 8005d94:	2200      	movs	r2, #0
 8005d96:	6003      	str	r3, [r0, #0]
 8005d98:	2300      	movs	r3, #0
 8005d9a:	4610      	mov	r0, r2
 8005d9c:	4619      	mov	r1, r3
 8005d9e:	f7fa fcbd 	bl	800071c <__aeabi_ddiv>
 8005da2:	4604      	mov	r4, r0
 8005da4:	460d      	mov	r5, r1
 8005da6:	4620      	mov	r0, r4
 8005da8:	4629      	mov	r1, r5
 8005daa:	bdf8      	pop	{r3, r4, r5, r6, r7, pc}
 8005dac:	0000      	movs	r0, r0
	...

08005db0 <atan>:
 8005db0:	e92d 4ff8 	stmdb	sp!, {r3, r4, r5, r6, r7, r8, r9, sl, fp, lr}
 8005db4:	4bbc      	ldr	r3, [pc, #752]	@ (80060a8 <atan+0x2f8>)
 8005db6:	f021 4600 	bic.w	r6, r1, #2147483648	@ 0x80000000
 8005dba:	429e      	cmp	r6, r3
 8005dbc:	4604      	mov	r4, r0
 8005dbe:	460d      	mov	r5, r1
 8005dc0:	468b      	mov	fp, r1
 8005dc2:	d918      	bls.n	8005df6 <atan+0x46>
 8005dc4:	4bb9      	ldr	r3, [pc, #740]	@ (80060ac <atan+0x2fc>)
 8005dc6:	429e      	cmp	r6, r3
 8005dc8:	d801      	bhi.n	8005dce <atan+0x1e>
 8005dca:	d109      	bne.n	8005de0 <atan+0x30>
 8005dcc:	b140      	cbz	r0, 8005de0 <atan+0x30>
 8005dce:	4622      	mov	r2, r4
 8005dd0:	462b      	mov	r3, r5
 8005dd2:	4620      	mov	r0, r4
 8005dd4:	4629      	mov	r1, r5
 8005dd6:	f7fa f9c1 	bl	800015c <__adddf3>
 8005dda:	4604      	mov	r4, r0
 8005ddc:	460d      	mov	r5, r1
 8005dde:	e006      	b.n	8005dee <atan+0x3e>
 8005de0:	f1bb 0f00 	cmp.w	fp, #0
 8005de4:	f340 8123 	ble.w	800602e <atan+0x27e>
 8005de8:	a593      	add	r5, pc, #588	@ (adr r5, 8006038 <atan+0x288>)
 8005dea:	e9d5 4500 	ldrd	r4, r5, [r5]
 8005dee:	4620      	mov	r0, r4
 8005df0:	4629      	mov	r1, r5
 8005df2:	e8bd 8ff8 	ldmia.w	sp!, {r3, r4, r5, r6, r7, r8, r9, sl, fp, pc}
 8005df6:	4bae      	ldr	r3, [pc, #696]	@ (80060b0 <atan+0x300>)
 8005df8:	429e      	cmp	r6, r3
 8005dfa:	d811      	bhi.n	8005e20 <atan+0x70>
 8005dfc:	f1a3 73de 	sub.w	r3, r3, #29097984	@ 0x1bc0000
 8005e00:	429e      	cmp	r6, r3
 8005e02:	d80a      	bhi.n	8005e1a <atan+0x6a>
 8005e04:	a38e      	add	r3, pc, #568	@ (adr r3, 8006040 <atan+0x290>)
 8005e06:	e9d3 2300 	ldrd	r2, r3, [r3]
 8005e0a:	f7fa f9a7 	bl	800015c <__adddf3>
 8005e0e:	2200      	movs	r2, #0
 8005e10:	4ba8      	ldr	r3, [pc, #672]	@ (80060b4 <atan+0x304>)
 8005e12:	f7fa fde9 	bl	80009e8 <__aeabi_dcmpgt>
 8005e16:	2800      	cmp	r0, #0
 8005e18:	d1e9      	bne.n	8005dee <atan+0x3e>
 8005e1a:	f04f 3aff 	mov.w	sl, #4294967295
 8005e1e:	e027      	b.n	8005e70 <atan+0xc0>
 8005e20:	f000 f956 	bl	80060d0 <fabs>
 8005e24:	4ba4      	ldr	r3, [pc, #656]	@ (80060b8 <atan+0x308>)
 8005e26:	4604      	mov	r4, r0
 8005e28:	429e      	cmp	r6, r3
 8005e2a:	460d      	mov	r5, r1
 8005e2c:	f200 80b8 	bhi.w	8005fa0 <atan+0x1f0>
 8005e30:	f5a3 2350 	sub.w	r3, r3, #851968	@ 0xd0000
 8005e34:	429e      	cmp	r6, r3
 8005e36:	f200 809c 	bhi.w	8005f72 <atan+0x1c2>
 8005e3a:	4602      	mov	r2, r0
 8005e3c:	460b      	mov	r3, r1
 8005e3e:	f7fa f98d 	bl	800015c <__adddf3>
 8005e42:	2200      	movs	r2, #0
 8005e44:	4b9b      	ldr	r3, [pc, #620]	@ (80060b4 <atan+0x304>)
 8005e46:	f7fa f987 	bl	8000158 <__aeabi_dsub>
 8005e4a:	2200      	movs	r2, #0
 8005e4c:	4606      	mov	r6, r0
 8005e4e:	460f      	mov	r7, r1
 8005e50:	f04f 4380 	mov.w	r3, #1073741824	@ 0x40000000
 8005e54:	4620      	mov	r0, r4
 8005e56:	4629      	mov	r1, r5
 8005e58:	f7fa f980 	bl	800015c <__adddf3>
 8005e5c:	4602      	mov	r2, r0
 8005e5e:	460b      	mov	r3, r1
 8005e60:	4630      	mov	r0, r6
 8005e62:	4639      	mov	r1, r7
 8005e64:	f7fa fc5a 	bl	800071c <__aeabi_ddiv>
 8005e68:	f04f 0a00 	mov.w	sl, #0
 8005e6c:	4604      	mov	r4, r0
 8005e6e:	460d      	mov	r5, r1
 8005e70:	4622      	mov	r2, r4
 8005e72:	462b      	mov	r3, r5
 8005e74:	4620      	mov	r0, r4
 8005e76:	4629      	mov	r1, r5
 8005e78:	f7fa fb26 	bl	80004c8 <__aeabi_dmul>
 8005e7c:	4602      	mov	r2, r0
 8005e7e:	460b      	mov	r3, r1
 8005e80:	4680      	mov	r8, r0
 8005e82:	4689      	mov	r9, r1
 8005e84:	f7fa fb20 	bl	80004c8 <__aeabi_dmul>
 8005e88:	a36f      	add	r3, pc, #444	@ (adr r3, 8006048 <atan+0x298>)
 8005e8a:	e9d3 2300 	ldrd	r2, r3, [r3]
 8005e8e:	4606      	mov	r6, r0
 8005e90:	460f      	mov	r7, r1
 8005e92:	f7fa fb19 	bl	80004c8 <__aeabi_dmul>
 8005e96:	a36e      	add	r3, pc, #440	@ (adr r3, 8006050 <atan+0x2a0>)
 8005e98:	e9d3 2300 	ldrd	r2, r3, [r3]
 8005e9c:	f7fa f95e 	bl	800015c <__adddf3>
 8005ea0:	4632      	mov	r2, r6
 8005ea2:	463b      	mov	r3, r7
 8005ea4:	f7fa fb10 	bl	80004c8 <__aeabi_dmul>
 8005ea8:	a36b      	add	r3, pc, #428	@ (adr r3, 8006058 <atan+0x2a8>)
 8005eaa:	e9d3 2300 	ldrd	r2, r3, [r3]
 8005eae:	f7fa f955 	bl	800015c <__adddf3>
 8005eb2:	4632      	mov	r2, r6
 8005eb4:	463b      	mov	r3, r7
 8005eb6:	f7fa fb07 	bl	80004c8 <__aeabi_dmul>
 8005eba:	a369      	add	r3, pc, #420	@ (adr r3, 8006060 <atan+0x2b0>)
 8005ebc:	e9d3 2300 	ldrd	r2, r3, [r3]
 8005ec0:	f7fa f94c 	bl	800015c <__adddf3>
 8005ec4:	4632      	mov	r2, r6
 8005ec6:	463b      	mov	r3, r7
 8005ec8:	f7fa fafe 	bl	80004c8 <__aeabi_dmul>
 8005ecc:	a366      	add	r3, pc, #408	@ (adr r3, 8006068 <atan+0x2b8>)
 8005ece:	e9d3 2300 	ldrd	r2, r3, [r3]
 8005ed2:	f7fa f943 	bl	800015c <__adddf3>
 8005ed6:	4632      	mov	r2, r6
 8005ed8:	463b      	mov	r3, r7
 8005eda:	f7fa faf5 	bl	80004c8 <__aeabi_dmul>
 8005ede:	a364      	add	r3, pc, #400	@ (adr r3, 8006070 <atan+0x2c0>)
 8005ee0:	e9d3 2300 	ldrd	r2, r3, [r3]
 8005ee4:	f7fa f93a 	bl	800015c <__adddf3>
 8005ee8:	4642      	mov	r2, r8
 8005eea:	464b      	mov	r3, r9
 8005eec:	f7fa faec 	bl	80004c8 <__aeabi_dmul>
 8005ef0:	a361      	add	r3, pc, #388	@ (adr r3, 8006078 <atan+0x2c8>)
 8005ef2:	e9d3 2300 	ldrd	r2, r3, [r3]
 8005ef6:	4680      	mov	r8, r0
 8005ef8:	4689      	mov	r9, r1
 8005efa:	4630      	mov	r0, r6
 8005efc:	4639      	mov	r1, r7
 8005efe:	f7fa fae3 	bl	80004c8 <__aeabi_dmul>
 8005f02:	a35f      	add	r3, pc, #380	@ (adr r3, 8006080 <atan+0x2d0>)
 8005f04:	e9d3 2300 	ldrd	r2, r3, [r3]
 8005f08:	f7fa f926 	bl	8000158 <__aeabi_dsub>
 8005f0c:	4632      	mov	r2, r6
 8005f0e:	463b      	mov	r3, r7
 8005f10:	f7fa fada 	bl	80004c8 <__aeabi_dmul>
 8005f14:	a35c      	add	r3, pc, #368	@ (adr r3, 8006088 <atan+0x2d8>)
 8005f16:	e9d3 2300 	ldrd	r2, r3, [r3]
 8005f1a:	f7fa f91d 	bl	8000158 <__aeabi_dsub>
 8005f1e:	4632      	mov	r2, r6
 8005f20:	463b      	mov	r3, r7
 8005f22:	f7fa fad1 	bl	80004c8 <__aeabi_dmul>
 8005f26:	a35a      	add	r3, pc, #360	@ (adr r3, 8006090 <atan+0x2e0>)
 8005f28:	e9d3 2300 	ldrd	r2, r3, [r3]
 8005f2c:	f7fa f914 	bl	8000158 <__aeabi_dsub>
 8005f30:	4632      	mov	r2, r6
 8005f32:	463b      	mov	r3, r7
 8005f34:	f7fa fac8 	bl	80004c8 <__aeabi_dmul>
 8005f38:	a357      	add	r3, pc, #348	@ (adr r3, 8006098 <atan+0x2e8>)
 8005f3a:	e9d3 2300 	ldrd	r2, r3, [r3]
 8005f3e:	f7fa f90b 	bl	8000158 <__aeabi_dsub>
 8005f42:	4632      	mov	r2, r6
 8005f44:	463b      	mov	r3, r7
 8005f46:	f7fa fabf 	bl	80004c8 <__aeabi_dmul>
 8005f4a:	4602      	mov	r2, r0
 8005f4c:	460b      	mov	r3, r1
 8005f4e:	4640      	mov	r0, r8
 8005f50:	4649      	mov	r1, r9
 8005f52:	f7fa f903 	bl	800015c <__adddf3>
 8005f56:	4622      	mov	r2, r4
 8005f58:	462b      	mov	r3, r5
 8005f5a:	f7fa fab5 	bl	80004c8 <__aeabi_dmul>
 8005f5e:	f1ba 3fff 	cmp.w	sl, #4294967295
 8005f62:	4602      	mov	r2, r0
 8005f64:	460b      	mov	r3, r1
 8005f66:	d144      	bne.n	8005ff2 <atan+0x242>
 8005f68:	4620      	mov	r0, r4
 8005f6a:	4629      	mov	r1, r5
 8005f6c:	f7fa f8f4 	bl	8000158 <__aeabi_dsub>
 8005f70:	e733      	b.n	8005dda <atan+0x2a>
 8005f72:	2200      	movs	r2, #0
 8005f74:	4b4f      	ldr	r3, [pc, #316]	@ (80060b4 <atan+0x304>)
 8005f76:	f7fa f8ef 	bl	8000158 <__aeabi_dsub>
 8005f7a:	2200      	movs	r2, #0
 8005f7c:	4606      	mov	r6, r0
 8005f7e:	460f      	mov	r7, r1
 8005f80:	4620      	mov	r0, r4
 8005f82:	4629      	mov	r1, r5
 8005f84:	4b4b      	ldr	r3, [pc, #300]	@ (80060b4 <atan+0x304>)
 8005f86:	f7fa f8e9 	bl	800015c <__adddf3>
 8005f8a:	4602      	mov	r2, r0
 8005f8c:	460b      	mov	r3, r1
 8005f8e:	4630      	mov	r0, r6
 8005f90:	4639      	mov	r1, r7
 8005f92:	f7fa fbc3 	bl	800071c <__aeabi_ddiv>
 8005f96:	f04f 0a01 	mov.w	sl, #1
 8005f9a:	4604      	mov	r4, r0
 8005f9c:	460d      	mov	r5, r1
 8005f9e:	e767      	b.n	8005e70 <atan+0xc0>
 8005fa0:	4b46      	ldr	r3, [pc, #280]	@ (80060bc <atan+0x30c>)
 8005fa2:	429e      	cmp	r6, r3
 8005fa4:	d21a      	bcs.n	8005fdc <atan+0x22c>
 8005fa6:	2200      	movs	r2, #0
 8005fa8:	4b45      	ldr	r3, [pc, #276]	@ (80060c0 <atan+0x310>)
 8005faa:	f7fa f8d5 	bl	8000158 <__aeabi_dsub>
 8005fae:	2200      	movs	r2, #0
 8005fb0:	4606      	mov	r6, r0
 8005fb2:	460f      	mov	r7, r1
 8005fb4:	4620      	mov	r0, r4
 8005fb6:	4629      	mov	r1, r5
 8005fb8:	4b41      	ldr	r3, [pc, #260]	@ (80060c0 <atan+0x310>)
 8005fba:	f7fa fa85 	bl	80004c8 <__aeabi_dmul>
 8005fbe:	2200      	movs	r2, #0
 8005fc0:	4b3c      	ldr	r3, [pc, #240]	@ (80060b4 <atan+0x304>)
 8005fc2:	f7fa f8cb 	bl	800015c <__adddf3>
 8005fc6:	4602      	mov	r2, r0
 8005fc8:	460b      	mov	r3, r1
 8005fca:	4630      	mov	r0, r6
 8005fcc:	4639      	mov	r1, r7
 8005fce:	f7fa fba5 	bl	800071c <__aeabi_ddiv>
 8005fd2:	f04f 0a02 	mov.w	sl, #2
 8005fd6:	4604      	mov	r4, r0
 8005fd8:	460d      	mov	r5, r1
 8005fda:	e749      	b.n	8005e70 <atan+0xc0>
 8005fdc:	4602      	mov	r2, r0
 8005fde:	460b      	mov	r3, r1
 8005fe0:	2000      	movs	r0, #0
 8005fe2:	4938      	ldr	r1, [pc, #224]	@ (80060c4 <atan+0x314>)
 8005fe4:	f7fa fb9a 	bl	800071c <__aeabi_ddiv>
 8005fe8:	f04f 0a03 	mov.w	sl, #3
 8005fec:	4604      	mov	r4, r0
 8005fee:	460d      	mov	r5, r1
 8005ff0:	e73e      	b.n	8005e70 <atan+0xc0>
 8005ff2:	4b35      	ldr	r3, [pc, #212]	@ (80060c8 <atan+0x318>)
 8005ff4:	4e35      	ldr	r6, [pc, #212]	@ (80060cc <atan+0x31c>)
 8005ff6:	eb03 03ca 	add.w	r3, r3, sl, lsl #3
 8005ffa:	e9d3 2300 	ldrd	r2, r3, [r3]
 8005ffe:	f7fa f8ab 	bl	8000158 <__aeabi_dsub>
 8006002:	4622      	mov	r2, r4
 8006004:	462b      	mov	r3, r5
 8006006:	f7fa f8a7 	bl	8000158 <__aeabi_dsub>
 800600a:	eb06 06ca 	add.w	r6, r6, sl, lsl #3
 800600e:	4602      	mov	r2, r0
 8006010:	460b      	mov	r3, r1
 8006012:	e9d6 0100 	ldrd	r0, r1, [r6]
 8006016:	f7fa f89f 	bl	8000158 <__aeabi_dsub>
 800601a:	f1bb 0f00 	cmp.w	fp, #0
 800601e:	4604      	mov	r4, r0
 8006020:	460d      	mov	r5, r1
 8006022:	f6bf aee4 	bge.w	8005dee <atan+0x3e>
 8006026:	f101 4300 	add.w	r3, r1, #2147483648	@ 0x80000000
 800602a:	461d      	mov	r5, r3
 800602c:	e6df      	b.n	8005dee <atan+0x3e>
 800602e:	a51c      	add	r5, pc, #112	@ (adr r5, 80060a0 <atan+0x2f0>)
 8006030:	e9d5 4500 	ldrd	r4, r5, [r5]
 8006034:	e6db      	b.n	8005dee <atan+0x3e>
 8006036:	bf00      	nop
 8006038:	54442d18 	.word	0x54442d18
 800603c:	3ff921fb 	.word	0x3ff921fb
 8006040:	8800759c 	.word	0x8800759c
 8006044:	7e37e43c 	.word	0x7e37e43c
 8006048:	e322da11 	.word	0xe322da11
 800604c:	3f90ad3a 	.word	0x3f90ad3a
 8006050:	24760deb 	.word	0x24760deb
 8006054:	3fa97b4b 	.word	0x3fa97b4b
 8006058:	a0d03d51 	.word	0xa0d03d51
 800605c:	3fb10d66 	.word	0x3fb10d66
 8006060:	c54c206e 	.word	0xc54c206e
 8006064:	3fb745cd 	.word	0x3fb745cd
 8006068:	920083ff 	.word	0x920083ff
 800606c:	3fc24924 	.word	0x3fc24924
 8006070:	5555550d 	.word	0x5555550d
 8006074:	3fd55555 	.word	0x3fd55555
 8006078:	2c6a6c2f 	.word	0x2c6a6c2f
 800607c:	bfa2b444 	.word	0xbfa2b444
 8006080:	52defd9a 	.word	0x52defd9a
 8006084:	3fadde2d 	.word	0x3fadde2d
 8006088:	af749a6d 	.word	0xaf749a6d
 800608c:	3fb3b0f2 	.word	0x3fb3b0f2
 8006090:	fe231671 	.word	0xfe231671
 8006094:	3fbc71c6 	.word	0x3fbc71c6
 8006098:	9998ebc4 	.word	0x9998ebc4
 800609c:	3fc99999 	.word	0x3fc99999
 80060a0:	54442d18 	.word	0x54442d18
 80060a4:	bff921fb 	.word	0xbff921fb
 80060a8:	440fffff 	.word	0x440fffff
 80060ac:	7ff00000 	.word	0x7ff00000
 80060b0:	3fdbffff 	.word	0x3fdbffff
 80060b4:	3ff00000 	.word	0x3ff00000
 80060b8:	3ff2ffff 	.word	0x3ff2ffff
 80060bc:	40038000 	.word	0x40038000
 80060c0:	3ff80000 	.word	0x3ff80000
 80060c4:	bff00000 	.word	0xbff00000
 80060c8:	08006478 	.word	0x08006478
 80060cc:	08006498 	.word	0x08006498

080060d0 <fabs>:
 80060d0:	f021 4300 	bic.w	r3, r1, #2147483648	@ 0x80000000
 80060d4:	4619      	mov	r1, r3
 80060d6:	4770      	bx	lr

080060d8 <__ieee754_sqrt>:
 80060d8:	4a67      	ldr	r2, [pc, #412]	@ (8006278 <__ieee754_sqrt+0x1a0>)
 80060da:	e92d 4ff8 	stmdb	sp!, {r3, r4, r5, r6, r7, r8, r9, sl, fp, lr}
 80060de:	438a      	bics	r2, r1
 80060e0:	4606      	mov	r6, r0
 80060e2:	460f      	mov	r7, r1
 80060e4:	460b      	mov	r3, r1
 80060e6:	4604      	mov	r4, r0
 80060e8:	d10e      	bne.n	8006108 <__ieee754_sqrt+0x30>
 80060ea:	4602      	mov	r2, r0
 80060ec:	f7fa f9ec 	bl	80004c8 <__aeabi_dmul>
 80060f0:	4602      	mov	r2, r0
 80060f2:	460b      	mov	r3, r1
 80060f4:	4630      	mov	r0, r6
 80060f6:	4639      	mov	r1, r7
 80060f8:	f7fa f830 	bl	800015c <__adddf3>
 80060fc:	4606      	mov	r6, r0
 80060fe:	460f      	mov	r7, r1
 8006100:	4630      	mov	r0, r6
 8006102:	4639      	mov	r1, r7
 8006104:	e8bd 8ff8 	ldmia.w	sp!, {r3, r4, r5, r6, r7, r8, r9, sl, fp, pc}
 8006108:	2900      	cmp	r1, #0
 800610a:	dc0c      	bgt.n	8006126 <__ieee754_sqrt+0x4e>
 800610c:	f021 4200 	bic.w	r2, r1, #2147483648	@ 0x80000000
 8006110:	4302      	orrs	r2, r0
 8006112:	d0f5      	beq.n	8006100 <__ieee754_sqrt+0x28>
 8006114:	b189      	cbz	r1, 800613a <__ieee754_sqrt+0x62>
 8006116:	4602      	mov	r2, r0
 8006118:	f7fa f81e 	bl	8000158 <__aeabi_dsub>
 800611c:	4602      	mov	r2, r0
 800611e:	460b      	mov	r3, r1
 8006120:	f7fa fafc 	bl	800071c <__aeabi_ddiv>
 8006124:	e7ea      	b.n	80060fc <__ieee754_sqrt+0x24>
 8006126:	150a      	asrs	r2, r1, #20
 8006128:	d115      	bne.n	8006156 <__ieee754_sqrt+0x7e>
 800612a:	2100      	movs	r1, #0
 800612c:	e009      	b.n	8006142 <__ieee754_sqrt+0x6a>
 800612e:	0ae3      	lsrs	r3, r4, #11
 8006130:	3a15      	subs	r2, #21
 8006132:	0564      	lsls	r4, r4, #21
 8006134:	2b00      	cmp	r3, #0
 8006136:	d0fa      	beq.n	800612e <__ieee754_sqrt+0x56>
 8006138:	e7f7      	b.n	800612a <__ieee754_sqrt+0x52>
 800613a:	460a      	mov	r2, r1
 800613c:	e7fa      	b.n	8006134 <__ieee754_sqrt+0x5c>
 800613e:	005b      	lsls	r3, r3, #1
 8006140:	3101      	adds	r1, #1
 8006142:	02d8      	lsls	r0, r3, #11
 8006144:	d5fb      	bpl.n	800613e <__ieee754_sqrt+0x66>
 8006146:	1e48      	subs	r0, r1, #1
 8006148:	1a12      	subs	r2, r2, r0
 800614a:	f1c1 0020 	rsb	r0, r1, #32
 800614e:	fa24 f000 	lsr.w	r0, r4, r0
 8006152:	4303      	orrs	r3, r0
 8006154:	408c      	lsls	r4, r1
 8006156:	2600      	movs	r6, #0
 8006158:	f2a2 37ff 	subw	r7, r2, #1023	@ 0x3ff
 800615c:	2116      	movs	r1, #22
 800615e:	07d2      	lsls	r2, r2, #31
 8006160:	f44f 1000 	mov.w	r0, #2097152	@ 0x200000
 8006164:	4632      	mov	r2, r6
 8006166:	f3c3 0313 	ubfx	r3, r3, #0, #20
 800616a:	f443 1380 	orr.w	r3, r3, #1048576	@ 0x100000
 800616e:	bf5c      	itt	pl
 8006170:	005b      	lslpl	r3, r3, #1
 8006172:	eb03 73d4 	addpl.w	r3, r3, r4, lsr #31
 8006176:	ea4f 0343 	mov.w	r3, r3, lsl #1
 800617a:	bf58      	it	pl
 800617c:	0064      	lslpl	r4, r4, #1
 800617e:	eb03 73d4 	add.w	r3, r3, r4, lsr #31
 8006182:	107f      	asrs	r7, r7, #1
 8006184:	0064      	lsls	r4, r4, #1
 8006186:	1815      	adds	r5, r2, r0
 8006188:	429d      	cmp	r5, r3
 800618a:	bfde      	ittt	le
 800618c:	182a      	addle	r2, r5, r0
 800618e:	1b5b      	suble	r3, r3, r5
 8006190:	1836      	addle	r6, r6, r0
 8006192:	0fe5      	lsrs	r5, r4, #31
 8006194:	3901      	subs	r1, #1
 8006196:	eb05 0343 	add.w	r3, r5, r3, lsl #1
 800619a:	ea4f 0444 	mov.w	r4, r4, lsl #1
 800619e:	ea4f 0050 	mov.w	r0, r0, lsr #1
 80061a2:	d1f0      	bne.n	8006186 <__ieee754_sqrt+0xae>
 80061a4:	460d      	mov	r5, r1
 80061a6:	f04f 0a20 	mov.w	sl, #32
 80061aa:	f04f 4000 	mov.w	r0, #2147483648	@ 0x80000000
 80061ae:	429a      	cmp	r2, r3
 80061b0:	eb01 0c00 	add.w	ip, r1, r0
 80061b4:	db02      	blt.n	80061bc <__ieee754_sqrt+0xe4>
 80061b6:	d113      	bne.n	80061e0 <__ieee754_sqrt+0x108>
 80061b8:	45a4      	cmp	ip, r4
 80061ba:	d811      	bhi.n	80061e0 <__ieee754_sqrt+0x108>
 80061bc:	f1bc 0f00 	cmp.w	ip, #0
 80061c0:	eb0c 0100 	add.w	r1, ip, r0
 80061c4:	da42      	bge.n	800624c <__ieee754_sqrt+0x174>
 80061c6:	2900      	cmp	r1, #0
 80061c8:	db40      	blt.n	800624c <__ieee754_sqrt+0x174>
 80061ca:	f102 0e01 	add.w	lr, r2, #1
 80061ce:	1a9b      	subs	r3, r3, r2
 80061d0:	4672      	mov	r2, lr
 80061d2:	45a4      	cmp	ip, r4
 80061d4:	bf88      	it	hi
 80061d6:	f103 33ff 	addhi.w	r3, r3, #4294967295
 80061da:	eba4 040c 	sub.w	r4, r4, ip
 80061de:	4405      	add	r5, r0
 80061e0:	ea4f 7cd4 	mov.w	ip, r4, lsr #31
 80061e4:	f1ba 0a01 	subs.w	sl, sl, #1
 80061e8:	eb0c 0343 	add.w	r3, ip, r3, lsl #1
 80061ec:	ea4f 0444 	mov.w	r4, r4, lsl #1
 80061f0:	ea4f 0050 	mov.w	r0, r0, lsr #1
 80061f4:	d1db      	bne.n	80061ae <__ieee754_sqrt+0xd6>
 80061f6:	431c      	orrs	r4, r3
 80061f8:	d01a      	beq.n	8006230 <__ieee754_sqrt+0x158>
 80061fa:	4c20      	ldr	r4, [pc, #128]	@ (800627c <__ieee754_sqrt+0x1a4>)
 80061fc:	f8df b080 	ldr.w	fp, [pc, #128]	@ 8006280 <__ieee754_sqrt+0x1a8>
 8006200:	e9d4 0100 	ldrd	r0, r1, [r4]
 8006204:	e9db 2300 	ldrd	r2, r3, [fp]
 8006208:	f7f9 ffa6 	bl	8000158 <__aeabi_dsub>
 800620c:	e9d4 8900 	ldrd	r8, r9, [r4]
 8006210:	4602      	mov	r2, r0
 8006212:	460b      	mov	r3, r1
 8006214:	4640      	mov	r0, r8
 8006216:	4649      	mov	r1, r9
 8006218:	f7fa fbd2 	bl	80009c0 <__aeabi_dcmple>
 800621c:	b140      	cbz	r0, 8006230 <__ieee754_sqrt+0x158>
 800621e:	e9d4 0100 	ldrd	r0, r1, [r4]
 8006222:	e9db 2300 	ldrd	r2, r3, [fp]
 8006226:	f1b5 3fff 	cmp.w	r5, #4294967295
 800622a:	d111      	bne.n	8006250 <__ieee754_sqrt+0x178>
 800622c:	4655      	mov	r5, sl
 800622e:	3601      	adds	r6, #1
 8006230:	1072      	asrs	r2, r6, #1
 8006232:	086b      	lsrs	r3, r5, #1
 8006234:	07f1      	lsls	r1, r6, #31
 8006236:	f102 527f 	add.w	r2, r2, #1069547520	@ 0x3fc00000
 800623a:	f502 1200 	add.w	r2, r2, #2097152	@ 0x200000
 800623e:	bf48      	it	mi
 8006240:	f043 4300 	orrmi.w	r3, r3, #2147483648	@ 0x80000000
 8006244:	4618      	mov	r0, r3
 8006246:	eb02 5107 	add.w	r1, r2, r7, lsl #20
 800624a:	e757      	b.n	80060fc <__ieee754_sqrt+0x24>
 800624c:	4696      	mov	lr, r2
 800624e:	e7be      	b.n	80061ce <__ieee754_sqrt+0xf6>
 8006250:	f7f9 ff84 	bl	800015c <__adddf3>
 8006254:	e9d4 8900 	ldrd	r8, r9, [r4]
 8006258:	4602      	mov	r2, r0
 800625a:	460b      	mov	r3, r1
 800625c:	4640      	mov	r0, r8
 800625e:	4649      	mov	r1, r9
 8006260:	f7fa fba4 	bl	80009ac <__aeabi_dcmplt>
 8006264:	b120      	cbz	r0, 8006270 <__ieee754_sqrt+0x198>
 8006266:	1ca8      	adds	r0, r5, #2
 8006268:	bf08      	it	eq
 800626a:	3601      	addeq	r6, #1
 800626c:	3502      	adds	r5, #2
 800626e:	e7df      	b.n	8006230 <__ieee754_sqrt+0x158>
 8006270:	1c6b      	adds	r3, r5, #1
 8006272:	f023 0501 	bic.w	r5, r3, #1
 8006276:	e7db      	b.n	8006230 <__ieee754_sqrt+0x158>
 8006278:	7ff00000 	.word	0x7ff00000
 800627c:	200000f8 	.word	0x200000f8
 8006280:	200000f0 	.word	0x200000f0
 8006284:	00000000 	.word	0x00000000

08006288 <__ieee754_atan2>:
 8006288:	e92d 4ff8 	stmdb	sp!, {r3, r4, r5, r6, r7, r8, r9, sl, fp, lr}
 800628c:	4617      	mov	r7, r2
 800628e:	4690      	mov	r8, r2
 8006290:	4699      	mov	r9, r3
 8006292:	f023 4200 	bic.w	r2, r3, #2147483648	@ 0x80000000
 8006296:	427b      	negs	r3, r7
 8006298:	f8df a184 	ldr.w	sl, [pc, #388]	@ 8006420 <__ieee754_atan2+0x198>
 800629c:	433b      	orrs	r3, r7
 800629e:	ea42 73d3 	orr.w	r3, r2, r3, lsr #31
 80062a2:	4553      	cmp	r3, sl
 80062a4:	4604      	mov	r4, r0
 80062a6:	460d      	mov	r5, r1
 80062a8:	d809      	bhi.n	80062be <__ieee754_atan2+0x36>
 80062aa:	4246      	negs	r6, r0
 80062ac:	f021 4300 	bic.w	r3, r1, #2147483648	@ 0x80000000
 80062b0:	4306      	orrs	r6, r0
 80062b2:	ea43 76d6 	orr.w	r6, r3, r6, lsr #31
 80062b6:	4556      	cmp	r6, sl
 80062b8:	468e      	mov	lr, r1
 80062ba:	4683      	mov	fp, r0
 80062bc:	d908      	bls.n	80062d0 <__ieee754_atan2+0x48>
 80062be:	4642      	mov	r2, r8
 80062c0:	464b      	mov	r3, r9
 80062c2:	4620      	mov	r0, r4
 80062c4:	4629      	mov	r1, r5
 80062c6:	f7f9 ff49 	bl	800015c <__adddf3>
 80062ca:	4604      	mov	r4, r0
 80062cc:	460d      	mov	r5, r1
 80062ce:	e016      	b.n	80062fe <__ieee754_atan2+0x76>
 80062d0:	f109 4640 	add.w	r6, r9, #3221225472	@ 0xc0000000
 80062d4:	f506 1680 	add.w	r6, r6, #1048576	@ 0x100000
 80062d8:	433e      	orrs	r6, r7
 80062da:	d103      	bne.n	80062e4 <__ieee754_atan2+0x5c>
 80062dc:	e8bd 4ff8 	ldmia.w	sp!, {r3, r4, r5, r6, r7, r8, r9, sl, fp, lr}
 80062e0:	f7ff bd66 	b.w	8005db0 <atan>
 80062e4:	ea4f 76a9 	mov.w	r6, r9, asr #30
 80062e8:	f006 0602 	and.w	r6, r6, #2
 80062ec:	ea53 0b0b 	orrs.w	fp, r3, fp
 80062f0:	ea46 76d1 	orr.w	r6, r6, r1, lsr #31
 80062f4:	d107      	bne.n	8006306 <__ieee754_atan2+0x7e>
 80062f6:	2e02      	cmp	r6, #2
 80062f8:	d064      	beq.n	80063c4 <__ieee754_atan2+0x13c>
 80062fa:	2e03      	cmp	r6, #3
 80062fc:	d066      	beq.n	80063cc <__ieee754_atan2+0x144>
 80062fe:	4620      	mov	r0, r4
 8006300:	4629      	mov	r1, r5
 8006302:	e8bd 8ff8 	ldmia.w	sp!, {r3, r4, r5, r6, r7, r8, r9, sl, fp, pc}
 8006306:	4317      	orrs	r7, r2
 8006308:	d106      	bne.n	8006318 <__ieee754_atan2+0x90>
 800630a:	f1be 0f00 	cmp.w	lr, #0
 800630e:	da68      	bge.n	80063e2 <__ieee754_atan2+0x15a>
 8006310:	a537      	add	r5, pc, #220	@ (adr r5, 80063f0 <__ieee754_atan2+0x168>)
 8006312:	e9d5 4500 	ldrd	r4, r5, [r5]
 8006316:	e7f2      	b.n	80062fe <__ieee754_atan2+0x76>
 8006318:	4552      	cmp	r2, sl
 800631a:	d10f      	bne.n	800633c <__ieee754_atan2+0xb4>
 800631c:	4293      	cmp	r3, r2
 800631e:	f106 36ff 	add.w	r6, r6, #4294967295
 8006322:	d107      	bne.n	8006334 <__ieee754_atan2+0xac>
 8006324:	2e02      	cmp	r6, #2
 8006326:	d855      	bhi.n	80063d4 <__ieee754_atan2+0x14c>
 8006328:	4b3e      	ldr	r3, [pc, #248]	@ (8006424 <__ieee754_atan2+0x19c>)
 800632a:	eb03 03c6 	add.w	r3, r3, r6, lsl #3
 800632e:	e9d3 4500 	ldrd	r4, r5, [r3]
 8006332:	e7e4      	b.n	80062fe <__ieee754_atan2+0x76>
 8006334:	2e02      	cmp	r6, #2
 8006336:	d851      	bhi.n	80063dc <__ieee754_atan2+0x154>
 8006338:	4b3b      	ldr	r3, [pc, #236]	@ (8006428 <__ieee754_atan2+0x1a0>)
 800633a:	e7f6      	b.n	800632a <__ieee754_atan2+0xa2>
 800633c:	4553      	cmp	r3, sl
 800633e:	d0e4      	beq.n	800630a <__ieee754_atan2+0x82>
 8006340:	1a9b      	subs	r3, r3, r2
 8006342:	f1b3 7f74 	cmp.w	r3, #63963136	@ 0x3d00000
 8006346:	ea4f 5223 	mov.w	r2, r3, asr #20
 800634a:	da21      	bge.n	8006390 <__ieee754_atan2+0x108>
 800634c:	f1b9 0f00 	cmp.w	r9, #0
 8006350:	da01      	bge.n	8006356 <__ieee754_atan2+0xce>
 8006352:	323c      	adds	r2, #60	@ 0x3c
 8006354:	db20      	blt.n	8006398 <__ieee754_atan2+0x110>
 8006356:	4642      	mov	r2, r8
 8006358:	464b      	mov	r3, r9
 800635a:	4620      	mov	r0, r4
 800635c:	4629      	mov	r1, r5
 800635e:	f7fa f9dd 	bl	800071c <__aeabi_ddiv>
 8006362:	f7ff feb5 	bl	80060d0 <fabs>
 8006366:	f7ff fd23 	bl	8005db0 <atan>
 800636a:	4604      	mov	r4, r0
 800636c:	460d      	mov	r5, r1
 800636e:	2e01      	cmp	r6, #1
 8006370:	d015      	beq.n	800639e <__ieee754_atan2+0x116>
 8006372:	2e02      	cmp	r6, #2
 8006374:	d017      	beq.n	80063a6 <__ieee754_atan2+0x11e>
 8006376:	2e00      	cmp	r6, #0
 8006378:	d0c1      	beq.n	80062fe <__ieee754_atan2+0x76>
 800637a:	a31f      	add	r3, pc, #124	@ (adr r3, 80063f8 <__ieee754_atan2+0x170>)
 800637c:	e9d3 2300 	ldrd	r2, r3, [r3]
 8006380:	4620      	mov	r0, r4
 8006382:	4629      	mov	r1, r5
 8006384:	f7f9 fee8 	bl	8000158 <__aeabi_dsub>
 8006388:	a31d      	add	r3, pc, #116	@ (adr r3, 8006400 <__ieee754_atan2+0x178>)
 800638a:	e9d3 2300 	ldrd	r2, r3, [r3]
 800638e:	e016      	b.n	80063be <__ieee754_atan2+0x136>
 8006390:	a51d      	add	r5, pc, #116	@ (adr r5, 8006408 <__ieee754_atan2+0x180>)
 8006392:	e9d5 4500 	ldrd	r4, r5, [r5]
 8006396:	e7ea      	b.n	800636e <__ieee754_atan2+0xe6>
 8006398:	2400      	movs	r4, #0
 800639a:	2500      	movs	r5, #0
 800639c:	e7e7      	b.n	800636e <__ieee754_atan2+0xe6>
 800639e:	f105 4300 	add.w	r3, r5, #2147483648	@ 0x80000000
 80063a2:	461d      	mov	r5, r3
 80063a4:	e7ab      	b.n	80062fe <__ieee754_atan2+0x76>
 80063a6:	a314      	add	r3, pc, #80	@ (adr r3, 80063f8 <__ieee754_atan2+0x170>)
 80063a8:	e9d3 2300 	ldrd	r2, r3, [r3]
 80063ac:	4620      	mov	r0, r4
 80063ae:	4629      	mov	r1, r5
 80063b0:	f7f9 fed2 	bl	8000158 <__aeabi_dsub>
 80063b4:	4602      	mov	r2, r0
 80063b6:	460b      	mov	r3, r1
 80063b8:	a111      	add	r1, pc, #68	@ (adr r1, 8006400 <__ieee754_atan2+0x178>)
 80063ba:	e9d1 0100 	ldrd	r0, r1, [r1]
 80063be:	f7f9 fecb 	bl	8000158 <__aeabi_dsub>
 80063c2:	e782      	b.n	80062ca <__ieee754_atan2+0x42>
 80063c4:	a50e      	add	r5, pc, #56	@ (adr r5, 8006400 <__ieee754_atan2+0x178>)
 80063c6:	e9d5 4500 	ldrd	r4, r5, [r5]
 80063ca:	e798      	b.n	80062fe <__ieee754_atan2+0x76>
 80063cc:	a510      	add	r5, pc, #64	@ (adr r5, 8006410 <__ieee754_atan2+0x188>)
 80063ce:	e9d5 4500 	ldrd	r4, r5, [r5]
 80063d2:	e794      	b.n	80062fe <__ieee754_atan2+0x76>
 80063d4:	a510      	add	r5, pc, #64	@ (adr r5, 8006418 <__ieee754_atan2+0x190>)
 80063d6:	e9d5 4500 	ldrd	r4, r5, [r5]
 80063da:	e790      	b.n	80062fe <__ieee754_atan2+0x76>
 80063dc:	2400      	movs	r4, #0
 80063de:	2500      	movs	r5, #0
 80063e0:	e78d      	b.n	80062fe <__ieee754_atan2+0x76>
 80063e2:	a509      	add	r5, pc, #36	@ (adr r5, 8006408 <__ieee754_atan2+0x180>)
 80063e4:	e9d5 4500 	ldrd	r4, r5, [r5]
 80063e8:	e789      	b.n	80062fe <__ieee754_atan2+0x76>
 80063ea:	bf00      	nop
 80063ec:	f3af 8000 	nop.w
 80063f0:	54442d18 	.word	0x54442d18
 80063f4:	bff921fb 	.word	0xbff921fb
 80063f8:	33145c07 	.word	0x33145c07
 80063fc:	3ca1a626 	.word	0x3ca1a626
 8006400:	54442d18 	.word	0x54442d18
 8006404:	400921fb 	.word	0x400921fb
 8006408:	54442d18 	.word	0x54442d18
 800640c:	3ff921fb 	.word	0x3ff921fb
 8006410:	54442d18 	.word	0x54442d18
 8006414:	c00921fb 	.word	0xc00921fb
 8006418:	54442d18 	.word	0x54442d18
 800641c:	3fe921fb 	.word	0x3fe921fb
 8006420:	7ff00000 	.word	0x7ff00000
 8006424:	080064d0 	.word	0x080064d0
 8006428:	080064b8 	.word	0x080064b8

0800642c <_init>:
 800642c:	b5f8      	push	{r3, r4, r5, r6, r7, lr}
 800642e:	bf00      	nop
 8006430:	bcf8      	pop	{r3, r4, r5, r6, r7}
 8006432:	bc08      	pop	{r3}
 8006434:	469e      	mov	lr, r3
 8006436:	4770      	bx	lr

08006438 <_fini>:
 8006438:	b5f8      	push	{r3, r4, r5, r6, r7, lr}
 800643a:	bf00      	nop
 800643c:	bcf8      	pop	{r3, r4, r5, r6, r7}
 800643e:	bc08      	pop	{r3}
 8006440:	469e      	mov	lr, r3
 8006442:	4770      	bx	lr
